; ModuleID = '/home/sreeram/Dev/mastersthesis/userspace_implementation/MemoryCheck/src/Benchmark/dining_phil_prob.cpp'
source_filename = "/home/sreeram/Dev/mastersthesis/userspace_implementation/MemoryCheck/src/Benchmark/dining_phil_prob.cpp"
target datalayout = "e-m:e-i64:64-f80:128-n8:16:32:64-S128"
target triple = "x86_64-pc-linux-gnu"

%"class.std::ios_base::Init" = type { i8 }
%"struct.boost::none_t" = type { i8 }
%"class.boost::detail::make_property_map_from_arg_pack_gen" = type { i32 }
%"class.std::basic_ostream" = type { i32 (...)**, %"class.std::basic_ios" }
%"class.std::basic_ios" = type { %"class.std::ios_base", %"class.std::basic_ostream"*, i8, i8, %"class.std::basic_streambuf"*, %"class.std::ctype"*, %"class.std::num_put"*, %"class.std::num_get"* }
%"class.std::ios_base" = type { i32 (...)**, i64, i64, i32, i32, i32, %"struct.std::ios_base::_Callback_list"*, %"struct.std::ios_base::_Words", [8 x %"struct.std::ios_base::_Words"], i32, %"struct.std::ios_base::_Words"*, %"class.std::locale" }
%"struct.std::ios_base::_Callback_list" = type { %"struct.std::ios_base::_Callback_list"*, void (i32, %"class.std::ios_base"*, i32)*, i32, i32 }
%"struct.std::ios_base::_Words" = type { i8*, i64 }
%"class.std::locale" = type { %"class.std::locale::_Impl"* }
%"class.std::locale::_Impl" = type { i32, %"class.std::locale::facet"**, i64, %"class.std::locale::facet"**, i8** }
%"class.std::locale::facet" = type <{ i32 (...)**, i32, [4 x i8] }>
%"class.std::basic_streambuf" = type { i32 (...)**, i8*, i8*, i8*, i8*, i8*, i8*, %"class.std::locale" }
%"class.std::ctype" = type <{ %"class.std::locale::facet.base", [4 x i8], %struct.__locale_struct*, i8, [7 x i8], i32*, i32*, i16*, i8, [256 x i8], [256 x i8], i8, [6 x i8] }>
%"class.std::locale::facet.base" = type <{ i32 (...)**, i32 }>
%struct.__locale_struct = type { [13 x %struct.__locale_data*], i16*, i32*, i32*, [13 x i8*] }
%struct.__locale_data = type opaque
%"class.std::num_put" = type { %"class.std::locale::facet.base", [4 x i8] }
%"class.std::num_get" = type { %"class.std::locale::facet.base", [4 x i8] }
%"struct.boost::none_t::init_tag" = type { i8 }
%"class.dining_phil_prob::Philosopher" = type { %class.IrsThread }
%class.IrsThread = type <{ %"class.std::thread", i32, [4 x i8] }>
%"class.std::thread" = type { %"class.std::thread::id" }
%"class.std::thread::id" = type { i64 }
%"struct.std::chrono::time_point" = type { %"struct.std::chrono::duration" }
%"struct.std::chrono::duration" = type { i64 }
%"class.std::vector" = type { %"struct.std::_Vector_base" }
%"struct.std::_Vector_base" = type { %"struct.std::_Vector_base<dining_phil_prob::Philosopher *, std::allocator<dining_phil_prob::Philosopher *> >::_Vector_impl" }
%"struct.std::_Vector_base<dining_phil_prob::Philosopher *, std::allocator<dining_phil_prob::Philosopher *> >::_Vector_impl" = type { %"class.dining_phil_prob::Philosopher"**, %"class.dining_phil_prob::Philosopher"**, %"class.dining_phil_prob::Philosopher"** }
%"class.__gnu_cxx::__normal_iterator" = type { %"class.dining_phil_prob::Philosopher"** }
%"struct.std::chrono::duration.0" = type { i64 }
%"class.std::allocator" = type { i8 }
%"class.std::unique_ptr" = type { %"class.std::tuple" }
%"class.std::tuple" = type { %"struct.std::_Tuple_impl" }
%"struct.std::_Tuple_impl" = type { %"struct.std::_Head_base.2" }
%"struct.std::_Head_base.2" = type { %"struct.std::thread::_State"* }
%"struct.std::thread::_State" = type { i32 (...)** }
%"struct.std::_Bind_simple" = type { %"class.std::tuple.3" }
%"class.std::tuple.3" = type { %"struct.std::_Tuple_impl.4" }
%"struct.std::_Tuple_impl.4" = type { %"struct.std::_Tuple_impl.5", %"struct.std::_Head_base.7" }
%"struct.std::_Tuple_impl.5" = type { %"struct.std::_Head_base.6" }
%"struct.std::_Head_base.6" = type { %"class.dining_phil_prob::Philosopher"* }
%"struct.std::_Head_base.7" = type { %"struct.std::_Mem_fn" }
%"struct.std::_Mem_fn" = type { %"class.std::_Mem_fn_base" }
%"class.std::_Mem_fn_base" = type { { i64, i64 } }
%union.pthread_attr_t = type { i64, [48 x i8] }
%"struct.std::thread::_State_impl" = type { %"struct.std::thread::_State", %"struct.std::_Bind_simple" }
%"struct.std::default_delete" = type { i8 }
%"struct.std::_Index_tuple" = type { i8 }
%"struct.std::__invoke_memfun_deref" = type { i8 }
%"struct.std::_Tuple_impl.1" = type { i8 }
%"struct.std::_Head_base" = type { i8 }
%"struct.std::_Maybe_unary_or_binary_function" = type { i8 }
%"class.__gnu_cxx::new_allocator" = type { i8 }
%"class.std::move_iterator" = type { %"class.dining_phil_prob::Philosopher"** }

$_ZN5boost6none_tC2ENS0_8init_tagE = comdat any

$_ZN5boost6detail35make_property_map_from_arg_pack_genINS_5graph8keywords3tag9color_mapENS_18default_color_typeEEC2ES6_ = comdat any

$_ZN16dining_phil_prob11Philosopher11getThreadIdEv = comdat any

$_ZNK9IrsThread6getTidEv = comdat any

$_ZNSt6vectorIPN16dining_phil_prob11PhilosopherESaIS2_EEC2Ev = comdat any

$_ZNSt6vectorIPN16dining_phil_prob11PhilosopherESaIS2_EE12emplace_backIJS2_EEEvDpOT_ = comdat any

$_ZN16dining_phil_prob11PhilosopherC2Ei = comdat any

$_ZNSt6vectorIPN16dining_phil_prob11PhilosopherESaIS2_EE5beginEv = comdat any

$_ZNSt6vectorIPN16dining_phil_prob11PhilosopherESaIS2_EE3endEv = comdat any

$_ZN9__gnu_cxxneIPPN16dining_phil_prob11PhilosopherESt6vectorIS3_SaIS3_EEEEbRKNS_17__normal_iteratorIT_T0_EESD_ = comdat any

$_ZNK9__gnu_cxx17__normal_iteratorIPPN16dining_phil_prob11PhilosopherESt6vectorIS3_SaIS3_EEEdeEv = comdat any

$_ZN16dining_phil_prob11Philosopher5startEv = comdat any

$_ZN9__gnu_cxx17__normal_iteratorIPPN16dining_phil_prob11PhilosopherESt6vectorIS3_SaIS3_EEEppEv = comdat any

$_ZN16dining_phil_prob11Philosopher4joinEv = comdat any

$_ZNSt6chrono13duration_castINS_8durationIlSt5ratioILl1ELl1000000EEEElS2_ILl1ELl1000000000EEEENSt9enable_ifIXsr13__is_durationIT_EE5valueES7_E4typeERKNS1_IT0_T1_EE = comdat any

$_ZNSt6chronomiINS_3_V212system_clockENS_8durationIlSt5ratioILl1ELl1000000000EEEES6_EENSt11common_typeIJT0_T1_EE4typeERKNS_10time_pointIT_S8_EERKNSC_ISD_S9_EE = comdat any

$_ZNKSt6chrono8durationIlSt5ratioILl1ELl1000000EEE5countEv = comdat any

$_ZN16dining_phil_prob11PhilosopherD2Ev = comdat any

$_ZNSt6vectorIPN16dining_phil_prob11PhilosopherESaIS2_EED2Ev = comdat any

$_ZN9IrsThreadC2Ei = comdat any

$_ZNSt6threadC2Ev = comdat any

$_ZNSt6thread2idC2Ev = comdat any

$_ZN9IrsThreadclIJMN16dining_phil_prob11PhilosopherEFvvEPS2_EEEvDpOT_ = comdat any

$_ZN16dining_phil_prob11Philosopher4execEv = comdat any

$_ZNSt6threadaSEOS_ = comdat any

$_ZSt7forwardIMN16dining_phil_prob11PhilosopherEFvvEEOT_RNSt16remove_referenceIS4_E4typeE = comdat any

$_ZSt7forwardIPN16dining_phil_prob11PhilosopherEEOT_RNSt16remove_referenceIS3_E4typeE = comdat any

$_ZNSt6threadC2IMN16dining_phil_prob11PhilosopherEFvvEJPS2_EEEOT_DpOT0_ = comdat any

$_ZNSt6threadD2Ev = comdat any

$_ZNKSt6thread8joinableEv = comdat any

$_ZNSt6thread4swapERS_ = comdat any

$_ZSteqNSt6thread2idES0_ = comdat any

$_ZSt4swapINSt6thread2idEENSt9enable_ifIXsr6__and_ISt21is_move_constructibleIT_ESt18is_move_assignableIS4_EEE5valueEvE4typeERS4_SA_ = comdat any

$_ZSt4moveIRNSt6thread2idEEONSt16remove_referenceIT_E4typeEOS4_ = comdat any

$_ZNSt6thread13_S_make_stateISt12_Bind_simpleIFSt7_Mem_fnIMN16dining_phil_prob11PhilosopherEFvvEEPS4_EEEESt10unique_ptrINS_6_StateESt14default_deleteISC_EEOT_ = comdat any

$_ZSt13__bind_simpleIMN16dining_phil_prob11PhilosopherEFvvEJPS1_EENSt19_Bind_simple_helperIT_JDpT0_EE6__typeEOS6_DpOS7_ = comdat any

$_ZNSt10unique_ptrINSt6thread6_StateESt14default_deleteIS1_EED2Ev = comdat any

$_ZSt7forwardISt12_Bind_simpleIFSt7_Mem_fnIMN16dining_phil_prob11PhilosopherEFvvEEPS3_EEEOT_RNSt16remove_referenceISA_E4typeE = comdat any

$_ZNSt6thread11_State_implISt12_Bind_simpleIFSt7_Mem_fnIMN16dining_phil_prob11PhilosopherEFvvEEPS4_EEEC2EOSA_ = comdat any

$_ZNSt10unique_ptrINSt6thread6_StateESt14default_deleteIS1_EEC2EPS1_ = comdat any

$_ZNSt6thread6_StateC2Ev = comdat any

$_ZNSt12_Bind_simpleIFSt7_Mem_fnIMN16dining_phil_prob11PhilosopherEFvvEEPS2_EEC2EOS8_ = comdat any

$_ZNSt6thread11_State_implISt12_Bind_simpleIFSt7_Mem_fnIMN16dining_phil_prob11PhilosopherEFvvEEPS4_EEED2Ev = comdat any

$_ZNSt6thread11_State_implISt12_Bind_simpleIFSt7_Mem_fnIMN16dining_phil_prob11PhilosopherEFvvEEPS4_EEED0Ev = comdat any

$_ZNSt6thread11_State_implISt12_Bind_simpleIFSt7_Mem_fnIMN16dining_phil_prob11PhilosopherEFvvEEPS4_EEE6_M_runEv = comdat any

$_ZNSt5tupleIJSt7_Mem_fnIMN16dining_phil_prob11PhilosopherEFvvEEPS2_EEC2EOS7_ = comdat any

$_ZNSt11_Tuple_implILm0EJSt7_Mem_fnIMN16dining_phil_prob11PhilosopherEFvvEEPS2_EEC2EOS7_ = comdat any

$_ZSt4moveIRSt11_Tuple_implILm1EJPN16dining_phil_prob11PhilosopherEEEEONSt16remove_referenceIT_E4typeEOS7_ = comdat any

$_ZNSt11_Tuple_implILm0EJSt7_Mem_fnIMN16dining_phil_prob11PhilosopherEFvvEEPS2_EE7_M_tailERS7_ = comdat any

$_ZNSt11_Tuple_implILm1EJPN16dining_phil_prob11PhilosopherEEEC2EOS3_ = comdat any

$_ZSt7forwardISt7_Mem_fnIMN16dining_phil_prob11PhilosopherEFvvEEEOT_RNSt16remove_referenceIS6_E4typeE = comdat any

$_ZNSt11_Tuple_implILm0EJSt7_Mem_fnIMN16dining_phil_prob11PhilosopherEFvvEEPS2_EE7_M_headERS7_ = comdat any

$_ZNSt10_Head_baseILm0ESt7_Mem_fnIMN16dining_phil_prob11PhilosopherEFvvEELb0EEC2IS5_EEOT_ = comdat any

$__clang_call_terminate = comdat any

$_ZNSt11_Tuple_implILm1EJPN16dining_phil_prob11PhilosopherEEE7_M_headERS3_ = comdat any

$_ZNSt10_Head_baseILm1EPN16dining_phil_prob11PhilosopherELb0EEC2IS2_EEOT_ = comdat any

$_ZNSt10_Head_baseILm1EPN16dining_phil_prob11PhilosopherELb0EE7_M_headERS3_ = comdat any

$_ZNSt10_Head_baseILm0ESt7_Mem_fnIMN16dining_phil_prob11PhilosopherEFvvEELb0EE7_M_headERS6_ = comdat any

$_ZNSt12_Bind_simpleIFSt7_Mem_fnIMN16dining_phil_prob11PhilosopherEFvvEEPS2_EEclEv = comdat any

$_ZNSt12_Bind_simpleIFSt7_Mem_fnIMN16dining_phil_prob11PhilosopherEFvvEEPS2_EE9_M_invokeIJLm0EEEEvSt12_Index_tupleIJXspT_EEE = comdat any

$_ZSt3getILm0EJSt7_Mem_fnIMN16dining_phil_prob11PhilosopherEFvvEEPS2_EERNSt13tuple_elementIXT_ESt5tupleIJDpT0_EEE4typeERSB_ = comdat any

$_ZNKSt12_Mem_fn_baseIMN16dining_phil_prob11PhilosopherEFvvELb1EEclIJPS1_EEEDTclsr3stdE8__invokedtdefpT6_M_pmfspclsr3stdE7forwardIT_Efp_EEEDpOS7_ = comdat any

$_ZSt3getILm1EJSt7_Mem_fnIMN16dining_phil_prob11PhilosopherEFvvEEPS2_EERNSt13tuple_elementIXT_ESt5tupleIJDpT0_EEE4typeERSB_ = comdat any

$_ZSt12__get_helperILm0ESt7_Mem_fnIMN16dining_phil_prob11PhilosopherEFvvEEJPS2_EERT0_RSt11_Tuple_implIXT_EJS7_DpT1_EE = comdat any

$_ZSt8__invokeIRKMN16dining_phil_prob11PhilosopherEFvvEJPS1_EENSt9result_ofIFOT_DpOT0_EE4typeES9_SC_ = comdat any

$_ZSt13__invoke_implIvRKMN16dining_phil_prob11PhilosopherEFvvEPS1_JEET_St21__invoke_memfun_derefOT0_OT1_DpOT2_ = comdat any

$_ZSt7forwardIRKMN16dining_phil_prob11PhilosopherEFvvEEOT_RNSt16remove_referenceIS6_E4typeE = comdat any

$_ZSt12__get_helperILm1EPN16dining_phil_prob11PhilosopherEJEERT0_RSt11_Tuple_implIXT_EJS3_DpT1_EE = comdat any

$_ZNSt5tupleIJPNSt6thread6_StateESt14default_deleteIS1_EEEC2IRS2_S4_Lb1EEEOT_OT0_ = comdat any

$_ZSt7forwardIRPNSt6thread6_StateEEOT_RNSt16remove_referenceIS4_E4typeE = comdat any

$_ZSt7forwardISt14default_deleteINSt6thread6_StateEEEOT_RNSt16remove_referenceIS4_E4typeE = comdat any

$_ZNSt11_Tuple_implILm0EJPNSt6thread6_StateESt14default_deleteIS1_EEEC2IRS2_JS4_EvEEOT_DpOT0_ = comdat any

$_ZNSt11_Tuple_implILm1EJSt14default_deleteINSt6thread6_StateEEEEC2IS3_EEOT_ = comdat any

$_ZNSt10_Head_baseILm0EPNSt6thread6_StateELb0EEC2IRS2_EEOT_ = comdat any

$_ZNSt10_Head_baseILm1ESt14default_deleteINSt6thread6_StateEELb1EEC2IS3_EEOT_ = comdat any

$_ZNSt26_Maybe_wrap_member_pointerIMN16dining_phil_prob11PhilosopherEFvvEE9__do_wrapES3_ = comdat any

$_ZNSt12_Bind_simpleIFSt7_Mem_fnIMN16dining_phil_prob11PhilosopherEFvvEEPS2_EEC2IS5_JS6_EEEOT_DpOT0_ = comdat any

$_ZNSt7_Mem_fnIMN16dining_phil_prob11PhilosopherEFvvEECI2St12_Mem_fn_baseIS3_Lb1EEES3_ = comdat any

$_ZNSt12_Mem_fn_baseIMN16dining_phil_prob11PhilosopherEFvvELb1EEC2ES3_ = comdat any

$_ZNSt5tupleIJSt7_Mem_fnIMN16dining_phil_prob11PhilosopherEFvvEEPS2_EEC2IS5_S6_Lb1EEEOT_OT0_ = comdat any

$_ZNSt11_Tuple_implILm0EJSt7_Mem_fnIMN16dining_phil_prob11PhilosopherEFvvEEPS2_EEC2IS5_JS6_EvEEOT_DpOT0_ = comdat any

$_ZNSt11_Tuple_implILm1EJPN16dining_phil_prob11PhilosopherEEEC2IS2_EEOT_ = comdat any

$_ZSt3getILm0EJPNSt6thread6_StateESt14default_deleteIS1_EEERNSt13tuple_elementIXT_ESt5tupleIJDpT0_EEE4typeERS9_ = comdat any

$_ZNSt10unique_ptrINSt6thread6_StateESt14default_deleteIS1_EE11get_deleterEv = comdat any

$_ZNKSt14default_deleteINSt6thread6_StateEEclEPS1_ = comdat any

$_ZSt12__get_helperILm0EPNSt6thread6_StateEJSt14default_deleteIS1_EEERT0_RSt11_Tuple_implIXT_EJS5_DpT1_EE = comdat any

$_ZNSt11_Tuple_implILm0EJPNSt6thread6_StateESt14default_deleteIS1_EEE7_M_headERS5_ = comdat any

$_ZNSt10_Head_baseILm0EPNSt6thread6_StateELb0EE7_M_headERS3_ = comdat any

$_ZSt3getILm1EJPNSt6thread6_StateESt14default_deleteIS1_EEERNSt13tuple_elementIXT_ESt5tupleIJDpT0_EEE4typeERS9_ = comdat any

$_ZSt12__get_helperILm1ESt14default_deleteINSt6thread6_StateEEJEERT0_RSt11_Tuple_implIXT_EJS4_DpT1_EE = comdat any

$_ZNSt11_Tuple_implILm1EJSt14default_deleteINSt6thread6_StateEEEE7_M_headERS4_ = comdat any

$_ZNSt10_Head_baseILm1ESt14default_deleteINSt6thread6_StateEELb1EE7_M_headERS4_ = comdat any

$_ZN9IrsThread4joinEv = comdat any

$_ZNSt6chrono20__duration_cast_implINS_8durationIlSt5ratioILl1ELl1000000EEEES2_ILl1ELl1000EElLb1ELb0EE6__castIlS2_ILl1ELl1000000000EEEES4_RKNS1_IT_T0_EE = comdat any

$_ZNKSt6chrono8durationIlSt5ratioILl1ELl1000000000EEE5countEv = comdat any

$_ZNSt6chrono8durationIlSt5ratioILl1ELl1000000EEEC2IlvEERKT_ = comdat any

$_ZNSt6chronomiIlSt5ratioILl1ELl1000000000EElS2_EENSt11common_typeIJNS_8durationIT_T0_EENS4_IT1_T2_EEEE4typeERKS7_RKSA_ = comdat any

$_ZNKSt6chrono10time_pointINS_3_V212system_clockENS_8durationIlSt5ratioILl1ELl1000000000EEEEE16time_since_epochEv = comdat any

$_ZNSt6chrono8durationIlSt5ratioILl1ELl1000000000EEEC2IlvEERKT_ = comdat any

$_ZN9IrsThreadD2Ev = comdat any

$_ZNSt12_Vector_baseIPN16dining_phil_prob11PhilosopherESaIS2_EEC2Ev = comdat any

$_ZNSt12_Vector_baseIPN16dining_phil_prob11PhilosopherESaIS2_EE12_Vector_implC2Ev = comdat any

$_ZNSaIPN16dining_phil_prob11PhilosopherEEC2Ev = comdat any

$_ZN9__gnu_cxx13new_allocatorIPN16dining_phil_prob11PhilosopherEEC2Ev = comdat any

$_ZSt8_DestroyIPPN16dining_phil_prob11PhilosopherES2_EvT_S4_RSaIT0_E = comdat any

$_ZNSt12_Vector_baseIPN16dining_phil_prob11PhilosopherESaIS2_EE19_M_get_Tp_allocatorEv = comdat any

$_ZNSt12_Vector_baseIPN16dining_phil_prob11PhilosopherESaIS2_EED2Ev = comdat any

$_ZSt8_DestroyIPPN16dining_phil_prob11PhilosopherEEvT_S4_ = comdat any

$_ZNSt12_Destroy_auxILb1EE9__destroyIPPN16dining_phil_prob11PhilosopherEEEvT_S6_ = comdat any

$_ZNSt12_Vector_baseIPN16dining_phil_prob11PhilosopherESaIS2_EE13_M_deallocateEPS2_m = comdat any

$_ZNSt12_Vector_baseIPN16dining_phil_prob11PhilosopherESaIS2_EE12_Vector_implD2Ev = comdat any

$_ZNSt16allocator_traitsISaIPN16dining_phil_prob11PhilosopherEEE10deallocateERS3_PS2_m = comdat any

$_ZN9__gnu_cxx13new_allocatorIPN16dining_phil_prob11PhilosopherEE10deallocateEPS3_m = comdat any

$_ZNSaIPN16dining_phil_prob11PhilosopherEED2Ev = comdat any

$_ZN9__gnu_cxx13new_allocatorIPN16dining_phil_prob11PhilosopherEED2Ev = comdat any

$_ZNSt16allocator_traitsISaIPN16dining_phil_prob11PhilosopherEEE9constructIS2_JS2_EEEvRS3_PT_DpOT0_ = comdat any

$_ZNSt6vectorIPN16dining_phil_prob11PhilosopherESaIS2_EE19_M_emplace_back_auxIJS2_EEEvDpOT_ = comdat any

$_ZN9__gnu_cxx13new_allocatorIPN16dining_phil_prob11PhilosopherEE9constructIS3_JS3_EEEvPT_DpOT0_ = comdat any

$_ZNKSt6vectorIPN16dining_phil_prob11PhilosopherESaIS2_EE12_M_check_lenEmPKc = comdat any

$_ZNSt12_Vector_baseIPN16dining_phil_prob11PhilosopherESaIS2_EE11_M_allocateEm = comdat any

$_ZNKSt6vectorIPN16dining_phil_prob11PhilosopherESaIS2_EE4sizeEv = comdat any

$_ZSt34__uninitialized_move_if_noexcept_aIPPN16dining_phil_prob11PhilosopherES3_SaIS2_EET0_T_S6_S5_RT1_ = comdat any

$_ZNSt16allocator_traitsISaIPN16dining_phil_prob11PhilosopherEEE7destroyIS2_EEvRS3_PT_ = comdat any

$_ZNKSt6vectorIPN16dining_phil_prob11PhilosopherESaIS2_EE8max_sizeEv = comdat any

$_ZSt3maxImERKT_S2_S2_ = comdat any

$_ZNSt16allocator_traitsISaIPN16dining_phil_prob11PhilosopherEEE8max_sizeERKS3_ = comdat any

$_ZNKSt12_Vector_baseIPN16dining_phil_prob11PhilosopherESaIS2_EE19_M_get_Tp_allocatorEv = comdat any

$_ZNK9__gnu_cxx13new_allocatorIPN16dining_phil_prob11PhilosopherEE8max_sizeEv = comdat any

$_ZNSt16allocator_traitsISaIPN16dining_phil_prob11PhilosopherEEE8allocateERS3_m = comdat any

$_ZN9__gnu_cxx13new_allocatorIPN16dining_phil_prob11PhilosopherEE8allocateEmPKv = comdat any

$_ZSt22__uninitialized_copy_aISt13move_iteratorIPPN16dining_phil_prob11PhilosopherEES4_S3_ET0_T_S7_S6_RSaIT1_E = comdat any

$_ZSt32__make_move_if_noexcept_iteratorIPN16dining_phil_prob11PhilosopherESt13move_iteratorIPS2_EET0_PT_ = comdat any

$_ZSt18uninitialized_copyISt13move_iteratorIPPN16dining_phil_prob11PhilosopherEES4_ET0_T_S7_S6_ = comdat any

$_ZNSt20__uninitialized_copyILb1EE13__uninit_copyISt13move_iteratorIPPN16dining_phil_prob11PhilosopherEES6_EET0_T_S9_S8_ = comdat any

$_ZSt4copyISt13move_iteratorIPPN16dining_phil_prob11PhilosopherEES4_ET0_T_S7_S6_ = comdat any

$_ZSt14__copy_move_a2ILb1EPPN16dining_phil_prob11PhilosopherES3_ET1_T0_S5_S4_ = comdat any

$_ZSt12__miter_baseIPPN16dining_phil_prob11PhilosopherEEDTcl12__miter_basecldtfp_4baseEEESt13move_iteratorIT_E = comdat any

$_ZSt13__copy_move_aILb1EPPN16dining_phil_prob11PhilosopherES3_ET1_T0_S5_S4_ = comdat any

$_ZSt12__niter_baseIPPN16dining_phil_prob11PhilosopherEET_S4_ = comdat any

$_ZNSt11__copy_moveILb1ELb1ESt26random_access_iterator_tagE8__copy_mIPN16dining_phil_prob11PhilosopherEEEPT_PKS6_S9_S7_ = comdat any

$_ZSt12__miter_baseIPPN16dining_phil_prob11PhilosopherEET_S4_ = comdat any

$_ZNKSt13move_iteratorIPPN16dining_phil_prob11PhilosopherEE4baseEv = comdat any

$_ZNSt13move_iteratorIPPN16dining_phil_prob11PhilosopherEEC2ES3_ = comdat any

$_ZN9__gnu_cxx13new_allocatorIPN16dining_phil_prob11PhilosopherEE7destroyIS3_EEvPT_ = comdat any

$_ZN9__gnu_cxx17__normal_iteratorIPPN16dining_phil_prob11PhilosopherESt6vectorIS3_SaIS3_EEEC2ERKS4_ = comdat any

$_ZNK9__gnu_cxx17__normal_iteratorIPPN16dining_phil_prob11PhilosopherESt6vectorIS3_SaIS3_EEE4baseEv = comdat any

$_ZTVNSt6thread11_State_implISt12_Bind_simpleIFSt7_Mem_fnIMN16dining_phil_prob11PhilosopherEFvvEEPS4_EEEE = comdat any

$_ZTSNSt6thread11_State_implISt12_Bind_simpleIFSt7_Mem_fnIMN16dining_phil_prob11PhilosopherEFvvEEPS4_EEEE = comdat any

$_ZTINSt6thread11_State_implISt12_Bind_simpleIFSt7_Mem_fnIMN16dining_phil_prob11PhilosopherEFvvEEPS4_EEEE = comdat any

@_ZStL8__ioinit = internal global %"class.std::ios_base::Init" zeroinitializer, align 1
@__dso_handle = external global i8
@_ZN5boostL4noneE = internal global %"struct.boost::none_t" zeroinitializer, align 1
@_ZN5boost6detailL28make_color_map_from_arg_packE = internal global %"class.boost::detail::make_property_map_from_arg_pack_gen" zeroinitializer, align 4
@.str = private unnamed_addr constant [15 x i8] c"after_callback\00", section "llvm.metadata"
@.str.3 = private unnamed_addr constant [119 x i8] c"/home/sreeram/Dev/mastersthesis/userspace_implementation/MemoryCheck/src/Benchmark/../../include/Benchmark/benchmark.h\00", section "llvm.metadata"
@.str.4 = private unnamed_addr constant [16 x i8] c"before_callback\00", section "llvm.metadata"
@_ZN16dining_phil_prob12THREAD_COUNTE = constant i32 16, align 4
@_ZN16dining_phil_prob12g_chopsticksE = global [16 x i32] zeroinitializer, align 16
@.str.5 = private unnamed_addr constant [5 x i8] c"gvar\00", section "llvm.metadata"
@.str.6 = private unnamed_addr constant [104 x i8] c"/home/sreeram/Dev/mastersthesis/userspace_implementation/MemoryCheck/src/Benchmark/dining_phil_prob.cpp\00", section "llvm.metadata"
@_ZSt4cout = external global %"class.std::basic_ostream", align 8
@.str.7 = private unnamed_addr constant [5 x i8] c"ignr\00", section "llvm.metadata"
@_ZTVNSt6thread11_State_implISt12_Bind_simpleIFSt7_Mem_fnIMN16dining_phil_prob11PhilosopherEFvvEEPS4_EEEE = linkonce_odr unnamed_addr constant [5 x i8*] [i8* null, i8* bitcast ({ i8*, i8*, i8* }* @_ZTINSt6thread11_State_implISt12_Bind_simpleIFSt7_Mem_fnIMN16dining_phil_prob11PhilosopherEFvvEEPS4_EEEE to i8*), i8* bitcast (void (%"struct.std::thread::_State_impl"*)* @_ZNSt6thread11_State_implISt12_Bind_simpleIFSt7_Mem_fnIMN16dining_phil_prob11PhilosopherEFvvEEPS4_EEED2Ev to i8*), i8* bitcast (void (%"struct.std::thread::_State_impl"*)* @_ZNSt6thread11_State_implISt12_Bind_simpleIFSt7_Mem_fnIMN16dining_phil_prob11PhilosopherEFvvEEPS4_EEED0Ev to i8*), i8* bitcast (void (%"struct.std::thread::_State_impl"*)* @_ZNSt6thread11_State_implISt12_Bind_simpleIFSt7_Mem_fnIMN16dining_phil_prob11PhilosopherEFvvEEPS4_EEE6_M_runEv to i8*)], comdat, align 8
@_ZTVN10__cxxabiv120__si_class_type_infoE = external global i8*
@_ZTSNSt6thread11_State_implISt12_Bind_simpleIFSt7_Mem_fnIMN16dining_phil_prob11PhilosopherEFvvEEPS4_EEEE = linkonce_odr constant [101 x i8] c"NSt6thread11_State_implISt12_Bind_simpleIFSt7_Mem_fnIMN16dining_phil_prob11PhilosopherEFvvEEPS4_EEEE\00", comdat
@_ZTINSt6thread6_StateE = external constant i8*
@_ZTINSt6thread11_State_implISt12_Bind_simpleIFSt7_Mem_fnIMN16dining_phil_prob11PhilosopherEFvvEEPS4_EEEE = linkonce_odr constant { i8*, i8*, i8* } { i8* bitcast (i8** getelementptr inbounds (i8*, i8** @_ZTVN10__cxxabiv120__si_class_type_infoE, i64 2) to i8*), i8* getelementptr inbounds ([101 x i8], [101 x i8]* @_ZTSNSt6thread11_State_implISt12_Bind_simpleIFSt7_Mem_fnIMN16dining_phil_prob11PhilosopherEFvvEEPS4_EEEE, i32 0, i32 0), i8* bitcast (i8** @_ZTINSt6thread6_StateE to i8*) }, comdat
@_ZTVNSt6thread6_StateE = external unnamed_addr constant [5 x i8*]
@.str.8 = private unnamed_addr constant [28 x i8] c"vector::_M_emplace_back_aux\00", align 1
@llvm.global_ctors = appending global [1 x { i32, void ()*, i8* }] [{ i32, void ()*, i8* } { i32 65535, void ()* @_GLOBAL__sub_I_dining_phil_prob.cpp, i8* null }]
@llvm.global.annotations = appending global [4 x { i8*, i8*, i8*, i32 }] [{ i8*, i8*, i8*, i32 } { i8* bitcast (void (i32)* @_Z9__afterMAi to i8*), i8* getelementptr inbounds ([15 x i8], [15 x i8]* @.str, i32 0, i32 0), i8* getelementptr inbounds ([119 x i8], [119 x i8]* @.str.3, i32 0, i32 0), i32 23 }, { i8*, i8*, i8*, i32 } { i8* bitcast (void (i32, i8*, i64, i32)* @_Z10__beforeMAiPvli to i8*), i8* getelementptr inbounds ([16 x i8], [16 x i8]* @.str.4, i32 0, i32 0), i8* getelementptr inbounds ([119 x i8], [119 x i8]* @.str.3, i32 0, i32 0), i32 26 }, { i8*, i8*, i8*, i32 } { i8* bitcast ([16 x i32]* @_ZN16dining_phil_prob12g_chopsticksE to i8*), i8* getelementptr inbounds ([5 x i8], [5 x i8]* @.str.5, i32 0, i32 0), i8* getelementptr inbounds ([104 x i8], [104 x i8]* @.str.6, i32 0, i32 0), i32 15 }, { i8*, i8*, i8*, i32 } { i8* bitcast (void ()* @_ZN16dining_phil_prob13run_benchmarkEv to i8*), i8* getelementptr inbounds ([5 x i8], [5 x i8]* @.str.7, i32 0, i32 0), i8* getelementptr inbounds ([104 x i8], [104 x i8]* @.str.6, i32 0, i32 0), i32 55 }], section "llvm.metadata"
@llvm.used = appending global [1 x i8*] [i8* bitcast (i32 (%"class.dining_phil_prob::Philosopher"*)* @_ZN16dining_phil_prob11Philosopher11getThreadIdEv to i8*)], section "llvm.metadata"

; Function Attrs: uwtable
define internal void @__cxx_global_var_init() #0 section ".text.startup" !dbg !3189 {
  call void @_ZNSt8ios_base4InitC1Ev(%"class.std::ios_base::Init"* @_ZStL8__ioinit), !dbg !3190
  %1 = call i32 @__cxa_atexit(void (i8*)* bitcast (void (%"class.std::ios_base::Init"*)* @_ZNSt8ios_base4InitD1Ev to void (i8*)*), i8* getelementptr inbounds (%"class.std::ios_base::Init", %"class.std::ios_base::Init"* @_ZStL8__ioinit, i32 0, i32 0), i8* @__dso_handle) #3, !dbg !3191
  ret void, !dbg !3190
}

declare void @_ZNSt8ios_base4InitC1Ev(%"class.std::ios_base::Init"*) unnamed_addr #1

; Function Attrs: nounwind
declare void @_ZNSt8ios_base4InitD1Ev(%"class.std::ios_base::Init"*) unnamed_addr #2

; Function Attrs: nounwind
declare i32 @__cxa_atexit(void (i8*)*, i8*, i8*) #3

; Function Attrs: uwtable
define internal void @__cxx_global_var_init.1() #0 section ".text.startup" !dbg !3193 {
  %1 = alloca %"struct.boost::none_t::init_tag", align 1
  call void @_ZN5boost6none_tC2ENS0_8init_tagE(%"struct.boost::none_t"* @_ZN5boostL4noneE), !dbg !3194
  ret void, !dbg !3195
}

; Function Attrs: nounwind uwtable
define linkonce_odr void @_ZN5boost6none_tC2ENS0_8init_tagE(%"struct.boost::none_t"*) unnamed_addr #4 comdat align 2 !dbg !3196 {
  %2 = alloca %"struct.boost::none_t::init_tag", align 1
  %3 = alloca %"struct.boost::none_t"*, align 8
  store %"struct.boost::none_t"* %0, %"struct.boost::none_t"** %3, align 8
  call void @llvm.dbg.declare(metadata %"struct.boost::none_t"** %3, metadata !3197, metadata !3199), !dbg !3200
  call void @llvm.dbg.declare(metadata %"struct.boost::none_t::init_tag"* %2, metadata !3201, metadata !3199), !dbg !3202
  %4 = load %"struct.boost::none_t"*, %"struct.boost::none_t"** %3, align 8
  ret void, !dbg !3203
}

; Function Attrs: uwtable
define internal void @__cxx_global_var_init.2() #0 section ".text.startup" !dbg !3204 {
  call void @_ZN5boost6detail35make_property_map_from_arg_pack_genINS_5graph8keywords3tag9color_mapENS_18default_color_typeEEC2ES6_(%"class.boost::detail::make_property_map_from_arg_pack_gen"* @_ZN5boost6detailL28make_color_map_from_arg_packE, i32 0), !dbg !3205
  ret void, !dbg !3206
}

; Function Attrs: nounwind uwtable
define linkonce_odr void @_ZN5boost6detail35make_property_map_from_arg_pack_genINS_5graph8keywords3tag9color_mapENS_18default_color_typeEEC2ES6_(%"class.boost::detail::make_property_map_from_arg_pack_gen"*, i32) unnamed_addr #4 comdat align 2 !dbg !3207 {
  %3 = alloca %"class.boost::detail::make_property_map_from_arg_pack_gen"*, align 8
  %4 = alloca i32, align 4
  store %"class.boost::detail::make_property_map_from_arg_pack_gen"* %0, %"class.boost::detail::make_property_map_from_arg_pack_gen"** %3, align 8
  call void @llvm.dbg.declare(metadata %"class.boost::detail::make_property_map_from_arg_pack_gen"** %3, metadata !3208, metadata !3199), !dbg !3210
  store i32 %1, i32* %4, align 4
  call void @llvm.dbg.declare(metadata i32* %4, metadata !3211, metadata !3199), !dbg !3212
  %5 = load %"class.boost::detail::make_property_map_from_arg_pack_gen"*, %"class.boost::detail::make_property_map_from_arg_pack_gen"** %3, align 8
  %6 = getelementptr inbounds %"class.boost::detail::make_property_map_from_arg_pack_gen", %"class.boost::detail::make_property_map_from_arg_pack_gen"* %5, i32 0, i32 0, !dbg !3213
  %7 = load i32, i32* %4, align 4, !dbg !3214
  store i32 %7, i32* %6, align 4, !dbg !3213
  ret void, !dbg !3215
}

; Function Attrs: uwtable
define void @_Z9__afterMAi(i32) #0 !dbg !3216 {
  %2 = alloca i32, align 4
  store i32 %0, i32* %2, align 4
  call void @llvm.dbg.declare(metadata i32* %2, metadata !3218, metadata !3199), !dbg !3219
  %3 = load i32, i32* %2, align 4, !dbg !3220
  call void @_ZN7Runtime7afterMAEi(i32 %3), !dbg !3221
  ret void, !dbg !3222
}

; Function Attrs: nounwind readnone
declare void @llvm.dbg.declare(metadata, metadata, metadata) #5

declare void @_ZN7Runtime7afterMAEi(i32) #1

; Function Attrs: uwtable
define void @_Z10__beforeMAiPvli(i32, i8*, i64, i32) #0 !dbg !3223 {
  %5 = alloca i32, align 4
  %6 = alloca i8*, align 8
  %7 = alloca i64, align 8
  %8 = alloca i32, align 4
  store i32 %0, i32* %5, align 4
  call void @llvm.dbg.declare(metadata i32* %5, metadata !3226, metadata !3199), !dbg !3227
  store i8* %1, i8** %6, align 8
  call void @llvm.dbg.declare(metadata i8** %6, metadata !3228, metadata !3199), !dbg !3229
  store i64 %2, i64* %7, align 8
  call void @llvm.dbg.declare(metadata i64* %7, metadata !3230, metadata !3199), !dbg !3231
  store i32 %3, i32* %8, align 4
  call void @llvm.dbg.declare(metadata i32* %8, metadata !3232, metadata !3199), !dbg !3233
  %9 = load i32, i32* %5, align 4, !dbg !3234
  %10 = load i8*, i8** %6, align 8, !dbg !3235
  %11 = load i32, i32* %8, align 4, !dbg !3236
  %12 = icmp ne i32 %11, 0, !dbg !3236
  call void @_ZN7Runtime8beforeMAEiPvb(i32 %9, i8* %10, i1 zeroext %12), !dbg !3237
  ret void, !dbg !3238
}

declare void @_ZN7Runtime8beforeMAEiPvb(i32, i8*, i1 zeroext) #1

; Function Attrs: noinline uwtable
define linkonce_odr i32 @_ZN16dining_phil_prob11Philosopher11getThreadIdEv(%"class.dining_phil_prob::Philosopher"*) #6 comdat align 2 !dbg !3239 {
  %2 = alloca %"class.dining_phil_prob::Philosopher"*, align 8
  store %"class.dining_phil_prob::Philosopher"* %0, %"class.dining_phil_prob::Philosopher"** %2, align 8
  call void @llvm.dbg.declare(metadata %"class.dining_phil_prob::Philosopher"** %2, metadata !3240, metadata !3199), !dbg !3241
  %3 = load %"class.dining_phil_prob::Philosopher"*, %"class.dining_phil_prob::Philosopher"** %2, align 8
  %4 = getelementptr inbounds %"class.dining_phil_prob::Philosopher", %"class.dining_phil_prob::Philosopher"* %3, i32 0, i32 0, !dbg !3242
  %5 = call i32 @_ZNK9IrsThread6getTidEv(%class.IrsThread* %4), !dbg !3243
  ret i32 %5, !dbg !3244
}

; Function Attrs: nounwind uwtable
define linkonce_odr i32 @_ZNK9IrsThread6getTidEv(%class.IrsThread*) #4 comdat align 2 !dbg !3245 {
  %2 = alloca %class.IrsThread*, align 8
  store %class.IrsThread* %0, %class.IrsThread** %2, align 8
  call void @llvm.dbg.declare(metadata %class.IrsThread** %2, metadata !3246, metadata !3199), !dbg !3248
  %3 = load %class.IrsThread*, %class.IrsThread** %2, align 8
  %4 = getelementptr inbounds %class.IrsThread, %class.IrsThread* %3, i32 0, i32 1, !dbg !3249
  %5 = load i32, i32* %4, align 8, !dbg !3249
  ret i32 %5, !dbg !3250
}

; Function Attrs: uwtable
define void @_ZN16dining_phil_prob13run_benchmarkEv() #0 personality i8* bitcast (i32 (...)* @__gxx_personality_v0 to i8*) !dbg !3251 {
  %1 = alloca i32, align 4
  %2 = alloca %"struct.std::chrono::time_point", align 8
  %3 = alloca %"class.std::vector", align 8
  %4 = alloca i32, align 4
  %5 = alloca %"class.dining_phil_prob::Philosopher"*, align 8
  %6 = alloca i8*
  %7 = alloca i32
  %8 = alloca %"class.std::vector"*, align 8
  %9 = alloca %"class.__gnu_cxx::__normal_iterator", align 8
  %10 = alloca %"class.__gnu_cxx::__normal_iterator", align 8
  %11 = alloca %"class.dining_phil_prob::Philosopher"**, align 8
  %12 = alloca %"class.std::vector"*, align 8
  %13 = alloca %"class.__gnu_cxx::__normal_iterator", align 8
  %14 = alloca %"class.__gnu_cxx::__normal_iterator", align 8
  %15 = alloca %"class.dining_phil_prob::Philosopher"**, align 8
  %16 = alloca %"struct.std::chrono::time_point", align 8
  %17 = alloca i64, align 8
  %18 = alloca %"struct.std::chrono::duration", align 8
  %19 = alloca %"struct.std::chrono::duration.0", align 8
  %20 = alloca %"class.std::vector"*, align 8
  %21 = alloca %"class.__gnu_cxx::__normal_iterator", align 8
  %22 = alloca %"class.__gnu_cxx::__normal_iterator", align 8
  %23 = alloca %"class.dining_phil_prob::Philosopher"**, align 8
  call void @llvm.dbg.declare(metadata i32* %1, metadata !3252, metadata !3199), !dbg !3254
  store i32 0, i32* %1, align 4, !dbg !3254
  br label %24, !dbg !3255

; <label>:24:                                     ; preds = %31, %0
  %25 = load i32, i32* %1, align 4, !dbg !3256
  %26 = icmp slt i32 %25, 16, !dbg !3259
  br i1 %26, label %27, label %34, !dbg !3260

; <label>:27:                                     ; preds = %24
  %28 = load i32, i32* %1, align 4, !dbg !3261
  %29 = sext i32 %28 to i64, !dbg !3263
  %30 = getelementptr inbounds [16 x i32], [16 x i32]* @_ZN16dining_phil_prob12g_chopsticksE, i64 0, i64 %29, !dbg !3263
  store i32 0, i32* %30, align 4, !dbg !3264
  br label %31, !dbg !3265

; <label>:31:                                     ; preds = %27
  %32 = load i32, i32* %1, align 4, !dbg !3266
  %33 = add nsw i32 %32, 1, !dbg !3266
  store i32 %33, i32* %1, align 4, !dbg !3266
  br label %24, !dbg !3268, !llvm.loop !3269

; <label>:34:                                     ; preds = %24
  call void @llvm.dbg.declare(metadata %"struct.std::chrono::time_point"* %2, metadata !3271, metadata !3199), !dbg !3318
  %35 = call i64 @_ZNSt6chrono3_V212system_clock3nowEv() #3, !dbg !3318
  %36 = getelementptr inbounds %"struct.std::chrono::time_point", %"struct.std::chrono::time_point"* %2, i32 0, i32 0, !dbg !3318
  %37 = getelementptr inbounds %"struct.std::chrono::duration", %"struct.std::chrono::duration"* %36, i32 0, i32 0, !dbg !3318
  store i64 %35, i64* %37, align 8, !dbg !3318
  call void @llvm.dbg.declare(metadata %"class.std::vector"* %3, metadata !3319, metadata !3199), !dbg !3320
  call void @_ZNSt6vectorIPN16dining_phil_prob11PhilosopherESaIS2_EEC2Ev(%"class.std::vector"* %3) #3, !dbg !3320
  call void @llvm.dbg.declare(metadata i32* %4, metadata !3321, metadata !3199), !dbg !3323
  store i32 1, i32* %4, align 4, !dbg !3323
  br label %38, !dbg !3324

; <label>:38:                                     ; preds = %48, %34
  %39 = load i32, i32* %4, align 4, !dbg !3325
  %40 = icmp sle i32 %39, 16, !dbg !3328
  br i1 %40, label %41, label %59, !dbg !3329

; <label>:41:                                     ; preds = %38
  %42 = invoke i8* @_Znwm(i64 16) #15
          to label %43 unwind label %51, !dbg !3330

; <label>:43:                                     ; preds = %41
  %44 = bitcast i8* %42 to %"class.dining_phil_prob::Philosopher"*, !dbg !3332
  %45 = load i32, i32* %4, align 4, !dbg !3334
  invoke void @_ZN16dining_phil_prob11PhilosopherC2Ei(%"class.dining_phil_prob::Philosopher"* %44, i32 %45)
          to label %46 unwind label %55, !dbg !3335

; <label>:46:                                     ; preds = %43
  store %"class.dining_phil_prob::Philosopher"* %44, %"class.dining_phil_prob::Philosopher"** %5, align 8, !dbg !3336
  invoke void @_ZNSt6vectorIPN16dining_phil_prob11PhilosopherESaIS2_EE12emplace_backIJS2_EEEvDpOT_(%"class.std::vector"* %3, %"class.dining_phil_prob::Philosopher"** dereferenceable(8) %5)
          to label %47 unwind label %51, !dbg !3338

; <label>:47:                                     ; preds = %46
  br label %48, !dbg !3339

; <label>:48:                                     ; preds = %47
  %49 = load i32, i32* %4, align 4, !dbg !3340
  %50 = add nsw i32 %49, 1, !dbg !3340
  store i32 %50, i32* %4, align 4, !dbg !3340
  br label %38, !dbg !3342, !llvm.loop !3343

; <label>:51:                                     ; preds = %105, %102, %99, %96, %91, %84, %68, %46, %41
  %52 = landingpad { i8*, i32 }
          cleanup, !dbg !3345
  %53 = extractvalue { i8*, i32 } %52, 0, !dbg !3345
  store i8* %53, i8** %6, align 8, !dbg !3345
  %54 = extractvalue { i8*, i32 } %52, 1, !dbg !3345
  store i32 %54, i32* %7, align 4, !dbg !3345
  br label %127, !dbg !3345

; <label>:55:                                     ; preds = %43
  %56 = landingpad { i8*, i32 }
          cleanup, !dbg !3346
  %57 = extractvalue { i8*, i32 } %56, 0, !dbg !3346
  store i8* %57, i8** %6, align 8, !dbg !3346
  %58 = extractvalue { i8*, i32 } %56, 1, !dbg !3346
  store i32 %58, i32* %7, align 4, !dbg !3346
  call void @_ZdlPv(i8* %42) #16, !dbg !3347
  br label %127, !dbg !3347

; <label>:59:                                     ; preds = %38
  call void @llvm.dbg.declare(metadata %"class.std::vector"** %8, metadata !3349, metadata !3199), !dbg !3351
  store %"class.std::vector"* %3, %"class.std::vector"** %8, align 8, !dbg !3352
  call void @llvm.dbg.declare(metadata %"class.__gnu_cxx::__normal_iterator"* %9, metadata !3353, metadata !3199), !dbg !3351
  %60 = load %"class.std::vector"*, %"class.std::vector"** %8, align 8, !dbg !3354
  %61 = call %"class.dining_phil_prob::Philosopher"** @_ZNSt6vectorIPN16dining_phil_prob11PhilosopherESaIS2_EE5beginEv(%"class.std::vector"* %60) #3, !dbg !3354
  %62 = getelementptr inbounds %"class.__gnu_cxx::__normal_iterator", %"class.__gnu_cxx::__normal_iterator"* %9, i32 0, i32 0, !dbg !3354
  store %"class.dining_phil_prob::Philosopher"** %61, %"class.dining_phil_prob::Philosopher"*** %62, align 8, !dbg !3354
  call void @llvm.dbg.declare(metadata %"class.__gnu_cxx::__normal_iterator"* %10, metadata !3355, metadata !3199), !dbg !3351
  %63 = load %"class.std::vector"*, %"class.std::vector"** %8, align 8, !dbg !3354
  %64 = call %"class.dining_phil_prob::Philosopher"** @_ZNSt6vectorIPN16dining_phil_prob11PhilosopherESaIS2_EE3endEv(%"class.std::vector"* %63) #3, !dbg !3356
  %65 = getelementptr inbounds %"class.__gnu_cxx::__normal_iterator", %"class.__gnu_cxx::__normal_iterator"* %10, i32 0, i32 0, !dbg !3354
  store %"class.dining_phil_prob::Philosopher"** %64, %"class.dining_phil_prob::Philosopher"*** %65, align 8, !dbg !3354
  br label %66, !dbg !3354

; <label>:66:                                     ; preds = %73, %59
  %67 = call zeroext i1 @_ZN9__gnu_cxxneIPPN16dining_phil_prob11PhilosopherESt6vectorIS3_SaIS3_EEEEbRKNS_17__normal_iteratorIT_T0_EESD_(%"class.__gnu_cxx::__normal_iterator"* dereferenceable(8) %9, %"class.__gnu_cxx::__normal_iterator"* dereferenceable(8) %10) #3, !dbg !3358
  br i1 %67, label %68, label %75, !dbg !3358

; <label>:68:                                     ; preds = %66
  call void @llvm.dbg.declare(metadata %"class.dining_phil_prob::Philosopher"*** %11, metadata !3360, metadata !3199), !dbg !3362
  %69 = call dereferenceable(8) %"class.dining_phil_prob::Philosopher"** @_ZNK9__gnu_cxx17__normal_iteratorIPPN16dining_phil_prob11PhilosopherESt6vectorIS3_SaIS3_EEEdeEv(%"class.__gnu_cxx::__normal_iterator"* %9) #3, !dbg !3363
  store %"class.dining_phil_prob::Philosopher"** %69, %"class.dining_phil_prob::Philosopher"*** %11, align 8, !dbg !3365
  %70 = load %"class.dining_phil_prob::Philosopher"**, %"class.dining_phil_prob::Philosopher"*** %11, align 8, !dbg !3366
  %71 = load %"class.dining_phil_prob::Philosopher"*, %"class.dining_phil_prob::Philosopher"** %70, align 8, !dbg !3366
  invoke void @_ZN16dining_phil_prob11Philosopher5startEv(%"class.dining_phil_prob::Philosopher"* %71)
          to label %72 unwind label %51, !dbg !3368

; <label>:72:                                     ; preds = %68
  br label %73, !dbg !3369

; <label>:73:                                     ; preds = %72
  %74 = call dereferenceable(8) %"class.__gnu_cxx::__normal_iterator"* @_ZN9__gnu_cxx17__normal_iteratorIPPN16dining_phil_prob11PhilosopherESt6vectorIS3_SaIS3_EEEppEv(%"class.__gnu_cxx::__normal_iterator"* %9) #3, !dbg !3371
  br label %66, !dbg !3371, !llvm.loop !3373

; <label>:75:                                     ; preds = %66
  call void @llvm.dbg.declare(metadata %"class.std::vector"** %12, metadata !3375, metadata !3199), !dbg !3377
  store %"class.std::vector"* %3, %"class.std::vector"** %12, align 8, !dbg !3378
  call void @llvm.dbg.declare(metadata %"class.__gnu_cxx::__normal_iterator"* %13, metadata !3379, metadata !3199), !dbg !3377
  %76 = load %"class.std::vector"*, %"class.std::vector"** %12, align 8, !dbg !3380
  %77 = call %"class.dining_phil_prob::Philosopher"** @_ZNSt6vectorIPN16dining_phil_prob11PhilosopherESaIS2_EE5beginEv(%"class.std::vector"* %76) #3, !dbg !3380
  %78 = getelementptr inbounds %"class.__gnu_cxx::__normal_iterator", %"class.__gnu_cxx::__normal_iterator"* %13, i32 0, i32 0, !dbg !3380
  store %"class.dining_phil_prob::Philosopher"** %77, %"class.dining_phil_prob::Philosopher"*** %78, align 8, !dbg !3380
  call void @llvm.dbg.declare(metadata %"class.__gnu_cxx::__normal_iterator"* %14, metadata !3381, metadata !3199), !dbg !3377
  %79 = load %"class.std::vector"*, %"class.std::vector"** %12, align 8, !dbg !3380
  %80 = call %"class.dining_phil_prob::Philosopher"** @_ZNSt6vectorIPN16dining_phil_prob11PhilosopherESaIS2_EE3endEv(%"class.std::vector"* %79) #3, !dbg !3382
  %81 = getelementptr inbounds %"class.__gnu_cxx::__normal_iterator", %"class.__gnu_cxx::__normal_iterator"* %14, i32 0, i32 0, !dbg !3380
  store %"class.dining_phil_prob::Philosopher"** %80, %"class.dining_phil_prob::Philosopher"*** %81, align 8, !dbg !3380
  br label %82, !dbg !3380

; <label>:82:                                     ; preds = %89, %75
  %83 = call zeroext i1 @_ZN9__gnu_cxxneIPPN16dining_phil_prob11PhilosopherESt6vectorIS3_SaIS3_EEEEbRKNS_17__normal_iteratorIT_T0_EESD_(%"class.__gnu_cxx::__normal_iterator"* dereferenceable(8) %13, %"class.__gnu_cxx::__normal_iterator"* dereferenceable(8) %14) #3, !dbg !3384
  br i1 %83, label %84, label %91, !dbg !3384

; <label>:84:                                     ; preds = %82
  call void @llvm.dbg.declare(metadata %"class.dining_phil_prob::Philosopher"*** %15, metadata !3386, metadata !3199), !dbg !3388
  %85 = call dereferenceable(8) %"class.dining_phil_prob::Philosopher"** @_ZNK9__gnu_cxx17__normal_iteratorIPPN16dining_phil_prob11PhilosopherESt6vectorIS3_SaIS3_EEEdeEv(%"class.__gnu_cxx::__normal_iterator"* %13) #3, !dbg !3389
  store %"class.dining_phil_prob::Philosopher"** %85, %"class.dining_phil_prob::Philosopher"*** %15, align 8, !dbg !3391
  %86 = load %"class.dining_phil_prob::Philosopher"**, %"class.dining_phil_prob::Philosopher"*** %15, align 8, !dbg !3392
  %87 = load %"class.dining_phil_prob::Philosopher"*, %"class.dining_phil_prob::Philosopher"** %86, align 8, !dbg !3392
  invoke void @_ZN16dining_phil_prob11Philosopher4joinEv(%"class.dining_phil_prob::Philosopher"* %87)
          to label %88 unwind label %51, !dbg !3394

; <label>:88:                                     ; preds = %84
  br label %89, !dbg !3395

; <label>:89:                                     ; preds = %88
  %90 = call dereferenceable(8) %"class.__gnu_cxx::__normal_iterator"* @_ZN9__gnu_cxx17__normal_iteratorIPPN16dining_phil_prob11PhilosopherESt6vectorIS3_SaIS3_EEEppEv(%"class.__gnu_cxx::__normal_iterator"* %13) #3, !dbg !3397
  br label %82, !dbg !3397, !llvm.loop !3399

; <label>:91:                                     ; preds = %82
  call void @llvm.dbg.declare(metadata %"struct.std::chrono::time_point"* %16, metadata !3401, metadata !3199), !dbg !3402
  %92 = call i64 @_ZNSt6chrono3_V212system_clock3nowEv() #3, !dbg !3402
  %93 = getelementptr inbounds %"struct.std::chrono::time_point", %"struct.std::chrono::time_point"* %16, i32 0, i32 0, !dbg !3402
  %94 = getelementptr inbounds %"struct.std::chrono::duration", %"struct.std::chrono::duration"* %93, i32 0, i32 0, !dbg !3402
  store i64 %92, i64* %94, align 8, !dbg !3402
  call void @llvm.dbg.declare(metadata i64* %17, metadata !3403, metadata !3199), !dbg !3402
  %95 = invoke i64 @_ZNSt6chronomiINS_3_V212system_clockENS_8durationIlSt5ratioILl1ELl1000000000EEEES6_EENSt11common_typeIJT0_T1_EE4typeERKNS_10time_pointIT_S8_EERKNSC_ISD_S9_EE(%"struct.std::chrono::time_point"* dereferenceable(8) %16, %"struct.std::chrono::time_point"* dereferenceable(8) %2)
          to label %96 unwind label %51, !dbg !3402

; <label>:96:                                     ; preds = %91
  %97 = getelementptr inbounds %"struct.std::chrono::duration", %"struct.std::chrono::duration"* %18, i32 0, i32 0, !dbg !3404
  store i64 %95, i64* %97, align 8, !dbg !3404
  %98 = invoke i64 @_ZNSt6chrono13duration_castINS_8durationIlSt5ratioILl1ELl1000000EEEElS2_ILl1ELl1000000000EEEENSt9enable_ifIXsr13__is_durationIT_EE5valueES7_E4typeERKNS1_IT0_T1_EE(%"struct.std::chrono::duration"* dereferenceable(8) %18)
          to label %99 unwind label %51, !dbg !3404

; <label>:99:                                     ; preds = %96
  %100 = getelementptr inbounds %"struct.std::chrono::duration.0", %"struct.std::chrono::duration.0"* %19, i32 0, i32 0, !dbg !3406
  store i64 %98, i64* %100, align 8, !dbg !3406
  %101 = invoke i64 @_ZNKSt6chrono8durationIlSt5ratioILl1ELl1000000EEE5countEv(%"struct.std::chrono::duration.0"* %19)
          to label %102 unwind label %51, !dbg !3406

; <label>:102:                                    ; preds = %99
  store i64 %101, i64* %17, align 8, !dbg !3408
  %103 = load i64, i64* %17, align 8, !dbg !3408
  %104 = invoke dereferenceable(272) %"class.std::basic_ostream"* @_ZNSolsEl(%"class.std::basic_ostream"* @_ZSt4cout, i64 %103)
          to label %105 unwind label %51, !dbg !3408

; <label>:105:                                    ; preds = %102
  %106 = invoke dereferenceable(272) %"class.std::basic_ostream"* @_ZNSolsEPFRSoS_E(%"class.std::basic_ostream"* %104, %"class.std::basic_ostream"* (%"class.std::basic_ostream"*)* @_ZSt4endlIcSt11char_traitsIcEERSt13basic_ostreamIT_T0_ES6_)
          to label %107 unwind label %51, !dbg !3410

; <label>:107:                                    ; preds = %105
  call void @llvm.dbg.declare(metadata %"class.std::vector"** %20, metadata !3412, metadata !3199), !dbg !3414
  store %"class.std::vector"* %3, %"class.std::vector"** %20, align 8, !dbg !3415
  call void @llvm.dbg.declare(metadata %"class.__gnu_cxx::__normal_iterator"* %21, metadata !3416, metadata !3199), !dbg !3414
  %108 = load %"class.std::vector"*, %"class.std::vector"** %20, align 8, !dbg !3417
  %109 = call %"class.dining_phil_prob::Philosopher"** @_ZNSt6vectorIPN16dining_phil_prob11PhilosopherESaIS2_EE5beginEv(%"class.std::vector"* %108) #3, !dbg !3417
  %110 = getelementptr inbounds %"class.__gnu_cxx::__normal_iterator", %"class.__gnu_cxx::__normal_iterator"* %21, i32 0, i32 0, !dbg !3417
  store %"class.dining_phil_prob::Philosopher"** %109, %"class.dining_phil_prob::Philosopher"*** %110, align 8, !dbg !3417
  call void @llvm.dbg.declare(metadata %"class.__gnu_cxx::__normal_iterator"* %22, metadata !3418, metadata !3199), !dbg !3414
  %111 = load %"class.std::vector"*, %"class.std::vector"** %20, align 8, !dbg !3417
  %112 = call %"class.dining_phil_prob::Philosopher"** @_ZNSt6vectorIPN16dining_phil_prob11PhilosopherESaIS2_EE3endEv(%"class.std::vector"* %111) #3, !dbg !3419
  %113 = getelementptr inbounds %"class.__gnu_cxx::__normal_iterator", %"class.__gnu_cxx::__normal_iterator"* %22, i32 0, i32 0, !dbg !3417
  store %"class.dining_phil_prob::Philosopher"** %112, %"class.dining_phil_prob::Philosopher"*** %113, align 8, !dbg !3417
  br label %114, !dbg !3417

; <label>:114:                                    ; preds = %124, %107
  %115 = call zeroext i1 @_ZN9__gnu_cxxneIPPN16dining_phil_prob11PhilosopherESt6vectorIS3_SaIS3_EEEEbRKNS_17__normal_iteratorIT_T0_EESD_(%"class.__gnu_cxx::__normal_iterator"* dereferenceable(8) %21, %"class.__gnu_cxx::__normal_iterator"* dereferenceable(8) %22) #3, !dbg !3421
  br i1 %115, label %116, label %126, !dbg !3421

; <label>:116:                                    ; preds = %114
  call void @llvm.dbg.declare(metadata %"class.dining_phil_prob::Philosopher"*** %23, metadata !3423, metadata !3199), !dbg !3425
  %117 = call dereferenceable(8) %"class.dining_phil_prob::Philosopher"** @_ZNK9__gnu_cxx17__normal_iteratorIPPN16dining_phil_prob11PhilosopherESt6vectorIS3_SaIS3_EEEdeEv(%"class.__gnu_cxx::__normal_iterator"* %21) #3, !dbg !3426
  store %"class.dining_phil_prob::Philosopher"** %117, %"class.dining_phil_prob::Philosopher"*** %23, align 8, !dbg !3428
  %118 = load %"class.dining_phil_prob::Philosopher"**, %"class.dining_phil_prob::Philosopher"*** %23, align 8, !dbg !3429
  %119 = load %"class.dining_phil_prob::Philosopher"*, %"class.dining_phil_prob::Philosopher"** %118, align 8, !dbg !3429
  %120 = icmp eq %"class.dining_phil_prob::Philosopher"* %119, null, !dbg !3431
  br i1 %120, label %123, label %121, !dbg !3431

; <label>:121:                                    ; preds = %116
  call void @_ZN16dining_phil_prob11PhilosopherD2Ev(%"class.dining_phil_prob::Philosopher"* %119) #3, !dbg !3432
  %122 = bitcast %"class.dining_phil_prob::Philosopher"* %119 to i8*, !dbg !3432
  call void @_ZdlPv(i8* %122) #16, !dbg !3434
  br label %123, !dbg !3432

; <label>:123:                                    ; preds = %121, %116
  br label %124, !dbg !3436

; <label>:124:                                    ; preds = %123
  %125 = call dereferenceable(8) %"class.__gnu_cxx::__normal_iterator"* @_ZN9__gnu_cxx17__normal_iteratorIPPN16dining_phil_prob11PhilosopherESt6vectorIS3_SaIS3_EEEppEv(%"class.__gnu_cxx::__normal_iterator"* %21) #3, !dbg !3438
  br label %114, !dbg !3438, !llvm.loop !3440

; <label>:126:                                    ; preds = %114
  call void @_ZNSt6vectorIPN16dining_phil_prob11PhilosopherESaIS2_EED2Ev(%"class.std::vector"* %3) #3, !dbg !3442
  ret void, !dbg !3442

; <label>:127:                                    ; preds = %55, %51
  call void @_ZNSt6vectorIPN16dining_phil_prob11PhilosopherESaIS2_EED2Ev(%"class.std::vector"* %3) #3, !dbg !3443
  br label %128, !dbg !3443

; <label>:128:                                    ; preds = %127
  %129 = load i8*, i8** %6, align 8, !dbg !3444
  %130 = load i32, i32* %7, align 4, !dbg !3444
  %131 = insertvalue { i8*, i32 } undef, i8* %129, 0, !dbg !3444
  %132 = insertvalue { i8*, i32 } %131, i32 %130, 1, !dbg !3444
  resume { i8*, i32 } %132, !dbg !3444
}

; Function Attrs: nounwind
declare i64 @_ZNSt6chrono3_V212system_clock3nowEv() #2

; Function Attrs: nounwind uwtable
define linkonce_odr void @_ZNSt6vectorIPN16dining_phil_prob11PhilosopherESaIS2_EEC2Ev(%"class.std::vector"*) unnamed_addr #4 comdat align 2 personality i8* bitcast (i32 (...)* @__gxx_personality_v0 to i8*) !dbg !3445 {
  %2 = alloca %"class.std::vector"*, align 8
  store %"class.std::vector"* %0, %"class.std::vector"** %2, align 8
  call void @llvm.dbg.declare(metadata %"class.std::vector"** %2, metadata !3446, metadata !3199), !dbg !3448
  %3 = load %"class.std::vector"*, %"class.std::vector"** %2, align 8
  %4 = bitcast %"class.std::vector"* %3 to %"struct.std::_Vector_base"*, !dbg !3449
  invoke void @_ZNSt12_Vector_baseIPN16dining_phil_prob11PhilosopherESaIS2_EEC2Ev(%"struct.std::_Vector_base"* %4)
          to label %5 unwind label %6, !dbg !3450

; <label>:5:                                      ; preds = %1
  ret void, !dbg !3451

; <label>:6:                                      ; preds = %1
  %7 = landingpad { i8*, i32 }
          catch i8* null, !dbg !3453
  %8 = extractvalue { i8*, i32 } %7, 0, !dbg !3453
  call void @__clang_call_terminate(i8* %8) #17, !dbg !3453
  unreachable, !dbg !3453
}

; Function Attrs: uwtable
define linkonce_odr void @_ZNSt6vectorIPN16dining_phil_prob11PhilosopherESaIS2_EE12emplace_backIJS2_EEEvDpOT_(%"class.std::vector"*, %"class.dining_phil_prob::Philosopher"** dereferenceable(8)) #0 comdat align 2 !dbg !3455 {
  %3 = alloca %"class.std::vector"*, align 8
  %4 = alloca %"class.dining_phil_prob::Philosopher"**, align 8
  store %"class.std::vector"* %0, %"class.std::vector"** %3, align 8
  call void @llvm.dbg.declare(metadata %"class.std::vector"** %3, metadata !3461, metadata !3199), !dbg !3462
  store %"class.dining_phil_prob::Philosopher"** %1, %"class.dining_phil_prob::Philosopher"*** %4, align 8
  call void @llvm.dbg.declare(metadata %"class.dining_phil_prob::Philosopher"*** %4, metadata !3463, metadata !3199), !dbg !3464
  %5 = load %"class.std::vector"*, %"class.std::vector"** %3, align 8
  %6 = bitcast %"class.std::vector"* %5 to %"struct.std::_Vector_base"*, !dbg !3465
  %7 = getelementptr inbounds %"struct.std::_Vector_base", %"struct.std::_Vector_base"* %6, i32 0, i32 0, !dbg !3465
  %8 = getelementptr inbounds %"struct.std::_Vector_base<dining_phil_prob::Philosopher *, std::allocator<dining_phil_prob::Philosopher *> >::_Vector_impl", %"struct.std::_Vector_base<dining_phil_prob::Philosopher *, std::allocator<dining_phil_prob::Philosopher *> >::_Vector_impl"* %7, i32 0, i32 1, !dbg !3467
  %9 = load %"class.dining_phil_prob::Philosopher"**, %"class.dining_phil_prob::Philosopher"*** %8, align 8, !dbg !3467
  %10 = bitcast %"class.std::vector"* %5 to %"struct.std::_Vector_base"*, !dbg !3468
  %11 = getelementptr inbounds %"struct.std::_Vector_base", %"struct.std::_Vector_base"* %10, i32 0, i32 0, !dbg !3468
  %12 = getelementptr inbounds %"struct.std::_Vector_base<dining_phil_prob::Philosopher *, std::allocator<dining_phil_prob::Philosopher *> >::_Vector_impl", %"struct.std::_Vector_base<dining_phil_prob::Philosopher *, std::allocator<dining_phil_prob::Philosopher *> >::_Vector_impl"* %11, i32 0, i32 2, !dbg !3469
  %13 = load %"class.dining_phil_prob::Philosopher"**, %"class.dining_phil_prob::Philosopher"*** %12, align 8, !dbg !3469
  %14 = icmp ne %"class.dining_phil_prob::Philosopher"** %9, %13, !dbg !3470
  br i1 %14, label %15, label %30, !dbg !3471

; <label>:15:                                     ; preds = %2
  %16 = bitcast %"class.std::vector"* %5 to %"struct.std::_Vector_base"*, !dbg !3472
  %17 = getelementptr inbounds %"struct.std::_Vector_base", %"struct.std::_Vector_base"* %16, i32 0, i32 0, !dbg !3472
  %18 = bitcast %"struct.std::_Vector_base<dining_phil_prob::Philosopher *, std::allocator<dining_phil_prob::Philosopher *> >::_Vector_impl"* %17 to %"class.std::allocator"*, !dbg !3474
  %19 = bitcast %"class.std::vector"* %5 to %"struct.std::_Vector_base"*, !dbg !3475
  %20 = getelementptr inbounds %"struct.std::_Vector_base", %"struct.std::_Vector_base"* %19, i32 0, i32 0, !dbg !3475
  %21 = getelementptr inbounds %"struct.std::_Vector_base<dining_phil_prob::Philosopher *, std::allocator<dining_phil_prob::Philosopher *> >::_Vector_impl", %"struct.std::_Vector_base<dining_phil_prob::Philosopher *, std::allocator<dining_phil_prob::Philosopher *> >::_Vector_impl"* %20, i32 0, i32 1, !dbg !3476
  %22 = load %"class.dining_phil_prob::Philosopher"**, %"class.dining_phil_prob::Philosopher"*** %21, align 8, !dbg !3476
  %23 = load %"class.dining_phil_prob::Philosopher"**, %"class.dining_phil_prob::Philosopher"*** %4, align 8, !dbg !3477
  %24 = call dereferenceable(8) %"class.dining_phil_prob::Philosopher"** @_ZSt7forwardIPN16dining_phil_prob11PhilosopherEEOT_RNSt16remove_referenceIS3_E4typeE(%"class.dining_phil_prob::Philosopher"** dereferenceable(8) %23) #3, !dbg !3478
  call void @_ZNSt16allocator_traitsISaIPN16dining_phil_prob11PhilosopherEEE9constructIS2_JS2_EEEvRS3_PT_DpOT0_(%"class.std::allocator"* dereferenceable(1) %18, %"class.dining_phil_prob::Philosopher"** %22, %"class.dining_phil_prob::Philosopher"** dereferenceable(8) %24), !dbg !3479
  %25 = bitcast %"class.std::vector"* %5 to %"struct.std::_Vector_base"*, !dbg !3480
  %26 = getelementptr inbounds %"struct.std::_Vector_base", %"struct.std::_Vector_base"* %25, i32 0, i32 0, !dbg !3480
  %27 = getelementptr inbounds %"struct.std::_Vector_base<dining_phil_prob::Philosopher *, std::allocator<dining_phil_prob::Philosopher *> >::_Vector_impl", %"struct.std::_Vector_base<dining_phil_prob::Philosopher *, std::allocator<dining_phil_prob::Philosopher *> >::_Vector_impl"* %26, i32 0, i32 1, !dbg !3481
  %28 = load %"class.dining_phil_prob::Philosopher"**, %"class.dining_phil_prob::Philosopher"*** %27, align 8, !dbg !3482
  %29 = getelementptr inbounds %"class.dining_phil_prob::Philosopher"*, %"class.dining_phil_prob::Philosopher"** %28, i32 1, !dbg !3482
  store %"class.dining_phil_prob::Philosopher"** %29, %"class.dining_phil_prob::Philosopher"*** %27, align 8, !dbg !3482
  br label %33, !dbg !3483

; <label>:30:                                     ; preds = %2
  %31 = load %"class.dining_phil_prob::Philosopher"**, %"class.dining_phil_prob::Philosopher"*** %4, align 8, !dbg !3484
  %32 = call dereferenceable(8) %"class.dining_phil_prob::Philosopher"** @_ZSt7forwardIPN16dining_phil_prob11PhilosopherEEOT_RNSt16remove_referenceIS3_E4typeE(%"class.dining_phil_prob::Philosopher"** dereferenceable(8) %31) #3, !dbg !3485
  call void @_ZNSt6vectorIPN16dining_phil_prob11PhilosopherESaIS2_EE19_M_emplace_back_auxIJS2_EEEvDpOT_(%"class.std::vector"* %5, %"class.dining_phil_prob::Philosopher"** dereferenceable(8) %32), !dbg !3486
  br label %33

; <label>:33:                                     ; preds = %30, %15
  ret void, !dbg !3488
}

; Function Attrs: nobuiltin
declare noalias i8* @_Znwm(i64) #7

declare i32 @__gxx_personality_v0(...)

; Function Attrs: uwtable
define linkonce_odr void @_ZN16dining_phil_prob11PhilosopherC2Ei(%"class.dining_phil_prob::Philosopher"*, i32) unnamed_addr #0 comdat align 2 !dbg !3489 {
  %3 = alloca %"class.dining_phil_prob::Philosopher"*, align 8
  %4 = alloca i32, align 4
  store %"class.dining_phil_prob::Philosopher"* %0, %"class.dining_phil_prob::Philosopher"** %3, align 8
  call void @llvm.dbg.declare(metadata %"class.dining_phil_prob::Philosopher"** %3, metadata !3490, metadata !3199), !dbg !3491
  store i32 %1, i32* %4, align 4
  call void @llvm.dbg.declare(metadata i32* %4, metadata !3492, metadata !3199), !dbg !3493
  %5 = load %"class.dining_phil_prob::Philosopher"*, %"class.dining_phil_prob::Philosopher"** %3, align 8
  %6 = getelementptr inbounds %"class.dining_phil_prob::Philosopher", %"class.dining_phil_prob::Philosopher"* %5, i32 0, i32 0, !dbg !3494
  %7 = load i32, i32* %4, align 4, !dbg !3495
  call void @_ZN9IrsThreadC2Ei(%class.IrsThread* %6, i32 %7), !dbg !3494
  ret void, !dbg !3496
}

; Function Attrs: nobuiltin nounwind
declare void @_ZdlPv(i8*) #8

; Function Attrs: nounwind uwtable
define linkonce_odr %"class.dining_phil_prob::Philosopher"** @_ZNSt6vectorIPN16dining_phil_prob11PhilosopherESaIS2_EE5beginEv(%"class.std::vector"*) #4 comdat align 2 !dbg !3497 {
  %2 = alloca %"class.__gnu_cxx::__normal_iterator", align 8
  %3 = alloca %"class.std::vector"*, align 8
  store %"class.std::vector"* %0, %"class.std::vector"** %3, align 8
  call void @llvm.dbg.declare(metadata %"class.std::vector"** %3, metadata !3498, metadata !3199), !dbg !3499
  %4 = load %"class.std::vector"*, %"class.std::vector"** %3, align 8
  %5 = bitcast %"class.std::vector"* %4 to %"struct.std::_Vector_base"*, !dbg !3500
  %6 = getelementptr inbounds %"struct.std::_Vector_base", %"struct.std::_Vector_base"* %5, i32 0, i32 0, !dbg !3500
  %7 = getelementptr inbounds %"struct.std::_Vector_base<dining_phil_prob::Philosopher *, std::allocator<dining_phil_prob::Philosopher *> >::_Vector_impl", %"struct.std::_Vector_base<dining_phil_prob::Philosopher *, std::allocator<dining_phil_prob::Philosopher *> >::_Vector_impl"* %6, i32 0, i32 0, !dbg !3501
  call void @_ZN9__gnu_cxx17__normal_iteratorIPPN16dining_phil_prob11PhilosopherESt6vectorIS3_SaIS3_EEEC2ERKS4_(%"class.__gnu_cxx::__normal_iterator"* %2, %"class.dining_phil_prob::Philosopher"*** dereferenceable(8) %7) #3, !dbg !3502
  %8 = getelementptr inbounds %"class.__gnu_cxx::__normal_iterator", %"class.__gnu_cxx::__normal_iterator"* %2, i32 0, i32 0, !dbg !3503
  %9 = load %"class.dining_phil_prob::Philosopher"**, %"class.dining_phil_prob::Philosopher"*** %8, align 8, !dbg !3503
  ret %"class.dining_phil_prob::Philosopher"** %9, !dbg !3503
}

; Function Attrs: nounwind uwtable
define linkonce_odr %"class.dining_phil_prob::Philosopher"** @_ZNSt6vectorIPN16dining_phil_prob11PhilosopherESaIS2_EE3endEv(%"class.std::vector"*) #4 comdat align 2 !dbg !3504 {
  %2 = alloca %"class.__gnu_cxx::__normal_iterator", align 8
  %3 = alloca %"class.std::vector"*, align 8
  store %"class.std::vector"* %0, %"class.std::vector"** %3, align 8
  call void @llvm.dbg.declare(metadata %"class.std::vector"** %3, metadata !3505, metadata !3199), !dbg !3506
  %4 = load %"class.std::vector"*, %"class.std::vector"** %3, align 8
  %5 = bitcast %"class.std::vector"* %4 to %"struct.std::_Vector_base"*, !dbg !3507
  %6 = getelementptr inbounds %"struct.std::_Vector_base", %"struct.std::_Vector_base"* %5, i32 0, i32 0, !dbg !3507
  %7 = getelementptr inbounds %"struct.std::_Vector_base<dining_phil_prob::Philosopher *, std::allocator<dining_phil_prob::Philosopher *> >::_Vector_impl", %"struct.std::_Vector_base<dining_phil_prob::Philosopher *, std::allocator<dining_phil_prob::Philosopher *> >::_Vector_impl"* %6, i32 0, i32 1, !dbg !3508
  call void @_ZN9__gnu_cxx17__normal_iteratorIPPN16dining_phil_prob11PhilosopherESt6vectorIS3_SaIS3_EEEC2ERKS4_(%"class.__gnu_cxx::__normal_iterator"* %2, %"class.dining_phil_prob::Philosopher"*** dereferenceable(8) %7) #3, !dbg !3509
  %8 = getelementptr inbounds %"class.__gnu_cxx::__normal_iterator", %"class.__gnu_cxx::__normal_iterator"* %2, i32 0, i32 0, !dbg !3510
  %9 = load %"class.dining_phil_prob::Philosopher"**, %"class.dining_phil_prob::Philosopher"*** %8, align 8, !dbg !3510
  ret %"class.dining_phil_prob::Philosopher"** %9, !dbg !3510
}

; Function Attrs: inlinehint nounwind uwtable
define linkonce_odr zeroext i1 @_ZN9__gnu_cxxneIPPN16dining_phil_prob11PhilosopherESt6vectorIS3_SaIS3_EEEEbRKNS_17__normal_iteratorIT_T0_EESD_(%"class.__gnu_cxx::__normal_iterator"* dereferenceable(8), %"class.__gnu_cxx::__normal_iterator"* dereferenceable(8)) #9 comdat !dbg !3511 {
  %3 = alloca %"class.__gnu_cxx::__normal_iterator"*, align 8
  %4 = alloca %"class.__gnu_cxx::__normal_iterator"*, align 8
  store %"class.__gnu_cxx::__normal_iterator"* %0, %"class.__gnu_cxx::__normal_iterator"** %3, align 8
  call void @llvm.dbg.declare(metadata %"class.__gnu_cxx::__normal_iterator"** %3, metadata !3515, metadata !3199), !dbg !3516
  store %"class.__gnu_cxx::__normal_iterator"* %1, %"class.__gnu_cxx::__normal_iterator"** %4, align 8
  call void @llvm.dbg.declare(metadata %"class.__gnu_cxx::__normal_iterator"** %4, metadata !3517, metadata !3199), !dbg !3518
  %5 = load %"class.__gnu_cxx::__normal_iterator"*, %"class.__gnu_cxx::__normal_iterator"** %3, align 8, !dbg !3519
  %6 = call dereferenceable(8) %"class.dining_phil_prob::Philosopher"*** @_ZNK9__gnu_cxx17__normal_iteratorIPPN16dining_phil_prob11PhilosopherESt6vectorIS3_SaIS3_EEE4baseEv(%"class.__gnu_cxx::__normal_iterator"* %5) #3, !dbg !3520
  %7 = load %"class.dining_phil_prob::Philosopher"**, %"class.dining_phil_prob::Philosopher"*** %6, align 8, !dbg !3520
  %8 = load %"class.__gnu_cxx::__normal_iterator"*, %"class.__gnu_cxx::__normal_iterator"** %4, align 8, !dbg !3521
  %9 = call dereferenceable(8) %"class.dining_phil_prob::Philosopher"*** @_ZNK9__gnu_cxx17__normal_iteratorIPPN16dining_phil_prob11PhilosopherESt6vectorIS3_SaIS3_EEE4baseEv(%"class.__gnu_cxx::__normal_iterator"* %8) #3, !dbg !3522
  %10 = load %"class.dining_phil_prob::Philosopher"**, %"class.dining_phil_prob::Philosopher"*** %9, align 8, !dbg !3524
  %11 = icmp ne %"class.dining_phil_prob::Philosopher"** %7, %10, !dbg !3525
  ret i1 %11, !dbg !3526
}

; Function Attrs: nounwind uwtable
define linkonce_odr dereferenceable(8) %"class.dining_phil_prob::Philosopher"** @_ZNK9__gnu_cxx17__normal_iteratorIPPN16dining_phil_prob11PhilosopherESt6vectorIS3_SaIS3_EEEdeEv(%"class.__gnu_cxx::__normal_iterator"*) #4 comdat align 2 !dbg !3527 {
  %2 = alloca %"class.__gnu_cxx::__normal_iterator"*, align 8
  store %"class.__gnu_cxx::__normal_iterator"* %0, %"class.__gnu_cxx::__normal_iterator"** %2, align 8
  call void @llvm.dbg.declare(metadata %"class.__gnu_cxx::__normal_iterator"** %2, metadata !3528, metadata !3199), !dbg !3530
  %3 = load %"class.__gnu_cxx::__normal_iterator"*, %"class.__gnu_cxx::__normal_iterator"** %2, align 8
  %4 = getelementptr inbounds %"class.__gnu_cxx::__normal_iterator", %"class.__gnu_cxx::__normal_iterator"* %3, i32 0, i32 0, !dbg !3531
  %5 = load %"class.dining_phil_prob::Philosopher"**, %"class.dining_phil_prob::Philosopher"*** %4, align 8, !dbg !3531
  ret %"class.dining_phil_prob::Philosopher"** %5, !dbg !3532
}

; Function Attrs: uwtable
define linkonce_odr void @_ZN16dining_phil_prob11Philosopher5startEv(%"class.dining_phil_prob::Philosopher"*) #0 comdat align 2 !dbg !3533 {
  %2 = alloca %"class.dining_phil_prob::Philosopher"*, align 8
  %3 = alloca { i64, i64 }, align 8
  %4 = alloca %"class.dining_phil_prob::Philosopher"*, align 8
  store %"class.dining_phil_prob::Philosopher"* %0, %"class.dining_phil_prob::Philosopher"** %2, align 8
  call void @llvm.dbg.declare(metadata %"class.dining_phil_prob::Philosopher"** %2, metadata !3534, metadata !3199), !dbg !3535
  %5 = load %"class.dining_phil_prob::Philosopher"*, %"class.dining_phil_prob::Philosopher"** %2, align 8
  %6 = getelementptr inbounds %"class.dining_phil_prob::Philosopher", %"class.dining_phil_prob::Philosopher"* %5, i32 0, i32 0, !dbg !3536
  store { i64, i64 } { i64 ptrtoint (void (%"class.dining_phil_prob::Philosopher"*)* @_ZN16dining_phil_prob11Philosopher4execEv to i64), i64 0 }, { i64, i64 }* %3, align 8, !dbg !3537
  store %"class.dining_phil_prob::Philosopher"* %5, %"class.dining_phil_prob::Philosopher"** %4, align 8, !dbg !3538
  call void @_ZN9IrsThreadclIJMN16dining_phil_prob11PhilosopherEFvvEPS2_EEEvDpOT_(%class.IrsThread* %6, { i64, i64 }* dereferenceable(16) %3, %"class.dining_phil_prob::Philosopher"** dereferenceable(8) %4), !dbg !3536
  ret void, !dbg !3539
}

; Function Attrs: nounwind uwtable
define linkonce_odr dereferenceable(8) %"class.__gnu_cxx::__normal_iterator"* @_ZN9__gnu_cxx17__normal_iteratorIPPN16dining_phil_prob11PhilosopherESt6vectorIS3_SaIS3_EEEppEv(%"class.__gnu_cxx::__normal_iterator"*) #4 comdat align 2 !dbg !3540 {
  %2 = alloca %"class.__gnu_cxx::__normal_iterator"*, align 8
  store %"class.__gnu_cxx::__normal_iterator"* %0, %"class.__gnu_cxx::__normal_iterator"** %2, align 8
  call void @llvm.dbg.declare(metadata %"class.__gnu_cxx::__normal_iterator"** %2, metadata !3541, metadata !3199), !dbg !3543
  %3 = load %"class.__gnu_cxx::__normal_iterator"*, %"class.__gnu_cxx::__normal_iterator"** %2, align 8
  %4 = getelementptr inbounds %"class.__gnu_cxx::__normal_iterator", %"class.__gnu_cxx::__normal_iterator"* %3, i32 0, i32 0, !dbg !3544
  %5 = load %"class.dining_phil_prob::Philosopher"**, %"class.dining_phil_prob::Philosopher"*** %4, align 8, !dbg !3545
  %6 = getelementptr inbounds %"class.dining_phil_prob::Philosopher"*, %"class.dining_phil_prob::Philosopher"** %5, i32 1, !dbg !3545
  store %"class.dining_phil_prob::Philosopher"** %6, %"class.dining_phil_prob::Philosopher"*** %4, align 8, !dbg !3545
  ret %"class.__gnu_cxx::__normal_iterator"* %3, !dbg !3546
}

; Function Attrs: uwtable
define linkonce_odr void @_ZN16dining_phil_prob11Philosopher4joinEv(%"class.dining_phil_prob::Philosopher"*) #0 comdat align 2 !dbg !3547 {
  %2 = alloca %"class.dining_phil_prob::Philosopher"*, align 8
  store %"class.dining_phil_prob::Philosopher"* %0, %"class.dining_phil_prob::Philosopher"** %2, align 8
  call void @llvm.dbg.declare(metadata %"class.dining_phil_prob::Philosopher"** %2, metadata !3548, metadata !3199), !dbg !3549
  %3 = load %"class.dining_phil_prob::Philosopher"*, %"class.dining_phil_prob::Philosopher"** %2, align 8
  %4 = getelementptr inbounds %"class.dining_phil_prob::Philosopher", %"class.dining_phil_prob::Philosopher"* %3, i32 0, i32 0, !dbg !3550
  call void @_ZN9IrsThread4joinEv(%class.IrsThread* %4), !dbg !3551
  ret void, !dbg !3552
}

; Function Attrs: uwtable
define linkonce_odr i64 @_ZNSt6chrono13duration_castINS_8durationIlSt5ratioILl1ELl1000000EEEElS2_ILl1ELl1000000000EEEENSt9enable_ifIXsr13__is_durationIT_EE5valueES7_E4typeERKNS1_IT0_T1_EE(%"struct.std::chrono::duration"* dereferenceable(8)) #0 comdat !dbg !3553 {
  %2 = alloca %"struct.std::chrono::duration.0", align 8
  %3 = alloca %"struct.std::chrono::duration"*, align 8
  store %"struct.std::chrono::duration"* %0, %"struct.std::chrono::duration"** %3, align 8
  call void @llvm.dbg.declare(metadata %"struct.std::chrono::duration"** %3, metadata !3562, metadata !3199), !dbg !3563
  %4 = load %"struct.std::chrono::duration"*, %"struct.std::chrono::duration"** %3, align 8, !dbg !3564
  %5 = call i64 @_ZNSt6chrono20__duration_cast_implINS_8durationIlSt5ratioILl1ELl1000000EEEES2_ILl1ELl1000EElLb1ELb0EE6__castIlS2_ILl1ELl1000000000EEEES4_RKNS1_IT_T0_EE(%"struct.std::chrono::duration"* dereferenceable(8) %4), !dbg !3565
  %6 = getelementptr inbounds %"struct.std::chrono::duration.0", %"struct.std::chrono::duration.0"* %2, i32 0, i32 0, !dbg !3565
  store i64 %5, i64* %6, align 8, !dbg !3565
  %7 = getelementptr inbounds %"struct.std::chrono::duration.0", %"struct.std::chrono::duration.0"* %2, i32 0, i32 0, !dbg !3566
  %8 = load i64, i64* %7, align 8, !dbg !3566
  ret i64 %8, !dbg !3566
}

; Function Attrs: uwtable
define linkonce_odr i64 @_ZNSt6chronomiINS_3_V212system_clockENS_8durationIlSt5ratioILl1ELl1000000000EEEES6_EENSt11common_typeIJT0_T1_EE4typeERKNS_10time_pointIT_S8_EERKNSC_ISD_S9_EE(%"struct.std::chrono::time_point"* dereferenceable(8), %"struct.std::chrono::time_point"* dereferenceable(8)) #0 comdat !dbg !3567 {
  %3 = alloca %"struct.std::chrono::duration", align 8
  %4 = alloca %"struct.std::chrono::time_point"*, align 8
  %5 = alloca %"struct.std::chrono::time_point"*, align 8
  %6 = alloca %"struct.std::chrono::duration", align 8
  %7 = alloca %"struct.std::chrono::duration", align 8
  store %"struct.std::chrono::time_point"* %0, %"struct.std::chrono::time_point"** %4, align 8
  call void @llvm.dbg.declare(metadata %"struct.std::chrono::time_point"** %4, metadata !3574, metadata !3199), !dbg !3575
  store %"struct.std::chrono::time_point"* %1, %"struct.std::chrono::time_point"** %5, align 8
  call void @llvm.dbg.declare(metadata %"struct.std::chrono::time_point"** %5, metadata !3576, metadata !3199), !dbg !3577
  %8 = load %"struct.std::chrono::time_point"*, %"struct.std::chrono::time_point"** %4, align 8, !dbg !3578
  %9 = call i64 @_ZNKSt6chrono10time_pointINS_3_V212system_clockENS_8durationIlSt5ratioILl1ELl1000000000EEEEE16time_since_epochEv(%"struct.std::chrono::time_point"* %8), !dbg !3579
  %10 = getelementptr inbounds %"struct.std::chrono::duration", %"struct.std::chrono::duration"* %6, i32 0, i32 0, !dbg !3579
  store i64 %9, i64* %10, align 8, !dbg !3579
  %11 = load %"struct.std::chrono::time_point"*, %"struct.std::chrono::time_point"** %5, align 8, !dbg !3580
  %12 = call i64 @_ZNKSt6chrono10time_pointINS_3_V212system_clockENS_8durationIlSt5ratioILl1ELl1000000000EEEEE16time_since_epochEv(%"struct.std::chrono::time_point"* %11), !dbg !3581
  %13 = getelementptr inbounds %"struct.std::chrono::duration", %"struct.std::chrono::duration"* %7, i32 0, i32 0, !dbg !3583
  store i64 %12, i64* %13, align 8, !dbg !3583
  %14 = call i64 @_ZNSt6chronomiIlSt5ratioILl1ELl1000000000EElS2_EENSt11common_typeIJNS_8durationIT_T0_EENS4_IT1_T2_EEEE4typeERKS7_RKSA_(%"struct.std::chrono::duration"* dereferenceable(8) %6, %"struct.std::chrono::duration"* dereferenceable(8) %7), !dbg !3584
  %15 = getelementptr inbounds %"struct.std::chrono::duration", %"struct.std::chrono::duration"* %3, i32 0, i32 0, !dbg !3586
  store i64 %14, i64* %15, align 8, !dbg !3586
  %16 = getelementptr inbounds %"struct.std::chrono::duration", %"struct.std::chrono::duration"* %3, i32 0, i32 0, !dbg !3587
  %17 = load i64, i64* %16, align 8, !dbg !3587
  ret i64 %17, !dbg !3587
}

; Function Attrs: nounwind uwtable
define linkonce_odr i64 @_ZNKSt6chrono8durationIlSt5ratioILl1ELl1000000EEE5countEv(%"struct.std::chrono::duration.0"*) #4 comdat align 2 !dbg !3588 {
  %2 = alloca %"struct.std::chrono::duration.0"*, align 8
  store %"struct.std::chrono::duration.0"* %0, %"struct.std::chrono::duration.0"** %2, align 8
  call void @llvm.dbg.declare(metadata %"struct.std::chrono::duration.0"** %2, metadata !3589, metadata !3199), !dbg !3591
  %3 = load %"struct.std::chrono::duration.0"*, %"struct.std::chrono::duration.0"** %2, align 8
  %4 = getelementptr inbounds %"struct.std::chrono::duration.0", %"struct.std::chrono::duration.0"* %3, i32 0, i32 0, !dbg !3592
  %5 = load i64, i64* %4, align 8, !dbg !3592
  ret i64 %5, !dbg !3593
}

declare dereferenceable(272) %"class.std::basic_ostream"* @_ZNSolsEl(%"class.std::basic_ostream"*, i64) #1

declare dereferenceable(272) %"class.std::basic_ostream"* @_ZNSolsEPFRSoS_E(%"class.std::basic_ostream"*, %"class.std::basic_ostream"* (%"class.std::basic_ostream"*)*) #1

declare dereferenceable(272) %"class.std::basic_ostream"* @_ZSt4endlIcSt11char_traitsIcEERSt13basic_ostreamIT_T0_ES6_(%"class.std::basic_ostream"* dereferenceable(272)) #1

; Function Attrs: inlinehint nounwind uwtable
define linkonce_odr void @_ZN16dining_phil_prob11PhilosopherD2Ev(%"class.dining_phil_prob::Philosopher"*) unnamed_addr #9 comdat align 2 !dbg !3594 {
  %2 = alloca %"class.dining_phil_prob::Philosopher"*, align 8
  store %"class.dining_phil_prob::Philosopher"* %0, %"class.dining_phil_prob::Philosopher"** %2, align 8
  call void @llvm.dbg.declare(metadata %"class.dining_phil_prob::Philosopher"** %2, metadata !3596, metadata !3199), !dbg !3597
  %3 = load %"class.dining_phil_prob::Philosopher"*, %"class.dining_phil_prob::Philosopher"** %2, align 8
  %4 = getelementptr inbounds %"class.dining_phil_prob::Philosopher", %"class.dining_phil_prob::Philosopher"* %3, i32 0, i32 0, !dbg !3598
  call void @_ZN9IrsThreadD2Ev(%class.IrsThread* %4) #3, !dbg !3598
  ret void, !dbg !3600
}

; Function Attrs: nounwind uwtable
define linkonce_odr void @_ZNSt6vectorIPN16dining_phil_prob11PhilosopherESaIS2_EED2Ev(%"class.std::vector"*) unnamed_addr #4 comdat align 2 personality i8* bitcast (i32 (...)* @__gxx_personality_v0 to i8*) !dbg !3601 {
  %2 = alloca %"class.std::vector"*, align 8
  %3 = alloca i8*
  %4 = alloca i32
  store %"class.std::vector"* %0, %"class.std::vector"** %2, align 8
  call void @llvm.dbg.declare(metadata %"class.std::vector"** %2, metadata !3602, metadata !3199), !dbg !3603
  %5 = load %"class.std::vector"*, %"class.std::vector"** %2, align 8
  %6 = bitcast %"class.std::vector"* %5 to %"struct.std::_Vector_base"*, !dbg !3604
  %7 = getelementptr inbounds %"struct.std::_Vector_base", %"struct.std::_Vector_base"* %6, i32 0, i32 0, !dbg !3604
  %8 = getelementptr inbounds %"struct.std::_Vector_base<dining_phil_prob::Philosopher *, std::allocator<dining_phil_prob::Philosopher *> >::_Vector_impl", %"struct.std::_Vector_base<dining_phil_prob::Philosopher *, std::allocator<dining_phil_prob::Philosopher *> >::_Vector_impl"* %7, i32 0, i32 0, !dbg !3606
  %9 = load %"class.dining_phil_prob::Philosopher"**, %"class.dining_phil_prob::Philosopher"*** %8, align 8, !dbg !3606
  %10 = bitcast %"class.std::vector"* %5 to %"struct.std::_Vector_base"*, !dbg !3607
  %11 = getelementptr inbounds %"struct.std::_Vector_base", %"struct.std::_Vector_base"* %10, i32 0, i32 0, !dbg !3607
  %12 = getelementptr inbounds %"struct.std::_Vector_base<dining_phil_prob::Philosopher *, std::allocator<dining_phil_prob::Philosopher *> >::_Vector_impl", %"struct.std::_Vector_base<dining_phil_prob::Philosopher *, std::allocator<dining_phil_prob::Philosopher *> >::_Vector_impl"* %11, i32 0, i32 1, !dbg !3608
  %13 = load %"class.dining_phil_prob::Philosopher"**, %"class.dining_phil_prob::Philosopher"*** %12, align 8, !dbg !3608
  %14 = bitcast %"class.std::vector"* %5 to %"struct.std::_Vector_base"*, !dbg !3609
  %15 = call dereferenceable(1) %"class.std::allocator"* @_ZNSt12_Vector_baseIPN16dining_phil_prob11PhilosopherESaIS2_EE19_M_get_Tp_allocatorEv(%"struct.std::_Vector_base"* %14) #3, !dbg !3609
  invoke void @_ZSt8_DestroyIPPN16dining_phil_prob11PhilosopherES2_EvT_S4_RSaIT0_E(%"class.dining_phil_prob::Philosopher"** %9, %"class.dining_phil_prob::Philosopher"** %13, %"class.std::allocator"* dereferenceable(1) %15)
          to label %16 unwind label %18, !dbg !3610

; <label>:16:                                     ; preds = %1
  %17 = bitcast %"class.std::vector"* %5 to %"struct.std::_Vector_base"*, !dbg !3611
  call void @_ZNSt12_Vector_baseIPN16dining_phil_prob11PhilosopherESaIS2_EED2Ev(%"struct.std::_Vector_base"* %17) #3, !dbg !3611
  ret void, !dbg !3611

; <label>:18:                                     ; preds = %1
  %19 = landingpad { i8*, i32 }
          catch i8* null, !dbg !3613
  %20 = extractvalue { i8*, i32 } %19, 0, !dbg !3613
  store i8* %20, i8** %3, align 8, !dbg !3613
  %21 = extractvalue { i8*, i32 } %19, 1, !dbg !3613
  store i32 %21, i32* %4, align 4, !dbg !3613
  %22 = bitcast %"class.std::vector"* %5 to %"struct.std::_Vector_base"*, !dbg !3613
  call void @_ZNSt12_Vector_baseIPN16dining_phil_prob11PhilosopherESaIS2_EED2Ev(%"struct.std::_Vector_base"* %22) #3, !dbg !3613
  br label %23, !dbg !3613

; <label>:23:                                     ; preds = %18
  %24 = load i8*, i8** %3, align 8, !dbg !3615
  call void @__clang_call_terminate(i8* %24) #17, !dbg !3615
  unreachable, !dbg !3615
}

; Function Attrs: nounwind uwtable
define linkonce_odr void @_ZN9IrsThreadC2Ei(%class.IrsThread*, i32) unnamed_addr #4 comdat align 2 !dbg !3617 {
  %3 = alloca %class.IrsThread*, align 8
  %4 = alloca i32, align 4
  store %class.IrsThread* %0, %class.IrsThread** %3, align 8
  call void @llvm.dbg.declare(metadata %class.IrsThread** %3, metadata !3618, metadata !3199), !dbg !3620
  store i32 %1, i32* %4, align 4
  call void @llvm.dbg.declare(metadata i32* %4, metadata !3621, metadata !3199), !dbg !3622
  %5 = load %class.IrsThread*, %class.IrsThread** %3, align 8
  %6 = getelementptr inbounds %class.IrsThread, %class.IrsThread* %5, i32 0, i32 0, !dbg !3623
  call void @_ZNSt6threadC2Ev(%"class.std::thread"* %6) #3, !dbg !3623
  %7 = getelementptr inbounds %class.IrsThread, %class.IrsThread* %5, i32 0, i32 1, !dbg !3624
  %8 = load i32, i32* %4, align 4, !dbg !3625
  store i32 %8, i32* %7, align 8, !dbg !3624
  ret void, !dbg !3626
}

; Function Attrs: nounwind uwtable
define linkonce_odr void @_ZNSt6threadC2Ev(%"class.std::thread"*) unnamed_addr #4 comdat align 2 !dbg !3627 {
  %2 = alloca %"class.std::thread"*, align 8
  store %"class.std::thread"* %0, %"class.std::thread"** %2, align 8
  call void @llvm.dbg.declare(metadata %"class.std::thread"** %2, metadata !3628, metadata !3199), !dbg !3630
  %3 = load %"class.std::thread"*, %"class.std::thread"** %2, align 8
  %4 = getelementptr inbounds %"class.std::thread", %"class.std::thread"* %3, i32 0, i32 0, !dbg !3631
  call void @_ZNSt6thread2idC2Ev(%"class.std::thread::id"* %4) #3, !dbg !3631
  ret void, !dbg !3632
}

; Function Attrs: nounwind uwtable
define linkonce_odr void @_ZNSt6thread2idC2Ev(%"class.std::thread::id"*) unnamed_addr #4 comdat align 2 !dbg !3633 {
  %2 = alloca %"class.std::thread::id"*, align 8
  store %"class.std::thread::id"* %0, %"class.std::thread::id"** %2, align 8
  call void @llvm.dbg.declare(metadata %"class.std::thread::id"** %2, metadata !3634, metadata !3199), !dbg !3636
  %3 = load %"class.std::thread::id"*, %"class.std::thread::id"** %2, align 8
  %4 = getelementptr inbounds %"class.std::thread::id", %"class.std::thread::id"* %3, i32 0, i32 0, !dbg !3637
  store i64 0, i64* %4, align 8, !dbg !3637
  ret void, !dbg !3638
}

; Function Attrs: uwtable
define linkonce_odr void @_ZN9IrsThreadclIJMN16dining_phil_prob11PhilosopherEFvvEPS2_EEEvDpOT_(%class.IrsThread*, { i64, i64 }* dereferenceable(16), %"class.dining_phil_prob::Philosopher"** dereferenceable(8)) #0 comdat align 2 !dbg !3639 {
  %4 = alloca %class.IrsThread*, align 8
  %5 = alloca { i64, i64 }*, align 8
  %6 = alloca %"class.dining_phil_prob::Philosopher"**, align 8
  %7 = alloca %"class.std::thread", align 8
  store %class.IrsThread* %0, %class.IrsThread** %4, align 8
  call void @llvm.dbg.declare(metadata %class.IrsThread** %4, metadata !3648, metadata !3199), !dbg !3649
  store { i64, i64 }* %1, { i64, i64 }** %5, align 8
  call void @llvm.dbg.declare(metadata { i64, i64 }** %5, metadata !3650, metadata !3199), !dbg !3651
  store %"class.dining_phil_prob::Philosopher"** %2, %"class.dining_phil_prob::Philosopher"*** %6, align 8
  call void @llvm.dbg.declare(metadata %"class.dining_phil_prob::Philosopher"*** %6, metadata !3652, metadata !3199), !dbg !3651
  %8 = load %class.IrsThread*, %class.IrsThread** %4, align 8
  %9 = getelementptr inbounds %class.IrsThread, %class.IrsThread* %8, i32 0, i32 0, !dbg !3653
  %10 = load { i64, i64 }*, { i64, i64 }** %5, align 8, !dbg !3654
  %11 = call dereferenceable(16) { i64, i64 }* @_ZSt7forwardIMN16dining_phil_prob11PhilosopherEFvvEEOT_RNSt16remove_referenceIS4_E4typeE({ i64, i64 }* dereferenceable(16) %10) #3, !dbg !3655
  %12 = load %"class.dining_phil_prob::Philosopher"**, %"class.dining_phil_prob::Philosopher"*** %6, align 8, !dbg !3654
  %13 = call dereferenceable(8) %"class.dining_phil_prob::Philosopher"** @_ZSt7forwardIPN16dining_phil_prob11PhilosopherEEOT_RNSt16remove_referenceIS3_E4typeE(%"class.dining_phil_prob::Philosopher"** dereferenceable(8) %12) #3, !dbg !3656
  call void @_ZNSt6threadC2IMN16dining_phil_prob11PhilosopherEFvvEJPS2_EEEOT_DpOT0_(%"class.std::thread"* %7, { i64, i64 }* dereferenceable(16) %11, %"class.dining_phil_prob::Philosopher"** dereferenceable(8) %13), !dbg !3658
  %14 = call dereferenceable(8) %"class.std::thread"* @_ZNSt6threadaSEOS_(%"class.std::thread"* %9, %"class.std::thread"* dereferenceable(8) %7) #3, !dbg !3660
  call void @_ZNSt6threadD2Ev(%"class.std::thread"* %7) #3, !dbg !3662
  ret void, !dbg !3664
}

; Function Attrs: uwtable
define linkonce_odr void @_ZN16dining_phil_prob11Philosopher4execEv(%"class.dining_phil_prob::Philosopher"*) #0 comdat align 2 !dbg !3665 {
  %2 = alloca %"class.dining_phil_prob::Philosopher"*, align 8
  %3 = alloca i32, align 4
  %4 = alloca i32, align 4
  store %"class.dining_phil_prob::Philosopher"* %0, %"class.dining_phil_prob::Philosopher"** %2, align 8
  call void @llvm.dbg.declare(metadata %"class.dining_phil_prob::Philosopher"** %2, metadata !3666, metadata !3199), !dbg !3667
  %5 = load %"class.dining_phil_prob::Philosopher"*, %"class.dining_phil_prob::Philosopher"** %2, align 8
  call void @llvm.dbg.declare(metadata i32* %3, metadata !3668, metadata !3199), !dbg !3669
  %6 = call i32 @_ZN16dining_phil_prob11Philosopher11getThreadIdEv(%"class.dining_phil_prob::Philosopher"* %5), !dbg !3670
  store i32 %6, i32* %3, align 4, !dbg !3669
  call void @llvm.dbg.declare(metadata i32* %4, metadata !3671, metadata !3199), !dbg !3672
  store i32 0, i32* %4, align 4, !dbg !3673
  br label %7, !dbg !3675

; <label>:7:                                      ; preds = %63, %1
  %8 = load i32, i32* %4, align 4, !dbg !3676
  %9 = icmp slt i32 %8, 4, !dbg !3679
  br i1 %9, label %10, label %66, !dbg !3680

; <label>:10:                                     ; preds = %7
  br label %11, !dbg !3681

; <label>:11:                                     ; preds = %28, %10
  %12 = load i32, i32* %3, align 4, !dbg !3683
  %13 = srem i32 %12, 16, !dbg !3685
  %14 = sext i32 %13 to i64, !dbg !3686
  %15 = getelementptr inbounds [16 x i32], [16 x i32]* @_ZN16dining_phil_prob12g_chopsticksE, i64 0, i64 %14, !dbg !3686
  %16 = load i32, i32* %15, align 4, !dbg !3686
  %17 = icmp ne i32 %16, 0, !dbg !3687
  br i1 %17, label %18, label %26, !dbg !3688

; <label>:18:                                     ; preds = %11
  %19 = load i32, i32* %3, align 4, !dbg !3689
  %20 = sub nsw i32 %19, 1, !dbg !3691
  %21 = srem i32 %20, 16, !dbg !3692
  %22 = sext i32 %21 to i64, !dbg !3693
  %23 = getelementptr inbounds [16 x i32], [16 x i32]* @_ZN16dining_phil_prob12g_chopsticksE, i64 0, i64 %22, !dbg !3693
  %24 = load i32, i32* %23, align 4, !dbg !3693
  %25 = icmp ne i32 %24, 0, !dbg !3694
  br label %26

; <label>:26:                                     ; preds = %18, %11
  %27 = phi i1 [ false, %11 ], [ %25, %18 ]
  br i1 %27, label %28, label %29, !dbg !3695

; <label>:28:                                     ; preds = %26
  br label %11, !dbg !3697, !llvm.loop !3699

; <label>:29:                                     ; preds = %26
  %30 = load i32, i32* %3, align 4, !dbg !3700
  %31 = srem i32 %30, 2, !dbg !3702
  %32 = icmp eq i32 %31, 0, !dbg !3703
  br i1 %32, label %33, label %43, !dbg !3704

; <label>:33:                                     ; preds = %29
  %34 = load i32, i32* %3, align 4, !dbg !3705
  %35 = srem i32 %34, 16, !dbg !3707
  %36 = sext i32 %35 to i64, !dbg !3708
  %37 = getelementptr inbounds [16 x i32], [16 x i32]* @_ZN16dining_phil_prob12g_chopsticksE, i64 0, i64 %36, !dbg !3708
  store i32 1, i32* %37, align 4, !dbg !3709
  %38 = load i32, i32* %3, align 4, !dbg !3710
  %39 = sub nsw i32 %38, 1, !dbg !3711
  %40 = srem i32 %39, 16, !dbg !3712
  %41 = sext i32 %40 to i64, !dbg !3713
  %42 = getelementptr inbounds [16 x i32], [16 x i32]* @_ZN16dining_phil_prob12g_chopsticksE, i64 0, i64 %41, !dbg !3713
  store i32 1, i32* %42, align 4, !dbg !3714
  br label %53, !dbg !3715

; <label>:43:                                     ; preds = %29
  %44 = load i32, i32* %3, align 4, !dbg !3716
  %45 = sub nsw i32 %44, 1, !dbg !3718
  %46 = srem i32 %45, 16, !dbg !3719
  %47 = sext i32 %46 to i64, !dbg !3720
  %48 = getelementptr inbounds [16 x i32], [16 x i32]* @_ZN16dining_phil_prob12g_chopsticksE, i64 0, i64 %47, !dbg !3720
  store i32 1, i32* %48, align 4, !dbg !3721
  %49 = load i32, i32* %3, align 4, !dbg !3722
  %50 = srem i32 %49, 16, !dbg !3723
  %51 = sext i32 %50 to i64, !dbg !3724
  %52 = getelementptr inbounds [16 x i32], [16 x i32]* @_ZN16dining_phil_prob12g_chopsticksE, i64 0, i64 %51, !dbg !3724
  store i32 1, i32* %52, align 4, !dbg !3725
  br label %53

; <label>:53:                                     ; preds = %43, %33
  %54 = load i32, i32* %3, align 4, !dbg !3726
  %55 = sub nsw i32 %54, 1, !dbg !3727
  %56 = srem i32 %55, 16, !dbg !3728
  %57 = sext i32 %56 to i64, !dbg !3729
  %58 = getelementptr inbounds [16 x i32], [16 x i32]* @_ZN16dining_phil_prob12g_chopsticksE, i64 0, i64 %57, !dbg !3729
  store i32 0, i32* %58, align 4, !dbg !3730
  %59 = load i32, i32* %3, align 4, !dbg !3731
  %60 = srem i32 %59, 16, !dbg !3732
  %61 = sext i32 %60 to i64, !dbg !3733
  %62 = getelementptr inbounds [16 x i32], [16 x i32]* @_ZN16dining_phil_prob12g_chopsticksE, i64 0, i64 %61, !dbg !3733
  store i32 0, i32* %62, align 4, !dbg !3734
  br label %63, !dbg !3735

; <label>:63:                                     ; preds = %53
  %64 = load i32, i32* %4, align 4, !dbg !3736
  %65 = add nsw i32 %64, 1, !dbg !3736
  store i32 %65, i32* %4, align 4, !dbg !3736
  br label %7, !dbg !3738, !llvm.loop !3739

; <label>:66:                                     ; preds = %7
  ret void, !dbg !3741
}

; Function Attrs: nounwind uwtable
define linkonce_odr dereferenceable(8) %"class.std::thread"* @_ZNSt6threadaSEOS_(%"class.std::thread"*, %"class.std::thread"* dereferenceable(8)) #4 comdat align 2 !dbg !3742 {
  %3 = alloca %"class.std::thread"*, align 8
  %4 = alloca %"class.std::thread"*, align 8
  store %"class.std::thread"* %0, %"class.std::thread"** %3, align 8
  call void @llvm.dbg.declare(metadata %"class.std::thread"** %3, metadata !3743, metadata !3199), !dbg !3744
  store %"class.std::thread"* %1, %"class.std::thread"** %4, align 8
  call void @llvm.dbg.declare(metadata %"class.std::thread"** %4, metadata !3745, metadata !3199), !dbg !3746
  %5 = load %"class.std::thread"*, %"class.std::thread"** %3, align 8
  %6 = call zeroext i1 @_ZNKSt6thread8joinableEv(%"class.std::thread"* %5) #3, !dbg !3747
  br i1 %6, label %7, label %8, !dbg !3749

; <label>:7:                                      ; preds = %2
  call void @_ZSt9terminatev() #17, !dbg !3750
  unreachable, !dbg !3750

; <label>:8:                                      ; preds = %2
  %9 = load %"class.std::thread"*, %"class.std::thread"** %4, align 8, !dbg !3751
  call void @_ZNSt6thread4swapERS_(%"class.std::thread"* %5, %"class.std::thread"* dereferenceable(8) %9) #3, !dbg !3752
  ret %"class.std::thread"* %5, !dbg !3753
}

; Function Attrs: nounwind uwtable
define linkonce_odr dereferenceable(16) { i64, i64 }* @_ZSt7forwardIMN16dining_phil_prob11PhilosopherEFvvEEOT_RNSt16remove_referenceIS4_E4typeE({ i64, i64 }* dereferenceable(16)) #4 comdat !dbg !3754 {
  %2 = alloca { i64, i64 }*, align 8
  store { i64, i64 }* %0, { i64, i64 }** %2, align 8
  call void @llvm.dbg.declare(metadata { i64, i64 }** %2, metadata !3761, metadata !3199), !dbg !3762
  %3 = load { i64, i64 }*, { i64, i64 }** %2, align 8, !dbg !3763
  ret { i64, i64 }* %3, !dbg !3764
}

; Function Attrs: nounwind uwtable
define linkonce_odr dereferenceable(8) %"class.dining_phil_prob::Philosopher"** @_ZSt7forwardIPN16dining_phil_prob11PhilosopherEEOT_RNSt16remove_referenceIS3_E4typeE(%"class.dining_phil_prob::Philosopher"** dereferenceable(8)) #4 comdat !dbg !3765 {
  %2 = alloca %"class.dining_phil_prob::Philosopher"**, align 8
  store %"class.dining_phil_prob::Philosopher"** %0, %"class.dining_phil_prob::Philosopher"*** %2, align 8
  call void @llvm.dbg.declare(metadata %"class.dining_phil_prob::Philosopher"*** %2, metadata !3771, metadata !3199), !dbg !3772
  %3 = load %"class.dining_phil_prob::Philosopher"**, %"class.dining_phil_prob::Philosopher"*** %2, align 8, !dbg !3773
  ret %"class.dining_phil_prob::Philosopher"** %3, !dbg !3774
}

; Function Attrs: uwtable
define linkonce_odr void @_ZNSt6threadC2IMN16dining_phil_prob11PhilosopherEFvvEJPS2_EEEOT_DpOT0_(%"class.std::thread"*, { i64, i64 }* dereferenceable(16), %"class.dining_phil_prob::Philosopher"** dereferenceable(8)) unnamed_addr #0 comdat align 2 personality i8* bitcast (i32 (...)* @__gxx_personality_v0 to i8*) !dbg !3775 {
  %4 = alloca %"class.std::thread"*, align 8
  %5 = alloca { i64, i64 }*, align 8
  %6 = alloca %"class.dining_phil_prob::Philosopher"**, align 8
  %7 = alloca void ()*, align 8
  %8 = alloca %"class.std::unique_ptr", align 8
  %9 = alloca %"struct.std::_Bind_simple", align 8
  %10 = alloca i8*
  %11 = alloca i32
  store %"class.std::thread"* %0, %"class.std::thread"** %4, align 8
  call void @llvm.dbg.declare(metadata %"class.std::thread"** %4, metadata !3781, metadata !3199), !dbg !3782
  store { i64, i64 }* %1, { i64, i64 }** %5, align 8
  call void @llvm.dbg.declare(metadata { i64, i64 }** %5, metadata !3783, metadata !3199), !dbg !3784
  store %"class.dining_phil_prob::Philosopher"** %2, %"class.dining_phil_prob::Philosopher"*** %6, align 8
  call void @llvm.dbg.declare(metadata %"class.dining_phil_prob::Philosopher"*** %6, metadata !3785, metadata !3199), !dbg !3786
  %12 = load %"class.std::thread"*, %"class.std::thread"** %4, align 8
  %13 = getelementptr inbounds %"class.std::thread", %"class.std::thread"* %12, i32 0, i32 0, !dbg !3787
  call void @_ZNSt6thread2idC2Ev(%"class.std::thread::id"* %13) #3, !dbg !3787
  call void @llvm.dbg.declare(metadata void ()** %7, metadata !3788, metadata !3199), !dbg !3790
  store void ()* bitcast (i32 (i64*, %union.pthread_attr_t*, i8* (i8*)*, i8*)* @pthread_create to void ()*), void ()** %7, align 8, !dbg !3790
  %14 = load { i64, i64 }*, { i64, i64 }** %5, align 8, !dbg !3791
  %15 = call dereferenceable(16) { i64, i64 }* @_ZSt7forwardIMN16dining_phil_prob11PhilosopherEFvvEEOT_RNSt16remove_referenceIS4_E4typeE({ i64, i64 }* dereferenceable(16) %14) #3, !dbg !3792
  %16 = load %"class.dining_phil_prob::Philosopher"**, %"class.dining_phil_prob::Philosopher"*** %6, align 8, !dbg !3793
  %17 = call dereferenceable(8) %"class.dining_phil_prob::Philosopher"** @_ZSt7forwardIPN16dining_phil_prob11PhilosopherEEOT_RNSt16remove_referenceIS3_E4typeE(%"class.dining_phil_prob::Philosopher"** dereferenceable(8) %16) #3, !dbg !3794
  call void @_ZSt13__bind_simpleIMN16dining_phil_prob11PhilosopherEFvvEJPS1_EENSt19_Bind_simple_helperIT_JDpT0_EE6__typeEOS6_DpOS7_(%"struct.std::_Bind_simple"* sret %9, { i64, i64 }* dereferenceable(16) %15, %"class.dining_phil_prob::Philosopher"** dereferenceable(8) %17), !dbg !3795
  call void @_ZNSt6thread13_S_make_stateISt12_Bind_simpleIFSt7_Mem_fnIMN16dining_phil_prob11PhilosopherEFvvEEPS4_EEEESt10unique_ptrINS_6_StateESt14default_deleteISC_EEOT_(%"class.std::unique_ptr"* sret %8, %"struct.std::_Bind_simple"* dereferenceable(24) %9), !dbg !3797
  %18 = load void ()*, void ()** %7, align 8, !dbg !3798
  invoke void @_ZNSt6thread15_M_start_threadESt10unique_ptrINS_6_StateESt14default_deleteIS1_EEPFvvE(%"class.std::thread"* %12, %"class.std::unique_ptr"* %8, void ()* %18)
          to label %19 unwind label %20, !dbg !3799

; <label>:19:                                     ; preds = %3
  call void @_ZNSt10unique_ptrINSt6thread6_StateESt14default_deleteIS1_EED2Ev(%"class.std::unique_ptr"* %8) #3, !dbg !3800
  ret void, !dbg !3801

; <label>:20:                                     ; preds = %3
  %21 = landingpad { i8*, i32 }
          cleanup, !dbg !3802
  %22 = extractvalue { i8*, i32 } %21, 0, !dbg !3802
  store i8* %22, i8** %10, align 8, !dbg !3802
  %23 = extractvalue { i8*, i32 } %21, 1, !dbg !3802
  store i32 %23, i32* %11, align 4, !dbg !3802
  call void @_ZNSt10unique_ptrINSt6thread6_StateESt14default_deleteIS1_EED2Ev(%"class.std::unique_ptr"* %8) #3, !dbg !3803
  br label %24, !dbg !3803

; <label>:24:                                     ; preds = %20
  %25 = load i8*, i8** %10, align 8, !dbg !3805
  %26 = load i32, i32* %11, align 4, !dbg !3805
  %27 = insertvalue { i8*, i32 } undef, i8* %25, 0, !dbg !3805
  %28 = insertvalue { i8*, i32 } %27, i32 %26, 1, !dbg !3805
  resume { i8*, i32 } %28, !dbg !3805
}

; Function Attrs: nounwind uwtable
define linkonce_odr void @_ZNSt6threadD2Ev(%"class.std::thread"*) unnamed_addr #4 comdat align 2 !dbg !3807 {
  %2 = alloca %"class.std::thread"*, align 8
  store %"class.std::thread"* %0, %"class.std::thread"** %2, align 8
  call void @llvm.dbg.declare(metadata %"class.std::thread"** %2, metadata !3808, metadata !3199), !dbg !3809
  %3 = load %"class.std::thread"*, %"class.std::thread"** %2, align 8
  %4 = call zeroext i1 @_ZNKSt6thread8joinableEv(%"class.std::thread"* %3) #3, !dbg !3810
  br i1 %4, label %5, label %6, !dbg !3813

; <label>:5:                                      ; preds = %1
  call void @_ZSt9terminatev() #17, !dbg !3814
  unreachable, !dbg !3814

; <label>:6:                                      ; preds = %1
  ret void, !dbg !3815
}

; Function Attrs: nounwind uwtable
define linkonce_odr zeroext i1 @_ZNKSt6thread8joinableEv(%"class.std::thread"*) #4 comdat align 2 !dbg !3816 {
  %2 = alloca %"class.std::thread"*, align 8
  %3 = alloca %"class.std::thread::id", align 8
  %4 = alloca %"class.std::thread::id", align 8
  store %"class.std::thread"* %0, %"class.std::thread"** %2, align 8
  call void @llvm.dbg.declare(metadata %"class.std::thread"** %2, metadata !3817, metadata !3199), !dbg !3819
  %5 = load %"class.std::thread"*, %"class.std::thread"** %2, align 8
  %6 = getelementptr inbounds %"class.std::thread", %"class.std::thread"* %5, i32 0, i32 0, !dbg !3820
  %7 = bitcast %"class.std::thread::id"* %3 to i8*, !dbg !3820
  %8 = bitcast %"class.std::thread::id"* %6 to i8*, !dbg !3820
  call void @llvm.memcpy.p0i8.p0i8.i64(i8* %7, i8* %8, i64 8, i32 8, i1 false), !dbg !3820
  call void @_ZNSt6thread2idC2Ev(%"class.std::thread::id"* %4) #3, !dbg !3821
  %9 = getelementptr inbounds %"class.std::thread::id", %"class.std::thread::id"* %3, i32 0, i32 0, !dbg !3823
  %10 = load i64, i64* %9, align 8, !dbg !3823
  %11 = getelementptr inbounds %"class.std::thread::id", %"class.std::thread::id"* %4, i32 0, i32 0, !dbg !3823
  %12 = load i64, i64* %11, align 8, !dbg !3823
  %13 = call zeroext i1 @_ZSteqNSt6thread2idES0_(i64 %10, i64 %12) #3, !dbg !3824
  %14 = xor i1 %13, true, !dbg !3826
  ret i1 %14, !dbg !3827
}

; Function Attrs: noreturn nounwind
declare void @_ZSt9terminatev() #10

; Function Attrs: nounwind uwtable
define linkonce_odr void @_ZNSt6thread4swapERS_(%"class.std::thread"*, %"class.std::thread"* dereferenceable(8)) #4 comdat align 2 !dbg !3828 {
  %3 = alloca %"class.std::thread"*, align 8
  %4 = alloca %"class.std::thread"*, align 8
  store %"class.std::thread"* %0, %"class.std::thread"** %3, align 8
  call void @llvm.dbg.declare(metadata %"class.std::thread"** %3, metadata !3829, metadata !3199), !dbg !3830
  store %"class.std::thread"* %1, %"class.std::thread"** %4, align 8
  call void @llvm.dbg.declare(metadata %"class.std::thread"** %4, metadata !3831, metadata !3199), !dbg !3832
  %5 = load %"class.std::thread"*, %"class.std::thread"** %3, align 8
  %6 = getelementptr inbounds %"class.std::thread", %"class.std::thread"* %5, i32 0, i32 0, !dbg !3833
  %7 = load %"class.std::thread"*, %"class.std::thread"** %4, align 8, !dbg !3834
  %8 = getelementptr inbounds %"class.std::thread", %"class.std::thread"* %7, i32 0, i32 0, !dbg !3835
  call void @_ZSt4swapINSt6thread2idEENSt9enable_ifIXsr6__and_ISt21is_move_constructibleIT_ESt18is_move_assignableIS4_EEE5valueEvE4typeERS4_SA_(%"class.std::thread::id"* dereferenceable(8) %6, %"class.std::thread::id"* dereferenceable(8) %8) #3, !dbg !3836
  ret void, !dbg !3837
}

; Function Attrs: nounwind uwtable
define linkonce_odr zeroext i1 @_ZSteqNSt6thread2idES0_(i64, i64) #4 comdat !dbg !3838 {
  %3 = alloca %"class.std::thread::id", align 8
  %4 = alloca %"class.std::thread::id", align 8
  %5 = getelementptr inbounds %"class.std::thread::id", %"class.std::thread::id"* %3, i32 0, i32 0
  store i64 %0, i64* %5, align 8
  %6 = getelementptr inbounds %"class.std::thread::id", %"class.std::thread::id"* %4, i32 0, i32 0
  store i64 %1, i64* %6, align 8
  call void @llvm.dbg.declare(metadata %"class.std::thread::id"* %3, metadata !3841, metadata !3199), !dbg !3842
  call void @llvm.dbg.declare(metadata %"class.std::thread::id"* %4, metadata !3843, metadata !3199), !dbg !3844
  %7 = getelementptr inbounds %"class.std::thread::id", %"class.std::thread::id"* %3, i32 0, i32 0, !dbg !3845
  %8 = load i64, i64* %7, align 8, !dbg !3845
  %9 = getelementptr inbounds %"class.std::thread::id", %"class.std::thread::id"* %4, i32 0, i32 0, !dbg !3846
  %10 = load i64, i64* %9, align 8, !dbg !3846
  %11 = icmp eq i64 %8, %10, !dbg !3847
  ret i1 %11, !dbg !3848
}

; Function Attrs: argmemonly nounwind
declare void @llvm.memcpy.p0i8.p0i8.i64(i8* nocapture writeonly, i8* nocapture readonly, i64, i32, i1) #11

; Function Attrs: inlinehint nounwind uwtable
define linkonce_odr void @_ZSt4swapINSt6thread2idEENSt9enable_ifIXsr6__and_ISt21is_move_constructibleIT_ESt18is_move_assignableIS4_EEE5valueEvE4typeERS4_SA_(%"class.std::thread::id"* dereferenceable(8), %"class.std::thread::id"* dereferenceable(8)) #9 comdat !dbg !3849 {
  %3 = alloca %"class.std::thread::id"*, align 8
  %4 = alloca %"class.std::thread::id"*, align 8
  %5 = alloca %"class.std::thread::id", align 8
  store %"class.std::thread::id"* %0, %"class.std::thread::id"** %3, align 8
  call void @llvm.dbg.declare(metadata %"class.std::thread::id"** %3, metadata !3858, metadata !3199), !dbg !3859
  store %"class.std::thread::id"* %1, %"class.std::thread::id"** %4, align 8
  call void @llvm.dbg.declare(metadata %"class.std::thread::id"** %4, metadata !3860, metadata !3199), !dbg !3861
  call void @llvm.dbg.declare(metadata %"class.std::thread::id"* %5, metadata !3862, metadata !3199), !dbg !3863
  %6 = load %"class.std::thread::id"*, %"class.std::thread::id"** %3, align 8, !dbg !3864
  %7 = call dereferenceable(8) %"class.std::thread::id"* @_ZSt4moveIRNSt6thread2idEEONSt16remove_referenceIT_E4typeEOS4_(%"class.std::thread::id"* dereferenceable(8) %6) #3, !dbg !3864
  %8 = bitcast %"class.std::thread::id"* %5 to i8*, !dbg !3864
  %9 = bitcast %"class.std::thread::id"* %7 to i8*, !dbg !3864
  call void @llvm.memcpy.p0i8.p0i8.i64(i8* %8, i8* %9, i64 8, i32 8, i1 false), !dbg !3865
  %10 = load %"class.std::thread::id"*, %"class.std::thread::id"** %3, align 8, !dbg !3867
  %11 = load %"class.std::thread::id"*, %"class.std::thread::id"** %4, align 8, !dbg !3868
  %12 = call dereferenceable(8) %"class.std::thread::id"* @_ZSt4moveIRNSt6thread2idEEONSt16remove_referenceIT_E4typeEOS4_(%"class.std::thread::id"* dereferenceable(8) %11) #3, !dbg !3868
  %13 = bitcast %"class.std::thread::id"* %10 to i8*, !dbg !3869
  %14 = bitcast %"class.std::thread::id"* %12 to i8*, !dbg !3869
  call void @llvm.memcpy.p0i8.p0i8.i64(i8* %13, i8* %14, i64 8, i32 8, i1 false), !dbg !3870
  %15 = load %"class.std::thread::id"*, %"class.std::thread::id"** %4, align 8, !dbg !3871
  %16 = call dereferenceable(8) %"class.std::thread::id"* @_ZSt4moveIRNSt6thread2idEEONSt16remove_referenceIT_E4typeEOS4_(%"class.std::thread::id"* dereferenceable(8) %5) #3, !dbg !3872
  %17 = bitcast %"class.std::thread::id"* %15 to i8*, !dbg !3873
  %18 = bitcast %"class.std::thread::id"* %16 to i8*, !dbg !3873
  call void @llvm.memcpy.p0i8.p0i8.i64(i8* %17, i8* %18, i64 8, i32 8, i1 false), !dbg !3874
  ret void, !dbg !3875
}

; Function Attrs: nounwind uwtable
define linkonce_odr dereferenceable(8) %"class.std::thread::id"* @_ZSt4moveIRNSt6thread2idEEONSt16remove_referenceIT_E4typeEOS4_(%"class.std::thread::id"* dereferenceable(8)) #4 comdat !dbg !3876 {
  %2 = alloca %"class.std::thread::id"*, align 8
  store %"class.std::thread::id"* %0, %"class.std::thread::id"** %2, align 8
  call void @llvm.dbg.declare(metadata %"class.std::thread::id"** %2, metadata !3884, metadata !3199), !dbg !3885
  %3 = load %"class.std::thread::id"*, %"class.std::thread::id"** %2, align 8, !dbg !3886
  ret %"class.std::thread::id"* %3, !dbg !3887
}

; Function Attrs: nounwind
declare i32 @pthread_create(i64*, %union.pthread_attr_t*, i8* (i8*)*, i8*) #2

declare void @_ZNSt6thread15_M_start_threadESt10unique_ptrINS_6_StateESt14default_deleteIS1_EEPFvvE(%"class.std::thread"*, %"class.std::unique_ptr"*, void ()*) #1

; Function Attrs: uwtable
define linkonce_odr void @_ZNSt6thread13_S_make_stateISt12_Bind_simpleIFSt7_Mem_fnIMN16dining_phil_prob11PhilosopherEFvvEEPS4_EEEESt10unique_ptrINS_6_StateESt14default_deleteISC_EEOT_(%"class.std::unique_ptr"* noalias sret, %"struct.std::_Bind_simple"* dereferenceable(24)) #0 comdat align 2 personality i8* bitcast (i32 (...)* @__gxx_personality_v0 to i8*) !dbg !3888 {
  %3 = alloca %"struct.std::_Bind_simple"*, align 8
  %4 = alloca i8*
  %5 = alloca i32
  store %"struct.std::_Bind_simple"* %1, %"struct.std::_Bind_simple"** %3, align 8
  call void @llvm.dbg.declare(metadata %"struct.std::_Bind_simple"** %3, metadata !4091, metadata !3199), !dbg !4092
  %6 = call i8* @_Znwm(i64 32) #15, !dbg !4093
  %7 = bitcast i8* %6 to %"struct.std::thread::_State_impl"*, !dbg !4093
  %8 = load %"struct.std::_Bind_simple"*, %"struct.std::_Bind_simple"** %3, align 8, !dbg !4094
  %9 = call dereferenceable(24) %"struct.std::_Bind_simple"* @_ZSt7forwardISt12_Bind_simpleIFSt7_Mem_fnIMN16dining_phil_prob11PhilosopherEFvvEEPS3_EEEOT_RNSt16remove_referenceISA_E4typeE(%"struct.std::_Bind_simple"* dereferenceable(24) %8) #3, !dbg !4095
  invoke void @_ZNSt6thread11_State_implISt12_Bind_simpleIFSt7_Mem_fnIMN16dining_phil_prob11PhilosopherEFvvEEPS4_EEEC2EOSA_(%"struct.std::thread::_State_impl"* %7, %"struct.std::_Bind_simple"* dereferenceable(24) %9)
          to label %10 unwind label %12, !dbg !4097

; <label>:10:                                     ; preds = %2
  %11 = bitcast %"struct.std::thread::_State_impl"* %7 to %"struct.std::thread::_State"*, !dbg !4098
  call void @_ZNSt10unique_ptrINSt6thread6_StateESt14default_deleteIS1_EEC2EPS1_(%"class.std::unique_ptr"* %0, %"struct.std::thread::_State"* %11) #3, !dbg !4100
  ret void, !dbg !4101

; <label>:12:                                     ; preds = %2
  %13 = landingpad { i8*, i32 }
          cleanup, !dbg !4102
  %14 = extractvalue { i8*, i32 } %13, 0, !dbg !4102
  store i8* %14, i8** %4, align 8, !dbg !4102
  %15 = extractvalue { i8*, i32 } %13, 1, !dbg !4102
  store i32 %15, i32* %5, align 4, !dbg !4102
  call void @_ZdlPv(i8* %6) #16, !dbg !4103
  br label %16, !dbg !4103

; <label>:16:                                     ; preds = %12
  %17 = load i8*, i8** %4, align 8, !dbg !4105
  %18 = load i32, i32* %5, align 4, !dbg !4105
  %19 = insertvalue { i8*, i32 } undef, i8* %17, 0, !dbg !4105
  %20 = insertvalue { i8*, i32 } %19, i32 %18, 1, !dbg !4105
  resume { i8*, i32 } %20, !dbg !4105
}

; Function Attrs: uwtable
define linkonce_odr void @_ZSt13__bind_simpleIMN16dining_phil_prob11PhilosopherEFvvEJPS1_EENSt19_Bind_simple_helperIT_JDpT0_EE6__typeEOS6_DpOS7_(%"struct.std::_Bind_simple"* noalias sret, { i64, i64 }* dereferenceable(16), %"class.dining_phil_prob::Philosopher"** dereferenceable(8)) #0 comdat !dbg !4107 {
  %4 = alloca { i64, i64 }*, align 8
  %5 = alloca %"class.dining_phil_prob::Philosopher"**, align 8
  %6 = alloca %"struct.std::_Mem_fn", align 8
  %7 = alloca { i64, i64 }, align 8
  store { i64, i64 }* %1, { i64, i64 }** %4, align 8
  call void @llvm.dbg.declare(metadata { i64, i64 }** %4, metadata !4118, metadata !3199), !dbg !4119
  store %"class.dining_phil_prob::Philosopher"** %2, %"class.dining_phil_prob::Philosopher"*** %5, align 8
  call void @llvm.dbg.declare(metadata %"class.dining_phil_prob::Philosopher"*** %5, metadata !4120, metadata !3199), !dbg !4121
  %8 = load { i64, i64 }*, { i64, i64 }** %4, align 8, !dbg !4122
  %9 = call dereferenceable(16) { i64, i64 }* @_ZSt7forwardIMN16dining_phil_prob11PhilosopherEFvvEEOT_RNSt16remove_referenceIS4_E4typeE({ i64, i64 }* dereferenceable(16) %8) #3, !dbg !4123
  %10 = load { i64, i64 }, { i64, i64 }* %9, align 8, !dbg !4123
  store { i64, i64 } %10, { i64, i64 }* %7, align 8, !dbg !4124
  %11 = getelementptr inbounds { i64, i64 }, { i64, i64 }* %7, i32 0, i32 0, !dbg !4124
  %12 = load i64, i64* %11, align 8, !dbg !4124
  %13 = getelementptr inbounds { i64, i64 }, { i64, i64 }* %7, i32 0, i32 1, !dbg !4124
  %14 = load i64, i64* %13, align 8, !dbg !4124
  %15 = call { i64, i64 } @_ZNSt26_Maybe_wrap_member_pointerIMN16dining_phil_prob11PhilosopherEFvvEE9__do_wrapES3_(i64 %12, i64 %14), !dbg !4125
  %16 = getelementptr inbounds %"struct.std::_Mem_fn", %"struct.std::_Mem_fn"* %6, i32 0, i32 0, !dbg !4124
  %17 = getelementptr inbounds %"class.std::_Mem_fn_base", %"class.std::_Mem_fn_base"* %16, i32 0, i32 0, !dbg !4124
  %18 = getelementptr inbounds { i64, i64 }, { i64, i64 }* %17, i32 0, i32 0, !dbg !4124
  %19 = extractvalue { i64, i64 } %15, 0, !dbg !4124
  store i64 %19, i64* %18, align 8, !dbg !4124
  %20 = getelementptr inbounds { i64, i64 }, { i64, i64 }* %17, i32 0, i32 1, !dbg !4124
  %21 = extractvalue { i64, i64 } %15, 1, !dbg !4124
  store i64 %21, i64* %20, align 8, !dbg !4124
  %22 = load %"class.dining_phil_prob::Philosopher"**, %"class.dining_phil_prob::Philosopher"*** %5, align 8, !dbg !4127
  %23 = call dereferenceable(8) %"class.dining_phil_prob::Philosopher"** @_ZSt7forwardIPN16dining_phil_prob11PhilosopherEEOT_RNSt16remove_referenceIS3_E4typeE(%"class.dining_phil_prob::Philosopher"** dereferenceable(8) %22) #3, !dbg !4128
  call void @_ZNSt12_Bind_simpleIFSt7_Mem_fnIMN16dining_phil_prob11PhilosopherEFvvEEPS2_EEC2IS5_JS6_EEEOT_DpOT0_(%"struct.std::_Bind_simple"* %0, %"struct.std::_Mem_fn"* dereferenceable(16) %6, %"class.dining_phil_prob::Philosopher"** dereferenceable(8) %23), !dbg !4129
  ret void, !dbg !4130
}

; Function Attrs: nounwind uwtable
define linkonce_odr void @_ZNSt10unique_ptrINSt6thread6_StateESt14default_deleteIS1_EED2Ev(%"class.std::unique_ptr"*) unnamed_addr #4 comdat align 2 personality i8* bitcast (i32 (...)* @__gxx_personality_v0 to i8*) !dbg !4131 {
  %2 = alloca %"class.std::unique_ptr"*, align 8
  %3 = alloca %"struct.std::thread::_State"**, align 8
  store %"class.std::unique_ptr"* %0, %"class.std::unique_ptr"** %2, align 8
  call void @llvm.dbg.declare(metadata %"class.std::unique_ptr"** %2, metadata !4132, metadata !3199), !dbg !4134
  %4 = load %"class.std::unique_ptr"*, %"class.std::unique_ptr"** %2, align 8
  call void @llvm.dbg.declare(metadata %"struct.std::thread::_State"*** %3, metadata !4135, metadata !3199), !dbg !4137
  %5 = getelementptr inbounds %"class.std::unique_ptr", %"class.std::unique_ptr"* %4, i32 0, i32 0, !dbg !4138
  %6 = call dereferenceable(8) %"struct.std::thread::_State"** @_ZSt3getILm0EJPNSt6thread6_StateESt14default_deleteIS1_EEERNSt13tuple_elementIXT_ESt5tupleIJDpT0_EEE4typeERS9_(%"class.std::tuple"* dereferenceable(8) %5) #3, !dbg !4139
  store %"struct.std::thread::_State"** %6, %"struct.std::thread::_State"*** %3, align 8, !dbg !4137
  %7 = load %"struct.std::thread::_State"**, %"struct.std::thread::_State"*** %3, align 8, !dbg !4140
  %8 = load %"struct.std::thread::_State"*, %"struct.std::thread::_State"** %7, align 8, !dbg !4140
  %9 = icmp ne %"struct.std::thread::_State"* %8, null, !dbg !4142
  br i1 %9, label %10, label %15, !dbg !4143

; <label>:10:                                     ; preds = %1
  %11 = call dereferenceable(1) %"struct.std::default_delete"* @_ZNSt10unique_ptrINSt6thread6_StateESt14default_deleteIS1_EE11get_deleterEv(%"class.std::unique_ptr"* %4) #3, !dbg !4144
  %12 = load %"struct.std::thread::_State"**, %"struct.std::thread::_State"*** %3, align 8, !dbg !4145
  %13 = load %"struct.std::thread::_State"*, %"struct.std::thread::_State"** %12, align 8, !dbg !4145
  invoke void @_ZNKSt14default_deleteINSt6thread6_StateEEclEPS1_(%"struct.std::default_delete"* %11, %"struct.std::thread::_State"* %13)
          to label %14 unwind label %17, !dbg !4144

; <label>:14:                                     ; preds = %10
  br label %15, !dbg !4146

; <label>:15:                                     ; preds = %14, %1
  %16 = load %"struct.std::thread::_State"**, %"struct.std::thread::_State"*** %3, align 8, !dbg !4148
  store %"struct.std::thread::_State"* null, %"struct.std::thread::_State"** %16, align 8, !dbg !4149
  ret void, !dbg !4150

; <label>:17:                                     ; preds = %10
  %18 = landingpad { i8*, i32 }
          catch i8* null, !dbg !4151
  %19 = extractvalue { i8*, i32 } %18, 0, !dbg !4151
  call void @__clang_call_terminate(i8* %19) #17, !dbg !4151
  unreachable, !dbg !4151
}

; Function Attrs: nounwind uwtable
define linkonce_odr dereferenceable(24) %"struct.std::_Bind_simple"* @_ZSt7forwardISt12_Bind_simpleIFSt7_Mem_fnIMN16dining_phil_prob11PhilosopherEFvvEEPS3_EEEOT_RNSt16remove_referenceISA_E4typeE(%"struct.std::_Bind_simple"* dereferenceable(24)) #4 comdat !dbg !4153 {
  %2 = alloca %"struct.std::_Bind_simple"*, align 8
  store %"struct.std::_Bind_simple"* %0, %"struct.std::_Bind_simple"** %2, align 8
  call void @llvm.dbg.declare(metadata %"struct.std::_Bind_simple"** %2, metadata !4161, metadata !3199), !dbg !4162
  %3 = load %"struct.std::_Bind_simple"*, %"struct.std::_Bind_simple"** %2, align 8, !dbg !4163
  ret %"struct.std::_Bind_simple"* %3, !dbg !4164
}

; Function Attrs: nounwind uwtable
define linkonce_odr void @_ZNSt6thread11_State_implISt12_Bind_simpleIFSt7_Mem_fnIMN16dining_phil_prob11PhilosopherEFvvEEPS4_EEEC2EOSA_(%"struct.std::thread::_State_impl"*, %"struct.std::_Bind_simple"* dereferenceable(24)) unnamed_addr #4 comdat align 2 !dbg !4165 {
  %3 = alloca %"struct.std::thread::_State_impl"*, align 8
  %4 = alloca %"struct.std::_Bind_simple"*, align 8
  store %"struct.std::thread::_State_impl"* %0, %"struct.std::thread::_State_impl"** %3, align 8
  call void @llvm.dbg.declare(metadata %"struct.std::thread::_State_impl"** %3, metadata !4177, metadata !3199), !dbg !4179
  store %"struct.std::_Bind_simple"* %1, %"struct.std::_Bind_simple"** %4, align 8
  call void @llvm.dbg.declare(metadata %"struct.std::_Bind_simple"** %4, metadata !4180, metadata !3199), !dbg !4181
  %5 = load %"struct.std::thread::_State_impl"*, %"struct.std::thread::_State_impl"** %3, align 8
  %6 = bitcast %"struct.std::thread::_State_impl"* %5 to %"struct.std::thread::_State"*, !dbg !4182
  call void @_ZNSt6thread6_StateC2Ev(%"struct.std::thread::_State"* %6) #3, !dbg !4183
  %7 = bitcast %"struct.std::thread::_State_impl"* %5 to i32 (...)***, !dbg !4182
  store i32 (...)** bitcast (i8** getelementptr inbounds ([5 x i8*], [5 x i8*]* @_ZTVNSt6thread11_State_implISt12_Bind_simpleIFSt7_Mem_fnIMN16dining_phil_prob11PhilosopherEFvvEEPS4_EEEE, i32 0, i32 2) to i32 (...)**), i32 (...)*** %7, align 8, !dbg !4182
  %8 = getelementptr inbounds %"struct.std::thread::_State_impl", %"struct.std::thread::_State_impl"* %5, i32 0, i32 1, !dbg !4184
  %9 = load %"struct.std::_Bind_simple"*, %"struct.std::_Bind_simple"** %4, align 8, !dbg !4185
  %10 = call dereferenceable(24) %"struct.std::_Bind_simple"* @_ZSt7forwardISt12_Bind_simpleIFSt7_Mem_fnIMN16dining_phil_prob11PhilosopherEFvvEEPS3_EEEOT_RNSt16remove_referenceISA_E4typeE(%"struct.std::_Bind_simple"* dereferenceable(24) %9) #3, !dbg !4186
  call void @_ZNSt12_Bind_simpleIFSt7_Mem_fnIMN16dining_phil_prob11PhilosopherEFvvEEPS2_EEC2EOS8_(%"struct.std::_Bind_simple"* %8, %"struct.std::_Bind_simple"* dereferenceable(24) %10) #3, !dbg !4188
  ret void, !dbg !4190
}

; Function Attrs: nounwind uwtable
define linkonce_odr void @_ZNSt10unique_ptrINSt6thread6_StateESt14default_deleteIS1_EEC2EPS1_(%"class.std::unique_ptr"*, %"struct.std::thread::_State"*) unnamed_addr #4 comdat align 2 personality i8* bitcast (i32 (...)* @__gxx_personality_v0 to i8*) !dbg !4191 {
  %3 = alloca %"class.std::unique_ptr"*, align 8
  %4 = alloca %"struct.std::thread::_State"*, align 8
  %5 = alloca %"struct.std::default_delete", align 1
  store %"class.std::unique_ptr"* %0, %"class.std::unique_ptr"** %3, align 8
  call void @llvm.dbg.declare(metadata %"class.std::unique_ptr"** %3, metadata !4192, metadata !3199), !dbg !4193
  store %"struct.std::thread::_State"* %1, %"struct.std::thread::_State"** %4, align 8
  call void @llvm.dbg.declare(metadata %"struct.std::thread::_State"** %4, metadata !4194, metadata !3199), !dbg !4195
  %6 = load %"class.std::unique_ptr"*, %"class.std::unique_ptr"** %3, align 8
  %7 = getelementptr inbounds %"class.std::unique_ptr", %"class.std::unique_ptr"* %6, i32 0, i32 0, !dbg !4196
  invoke void @_ZNSt5tupleIJPNSt6thread6_StateESt14default_deleteIS1_EEEC2IRS2_S4_Lb1EEEOT_OT0_(%"class.std::tuple"* %7, %"struct.std::thread::_State"** dereferenceable(8) %4, %"struct.std::default_delete"* dereferenceable(1) %5)
          to label %8 unwind label %9, !dbg !4196

; <label>:8:                                      ; preds = %2
  ret void, !dbg !4197

; <label>:9:                                      ; preds = %2
  %10 = landingpad { i8*, i32 }
          catch i8* null, !dbg !4198
  %11 = extractvalue { i8*, i32 } %10, 0, !dbg !4198
  call void @__clang_call_terminate(i8* %11) #17, !dbg !4198
  unreachable, !dbg !4198
}

; Function Attrs: inlinehint nounwind uwtable
define linkonce_odr void @_ZNSt6thread6_StateC2Ev(%"struct.std::thread::_State"*) unnamed_addr #9 comdat align 2 !dbg !4200 {
  %2 = alloca %"struct.std::thread::_State"*, align 8
  store %"struct.std::thread::_State"* %0, %"struct.std::thread::_State"** %2, align 8
  call void @llvm.dbg.declare(metadata %"struct.std::thread::_State"** %2, metadata !4205, metadata !3199), !dbg !4206
  %3 = load %"struct.std::thread::_State"*, %"struct.std::thread::_State"** %2, align 8
  %4 = bitcast %"struct.std::thread::_State"* %3 to i32 (...)***, !dbg !4207
  store i32 (...)** bitcast (i8** getelementptr inbounds ([5 x i8*], [5 x i8*]* @_ZTVNSt6thread6_StateE, i32 0, i32 2) to i32 (...)**), i32 (...)*** %4, align 8, !dbg !4207
  ret void, !dbg !4207
}

; Function Attrs: nounwind uwtable
define linkonce_odr void @_ZNSt12_Bind_simpleIFSt7_Mem_fnIMN16dining_phil_prob11PhilosopherEFvvEEPS2_EEC2EOS8_(%"struct.std::_Bind_simple"*, %"struct.std::_Bind_simple"* dereferenceable(24)) unnamed_addr #4 comdat align 2 !dbg !4208 {
  %3 = alloca %"struct.std::_Bind_simple"*, align 8
  %4 = alloca %"struct.std::_Bind_simple"*, align 8
  store %"struct.std::_Bind_simple"* %0, %"struct.std::_Bind_simple"** %3, align 8
  call void @llvm.dbg.declare(metadata %"struct.std::_Bind_simple"** %3, metadata !4209, metadata !3199), !dbg !4211
  store %"struct.std::_Bind_simple"* %1, %"struct.std::_Bind_simple"** %4, align 8
  call void @llvm.dbg.declare(metadata %"struct.std::_Bind_simple"** %4, metadata !4212, metadata !3199), !dbg !4213
  %5 = load %"struct.std::_Bind_simple"*, %"struct.std::_Bind_simple"** %3, align 8
  %6 = getelementptr inbounds %"struct.std::_Bind_simple", %"struct.std::_Bind_simple"* %5, i32 0, i32 0, !dbg !4214
  %7 = load %"struct.std::_Bind_simple"*, %"struct.std::_Bind_simple"** %4, align 8, !dbg !4214
  %8 = getelementptr inbounds %"struct.std::_Bind_simple", %"struct.std::_Bind_simple"* %7, i32 0, i32 0, !dbg !4214
  call void @_ZNSt5tupleIJSt7_Mem_fnIMN16dining_phil_prob11PhilosopherEFvvEEPS2_EEC2EOS7_(%"class.std::tuple.3"* %6, %"class.std::tuple.3"* dereferenceable(24) %8) #3, !dbg !4214
  ret void, !dbg !4214
}

; Function Attrs: inlinehint nounwind uwtable
define linkonce_odr void @_ZNSt6thread11_State_implISt12_Bind_simpleIFSt7_Mem_fnIMN16dining_phil_prob11PhilosopherEFvvEEPS4_EEED2Ev(%"struct.std::thread::_State_impl"*) unnamed_addr #9 comdat align 2 !dbg !4215 {
  %2 = alloca %"struct.std::thread::_State_impl"*, align 8
  store %"struct.std::thread::_State_impl"* %0, %"struct.std::thread::_State_impl"** %2, align 8
  call void @llvm.dbg.declare(metadata %"struct.std::thread::_State_impl"** %2, metadata !4217, metadata !3199), !dbg !4218
  %3 = load %"struct.std::thread::_State_impl"*, %"struct.std::thread::_State_impl"** %2, align 8
  %4 = bitcast %"struct.std::thread::_State_impl"* %3 to %"struct.std::thread::_State"*, !dbg !4219
  call void @_ZNSt6thread6_StateD2Ev(%"struct.std::thread::_State"* %4) #3, !dbg !4219
  ret void, !dbg !4221
}

; Function Attrs: inlinehint nounwind uwtable
define linkonce_odr void @_ZNSt6thread11_State_implISt12_Bind_simpleIFSt7_Mem_fnIMN16dining_phil_prob11PhilosopherEFvvEEPS4_EEED0Ev(%"struct.std::thread::_State_impl"*) unnamed_addr #9 comdat align 2 !dbg !4222 {
  %2 = alloca %"struct.std::thread::_State_impl"*, align 8
  store %"struct.std::thread::_State_impl"* %0, %"struct.std::thread::_State_impl"** %2, align 8
  call void @llvm.dbg.declare(metadata %"struct.std::thread::_State_impl"** %2, metadata !4223, metadata !3199), !dbg !4224
  %3 = load %"struct.std::thread::_State_impl"*, %"struct.std::thread::_State_impl"** %2, align 8
  call void @_ZNSt6thread11_State_implISt12_Bind_simpleIFSt7_Mem_fnIMN16dining_phil_prob11PhilosopherEFvvEEPS4_EEED2Ev(%"struct.std::thread::_State_impl"* %3) #3, !dbg !4225
  %4 = bitcast %"struct.std::thread::_State_impl"* %3 to i8*, !dbg !4225
  call void @_ZdlPv(i8* %4) #16, !dbg !4226
  ret void, !dbg !4225
}

; Function Attrs: uwtable
define linkonce_odr void @_ZNSt6thread11_State_implISt12_Bind_simpleIFSt7_Mem_fnIMN16dining_phil_prob11PhilosopherEFvvEEPS4_EEE6_M_runEv(%"struct.std::thread::_State_impl"*) unnamed_addr #0 comdat align 2 !dbg !4228 {
  %2 = alloca %"struct.std::thread::_State_impl"*, align 8
  store %"struct.std::thread::_State_impl"* %0, %"struct.std::thread::_State_impl"** %2, align 8
  call void @llvm.dbg.declare(metadata %"struct.std::thread::_State_impl"** %2, metadata !4229, metadata !3199), !dbg !4230
  %3 = load %"struct.std::thread::_State_impl"*, %"struct.std::thread::_State_impl"** %2, align 8
  %4 = getelementptr inbounds %"struct.std::thread::_State_impl", %"struct.std::thread::_State_impl"* %3, i32 0, i32 1, !dbg !4231
  call void @_ZNSt12_Bind_simpleIFSt7_Mem_fnIMN16dining_phil_prob11PhilosopherEFvvEEPS2_EEclEv(%"struct.std::_Bind_simple"* %4), !dbg !4231
  ret void, !dbg !4232
}

; Function Attrs: nounwind uwtable
define linkonce_odr void @_ZNSt5tupleIJSt7_Mem_fnIMN16dining_phil_prob11PhilosopherEFvvEEPS2_EEC2EOS7_(%"class.std::tuple.3"*, %"class.std::tuple.3"* dereferenceable(24)) unnamed_addr #4 comdat align 2 !dbg !4233 {
  %3 = alloca %"class.std::tuple.3"*, align 8
  %4 = alloca %"class.std::tuple.3"*, align 8
  store %"class.std::tuple.3"* %0, %"class.std::tuple.3"** %3, align 8
  call void @llvm.dbg.declare(metadata %"class.std::tuple.3"** %3, metadata !4234, metadata !3199), !dbg !4236
  store %"class.std::tuple.3"* %1, %"class.std::tuple.3"** %4, align 8
  call void @llvm.dbg.declare(metadata %"class.std::tuple.3"** %4, metadata !4237, metadata !3199), !dbg !4238
  %5 = load %"class.std::tuple.3"*, %"class.std::tuple.3"** %3, align 8
  %6 = bitcast %"class.std::tuple.3"* %5 to %"struct.std::_Tuple_impl.4"*, !dbg !4239
  %7 = load %"class.std::tuple.3"*, %"class.std::tuple.3"** %4, align 8, !dbg !4239
  %8 = bitcast %"class.std::tuple.3"* %7 to %"struct.std::_Tuple_impl.4"*, !dbg !4239
  call void @_ZNSt11_Tuple_implILm0EJSt7_Mem_fnIMN16dining_phil_prob11PhilosopherEFvvEEPS2_EEC2EOS7_(%"struct.std::_Tuple_impl.4"* %6, %"struct.std::_Tuple_impl.4"* dereferenceable(24) %8) #3, !dbg !4239
  ret void, !dbg !4239
}

; Function Attrs: nounwind uwtable
define linkonce_odr void @_ZNSt11_Tuple_implILm0EJSt7_Mem_fnIMN16dining_phil_prob11PhilosopherEFvvEEPS2_EEC2EOS7_(%"struct.std::_Tuple_impl.4"*, %"struct.std::_Tuple_impl.4"* dereferenceable(24)) unnamed_addr #4 comdat align 2 personality i8* bitcast (i32 (...)* @__gxx_personality_v0 to i8*) !dbg !4240 {
  %3 = alloca %"struct.std::_Tuple_impl.4"*, align 8
  %4 = alloca %"struct.std::_Tuple_impl.4"*, align 8
  store %"struct.std::_Tuple_impl.4"* %0, %"struct.std::_Tuple_impl.4"** %3, align 8
  call void @llvm.dbg.declare(metadata %"struct.std::_Tuple_impl.4"** %3, metadata !4241, metadata !3199), !dbg !4243
  store %"struct.std::_Tuple_impl.4"* %1, %"struct.std::_Tuple_impl.4"** %4, align 8
  call void @llvm.dbg.declare(metadata %"struct.std::_Tuple_impl.4"** %4, metadata !4244, metadata !3199), !dbg !4245
  %5 = load %"struct.std::_Tuple_impl.4"*, %"struct.std::_Tuple_impl.4"** %3, align 8
  %6 = bitcast %"struct.std::_Tuple_impl.4"* %5 to %"struct.std::_Tuple_impl.5"*, !dbg !4246
  %7 = load %"struct.std::_Tuple_impl.4"*, %"struct.std::_Tuple_impl.4"** %4, align 8, !dbg !4247
  %8 = call dereferenceable(8) %"struct.std::_Tuple_impl.5"* @_ZNSt11_Tuple_implILm0EJSt7_Mem_fnIMN16dining_phil_prob11PhilosopherEFvvEEPS2_EE7_M_tailERS7_(%"struct.std::_Tuple_impl.4"* dereferenceable(24) %7) #3, !dbg !4248
  %9 = call dereferenceable(8) %"struct.std::_Tuple_impl.5"* @_ZSt4moveIRSt11_Tuple_implILm1EJPN16dining_phil_prob11PhilosopherEEEEONSt16remove_referenceIT_E4typeEOS7_(%"struct.std::_Tuple_impl.5"* dereferenceable(8) %8) #3, !dbg !4249
  call void @_ZNSt11_Tuple_implILm1EJPN16dining_phil_prob11PhilosopherEEEC2EOS3_(%"struct.std::_Tuple_impl.5"* %6, %"struct.std::_Tuple_impl.5"* dereferenceable(8) %9) #3, !dbg !4251
  %10 = bitcast %"struct.std::_Tuple_impl.4"* %5 to i8*, !dbg !4246
  %11 = getelementptr inbounds i8, i8* %10, i64 8, !dbg !4246
  %12 = bitcast i8* %11 to %"struct.std::_Head_base.7"*, !dbg !4246
  %13 = load %"struct.std::_Tuple_impl.4"*, %"struct.std::_Tuple_impl.4"** %4, align 8, !dbg !4253
  %14 = call dereferenceable(16) %"struct.std::_Mem_fn"* @_ZNSt11_Tuple_implILm0EJSt7_Mem_fnIMN16dining_phil_prob11PhilosopherEFvvEEPS2_EE7_M_headERS7_(%"struct.std::_Tuple_impl.4"* dereferenceable(24) %13) #3, !dbg !4254
  %15 = call dereferenceable(16) %"struct.std::_Mem_fn"* @_ZSt7forwardISt7_Mem_fnIMN16dining_phil_prob11PhilosopherEFvvEEEOT_RNSt16remove_referenceIS6_E4typeE(%"struct.std::_Mem_fn"* dereferenceable(16) %14) #3, !dbg !4255
  invoke void @_ZNSt10_Head_baseILm0ESt7_Mem_fnIMN16dining_phil_prob11PhilosopherEFvvEELb0EEC2IS5_EEOT_(%"struct.std::_Head_base.7"* %12, %"struct.std::_Mem_fn"* dereferenceable(16) %15)
          to label %16 unwind label %17, !dbg !4257

; <label>:16:                                     ; preds = %2
  ret void, !dbg !4258

; <label>:17:                                     ; preds = %2
  %18 = landingpad { i8*, i32 }
          catch i8* null, !dbg !4259
  %19 = extractvalue { i8*, i32 } %18, 0, !dbg !4259
  call void @__clang_call_terminate(i8* %19) #17, !dbg !4259
  unreachable, !dbg !4259
}

; Function Attrs: nounwind uwtable
define linkonce_odr dereferenceable(8) %"struct.std::_Tuple_impl.5"* @_ZSt4moveIRSt11_Tuple_implILm1EJPN16dining_phil_prob11PhilosopherEEEEONSt16remove_referenceIT_E4typeEOS7_(%"struct.std::_Tuple_impl.5"* dereferenceable(8)) #4 comdat !dbg !4260 {
  %2 = alloca %"struct.std::_Tuple_impl.5"*, align 8
  store %"struct.std::_Tuple_impl.5"* %0, %"struct.std::_Tuple_impl.5"** %2, align 8
  call void @llvm.dbg.declare(metadata %"struct.std::_Tuple_impl.5"** %2, metadata !4268, metadata !3199), !dbg !4269
  %3 = load %"struct.std::_Tuple_impl.5"*, %"struct.std::_Tuple_impl.5"** %2, align 8, !dbg !4270
  ret %"struct.std::_Tuple_impl.5"* %3, !dbg !4271
}

; Function Attrs: nounwind uwtable
define linkonce_odr dereferenceable(8) %"struct.std::_Tuple_impl.5"* @_ZNSt11_Tuple_implILm0EJSt7_Mem_fnIMN16dining_phil_prob11PhilosopherEFvvEEPS2_EE7_M_tailERS7_(%"struct.std::_Tuple_impl.4"* dereferenceable(24)) #4 comdat align 2 !dbg !4272 {
  %2 = alloca %"struct.std::_Tuple_impl.4"*, align 8
  store %"struct.std::_Tuple_impl.4"* %0, %"struct.std::_Tuple_impl.4"** %2, align 8
  call void @llvm.dbg.declare(metadata %"struct.std::_Tuple_impl.4"** %2, metadata !4273, metadata !3199), !dbg !4274
  %3 = load %"struct.std::_Tuple_impl.4"*, %"struct.std::_Tuple_impl.4"** %2, align 8, !dbg !4275
  %4 = bitcast %"struct.std::_Tuple_impl.4"* %3 to %"struct.std::_Tuple_impl.5"*, !dbg !4275
  ret %"struct.std::_Tuple_impl.5"* %4, !dbg !4276
}

; Function Attrs: nounwind uwtable
define linkonce_odr void @_ZNSt11_Tuple_implILm1EJPN16dining_phil_prob11PhilosopherEEEC2EOS3_(%"struct.std::_Tuple_impl.5"*, %"struct.std::_Tuple_impl.5"* dereferenceable(8)) unnamed_addr #4 comdat align 2 personality i8* bitcast (i32 (...)* @__gxx_personality_v0 to i8*) !dbg !4277 {
  %3 = alloca %"struct.std::_Tuple_impl.5"*, align 8
  %4 = alloca %"struct.std::_Tuple_impl.5"*, align 8
  store %"struct.std::_Tuple_impl.5"* %0, %"struct.std::_Tuple_impl.5"** %3, align 8
  call void @llvm.dbg.declare(metadata %"struct.std::_Tuple_impl.5"** %3, metadata !4278, metadata !3199), !dbg !4280
  store %"struct.std::_Tuple_impl.5"* %1, %"struct.std::_Tuple_impl.5"** %4, align 8
  call void @llvm.dbg.declare(metadata %"struct.std::_Tuple_impl.5"** %4, metadata !4281, metadata !3199), !dbg !4282
  %5 = load %"struct.std::_Tuple_impl.5"*, %"struct.std::_Tuple_impl.5"** %3, align 8
  %6 = bitcast %"struct.std::_Tuple_impl.5"* %5 to %"struct.std::_Head_base.6"*, !dbg !4283
  %7 = load %"struct.std::_Tuple_impl.5"*, %"struct.std::_Tuple_impl.5"** %4, align 8, !dbg !4284
  %8 = call dereferenceable(8) %"class.dining_phil_prob::Philosopher"** @_ZNSt11_Tuple_implILm1EJPN16dining_phil_prob11PhilosopherEEE7_M_headERS3_(%"struct.std::_Tuple_impl.5"* dereferenceable(8) %7) #3, !dbg !4285
  %9 = call dereferenceable(8) %"class.dining_phil_prob::Philosopher"** @_ZSt7forwardIPN16dining_phil_prob11PhilosopherEEOT_RNSt16remove_referenceIS3_E4typeE(%"class.dining_phil_prob::Philosopher"** dereferenceable(8) %8) #3, !dbg !4286
  invoke void @_ZNSt10_Head_baseILm1EPN16dining_phil_prob11PhilosopherELb0EEC2IS2_EEOT_(%"struct.std::_Head_base.6"* %6, %"class.dining_phil_prob::Philosopher"** dereferenceable(8) %9)
          to label %10 unwind label %11, !dbg !4288

; <label>:10:                                     ; preds = %2
  ret void, !dbg !4289

; <label>:11:                                     ; preds = %2
  %12 = landingpad { i8*, i32 }
          catch i8* null, !dbg !4291
  %13 = extractvalue { i8*, i32 } %12, 0, !dbg !4291
  call void @__clang_call_terminate(i8* %13) #17, !dbg !4291
  unreachable, !dbg !4291
}

; Function Attrs: nounwind uwtable
define linkonce_odr dereferenceable(16) %"struct.std::_Mem_fn"* @_ZSt7forwardISt7_Mem_fnIMN16dining_phil_prob11PhilosopherEFvvEEEOT_RNSt16remove_referenceIS6_E4typeE(%"struct.std::_Mem_fn"* dereferenceable(16)) #4 comdat !dbg !4293 {
  %2 = alloca %"struct.std::_Mem_fn"*, align 8
  store %"struct.std::_Mem_fn"* %0, %"struct.std::_Mem_fn"** %2, align 8
  call void @llvm.dbg.declare(metadata %"struct.std::_Mem_fn"** %2, metadata !4302, metadata !3199), !dbg !4303
  %3 = load %"struct.std::_Mem_fn"*, %"struct.std::_Mem_fn"** %2, align 8, !dbg !4304
  ret %"struct.std::_Mem_fn"* %3, !dbg !4305
}

; Function Attrs: nounwind uwtable
define linkonce_odr dereferenceable(16) %"struct.std::_Mem_fn"* @_ZNSt11_Tuple_implILm0EJSt7_Mem_fnIMN16dining_phil_prob11PhilosopherEFvvEEPS2_EE7_M_headERS7_(%"struct.std::_Tuple_impl.4"* dereferenceable(24)) #4 comdat align 2 !dbg !4306 {
  %2 = alloca %"struct.std::_Tuple_impl.4"*, align 8
  store %"struct.std::_Tuple_impl.4"* %0, %"struct.std::_Tuple_impl.4"** %2, align 8
  call void @llvm.dbg.declare(metadata %"struct.std::_Tuple_impl.4"** %2, metadata !4307, metadata !3199), !dbg !4308
  %3 = load %"struct.std::_Tuple_impl.4"*, %"struct.std::_Tuple_impl.4"** %2, align 8, !dbg !4309
  %4 = bitcast %"struct.std::_Tuple_impl.4"* %3 to i8*, !dbg !4309
  %5 = getelementptr inbounds i8, i8* %4, i64 8, !dbg !4309
  %6 = bitcast i8* %5 to %"struct.std::_Head_base.7"*, !dbg !4309
  %7 = call dereferenceable(16) %"struct.std::_Mem_fn"* @_ZNSt10_Head_baseILm0ESt7_Mem_fnIMN16dining_phil_prob11PhilosopherEFvvEELb0EE7_M_headERS6_(%"struct.std::_Head_base.7"* dereferenceable(16) %6) #3, !dbg !4310
  ret %"struct.std::_Mem_fn"* %7, !dbg !4311
}

; Function Attrs: nounwind uwtable
define linkonce_odr void @_ZNSt10_Head_baseILm0ESt7_Mem_fnIMN16dining_phil_prob11PhilosopherEFvvEELb0EEC2IS5_EEOT_(%"struct.std::_Head_base.7"*, %"struct.std::_Mem_fn"* dereferenceable(16)) unnamed_addr #4 comdat align 2 !dbg !4312 {
  %3 = alloca %"struct.std::_Head_base.7"*, align 8
  %4 = alloca %"struct.std::_Mem_fn"*, align 8
  store %"struct.std::_Head_base.7"* %0, %"struct.std::_Head_base.7"** %3, align 8
  call void @llvm.dbg.declare(metadata %"struct.std::_Head_base.7"** %3, metadata !4318, metadata !3199), !dbg !4320
  store %"struct.std::_Mem_fn"* %1, %"struct.std::_Mem_fn"** %4, align 8
  call void @llvm.dbg.declare(metadata %"struct.std::_Mem_fn"** %4, metadata !4321, metadata !3199), !dbg !4322
  %5 = load %"struct.std::_Head_base.7"*, %"struct.std::_Head_base.7"** %3, align 8
  %6 = getelementptr inbounds %"struct.std::_Head_base.7", %"struct.std::_Head_base.7"* %5, i32 0, i32 0, !dbg !4323
  %7 = load %"struct.std::_Mem_fn"*, %"struct.std::_Mem_fn"** %4, align 8, !dbg !4324
  %8 = call dereferenceable(16) %"struct.std::_Mem_fn"* @_ZSt7forwardISt7_Mem_fnIMN16dining_phil_prob11PhilosopherEFvvEEEOT_RNSt16remove_referenceIS6_E4typeE(%"struct.std::_Mem_fn"* dereferenceable(16) %7) #3, !dbg !4325
  %9 = bitcast %"struct.std::_Mem_fn"* %6 to i8*, !dbg !4323
  %10 = bitcast %"struct.std::_Mem_fn"* %8 to i8*, !dbg !4323
  call void @llvm.memcpy.p0i8.p0i8.i64(i8* %9, i8* %10, i64 16, i32 8, i1 false), !dbg !4326
  ret void, !dbg !4328
}

; Function Attrs: noinline noreturn nounwind
define linkonce_odr hidden void @__clang_call_terminate(i8*) #12 comdat {
  %2 = call i8* @__cxa_begin_catch(i8* %0) #3
  call void @_ZSt9terminatev() #17
  unreachable
}

declare i8* @__cxa_begin_catch(i8*)

; Function Attrs: nounwind uwtable
define linkonce_odr dereferenceable(8) %"class.dining_phil_prob::Philosopher"** @_ZNSt11_Tuple_implILm1EJPN16dining_phil_prob11PhilosopherEEE7_M_headERS3_(%"struct.std::_Tuple_impl.5"* dereferenceable(8)) #4 comdat align 2 !dbg !4329 {
  %2 = alloca %"struct.std::_Tuple_impl.5"*, align 8
  store %"struct.std::_Tuple_impl.5"* %0, %"struct.std::_Tuple_impl.5"** %2, align 8
  call void @llvm.dbg.declare(metadata %"struct.std::_Tuple_impl.5"** %2, metadata !4330, metadata !3199), !dbg !4331
  %3 = load %"struct.std::_Tuple_impl.5"*, %"struct.std::_Tuple_impl.5"** %2, align 8, !dbg !4332
  %4 = bitcast %"struct.std::_Tuple_impl.5"* %3 to %"struct.std::_Head_base.6"*, !dbg !4332
  %5 = call dereferenceable(8) %"class.dining_phil_prob::Philosopher"** @_ZNSt10_Head_baseILm1EPN16dining_phil_prob11PhilosopherELb0EE7_M_headERS3_(%"struct.std::_Head_base.6"* dereferenceable(8) %4) #3, !dbg !4333
  ret %"class.dining_phil_prob::Philosopher"** %5, !dbg !4334
}

; Function Attrs: nounwind uwtable
define linkonce_odr void @_ZNSt10_Head_baseILm1EPN16dining_phil_prob11PhilosopherELb0EEC2IS2_EEOT_(%"struct.std::_Head_base.6"*, %"class.dining_phil_prob::Philosopher"** dereferenceable(8)) unnamed_addr #4 comdat align 2 !dbg !4335 {
  %3 = alloca %"struct.std::_Head_base.6"*, align 8
  %4 = alloca %"class.dining_phil_prob::Philosopher"**, align 8
  store %"struct.std::_Head_base.6"* %0, %"struct.std::_Head_base.6"** %3, align 8
  call void @llvm.dbg.declare(metadata %"struct.std::_Head_base.6"** %3, metadata !4341, metadata !3199), !dbg !4343
  store %"class.dining_phil_prob::Philosopher"** %1, %"class.dining_phil_prob::Philosopher"*** %4, align 8
  call void @llvm.dbg.declare(metadata %"class.dining_phil_prob::Philosopher"*** %4, metadata !4344, metadata !3199), !dbg !4345
  %5 = load %"struct.std::_Head_base.6"*, %"struct.std::_Head_base.6"** %3, align 8
  %6 = getelementptr inbounds %"struct.std::_Head_base.6", %"struct.std::_Head_base.6"* %5, i32 0, i32 0, !dbg !4346
  %7 = load %"class.dining_phil_prob::Philosopher"**, %"class.dining_phil_prob::Philosopher"*** %4, align 8, !dbg !4347
  %8 = call dereferenceable(8) %"class.dining_phil_prob::Philosopher"** @_ZSt7forwardIPN16dining_phil_prob11PhilosopherEEOT_RNSt16remove_referenceIS3_E4typeE(%"class.dining_phil_prob::Philosopher"** dereferenceable(8) %7) #3, !dbg !4348
  %9 = load %"class.dining_phil_prob::Philosopher"*, %"class.dining_phil_prob::Philosopher"** %8, align 8, !dbg !4348
  store %"class.dining_phil_prob::Philosopher"* %9, %"class.dining_phil_prob::Philosopher"** %6, align 8, !dbg !4346
  ret void, !dbg !4349
}

; Function Attrs: nounwind uwtable
define linkonce_odr dereferenceable(8) %"class.dining_phil_prob::Philosopher"** @_ZNSt10_Head_baseILm1EPN16dining_phil_prob11PhilosopherELb0EE7_M_headERS3_(%"struct.std::_Head_base.6"* dereferenceable(8)) #4 comdat align 2 !dbg !4350 {
  %2 = alloca %"struct.std::_Head_base.6"*, align 8
  store %"struct.std::_Head_base.6"* %0, %"struct.std::_Head_base.6"** %2, align 8
  call void @llvm.dbg.declare(metadata %"struct.std::_Head_base.6"** %2, metadata !4351, metadata !3199), !dbg !4352
  %3 = load %"struct.std::_Head_base.6"*, %"struct.std::_Head_base.6"** %2, align 8, !dbg !4353
  %4 = getelementptr inbounds %"struct.std::_Head_base.6", %"struct.std::_Head_base.6"* %3, i32 0, i32 0, !dbg !4354
  ret %"class.dining_phil_prob::Philosopher"** %4, !dbg !4355
}

; Function Attrs: nounwind uwtable
define linkonce_odr dereferenceable(16) %"struct.std::_Mem_fn"* @_ZNSt10_Head_baseILm0ESt7_Mem_fnIMN16dining_phil_prob11PhilosopherEFvvEELb0EE7_M_headERS6_(%"struct.std::_Head_base.7"* dereferenceable(16)) #4 comdat align 2 !dbg !4356 {
  %2 = alloca %"struct.std::_Head_base.7"*, align 8
  store %"struct.std::_Head_base.7"* %0, %"struct.std::_Head_base.7"** %2, align 8
  call void @llvm.dbg.declare(metadata %"struct.std::_Head_base.7"** %2, metadata !4357, metadata !3199), !dbg !4358
  %3 = load %"struct.std::_Head_base.7"*, %"struct.std::_Head_base.7"** %2, align 8, !dbg !4359
  %4 = getelementptr inbounds %"struct.std::_Head_base.7", %"struct.std::_Head_base.7"* %3, i32 0, i32 0, !dbg !4360
  ret %"struct.std::_Mem_fn"* %4, !dbg !4361
}

; Function Attrs: nounwind
declare void @_ZNSt6thread6_StateD2Ev(%"struct.std::thread::_State"*) unnamed_addr #2

; Function Attrs: uwtable
define linkonce_odr void @_ZNSt12_Bind_simpleIFSt7_Mem_fnIMN16dining_phil_prob11PhilosopherEFvvEEPS2_EEclEv(%"struct.std::_Bind_simple"*) #0 comdat align 2 !dbg !4362 {
  %2 = alloca %"struct.std::_Bind_simple"*, align 8
  %3 = alloca %"struct.std::_Index_tuple", align 1
  store %"struct.std::_Bind_simple"* %0, %"struct.std::_Bind_simple"** %2, align 8
  call void @llvm.dbg.declare(metadata %"struct.std::_Bind_simple"** %2, metadata !4363, metadata !3199), !dbg !4364
  %4 = load %"struct.std::_Bind_simple"*, %"struct.std::_Bind_simple"** %2, align 8
  call void @_ZNSt12_Bind_simpleIFSt7_Mem_fnIMN16dining_phil_prob11PhilosopherEFvvEEPS2_EE9_M_invokeIJLm0EEEEvSt12_Index_tupleIJXspT_EEE(%"struct.std::_Bind_simple"* %4), !dbg !4365
  ret void, !dbg !4366
}

; Function Attrs: uwtable
define linkonce_odr void @_ZNSt12_Bind_simpleIFSt7_Mem_fnIMN16dining_phil_prob11PhilosopherEFvvEEPS2_EE9_M_invokeIJLm0EEEEvSt12_Index_tupleIJXspT_EEE(%"struct.std::_Bind_simple"*) #0 comdat align 2 !dbg !4367 {
  %2 = alloca %"struct.std::_Index_tuple", align 1
  %3 = alloca %"struct.std::_Bind_simple"*, align 8
  store %"struct.std::_Bind_simple"* %0, %"struct.std::_Bind_simple"** %3, align 8
  call void @llvm.dbg.declare(metadata %"struct.std::_Bind_simple"** %3, metadata !4379, metadata !3199), !dbg !4380
  call void @llvm.dbg.declare(metadata %"struct.std::_Index_tuple"* %2, metadata !4381, metadata !3199), !dbg !4382
  %4 = load %"struct.std::_Bind_simple"*, %"struct.std::_Bind_simple"** %3, align 8
  %5 = getelementptr inbounds %"struct.std::_Bind_simple", %"struct.std::_Bind_simple"* %4, i32 0, i32 0, !dbg !4383
  %6 = call dereferenceable(16) %"struct.std::_Mem_fn"* @_ZSt3getILm0EJSt7_Mem_fnIMN16dining_phil_prob11PhilosopherEFvvEEPS2_EERNSt13tuple_elementIXT_ESt5tupleIJDpT0_EEE4typeERSB_(%"class.std::tuple.3"* dereferenceable(24) %5) #3, !dbg !4384
  %7 = call dereferenceable(16) %"struct.std::_Mem_fn"* @_ZSt7forwardISt7_Mem_fnIMN16dining_phil_prob11PhilosopherEFvvEEEOT_RNSt16remove_referenceIS6_E4typeE(%"struct.std::_Mem_fn"* dereferenceable(16) %6) #3, !dbg !4385
  %8 = bitcast %"struct.std::_Mem_fn"* %7 to %"class.std::_Mem_fn_base"*, !dbg !4387
  %9 = getelementptr inbounds %"struct.std::_Bind_simple", %"struct.std::_Bind_simple"* %4, i32 0, i32 0, !dbg !4388
  %10 = call dereferenceable(8) %"class.dining_phil_prob::Philosopher"** @_ZSt3getILm1EJSt7_Mem_fnIMN16dining_phil_prob11PhilosopherEFvvEEPS2_EERNSt13tuple_elementIXT_ESt5tupleIJDpT0_EEE4typeERSB_(%"class.std::tuple.3"* dereferenceable(24) %9) #3, !dbg !4389
  %11 = call dereferenceable(8) %"class.dining_phil_prob::Philosopher"** @_ZSt7forwardIPN16dining_phil_prob11PhilosopherEEOT_RNSt16remove_referenceIS3_E4typeE(%"class.dining_phil_prob::Philosopher"** dereferenceable(8) %10) #3, !dbg !4390
  call void @_ZNKSt12_Mem_fn_baseIMN16dining_phil_prob11PhilosopherEFvvELb1EEclIJPS1_EEEDTclsr3stdE8__invokedtdefpT6_M_pmfspclsr3stdE7forwardIT_Efp_EEEDpOS7_(%"class.std::_Mem_fn_base"* %8, %"class.dining_phil_prob::Philosopher"** dereferenceable(8) %11), !dbg !4391
  ret void, !dbg !4393
}

; Function Attrs: nounwind uwtable
define linkonce_odr dereferenceable(16) %"struct.std::_Mem_fn"* @_ZSt3getILm0EJSt7_Mem_fnIMN16dining_phil_prob11PhilosopherEFvvEEPS2_EERNSt13tuple_elementIXT_ESt5tupleIJDpT0_EEE4typeERSB_(%"class.std::tuple.3"* dereferenceable(24)) #4 comdat !dbg !4394 {
  %2 = alloca %"class.std::tuple.3"*, align 8
  store %"class.std::tuple.3"* %0, %"class.std::tuple.3"** %2, align 8
  call void @llvm.dbg.declare(metadata %"class.std::tuple.3"** %2, metadata !4406, metadata !3199), !dbg !4407
  %3 = load %"class.std::tuple.3"*, %"class.std::tuple.3"** %2, align 8, !dbg !4408
  %4 = bitcast %"class.std::tuple.3"* %3 to %"struct.std::_Tuple_impl.4"*, !dbg !4408
  %5 = call dereferenceable(16) %"struct.std::_Mem_fn"* @_ZSt12__get_helperILm0ESt7_Mem_fnIMN16dining_phil_prob11PhilosopherEFvvEEJPS2_EERT0_RSt11_Tuple_implIXT_EJS7_DpT1_EE(%"struct.std::_Tuple_impl.4"* dereferenceable(24) %4) #3, !dbg !4409
  ret %"struct.std::_Mem_fn"* %5, !dbg !4410
}

; Function Attrs: uwtable
define linkonce_odr void @_ZNKSt12_Mem_fn_baseIMN16dining_phil_prob11PhilosopherEFvvELb1EEclIJPS1_EEEDTclsr3stdE8__invokedtdefpT6_M_pmfspclsr3stdE7forwardIT_Efp_EEEDpOS7_(%"class.std::_Mem_fn_base"*, %"class.dining_phil_prob::Philosopher"** dereferenceable(8)) #0 comdat align 2 !dbg !4411 {
  %3 = alloca %"class.std::_Mem_fn_base"*, align 8
  %4 = alloca %"class.dining_phil_prob::Philosopher"**, align 8
  store %"class.std::_Mem_fn_base"* %0, %"class.std::_Mem_fn_base"** %3, align 8
  call void @llvm.dbg.declare(metadata %"class.std::_Mem_fn_base"** %3, metadata !4417, metadata !3199), !dbg !4419
  store %"class.dining_phil_prob::Philosopher"** %1, %"class.dining_phil_prob::Philosopher"*** %4, align 8
  call void @llvm.dbg.declare(metadata %"class.dining_phil_prob::Philosopher"*** %4, metadata !4420, metadata !3199), !dbg !4421
  %5 = load %"class.std::_Mem_fn_base"*, %"class.std::_Mem_fn_base"** %3, align 8
  %6 = getelementptr inbounds %"class.std::_Mem_fn_base", %"class.std::_Mem_fn_base"* %5, i32 0, i32 0, !dbg !4422
  %7 = load %"class.dining_phil_prob::Philosopher"**, %"class.dining_phil_prob::Philosopher"*** %4, align 8, !dbg !4423
  %8 = call dereferenceable(8) %"class.dining_phil_prob::Philosopher"** @_ZSt7forwardIPN16dining_phil_prob11PhilosopherEEOT_RNSt16remove_referenceIS3_E4typeE(%"class.dining_phil_prob::Philosopher"** dereferenceable(8) %7) #3, !dbg !4424
  call void @_ZSt8__invokeIRKMN16dining_phil_prob11PhilosopherEFvvEJPS1_EENSt9result_ofIFOT_DpOT0_EE4typeES9_SC_({ i64, i64 }* dereferenceable(16) %6, %"class.dining_phil_prob::Philosopher"** dereferenceable(8) %8), !dbg !4425
  ret void, !dbg !4427
}

; Function Attrs: nounwind uwtable
define linkonce_odr dereferenceable(8) %"class.dining_phil_prob::Philosopher"** @_ZSt3getILm1EJSt7_Mem_fnIMN16dining_phil_prob11PhilosopherEFvvEEPS2_EERNSt13tuple_elementIXT_ESt5tupleIJDpT0_EEE4typeERSB_(%"class.std::tuple.3"* dereferenceable(24)) #4 comdat !dbg !4428 {
  %2 = alloca %"class.std::tuple.3"*, align 8
  store %"class.std::tuple.3"* %0, %"class.std::tuple.3"** %2, align 8
  call void @llvm.dbg.declare(metadata %"class.std::tuple.3"** %2, metadata !4440, metadata !3199), !dbg !4441
  %3 = load %"class.std::tuple.3"*, %"class.std::tuple.3"** %2, align 8, !dbg !4442
  %4 = bitcast %"class.std::tuple.3"* %3 to %"struct.std::_Tuple_impl.5"*, !dbg !4442
  %5 = call dereferenceable(8) %"class.dining_phil_prob::Philosopher"** @_ZSt12__get_helperILm1EPN16dining_phil_prob11PhilosopherEJEERT0_RSt11_Tuple_implIXT_EJS3_DpT1_EE(%"struct.std::_Tuple_impl.5"* dereferenceable(8) %4) #3, !dbg !4443
  ret %"class.dining_phil_prob::Philosopher"** %5, !dbg !4444
}

; Function Attrs: nounwind uwtable
define linkonce_odr dereferenceable(16) %"struct.std::_Mem_fn"* @_ZSt12__get_helperILm0ESt7_Mem_fnIMN16dining_phil_prob11PhilosopherEFvvEEJPS2_EERT0_RSt11_Tuple_implIXT_EJS7_DpT1_EE(%"struct.std::_Tuple_impl.4"* dereferenceable(24)) #4 comdat !dbg !4445 {
  %2 = alloca %"struct.std::_Tuple_impl.4"*, align 8
  store %"struct.std::_Tuple_impl.4"* %0, %"struct.std::_Tuple_impl.4"** %2, align 8
  call void @llvm.dbg.declare(metadata %"struct.std::_Tuple_impl.4"** %2, metadata !4448, metadata !3199), !dbg !4449
  %3 = load %"struct.std::_Tuple_impl.4"*, %"struct.std::_Tuple_impl.4"** %2, align 8, !dbg !4450
  %4 = call dereferenceable(16) %"struct.std::_Mem_fn"* @_ZNSt11_Tuple_implILm0EJSt7_Mem_fnIMN16dining_phil_prob11PhilosopherEFvvEEPS2_EE7_M_headERS7_(%"struct.std::_Tuple_impl.4"* dereferenceable(24) %3) #3, !dbg !4451
  ret %"struct.std::_Mem_fn"* %4, !dbg !4452
}

; Function Attrs: inlinehint uwtable
define linkonce_odr void @_ZSt8__invokeIRKMN16dining_phil_prob11PhilosopherEFvvEJPS1_EENSt9result_ofIFOT_DpOT0_EE4typeES9_SC_({ i64, i64 }* dereferenceable(16), %"class.dining_phil_prob::Philosopher"** dereferenceable(8)) #13 comdat !dbg !477 {
  %3 = alloca { i64, i64 }*, align 8
  %4 = alloca %"class.dining_phil_prob::Philosopher"**, align 8
  %5 = alloca %"struct.std::__invoke_memfun_deref", align 1
  store { i64, i64 }* %0, { i64, i64 }** %3, align 8
  call void @llvm.dbg.declare(metadata { i64, i64 }** %3, metadata !4453, metadata !3199), !dbg !4454
  store %"class.dining_phil_prob::Philosopher"** %1, %"class.dining_phil_prob::Philosopher"*** %4, align 8
  call void @llvm.dbg.declare(metadata %"class.dining_phil_prob::Philosopher"*** %4, metadata !4455, metadata !3199), !dbg !4456
  %6 = load { i64, i64 }*, { i64, i64 }** %3, align 8, !dbg !4457
  %7 = call dereferenceable(16) { i64, i64 }* @_ZSt7forwardIRKMN16dining_phil_prob11PhilosopherEFvvEEOT_RNSt16remove_referenceIS6_E4typeE({ i64, i64 }* dereferenceable(16) %6) #3, !dbg !4458
  %8 = load %"class.dining_phil_prob::Philosopher"**, %"class.dining_phil_prob::Philosopher"*** %4, align 8, !dbg !4459
  %9 = call dereferenceable(8) %"class.dining_phil_prob::Philosopher"** @_ZSt7forwardIPN16dining_phil_prob11PhilosopherEEOT_RNSt16remove_referenceIS3_E4typeE(%"class.dining_phil_prob::Philosopher"** dereferenceable(8) %8) #3, !dbg !4460
  call void @_ZSt13__invoke_implIvRKMN16dining_phil_prob11PhilosopherEFvvEPS1_JEET_St21__invoke_memfun_derefOT0_OT1_DpOT2_({ i64, i64 }* dereferenceable(16) %7, %"class.dining_phil_prob::Philosopher"** dereferenceable(8) %9), !dbg !4461
  ret void, !dbg !4463
}

; Function Attrs: inlinehint uwtable
define linkonce_odr void @_ZSt13__invoke_implIvRKMN16dining_phil_prob11PhilosopherEFvvEPS1_JEET_St21__invoke_memfun_derefOT0_OT1_DpOT2_({ i64, i64 }* dereferenceable(16), %"class.dining_phil_prob::Philosopher"** dereferenceable(8)) #13 comdat !dbg !4464 {
  %3 = alloca %"struct.std::__invoke_memfun_deref", align 1
  %4 = alloca { i64, i64 }*, align 8
  %5 = alloca %"class.dining_phil_prob::Philosopher"**, align 8
  call void @llvm.dbg.declare(metadata %"struct.std::__invoke_memfun_deref"* %3, metadata !4470, metadata !3199), !dbg !4471
  store { i64, i64 }* %0, { i64, i64 }** %4, align 8
  call void @llvm.dbg.declare(metadata { i64, i64 }** %4, metadata !4472, metadata !3199), !dbg !4473
  store %"class.dining_phil_prob::Philosopher"** %1, %"class.dining_phil_prob::Philosopher"*** %5, align 8
  call void @llvm.dbg.declare(metadata %"class.dining_phil_prob::Philosopher"*** %5, metadata !4474, metadata !3199), !dbg !4475
  %6 = load { i64, i64 }*, { i64, i64 }** %4, align 8, !dbg !4476
  %7 = load { i64, i64 }, { i64, i64 }* %6, align 8, !dbg !4476
  %8 = load %"class.dining_phil_prob::Philosopher"**, %"class.dining_phil_prob::Philosopher"*** %5, align 8, !dbg !4477
  %9 = call dereferenceable(8) %"class.dining_phil_prob::Philosopher"** @_ZSt7forwardIPN16dining_phil_prob11PhilosopherEEOT_RNSt16remove_referenceIS3_E4typeE(%"class.dining_phil_prob::Philosopher"** dereferenceable(8) %8) #3, !dbg !4478
  %10 = load %"class.dining_phil_prob::Philosopher"*, %"class.dining_phil_prob::Philosopher"** %9, align 8, !dbg !4478
  %11 = extractvalue { i64, i64 } %7, 1, !dbg !4479
  %12 = bitcast %"class.dining_phil_prob::Philosopher"* %10 to i8*, !dbg !4479
  %13 = getelementptr inbounds i8, i8* %12, i64 %11, !dbg !4479
  %14 = bitcast i8* %13 to %"class.dining_phil_prob::Philosopher"*, !dbg !4479
  %15 = extractvalue { i64, i64 } %7, 0, !dbg !4479
  %16 = and i64 %15, 1, !dbg !4479
  %17 = icmp ne i64 %16, 0, !dbg !4479
  br i1 %17, label %18, label %25, !dbg !4479

; <label>:18:                                     ; preds = %2
  %19 = bitcast %"class.dining_phil_prob::Philosopher"* %14 to i8**, !dbg !4480
  %20 = load i8*, i8** %19, align 8, !dbg !4480
  %21 = sub i64 %15, 1, !dbg !4480
  %22 = getelementptr i8, i8* %20, i64 %21, !dbg !4480
  %23 = bitcast i8* %22 to void (%"class.dining_phil_prob::Philosopher"*)**, !dbg !4480
  %24 = load void (%"class.dining_phil_prob::Philosopher"*)*, void (%"class.dining_phil_prob::Philosopher"*)** %23, align 8, !dbg !4480
  br label %27, !dbg !4480

; <label>:25:                                     ; preds = %2
  %26 = inttoptr i64 %15 to void (%"class.dining_phil_prob::Philosopher"*)*, !dbg !4482
  br label %27, !dbg !4482

; <label>:27:                                     ; preds = %25, %18
  %28 = phi void (%"class.dining_phil_prob::Philosopher"*)* [ %24, %18 ], [ %26, %25 ], !dbg !4484
  call void %28(%"class.dining_phil_prob::Philosopher"* %14), !dbg !4484
  ret void, !dbg !4486
}

; Function Attrs: nounwind uwtable
define linkonce_odr dereferenceable(16) { i64, i64 }* @_ZSt7forwardIRKMN16dining_phil_prob11PhilosopherEFvvEEOT_RNSt16remove_referenceIS6_E4typeE({ i64, i64 }* dereferenceable(16)) #4 comdat !dbg !4487 {
  %2 = alloca { i64, i64 }*, align 8
  store { i64, i64 }* %0, { i64, i64 }** %2, align 8
  call void @llvm.dbg.declare(metadata { i64, i64 }** %2, metadata !4495, metadata !3199), !dbg !4496
  %3 = load { i64, i64 }*, { i64, i64 }** %2, align 8, !dbg !4497
  ret { i64, i64 }* %3, !dbg !4498
}

; Function Attrs: nounwind uwtable
define linkonce_odr dereferenceable(8) %"class.dining_phil_prob::Philosopher"** @_ZSt12__get_helperILm1EPN16dining_phil_prob11PhilosopherEJEERT0_RSt11_Tuple_implIXT_EJS3_DpT1_EE(%"struct.std::_Tuple_impl.5"* dereferenceable(8)) #4 comdat !dbg !4499 {
  %2 = alloca %"struct.std::_Tuple_impl.5"*, align 8
  store %"struct.std::_Tuple_impl.5"* %0, %"struct.std::_Tuple_impl.5"** %2, align 8
  call void @llvm.dbg.declare(metadata %"struct.std::_Tuple_impl.5"** %2, metadata !4502, metadata !3199), !dbg !4503
  %3 = load %"struct.std::_Tuple_impl.5"*, %"struct.std::_Tuple_impl.5"** %2, align 8, !dbg !4504
  %4 = call dereferenceable(8) %"class.dining_phil_prob::Philosopher"** @_ZNSt11_Tuple_implILm1EJPN16dining_phil_prob11PhilosopherEEE7_M_headERS3_(%"struct.std::_Tuple_impl.5"* dereferenceable(8) %3) #3, !dbg !4505
  ret %"class.dining_phil_prob::Philosopher"** %4, !dbg !4506
}

; Function Attrs: uwtable
define linkonce_odr void @_ZNSt5tupleIJPNSt6thread6_StateESt14default_deleteIS1_EEEC2IRS2_S4_Lb1EEEOT_OT0_(%"class.std::tuple"*, %"struct.std::thread::_State"** dereferenceable(8), %"struct.std::default_delete"* dereferenceable(1)) unnamed_addr #0 comdat align 2 !dbg !4507 {
  %4 = alloca %"class.std::tuple"*, align 8
  %5 = alloca %"struct.std::thread::_State"**, align 8
  %6 = alloca %"struct.std::default_delete"*, align 8
  store %"class.std::tuple"* %0, %"class.std::tuple"** %4, align 8
  call void @llvm.dbg.declare(metadata %"class.std::tuple"** %4, metadata !4515, metadata !3199), !dbg !4517
  store %"struct.std::thread::_State"** %1, %"struct.std::thread::_State"*** %5, align 8
  call void @llvm.dbg.declare(metadata %"struct.std::thread::_State"*** %5, metadata !4518, metadata !3199), !dbg !4519
  store %"struct.std::default_delete"* %2, %"struct.std::default_delete"** %6, align 8
  call void @llvm.dbg.declare(metadata %"struct.std::default_delete"** %6, metadata !4520, metadata !3199), !dbg !4521
  %7 = load %"class.std::tuple"*, %"class.std::tuple"** %4, align 8
  %8 = bitcast %"class.std::tuple"* %7 to %"struct.std::_Tuple_impl"*, !dbg !4522
  %9 = load %"struct.std::thread::_State"**, %"struct.std::thread::_State"*** %5, align 8, !dbg !4523
  %10 = call dereferenceable(8) %"struct.std::thread::_State"** @_ZSt7forwardIRPNSt6thread6_StateEEOT_RNSt16remove_referenceIS4_E4typeE(%"struct.std::thread::_State"** dereferenceable(8) %9) #3, !dbg !4524
  %11 = load %"struct.std::default_delete"*, %"struct.std::default_delete"** %6, align 8, !dbg !4525
  %12 = call dereferenceable(1) %"struct.std::default_delete"* @_ZSt7forwardISt14default_deleteINSt6thread6_StateEEEOT_RNSt16remove_referenceIS4_E4typeE(%"struct.std::default_delete"* dereferenceable(1) %11) #3, !dbg !4526
  call void @_ZNSt11_Tuple_implILm0EJPNSt6thread6_StateESt14default_deleteIS1_EEEC2IRS2_JS4_EvEEOT_DpOT0_(%"struct.std::_Tuple_impl"* %8, %"struct.std::thread::_State"** dereferenceable(8) %10, %"struct.std::default_delete"* dereferenceable(1) %12), !dbg !4528
  ret void, !dbg !4530
}

; Function Attrs: nounwind uwtable
define linkonce_odr dereferenceable(8) %"struct.std::thread::_State"** @_ZSt7forwardIRPNSt6thread6_StateEEOT_RNSt16remove_referenceIS4_E4typeE(%"struct.std::thread::_State"** dereferenceable(8)) #4 comdat !dbg !4531 {
  %2 = alloca %"struct.std::thread::_State"**, align 8
  store %"struct.std::thread::_State"** %0, %"struct.std::thread::_State"*** %2, align 8
  call void @llvm.dbg.declare(metadata %"struct.std::thread::_State"*** %2, metadata !4539, metadata !3199), !dbg !4540
  %3 = load %"struct.std::thread::_State"**, %"struct.std::thread::_State"*** %2, align 8, !dbg !4541
  ret %"struct.std::thread::_State"** %3, !dbg !4542
}

; Function Attrs: nounwind uwtable
define linkonce_odr dereferenceable(1) %"struct.std::default_delete"* @_ZSt7forwardISt14default_deleteINSt6thread6_StateEEEOT_RNSt16remove_referenceIS4_E4typeE(%"struct.std::default_delete"* dereferenceable(1)) #4 comdat !dbg !4543 {
  %2 = alloca %"struct.std::default_delete"*, align 8
  store %"struct.std::default_delete"* %0, %"struct.std::default_delete"** %2, align 8
  call void @llvm.dbg.declare(metadata %"struct.std::default_delete"** %2, metadata !4547, metadata !3199), !dbg !4548
  %3 = load %"struct.std::default_delete"*, %"struct.std::default_delete"** %2, align 8, !dbg !4549
  ret %"struct.std::default_delete"* %3, !dbg !4550
}

; Function Attrs: uwtable
define linkonce_odr void @_ZNSt11_Tuple_implILm0EJPNSt6thread6_StateESt14default_deleteIS1_EEEC2IRS2_JS4_EvEEOT_DpOT0_(%"struct.std::_Tuple_impl"*, %"struct.std::thread::_State"** dereferenceable(8), %"struct.std::default_delete"* dereferenceable(1)) unnamed_addr #0 comdat align 2 !dbg !4551 {
  %4 = alloca %"struct.std::_Tuple_impl"*, align 8
  %5 = alloca %"struct.std::thread::_State"**, align 8
  %6 = alloca %"struct.std::default_delete"*, align 8
  store %"struct.std::_Tuple_impl"* %0, %"struct.std::_Tuple_impl"** %4, align 8
  call void @llvm.dbg.declare(metadata %"struct.std::_Tuple_impl"** %4, metadata !4559, metadata !3199), !dbg !4561
  store %"struct.std::thread::_State"** %1, %"struct.std::thread::_State"*** %5, align 8
  call void @llvm.dbg.declare(metadata %"struct.std::thread::_State"*** %5, metadata !4562, metadata !3199), !dbg !4563
  store %"struct.std::default_delete"* %2, %"struct.std::default_delete"** %6, align 8
  call void @llvm.dbg.declare(metadata %"struct.std::default_delete"** %6, metadata !4564, metadata !3199), !dbg !4565
  %7 = load %"struct.std::_Tuple_impl"*, %"struct.std::_Tuple_impl"** %4, align 8
  %8 = bitcast %"struct.std::_Tuple_impl"* %7 to %"struct.std::_Tuple_impl.1"*, !dbg !4566
  %9 = load %"struct.std::default_delete"*, %"struct.std::default_delete"** %6, align 8, !dbg !4567
  %10 = call dereferenceable(1) %"struct.std::default_delete"* @_ZSt7forwardISt14default_deleteINSt6thread6_StateEEEOT_RNSt16remove_referenceIS4_E4typeE(%"struct.std::default_delete"* dereferenceable(1) %9) #3, !dbg !4568
  call void @_ZNSt11_Tuple_implILm1EJSt14default_deleteINSt6thread6_StateEEEEC2IS3_EEOT_(%"struct.std::_Tuple_impl.1"* %8, %"struct.std::default_delete"* dereferenceable(1) %10), !dbg !4569
  %11 = bitcast %"struct.std::_Tuple_impl"* %7 to %"struct.std::_Head_base.2"*, !dbg !4566
  %12 = load %"struct.std::thread::_State"**, %"struct.std::thread::_State"*** %5, align 8, !dbg !4571
  %13 = call dereferenceable(8) %"struct.std::thread::_State"** @_ZSt7forwardIRPNSt6thread6_StateEEOT_RNSt16remove_referenceIS4_E4typeE(%"struct.std::thread::_State"** dereferenceable(8) %12) #3, !dbg !4572
  call void @_ZNSt10_Head_baseILm0EPNSt6thread6_StateELb0EEC2IRS2_EEOT_(%"struct.std::_Head_base.2"* %11, %"struct.std::thread::_State"** dereferenceable(8) %13), !dbg !4573
  ret void, !dbg !4574
}

; Function Attrs: uwtable
define linkonce_odr void @_ZNSt11_Tuple_implILm1EJSt14default_deleteINSt6thread6_StateEEEEC2IS3_EEOT_(%"struct.std::_Tuple_impl.1"*, %"struct.std::default_delete"* dereferenceable(1)) unnamed_addr #0 comdat align 2 !dbg !4575 {
  %3 = alloca %"struct.std::_Tuple_impl.1"*, align 8
  %4 = alloca %"struct.std::default_delete"*, align 8
  store %"struct.std::_Tuple_impl.1"* %0, %"struct.std::_Tuple_impl.1"** %3, align 8
  call void @llvm.dbg.declare(metadata %"struct.std::_Tuple_impl.1"** %3, metadata !4581, metadata !3199), !dbg !4583
  store %"struct.std::default_delete"* %1, %"struct.std::default_delete"** %4, align 8
  call void @llvm.dbg.declare(metadata %"struct.std::default_delete"** %4, metadata !4584, metadata !3199), !dbg !4585
  %5 = load %"struct.std::_Tuple_impl.1"*, %"struct.std::_Tuple_impl.1"** %3, align 8
  %6 = bitcast %"struct.std::_Tuple_impl.1"* %5 to %"struct.std::_Head_base"*, !dbg !4586
  %7 = load %"struct.std::default_delete"*, %"struct.std::default_delete"** %4, align 8, !dbg !4587
  %8 = call dereferenceable(1) %"struct.std::default_delete"* @_ZSt7forwardISt14default_deleteINSt6thread6_StateEEEOT_RNSt16remove_referenceIS4_E4typeE(%"struct.std::default_delete"* dereferenceable(1) %7) #3, !dbg !4588
  call void @_ZNSt10_Head_baseILm1ESt14default_deleteINSt6thread6_StateEELb1EEC2IS3_EEOT_(%"struct.std::_Head_base"* %6, %"struct.std::default_delete"* dereferenceable(1) %8), !dbg !4589
  ret void, !dbg !4591
}

; Function Attrs: nounwind uwtable
define linkonce_odr void @_ZNSt10_Head_baseILm0EPNSt6thread6_StateELb0EEC2IRS2_EEOT_(%"struct.std::_Head_base.2"*, %"struct.std::thread::_State"** dereferenceable(8)) unnamed_addr #4 comdat align 2 !dbg !4592 {
  %3 = alloca %"struct.std::_Head_base.2"*, align 8
  %4 = alloca %"struct.std::thread::_State"**, align 8
  store %"struct.std::_Head_base.2"* %0, %"struct.std::_Head_base.2"** %3, align 8
  call void @llvm.dbg.declare(metadata %"struct.std::_Head_base.2"** %3, metadata !4597, metadata !3199), !dbg !4599
  store %"struct.std::thread::_State"** %1, %"struct.std::thread::_State"*** %4, align 8
  call void @llvm.dbg.declare(metadata %"struct.std::thread::_State"*** %4, metadata !4600, metadata !3199), !dbg !4601
  %5 = load %"struct.std::_Head_base.2"*, %"struct.std::_Head_base.2"** %3, align 8
  %6 = getelementptr inbounds %"struct.std::_Head_base.2", %"struct.std::_Head_base.2"* %5, i32 0, i32 0, !dbg !4602
  %7 = load %"struct.std::thread::_State"**, %"struct.std::thread::_State"*** %4, align 8, !dbg !4603
  %8 = call dereferenceable(8) %"struct.std::thread::_State"** @_ZSt7forwardIRPNSt6thread6_StateEEOT_RNSt16remove_referenceIS4_E4typeE(%"struct.std::thread::_State"** dereferenceable(8) %7) #3, !dbg !4604
  %9 = load %"struct.std::thread::_State"*, %"struct.std::thread::_State"** %8, align 8, !dbg !4604
  store %"struct.std::thread::_State"* %9, %"struct.std::thread::_State"** %6, align 8, !dbg !4602
  ret void, !dbg !4605
}

; Function Attrs: nounwind uwtable
define linkonce_odr void @_ZNSt10_Head_baseILm1ESt14default_deleteINSt6thread6_StateEELb1EEC2IS3_EEOT_(%"struct.std::_Head_base"*, %"struct.std::default_delete"* dereferenceable(1)) unnamed_addr #4 comdat align 2 !dbg !4606 {
  %3 = alloca %"struct.std::_Head_base"*, align 8
  %4 = alloca %"struct.std::default_delete"*, align 8
  store %"struct.std::_Head_base"* %0, %"struct.std::_Head_base"** %3, align 8
  call void @llvm.dbg.declare(metadata %"struct.std::_Head_base"** %3, metadata !4610, metadata !3199), !dbg !4612
  store %"struct.std::default_delete"* %1, %"struct.std::default_delete"** %4, align 8
  call void @llvm.dbg.declare(metadata %"struct.std::default_delete"** %4, metadata !4613, metadata !3199), !dbg !4614
  %5 = load %"struct.std::_Head_base"*, %"struct.std::_Head_base"** %3, align 8
  %6 = bitcast %"struct.std::_Head_base"* %5 to %"struct.std::default_delete"*, !dbg !4615
  %7 = load %"struct.std::default_delete"*, %"struct.std::default_delete"** %4, align 8, !dbg !4616
  %8 = call dereferenceable(1) %"struct.std::default_delete"* @_ZSt7forwardISt14default_deleteINSt6thread6_StateEEEOT_RNSt16remove_referenceIS4_E4typeE(%"struct.std::default_delete"* dereferenceable(1) %7) #3, !dbg !4617
  ret void, !dbg !4618
}

; Function Attrs: nounwind uwtable
define linkonce_odr { i64, i64 } @_ZNSt26_Maybe_wrap_member_pointerIMN16dining_phil_prob11PhilosopherEFvvEE9__do_wrapES3_(i64, i64) #4 comdat align 2 !dbg !4619 {
  %3 = alloca %"struct.std::_Mem_fn", align 8
  %4 = alloca { i64, i64 }, align 8
  %5 = alloca { i64, i64 }, align 8
  %6 = alloca { i64, i64 }, align 8
  %7 = getelementptr inbounds { i64, i64 }, { i64, i64 }* %4, i32 0, i32 0
  store i64 %0, i64* %7, align 8
  %8 = getelementptr inbounds { i64, i64 }, { i64, i64 }* %4, i32 0, i32 1
  store i64 %1, i64* %8, align 8
  %9 = load { i64, i64 }, { i64, i64 }* %4, align 8
  store { i64, i64 } %9, { i64, i64 }* %5, align 8
  call void @llvm.dbg.declare(metadata { i64, i64 }* %5, metadata !4620, metadata !3199), !dbg !4621
  %10 = load { i64, i64 }, { i64, i64 }* %5, align 8, !dbg !4622
  store { i64, i64 } %10, { i64, i64 }* %6, align 8, !dbg !4623
  %11 = getelementptr inbounds { i64, i64 }, { i64, i64 }* %6, i32 0, i32 0, !dbg !4623
  %12 = load i64, i64* %11, align 8, !dbg !4623
  %13 = getelementptr inbounds { i64, i64 }, { i64, i64 }* %6, i32 0, i32 1, !dbg !4623
  %14 = load i64, i64* %13, align 8, !dbg !4623
  call void @_ZNSt7_Mem_fnIMN16dining_phil_prob11PhilosopherEFvvEECI2St12_Mem_fn_baseIS3_Lb1EEES3_(%"struct.std::_Mem_fn"* %3, i64 %12, i64 %14) #3, !dbg !4623
  %15 = getelementptr inbounds %"struct.std::_Mem_fn", %"struct.std::_Mem_fn"* %3, i32 0, i32 0, !dbg !4624
  %16 = getelementptr inbounds %"class.std::_Mem_fn_base", %"class.std::_Mem_fn_base"* %15, i32 0, i32 0, !dbg !4624
  %17 = load { i64, i64 }, { i64, i64 }* %16, align 8, !dbg !4624
  ret { i64, i64 } %17, !dbg !4624
}

; Function Attrs: uwtable
define linkonce_odr void @_ZNSt12_Bind_simpleIFSt7_Mem_fnIMN16dining_phil_prob11PhilosopherEFvvEEPS2_EEC2IS5_JS6_EEEOT_DpOT0_(%"struct.std::_Bind_simple"*, %"struct.std::_Mem_fn"* dereferenceable(16), %"class.dining_phil_prob::Philosopher"** dereferenceable(8)) unnamed_addr #0 comdat align 2 !dbg !4625 {
  %4 = alloca %"struct.std::_Bind_simple"*, align 8
  %5 = alloca %"struct.std::_Mem_fn"*, align 8
  %6 = alloca %"class.dining_phil_prob::Philosopher"**, align 8
  store %"struct.std::_Bind_simple"* %0, %"struct.std::_Bind_simple"** %4, align 8
  call void @llvm.dbg.declare(metadata %"struct.std::_Bind_simple"** %4, metadata !4631, metadata !3199), !dbg !4632
  store %"struct.std::_Mem_fn"* %1, %"struct.std::_Mem_fn"** %5, align 8
  call void @llvm.dbg.declare(metadata %"struct.std::_Mem_fn"** %5, metadata !4633, metadata !3199), !dbg !4634
  store %"class.dining_phil_prob::Philosopher"** %2, %"class.dining_phil_prob::Philosopher"*** %6, align 8
  call void @llvm.dbg.declare(metadata %"class.dining_phil_prob::Philosopher"*** %6, metadata !4635, metadata !3199), !dbg !4636
  %7 = load %"struct.std::_Bind_simple"*, %"struct.std::_Bind_simple"** %4, align 8
  %8 = getelementptr inbounds %"struct.std::_Bind_simple", %"struct.std::_Bind_simple"* %7, i32 0, i32 0, !dbg !4637
  %9 = load %"struct.std::_Mem_fn"*, %"struct.std::_Mem_fn"** %5, align 8, !dbg !4638
  %10 = call dereferenceable(16) %"struct.std::_Mem_fn"* @_ZSt7forwardISt7_Mem_fnIMN16dining_phil_prob11PhilosopherEFvvEEEOT_RNSt16remove_referenceIS6_E4typeE(%"struct.std::_Mem_fn"* dereferenceable(16) %9) #3, !dbg !4639
  %11 = load %"class.dining_phil_prob::Philosopher"**, %"class.dining_phil_prob::Philosopher"*** %6, align 8, !dbg !4640
  %12 = call dereferenceable(8) %"class.dining_phil_prob::Philosopher"** @_ZSt7forwardIPN16dining_phil_prob11PhilosopherEEOT_RNSt16remove_referenceIS3_E4typeE(%"class.dining_phil_prob::Philosopher"** dereferenceable(8) %11) #3, !dbg !4641
  call void @_ZNSt5tupleIJSt7_Mem_fnIMN16dining_phil_prob11PhilosopherEFvvEEPS2_EEC2IS5_S6_Lb1EEEOT_OT0_(%"class.std::tuple.3"* %8, %"struct.std::_Mem_fn"* dereferenceable(16) %10, %"class.dining_phil_prob::Philosopher"** dereferenceable(8) %12), !dbg !4643
  ret void, !dbg !4645
}

; Function Attrs: inlinehint nounwind uwtable
define linkonce_odr void @_ZNSt7_Mem_fnIMN16dining_phil_prob11PhilosopherEFvvEECI2St12_Mem_fn_baseIS3_Lb1EEES3_(%"struct.std::_Mem_fn"*, i64, i64) unnamed_addr #9 comdat align 2 !dbg !4646 {
  %4 = alloca { i64, i64 }, align 8
  %5 = alloca %"struct.std::_Mem_fn"*, align 8
  %6 = alloca { i64, i64 }, align 8
  %7 = alloca { i64, i64 }, align 8
  %8 = getelementptr inbounds { i64, i64 }, { i64, i64 }* %4, i32 0, i32 0
  store i64 %1, i64* %8, align 8
  %9 = getelementptr inbounds { i64, i64 }, { i64, i64 }* %4, i32 0, i32 1
  store i64 %2, i64* %9, align 8
  %10 = load { i64, i64 }, { i64, i64 }* %4, align 8
  store %"struct.std::_Mem_fn"* %0, %"struct.std::_Mem_fn"** %5, align 8
  call void @llvm.dbg.declare(metadata %"struct.std::_Mem_fn"** %5, metadata !4651, metadata !3199), !dbg !4653
  store { i64, i64 } %10, { i64, i64 }* %6, align 8
  call void @llvm.dbg.declare(metadata { i64, i64 }* %6, metadata !4654, metadata !3199), !dbg !4653
  %11 = load %"struct.std::_Mem_fn"*, %"struct.std::_Mem_fn"** %5, align 8
  %12 = bitcast %"struct.std::_Mem_fn"* %11 to %"class.std::_Mem_fn_base"*, !dbg !4655
  %13 = load { i64, i64 }, { i64, i64 }* %6, align 8, !dbg !4655
  store { i64, i64 } %13, { i64, i64 }* %7, align 8, !dbg !4655
  %14 = getelementptr inbounds { i64, i64 }, { i64, i64 }* %7, i32 0, i32 0, !dbg !4655
  %15 = load i64, i64* %14, align 8, !dbg !4655
  %16 = getelementptr inbounds { i64, i64 }, { i64, i64 }* %7, i32 0, i32 1, !dbg !4655
  %17 = load i64, i64* %16, align 8, !dbg !4655
  call void @_ZNSt12_Mem_fn_baseIMN16dining_phil_prob11PhilosopherEFvvELb1EEC2ES3_(%"class.std::_Mem_fn_base"* %12, i64 %15, i64 %17) #3, !dbg !4655
  ret void, !dbg !4655
}

; Function Attrs: nounwind uwtable
define linkonce_odr void @_ZNSt12_Mem_fn_baseIMN16dining_phil_prob11PhilosopherEFvvELb1EEC2ES3_(%"class.std::_Mem_fn_base"*, i64, i64) unnamed_addr #4 comdat align 2 !dbg !4656 {
  %4 = alloca { i64, i64 }, align 8
  %5 = alloca %"class.std::_Mem_fn_base"*, align 8
  %6 = alloca { i64, i64 }, align 8
  %7 = getelementptr inbounds { i64, i64 }, { i64, i64 }* %4, i32 0, i32 0
  store i64 %1, i64* %7, align 8
  %8 = getelementptr inbounds { i64, i64 }, { i64, i64 }* %4, i32 0, i32 1
  store i64 %2, i64* %8, align 8
  %9 = load { i64, i64 }, { i64, i64 }* %4, align 8
  store %"class.std::_Mem_fn_base"* %0, %"class.std::_Mem_fn_base"** %5, align 8
  call void @llvm.dbg.declare(metadata %"class.std::_Mem_fn_base"** %5, metadata !4657, metadata !3199), !dbg !4659
  store { i64, i64 } %9, { i64, i64 }* %6, align 8
  call void @llvm.dbg.declare(metadata { i64, i64 }* %6, metadata !4660, metadata !3199), !dbg !4661
  %10 = load %"class.std::_Mem_fn_base"*, %"class.std::_Mem_fn_base"** %5, align 8
  %11 = bitcast %"class.std::_Mem_fn_base"* %10 to %"struct.std::_Maybe_unary_or_binary_function"*, !dbg !4662
  %12 = getelementptr inbounds %"class.std::_Mem_fn_base", %"class.std::_Mem_fn_base"* %10, i32 0, i32 0, !dbg !4663
  %13 = load { i64, i64 }, { i64, i64 }* %6, align 8, !dbg !4664
  store { i64, i64 } %13, { i64, i64 }* %12, align 8, !dbg !4663
  ret void, !dbg !4665
}

; Function Attrs: uwtable
define linkonce_odr void @_ZNSt5tupleIJSt7_Mem_fnIMN16dining_phil_prob11PhilosopherEFvvEEPS2_EEC2IS5_S6_Lb1EEEOT_OT0_(%"class.std::tuple.3"*, %"struct.std::_Mem_fn"* dereferenceable(16), %"class.dining_phil_prob::Philosopher"** dereferenceable(8)) unnamed_addr #0 comdat align 2 !dbg !4666 {
  %4 = alloca %"class.std::tuple.3"*, align 8
  %5 = alloca %"struct.std::_Mem_fn"*, align 8
  %6 = alloca %"class.dining_phil_prob::Philosopher"**, align 8
  store %"class.std::tuple.3"* %0, %"class.std::tuple.3"** %4, align 8
  call void @llvm.dbg.declare(metadata %"class.std::tuple.3"** %4, metadata !4673, metadata !3199), !dbg !4674
  store %"struct.std::_Mem_fn"* %1, %"struct.std::_Mem_fn"** %5, align 8
  call void @llvm.dbg.declare(metadata %"struct.std::_Mem_fn"** %5, metadata !4675, metadata !3199), !dbg !4676
  store %"class.dining_phil_prob::Philosopher"** %2, %"class.dining_phil_prob::Philosopher"*** %6, align 8
  call void @llvm.dbg.declare(metadata %"class.dining_phil_prob::Philosopher"*** %6, metadata !4677, metadata !3199), !dbg !4678
  %7 = load %"class.std::tuple.3"*, %"class.std::tuple.3"** %4, align 8
  %8 = bitcast %"class.std::tuple.3"* %7 to %"struct.std::_Tuple_impl.4"*, !dbg !4679
  %9 = load %"struct.std::_Mem_fn"*, %"struct.std::_Mem_fn"** %5, align 8, !dbg !4680
  %10 = call dereferenceable(16) %"struct.std::_Mem_fn"* @_ZSt7forwardISt7_Mem_fnIMN16dining_phil_prob11PhilosopherEFvvEEEOT_RNSt16remove_referenceIS6_E4typeE(%"struct.std::_Mem_fn"* dereferenceable(16) %9) #3, !dbg !4681
  %11 = load %"class.dining_phil_prob::Philosopher"**, %"class.dining_phil_prob::Philosopher"*** %6, align 8, !dbg !4682
  %12 = call dereferenceable(8) %"class.dining_phil_prob::Philosopher"** @_ZSt7forwardIPN16dining_phil_prob11PhilosopherEEOT_RNSt16remove_referenceIS3_E4typeE(%"class.dining_phil_prob::Philosopher"** dereferenceable(8) %11) #3, !dbg !4683
  call void @_ZNSt11_Tuple_implILm0EJSt7_Mem_fnIMN16dining_phil_prob11PhilosopherEFvvEEPS2_EEC2IS5_JS6_EvEEOT_DpOT0_(%"struct.std::_Tuple_impl.4"* %8, %"struct.std::_Mem_fn"* dereferenceable(16) %10, %"class.dining_phil_prob::Philosopher"** dereferenceable(8) %12), !dbg !4685
  ret void, !dbg !4687
}

; Function Attrs: uwtable
define linkonce_odr void @_ZNSt11_Tuple_implILm0EJSt7_Mem_fnIMN16dining_phil_prob11PhilosopherEFvvEEPS2_EEC2IS5_JS6_EvEEOT_DpOT0_(%"struct.std::_Tuple_impl.4"*, %"struct.std::_Mem_fn"* dereferenceable(16), %"class.dining_phil_prob::Philosopher"** dereferenceable(8)) unnamed_addr #0 comdat align 2 !dbg !4688 {
  %4 = alloca %"struct.std::_Tuple_impl.4"*, align 8
  %5 = alloca %"struct.std::_Mem_fn"*, align 8
  %6 = alloca %"class.dining_phil_prob::Philosopher"**, align 8
  store %"struct.std::_Tuple_impl.4"* %0, %"struct.std::_Tuple_impl.4"** %4, align 8
  call void @llvm.dbg.declare(metadata %"struct.std::_Tuple_impl.4"** %4, metadata !4694, metadata !3199), !dbg !4695
  store %"struct.std::_Mem_fn"* %1, %"struct.std::_Mem_fn"** %5, align 8
  call void @llvm.dbg.declare(metadata %"struct.std::_Mem_fn"** %5, metadata !4696, metadata !3199), !dbg !4697
  store %"class.dining_phil_prob::Philosopher"** %2, %"class.dining_phil_prob::Philosopher"*** %6, align 8
  call void @llvm.dbg.declare(metadata %"class.dining_phil_prob::Philosopher"*** %6, metadata !4698, metadata !3199), !dbg !4699
  %7 = load %"struct.std::_Tuple_impl.4"*, %"struct.std::_Tuple_impl.4"** %4, align 8
  %8 = bitcast %"struct.std::_Tuple_impl.4"* %7 to %"struct.std::_Tuple_impl.5"*, !dbg !4700
  %9 = load %"class.dining_phil_prob::Philosopher"**, %"class.dining_phil_prob::Philosopher"*** %6, align 8, !dbg !4701
  %10 = call dereferenceable(8) %"class.dining_phil_prob::Philosopher"** @_ZSt7forwardIPN16dining_phil_prob11PhilosopherEEOT_RNSt16remove_referenceIS3_E4typeE(%"class.dining_phil_prob::Philosopher"** dereferenceable(8) %9) #3, !dbg !4702
  call void @_ZNSt11_Tuple_implILm1EJPN16dining_phil_prob11PhilosopherEEEC2IS2_EEOT_(%"struct.std::_Tuple_impl.5"* %8, %"class.dining_phil_prob::Philosopher"** dereferenceable(8) %10), !dbg !4703
  %11 = bitcast %"struct.std::_Tuple_impl.4"* %7 to i8*, !dbg !4700
  %12 = getelementptr inbounds i8, i8* %11, i64 8, !dbg !4700
  %13 = bitcast i8* %12 to %"struct.std::_Head_base.7"*, !dbg !4700
  %14 = load %"struct.std::_Mem_fn"*, %"struct.std::_Mem_fn"** %5, align 8, !dbg !4705
  %15 = call dereferenceable(16) %"struct.std::_Mem_fn"* @_ZSt7forwardISt7_Mem_fnIMN16dining_phil_prob11PhilosopherEFvvEEEOT_RNSt16remove_referenceIS6_E4typeE(%"struct.std::_Mem_fn"* dereferenceable(16) %14) #3, !dbg !4706
  call void @_ZNSt10_Head_baseILm0ESt7_Mem_fnIMN16dining_phil_prob11PhilosopherEFvvEELb0EEC2IS5_EEOT_(%"struct.std::_Head_base.7"* %13, %"struct.std::_Mem_fn"* dereferenceable(16) %15), !dbg !4707
  ret void, !dbg !4708
}

; Function Attrs: nounwind uwtable
define linkonce_odr void @_ZNSt11_Tuple_implILm1EJPN16dining_phil_prob11PhilosopherEEEC2IS2_EEOT_(%"struct.std::_Tuple_impl.5"*, %"class.dining_phil_prob::Philosopher"** dereferenceable(8)) unnamed_addr #4 comdat align 2 !dbg !4709 {
  %3 = alloca %"struct.std::_Tuple_impl.5"*, align 8
  %4 = alloca %"class.dining_phil_prob::Philosopher"**, align 8
  store %"struct.std::_Tuple_impl.5"* %0, %"struct.std::_Tuple_impl.5"** %3, align 8
  call void @llvm.dbg.declare(metadata %"struct.std::_Tuple_impl.5"** %3, metadata !4713, metadata !3199), !dbg !4714
  store %"class.dining_phil_prob::Philosopher"** %1, %"class.dining_phil_prob::Philosopher"*** %4, align 8
  call void @llvm.dbg.declare(metadata %"class.dining_phil_prob::Philosopher"*** %4, metadata !4715, metadata !3199), !dbg !4716
  %5 = load %"struct.std::_Tuple_impl.5"*, %"struct.std::_Tuple_impl.5"** %3, align 8
  %6 = bitcast %"struct.std::_Tuple_impl.5"* %5 to %"struct.std::_Head_base.6"*, !dbg !4717
  %7 = load %"class.dining_phil_prob::Philosopher"**, %"class.dining_phil_prob::Philosopher"*** %4, align 8, !dbg !4718
  %8 = call dereferenceable(8) %"class.dining_phil_prob::Philosopher"** @_ZSt7forwardIPN16dining_phil_prob11PhilosopherEEOT_RNSt16remove_referenceIS3_E4typeE(%"class.dining_phil_prob::Philosopher"** dereferenceable(8) %7) #3, !dbg !4719
  call void @_ZNSt10_Head_baseILm1EPN16dining_phil_prob11PhilosopherELb0EEC2IS2_EEOT_(%"struct.std::_Head_base.6"* %6, %"class.dining_phil_prob::Philosopher"** dereferenceable(8) %8), !dbg !4720
  ret void, !dbg !4722
}

; Function Attrs: nounwind uwtable
define linkonce_odr dereferenceable(8) %"struct.std::thread::_State"** @_ZSt3getILm0EJPNSt6thread6_StateESt14default_deleteIS1_EEERNSt13tuple_elementIXT_ESt5tupleIJDpT0_EEE4typeERS9_(%"class.std::tuple"* dereferenceable(8)) #4 comdat !dbg !4723 {
  %2 = alloca %"class.std::tuple"*, align 8
  store %"class.std::tuple"* %0, %"class.std::tuple"** %2, align 8
  call void @llvm.dbg.declare(metadata %"class.std::tuple"** %2, metadata !4733, metadata !3199), !dbg !4734
  %3 = load %"class.std::tuple"*, %"class.std::tuple"** %2, align 8, !dbg !4735
  %4 = bitcast %"class.std::tuple"* %3 to %"struct.std::_Tuple_impl"*, !dbg !4735
  %5 = call dereferenceable(8) %"struct.std::thread::_State"** @_ZSt12__get_helperILm0EPNSt6thread6_StateEJSt14default_deleteIS1_EEERT0_RSt11_Tuple_implIXT_EJS5_DpT1_EE(%"struct.std::_Tuple_impl"* dereferenceable(8) %4) #3, !dbg !4736
  ret %"struct.std::thread::_State"** %5, !dbg !4737
}

; Function Attrs: nounwind uwtable
define linkonce_odr dereferenceable(1) %"struct.std::default_delete"* @_ZNSt10unique_ptrINSt6thread6_StateESt14default_deleteIS1_EE11get_deleterEv(%"class.std::unique_ptr"*) #4 comdat align 2 !dbg !4738 {
  %2 = alloca %"class.std::unique_ptr"*, align 8
  store %"class.std::unique_ptr"* %0, %"class.std::unique_ptr"** %2, align 8
  call void @llvm.dbg.declare(metadata %"class.std::unique_ptr"** %2, metadata !4739, metadata !3199), !dbg !4740
  %3 = load %"class.std::unique_ptr"*, %"class.std::unique_ptr"** %2, align 8
  %4 = getelementptr inbounds %"class.std::unique_ptr", %"class.std::unique_ptr"* %3, i32 0, i32 0, !dbg !4741
  %5 = call dereferenceable(1) %"struct.std::default_delete"* @_ZSt3getILm1EJPNSt6thread6_StateESt14default_deleteIS1_EEERNSt13tuple_elementIXT_ESt5tupleIJDpT0_EEE4typeERS9_(%"class.std::tuple"* dereferenceable(8) %4) #3, !dbg !4742
  ret %"struct.std::default_delete"* %5, !dbg !4743
}

; Function Attrs: nounwind uwtable
define linkonce_odr void @_ZNKSt14default_deleteINSt6thread6_StateEEclEPS1_(%"struct.std::default_delete"*, %"struct.std::thread::_State"*) #4 comdat align 2 !dbg !4744 {
  %3 = alloca %"struct.std::default_delete"*, align 8
  %4 = alloca %"struct.std::thread::_State"*, align 8
  store %"struct.std::default_delete"* %0, %"struct.std::default_delete"** %3, align 8
  call void @llvm.dbg.declare(metadata %"struct.std::default_delete"** %3, metadata !4745, metadata !3199), !dbg !4747
  store %"struct.std::thread::_State"* %1, %"struct.std::thread::_State"** %4, align 8
  call void @llvm.dbg.declare(metadata %"struct.std::thread::_State"** %4, metadata !4748, metadata !3199), !dbg !4749
  %5 = load %"struct.std::default_delete"*, %"struct.std::default_delete"** %3, align 8
  %6 = load %"struct.std::thread::_State"*, %"struct.std::thread::_State"** %4, align 8, !dbg !4750
  %7 = icmp eq %"struct.std::thread::_State"* %6, null, !dbg !4751
  br i1 %7, label %13, label %8, !dbg !4751

; <label>:8:                                      ; preds = %2
  %9 = bitcast %"struct.std::thread::_State"* %6 to void (%"struct.std::thread::_State"*)***, !dbg !4752
  %10 = load void (%"struct.std::thread::_State"*)**, void (%"struct.std::thread::_State"*)*** %9, align 8, !dbg !4752
  %11 = getelementptr inbounds void (%"struct.std::thread::_State"*)*, void (%"struct.std::thread::_State"*)** %10, i64 1, !dbg !4752
  %12 = load void (%"struct.std::thread::_State"*)*, void (%"struct.std::thread::_State"*)** %11, align 8, !dbg !4752
  call void %12(%"struct.std::thread::_State"* %6) #3, !dbg !4752
  br label %13, !dbg !4752

; <label>:13:                                     ; preds = %8, %2
  ret void, !dbg !4754
}

; Function Attrs: nounwind uwtable
define linkonce_odr dereferenceable(8) %"struct.std::thread::_State"** @_ZSt12__get_helperILm0EPNSt6thread6_StateEJSt14default_deleteIS1_EEERT0_RSt11_Tuple_implIXT_EJS5_DpT1_EE(%"struct.std::_Tuple_impl"* dereferenceable(8)) #4 comdat !dbg !4755 {
  %2 = alloca %"struct.std::_Tuple_impl"*, align 8
  store %"struct.std::_Tuple_impl"* %0, %"struct.std::_Tuple_impl"** %2, align 8
  call void @llvm.dbg.declare(metadata %"struct.std::_Tuple_impl"** %2, metadata !4758, metadata !3199), !dbg !4759
  %3 = load %"struct.std::_Tuple_impl"*, %"struct.std::_Tuple_impl"** %2, align 8, !dbg !4760
  %4 = call dereferenceable(8) %"struct.std::thread::_State"** @_ZNSt11_Tuple_implILm0EJPNSt6thread6_StateESt14default_deleteIS1_EEE7_M_headERS5_(%"struct.std::_Tuple_impl"* dereferenceable(8) %3) #3, !dbg !4761
  ret %"struct.std::thread::_State"** %4, !dbg !4762
}

; Function Attrs: nounwind uwtable
define linkonce_odr dereferenceable(8) %"struct.std::thread::_State"** @_ZNSt11_Tuple_implILm0EJPNSt6thread6_StateESt14default_deleteIS1_EEE7_M_headERS5_(%"struct.std::_Tuple_impl"* dereferenceable(8)) #4 comdat align 2 !dbg !4763 {
  %2 = alloca %"struct.std::_Tuple_impl"*, align 8
  store %"struct.std::_Tuple_impl"* %0, %"struct.std::_Tuple_impl"** %2, align 8
  call void @llvm.dbg.declare(metadata %"struct.std::_Tuple_impl"** %2, metadata !4764, metadata !3199), !dbg !4765
  %3 = load %"struct.std::_Tuple_impl"*, %"struct.std::_Tuple_impl"** %2, align 8, !dbg !4766
  %4 = bitcast %"struct.std::_Tuple_impl"* %3 to %"struct.std::_Head_base.2"*, !dbg !4766
  %5 = call dereferenceable(8) %"struct.std::thread::_State"** @_ZNSt10_Head_baseILm0EPNSt6thread6_StateELb0EE7_M_headERS3_(%"struct.std::_Head_base.2"* dereferenceable(8) %4) #3, !dbg !4767
  ret %"struct.std::thread::_State"** %5, !dbg !4768
}

; Function Attrs: nounwind uwtable
define linkonce_odr dereferenceable(8) %"struct.std::thread::_State"** @_ZNSt10_Head_baseILm0EPNSt6thread6_StateELb0EE7_M_headERS3_(%"struct.std::_Head_base.2"* dereferenceable(8)) #4 comdat align 2 !dbg !4769 {
  %2 = alloca %"struct.std::_Head_base.2"*, align 8
  store %"struct.std::_Head_base.2"* %0, %"struct.std::_Head_base.2"** %2, align 8
  call void @llvm.dbg.declare(metadata %"struct.std::_Head_base.2"** %2, metadata !4770, metadata !3199), !dbg !4771
  %3 = load %"struct.std::_Head_base.2"*, %"struct.std::_Head_base.2"** %2, align 8, !dbg !4772
  %4 = getelementptr inbounds %"struct.std::_Head_base.2", %"struct.std::_Head_base.2"* %3, i32 0, i32 0, !dbg !4773
  ret %"struct.std::thread::_State"** %4, !dbg !4774
}

; Function Attrs: nounwind uwtable
define linkonce_odr dereferenceable(1) %"struct.std::default_delete"* @_ZSt3getILm1EJPNSt6thread6_StateESt14default_deleteIS1_EEERNSt13tuple_elementIXT_ESt5tupleIJDpT0_EEE4typeERS9_(%"class.std::tuple"* dereferenceable(8)) #4 comdat !dbg !4775 {
  %2 = alloca %"class.std::tuple"*, align 8
  store %"class.std::tuple"* %0, %"class.std::tuple"** %2, align 8
  call void @llvm.dbg.declare(metadata %"class.std::tuple"** %2, metadata !4786, metadata !3199), !dbg !4787
  %3 = load %"class.std::tuple"*, %"class.std::tuple"** %2, align 8, !dbg !4788
  %4 = bitcast %"class.std::tuple"* %3 to %"struct.std::_Tuple_impl.1"*, !dbg !4788
  %5 = call dereferenceable(1) %"struct.std::default_delete"* @_ZSt12__get_helperILm1ESt14default_deleteINSt6thread6_StateEEJEERT0_RSt11_Tuple_implIXT_EJS4_DpT1_EE(%"struct.std::_Tuple_impl.1"* dereferenceable(1) %4) #3, !dbg !4789
  ret %"struct.std::default_delete"* %5, !dbg !4790
}

; Function Attrs: nounwind uwtable
define linkonce_odr dereferenceable(1) %"struct.std::default_delete"* @_ZSt12__get_helperILm1ESt14default_deleteINSt6thread6_StateEEJEERT0_RSt11_Tuple_implIXT_EJS4_DpT1_EE(%"struct.std::_Tuple_impl.1"* dereferenceable(1)) #4 comdat !dbg !4791 {
  %2 = alloca %"struct.std::_Tuple_impl.1"*, align 8
  store %"struct.std::_Tuple_impl.1"* %0, %"struct.std::_Tuple_impl.1"** %2, align 8
  call void @llvm.dbg.declare(metadata %"struct.std::_Tuple_impl.1"** %2, metadata !4793, metadata !3199), !dbg !4794
  %3 = load %"struct.std::_Tuple_impl.1"*, %"struct.std::_Tuple_impl.1"** %2, align 8, !dbg !4795
  %4 = call dereferenceable(1) %"struct.std::default_delete"* @_ZNSt11_Tuple_implILm1EJSt14default_deleteINSt6thread6_StateEEEE7_M_headERS4_(%"struct.std::_Tuple_impl.1"* dereferenceable(1) %3) #3, !dbg !4796
  ret %"struct.std::default_delete"* %4, !dbg !4797
}

; Function Attrs: nounwind uwtable
define linkonce_odr dereferenceable(1) %"struct.std::default_delete"* @_ZNSt11_Tuple_implILm1EJSt14default_deleteINSt6thread6_StateEEEE7_M_headERS4_(%"struct.std::_Tuple_impl.1"* dereferenceable(1)) #4 comdat align 2 !dbg !4798 {
  %2 = alloca %"struct.std::_Tuple_impl.1"*, align 8
  store %"struct.std::_Tuple_impl.1"* %0, %"struct.std::_Tuple_impl.1"** %2, align 8
  call void @llvm.dbg.declare(metadata %"struct.std::_Tuple_impl.1"** %2, metadata !4799, metadata !3199), !dbg !4800
  %3 = load %"struct.std::_Tuple_impl.1"*, %"struct.std::_Tuple_impl.1"** %2, align 8, !dbg !4801
  %4 = bitcast %"struct.std::_Tuple_impl.1"* %3 to %"struct.std::_Head_base"*, !dbg !4801
  %5 = call dereferenceable(1) %"struct.std::default_delete"* @_ZNSt10_Head_baseILm1ESt14default_deleteINSt6thread6_StateEELb1EE7_M_headERS4_(%"struct.std::_Head_base"* dereferenceable(1) %4) #3, !dbg !4802
  ret %"struct.std::default_delete"* %5, !dbg !4803
}

; Function Attrs: nounwind uwtable
define linkonce_odr dereferenceable(1) %"struct.std::default_delete"* @_ZNSt10_Head_baseILm1ESt14default_deleteINSt6thread6_StateEELb1EE7_M_headERS4_(%"struct.std::_Head_base"* dereferenceable(1)) #4 comdat align 2 !dbg !4804 {
  %2 = alloca %"struct.std::_Head_base"*, align 8
  store %"struct.std::_Head_base"* %0, %"struct.std::_Head_base"** %2, align 8
  call void @llvm.dbg.declare(metadata %"struct.std::_Head_base"** %2, metadata !4805, metadata !3199), !dbg !4806
  %3 = load %"struct.std::_Head_base"*, %"struct.std::_Head_base"** %2, align 8, !dbg !4807
  %4 = bitcast %"struct.std::_Head_base"* %3 to %"struct.std::default_delete"*, !dbg !4807
  ret %"struct.std::default_delete"* %4, !dbg !4808
}

; Function Attrs: uwtable
define linkonce_odr void @_ZN9IrsThread4joinEv(%class.IrsThread*) #0 comdat align 2 !dbg !4809 {
  %2 = alloca %class.IrsThread*, align 8
  store %class.IrsThread* %0, %class.IrsThread** %2, align 8
  call void @llvm.dbg.declare(metadata %class.IrsThread** %2, metadata !4810, metadata !3199), !dbg !4811
  %3 = load %class.IrsThread*, %class.IrsThread** %2, align 8
  %4 = getelementptr inbounds %class.IrsThread, %class.IrsThread* %3, i32 0, i32 0, !dbg !4812
  %5 = call zeroext i1 @_ZNKSt6thread8joinableEv(%"class.std::thread"* %4) #3, !dbg !4814
  br i1 %5, label %6, label %8, !dbg !4815

; <label>:6:                                      ; preds = %1
  %7 = getelementptr inbounds %class.IrsThread, %class.IrsThread* %3, i32 0, i32 0, !dbg !4816
  call void @_ZNSt6thread4joinEv(%"class.std::thread"* %7), !dbg !4817
  br label %8, !dbg !4816

; <label>:8:                                      ; preds = %6, %1
  ret void, !dbg !4818
}

declare void @_ZNSt6thread4joinEv(%"class.std::thread"*) #1

; Function Attrs: uwtable
define linkonce_odr i64 @_ZNSt6chrono20__duration_cast_implINS_8durationIlSt5ratioILl1ELl1000000EEEES2_ILl1ELl1000EElLb1ELb0EE6__castIlS2_ILl1ELl1000000000EEEES4_RKNS1_IT_T0_EE(%"struct.std::chrono::duration"* dereferenceable(8)) #0 comdat align 2 !dbg !4819 {
  %2 = alloca %"struct.std::chrono::duration.0", align 8
  %3 = alloca %"struct.std::chrono::duration"*, align 8
  %4 = alloca i64, align 8
  store %"struct.std::chrono::duration"* %0, %"struct.std::chrono::duration"** %3, align 8
  call void @llvm.dbg.declare(metadata %"struct.std::chrono::duration"** %3, metadata !4829, metadata !3199), !dbg !4830
  %5 = load %"struct.std::chrono::duration"*, %"struct.std::chrono::duration"** %3, align 8, !dbg !4831
  %6 = call i64 @_ZNKSt6chrono8durationIlSt5ratioILl1ELl1000000000EEE5countEv(%"struct.std::chrono::duration"* %5), !dbg !4832
  %7 = sdiv i64 %6, 1000, !dbg !4833
  store i64 %7, i64* %4, align 8, !dbg !4834
  call void @_ZNSt6chrono8durationIlSt5ratioILl1ELl1000000EEEC2IlvEERKT_(%"struct.std::chrono::duration.0"* %2, i64* dereferenceable(8) %4), !dbg !4835
  %8 = getelementptr inbounds %"struct.std::chrono::duration.0", %"struct.std::chrono::duration.0"* %2, i32 0, i32 0, !dbg !4836
  %9 = load i64, i64* %8, align 8, !dbg !4836
  ret i64 %9, !dbg !4836
}

; Function Attrs: nounwind uwtable
define linkonce_odr i64 @_ZNKSt6chrono8durationIlSt5ratioILl1ELl1000000000EEE5countEv(%"struct.std::chrono::duration"*) #4 comdat align 2 !dbg !4837 {
  %2 = alloca %"struct.std::chrono::duration"*, align 8
  store %"struct.std::chrono::duration"* %0, %"struct.std::chrono::duration"** %2, align 8
  call void @llvm.dbg.declare(metadata %"struct.std::chrono::duration"** %2, metadata !4838, metadata !3199), !dbg !4840
  %3 = load %"struct.std::chrono::duration"*, %"struct.std::chrono::duration"** %2, align 8
  %4 = getelementptr inbounds %"struct.std::chrono::duration", %"struct.std::chrono::duration"* %3, i32 0, i32 0, !dbg !4841
  %5 = load i64, i64* %4, align 8, !dbg !4841
  ret i64 %5, !dbg !4842
}

; Function Attrs: nounwind uwtable
define linkonce_odr void @_ZNSt6chrono8durationIlSt5ratioILl1ELl1000000EEEC2IlvEERKT_(%"struct.std::chrono::duration.0"*, i64* dereferenceable(8)) unnamed_addr #4 comdat align 2 !dbg !4843 {
  %3 = alloca %"struct.std::chrono::duration.0"*, align 8
  %4 = alloca i64*, align 8
  store %"struct.std::chrono::duration.0"* %0, %"struct.std::chrono::duration.0"** %3, align 8
  call void @llvm.dbg.declare(metadata %"struct.std::chrono::duration.0"** %3, metadata !4850, metadata !3199), !dbg !4852
  store i64* %1, i64** %4, align 8
  call void @llvm.dbg.declare(metadata i64** %4, metadata !4853, metadata !3199), !dbg !4854
  %5 = load %"struct.std::chrono::duration.0"*, %"struct.std::chrono::duration.0"** %3, align 8
  %6 = getelementptr inbounds %"struct.std::chrono::duration.0", %"struct.std::chrono::duration.0"* %5, i32 0, i32 0, !dbg !4855
  %7 = load i64*, i64** %4, align 8, !dbg !4856
  %8 = load i64, i64* %7, align 8, !dbg !4856
  store i64 %8, i64* %6, align 8, !dbg !4855
  ret void, !dbg !4857
}

; Function Attrs: uwtable
define linkonce_odr i64 @_ZNSt6chronomiIlSt5ratioILl1ELl1000000000EElS2_EENSt11common_typeIJNS_8durationIT_T0_EENS4_IT1_T2_EEEE4typeERKS7_RKSA_(%"struct.std::chrono::duration"* dereferenceable(8), %"struct.std::chrono::duration"* dereferenceable(8)) #0 comdat !dbg !604 {
  %3 = alloca %"struct.std::chrono::duration", align 8
  %4 = alloca %"struct.std::chrono::duration"*, align 8
  %5 = alloca %"struct.std::chrono::duration"*, align 8
  %6 = alloca i64, align 8
  %7 = alloca %"struct.std::chrono::duration", align 8
  %8 = alloca %"struct.std::chrono::duration", align 8
  store %"struct.std::chrono::duration"* %0, %"struct.std::chrono::duration"** %4, align 8
  call void @llvm.dbg.declare(metadata %"struct.std::chrono::duration"** %4, metadata !4858, metadata !3199), !dbg !4859
  store %"struct.std::chrono::duration"* %1, %"struct.std::chrono::duration"** %5, align 8
  call void @llvm.dbg.declare(metadata %"struct.std::chrono::duration"** %5, metadata !4860, metadata !3199), !dbg !4861
  %9 = load %"struct.std::chrono::duration"*, %"struct.std::chrono::duration"** %4, align 8, !dbg !4862
  %10 = bitcast %"struct.std::chrono::duration"* %7 to i8*, !dbg !4863
  %11 = bitcast %"struct.std::chrono::duration"* %9 to i8*, !dbg !4863
  call void @llvm.memcpy.p0i8.p0i8.i64(i8* %10, i8* %11, i64 8, i32 8, i1 false), !dbg !4863
  %12 = call i64 @_ZNKSt6chrono8durationIlSt5ratioILl1ELl1000000000EEE5countEv(%"struct.std::chrono::duration"* %7), !dbg !4864
  %13 = load %"struct.std::chrono::duration"*, %"struct.std::chrono::duration"** %5, align 8, !dbg !4866
  %14 = bitcast %"struct.std::chrono::duration"* %8 to i8*, !dbg !4867
  %15 = bitcast %"struct.std::chrono::duration"* %13 to i8*, !dbg !4867
  call void @llvm.memcpy.p0i8.p0i8.i64(i8* %14, i8* %15, i64 8, i32 8, i1 false), !dbg !4868
  %16 = call i64 @_ZNKSt6chrono8durationIlSt5ratioILl1ELl1000000000EEE5countEv(%"struct.std::chrono::duration"* %8), !dbg !4870
  %17 = sub nsw i64 %12, %16, !dbg !4872
  store i64 %17, i64* %6, align 8, !dbg !4863
  call void @_ZNSt6chrono8durationIlSt5ratioILl1ELl1000000000EEEC2IlvEERKT_(%"struct.std::chrono::duration"* %3, i64* dereferenceable(8) %6), !dbg !4873
  %18 = getelementptr inbounds %"struct.std::chrono::duration", %"struct.std::chrono::duration"* %3, i32 0, i32 0, !dbg !4875
  %19 = load i64, i64* %18, align 8, !dbg !4875
  ret i64 %19, !dbg !4875
}

; Function Attrs: nounwind uwtable
define linkonce_odr i64 @_ZNKSt6chrono10time_pointINS_3_V212system_clockENS_8durationIlSt5ratioILl1ELl1000000000EEEEE16time_since_epochEv(%"struct.std::chrono::time_point"*) #4 comdat align 2 !dbg !4876 {
  %2 = alloca %"struct.std::chrono::duration", align 8
  %3 = alloca %"struct.std::chrono::time_point"*, align 8
  store %"struct.std::chrono::time_point"* %0, %"struct.std::chrono::time_point"** %3, align 8
  call void @llvm.dbg.declare(metadata %"struct.std::chrono::time_point"** %3, metadata !4877, metadata !3199), !dbg !4879
  %4 = load %"struct.std::chrono::time_point"*, %"struct.std::chrono::time_point"** %3, align 8
  %5 = getelementptr inbounds %"struct.std::chrono::time_point", %"struct.std::chrono::time_point"* %4, i32 0, i32 0, !dbg !4880
  %6 = bitcast %"struct.std::chrono::duration"* %2 to i8*, !dbg !4880
  %7 = bitcast %"struct.std::chrono::duration"* %5 to i8*, !dbg !4880
  call void @llvm.memcpy.p0i8.p0i8.i64(i8* %6, i8* %7, i64 8, i32 8, i1 false), !dbg !4880
  %8 = getelementptr inbounds %"struct.std::chrono::duration", %"struct.std::chrono::duration"* %2, i32 0, i32 0, !dbg !4881
  %9 = load i64, i64* %8, align 8, !dbg !4881
  ret i64 %9, !dbg !4881
}

; Function Attrs: nounwind uwtable
define linkonce_odr void @_ZNSt6chrono8durationIlSt5ratioILl1ELl1000000000EEEC2IlvEERKT_(%"struct.std::chrono::duration"*, i64* dereferenceable(8)) unnamed_addr #4 comdat align 2 !dbg !4882 {
  %3 = alloca %"struct.std::chrono::duration"*, align 8
  %4 = alloca i64*, align 8
  store %"struct.std::chrono::duration"* %0, %"struct.std::chrono::duration"** %3, align 8
  call void @llvm.dbg.declare(metadata %"struct.std::chrono::duration"** %3, metadata !4886, metadata !3199), !dbg !4888
  store i64* %1, i64** %4, align 8
  call void @llvm.dbg.declare(metadata i64** %4, metadata !4889, metadata !3199), !dbg !4890
  %5 = load %"struct.std::chrono::duration"*, %"struct.std::chrono::duration"** %3, align 8
  %6 = getelementptr inbounds %"struct.std::chrono::duration", %"struct.std::chrono::duration"* %5, i32 0, i32 0, !dbg !4891
  %7 = load i64*, i64** %4, align 8, !dbg !4892
  %8 = load i64, i64* %7, align 8, !dbg !4892
  store i64 %8, i64* %6, align 8, !dbg !4891
  ret void, !dbg !4893
}

; Function Attrs: inlinehint nounwind uwtable
define linkonce_odr void @_ZN9IrsThreadD2Ev(%class.IrsThread*) unnamed_addr #9 comdat align 2 !dbg !4894 {
  %2 = alloca %class.IrsThread*, align 8
  store %class.IrsThread* %0, %class.IrsThread** %2, align 8
  call void @llvm.dbg.declare(metadata %class.IrsThread** %2, metadata !4896, metadata !3199), !dbg !4897
  %3 = load %class.IrsThread*, %class.IrsThread** %2, align 8
  %4 = getelementptr inbounds %class.IrsThread, %class.IrsThread* %3, i32 0, i32 0, !dbg !4898
  call void @_ZNSt6threadD2Ev(%"class.std::thread"* %4) #3, !dbg !4898
  ret void, !dbg !4900
}

; Function Attrs: uwtable
define linkonce_odr void @_ZNSt12_Vector_baseIPN16dining_phil_prob11PhilosopherESaIS2_EEC2Ev(%"struct.std::_Vector_base"*) unnamed_addr #0 comdat align 2 !dbg !4901 {
  %2 = alloca %"struct.std::_Vector_base"*, align 8
  store %"struct.std::_Vector_base"* %0, %"struct.std::_Vector_base"** %2, align 8
  call void @llvm.dbg.declare(metadata %"struct.std::_Vector_base"** %2, metadata !4902, metadata !3199), !dbg !4904
  %3 = load %"struct.std::_Vector_base"*, %"struct.std::_Vector_base"** %2, align 8
  %4 = getelementptr inbounds %"struct.std::_Vector_base", %"struct.std::_Vector_base"* %3, i32 0, i32 0, !dbg !4905
  call void @_ZNSt12_Vector_baseIPN16dining_phil_prob11PhilosopherESaIS2_EE12_Vector_implC2Ev(%"struct.std::_Vector_base<dining_phil_prob::Philosopher *, std::allocator<dining_phil_prob::Philosopher *> >::_Vector_impl"* %4), !dbg !4905
  ret void, !dbg !4906
}

; Function Attrs: nounwind uwtable
define linkonce_odr void @_ZNSt12_Vector_baseIPN16dining_phil_prob11PhilosopherESaIS2_EE12_Vector_implC2Ev(%"struct.std::_Vector_base<dining_phil_prob::Philosopher *, std::allocator<dining_phil_prob::Philosopher *> >::_Vector_impl"*) unnamed_addr #4 comdat align 2 !dbg !4907 {
  %2 = alloca %"struct.std::_Vector_base<dining_phil_prob::Philosopher *, std::allocator<dining_phil_prob::Philosopher *> >::_Vector_impl"*, align 8
  store %"struct.std::_Vector_base<dining_phil_prob::Philosopher *, std::allocator<dining_phil_prob::Philosopher *> >::_Vector_impl"* %0, %"struct.std::_Vector_base<dining_phil_prob::Philosopher *, std::allocator<dining_phil_prob::Philosopher *> >::_Vector_impl"** %2, align 8
  call void @llvm.dbg.declare(metadata %"struct.std::_Vector_base<dining_phil_prob::Philosopher *, std::allocator<dining_phil_prob::Philosopher *> >::_Vector_impl"** %2, metadata !4908, metadata !3199), !dbg !4910
  %3 = load %"struct.std::_Vector_base<dining_phil_prob::Philosopher *, std::allocator<dining_phil_prob::Philosopher *> >::_Vector_impl"*, %"struct.std::_Vector_base<dining_phil_prob::Philosopher *, std::allocator<dining_phil_prob::Philosopher *> >::_Vector_impl"** %2, align 8
  %4 = bitcast %"struct.std::_Vector_base<dining_phil_prob::Philosopher *, std::allocator<dining_phil_prob::Philosopher *> >::_Vector_impl"* %3 to %"class.std::allocator"*, !dbg !4911
  call void @_ZNSaIPN16dining_phil_prob11PhilosopherEEC2Ev(%"class.std::allocator"* %4) #3, !dbg !4912
  %5 = getelementptr inbounds %"struct.std::_Vector_base<dining_phil_prob::Philosopher *, std::allocator<dining_phil_prob::Philosopher *> >::_Vector_impl", %"struct.std::_Vector_base<dining_phil_prob::Philosopher *, std::allocator<dining_phil_prob::Philosopher *> >::_Vector_impl"* %3, i32 0, i32 0, !dbg !4913
  store %"class.dining_phil_prob::Philosopher"** null, %"class.dining_phil_prob::Philosopher"*** %5, align 8, !dbg !4913
  %6 = getelementptr inbounds %"struct.std::_Vector_base<dining_phil_prob::Philosopher *, std::allocator<dining_phil_prob::Philosopher *> >::_Vector_impl", %"struct.std::_Vector_base<dining_phil_prob::Philosopher *, std::allocator<dining_phil_prob::Philosopher *> >::_Vector_impl"* %3, i32 0, i32 1, !dbg !4914
  store %"class.dining_phil_prob::Philosopher"** null, %"class.dining_phil_prob::Philosopher"*** %6, align 8, !dbg !4914
  %7 = getelementptr inbounds %"struct.std::_Vector_base<dining_phil_prob::Philosopher *, std::allocator<dining_phil_prob::Philosopher *> >::_Vector_impl", %"struct.std::_Vector_base<dining_phil_prob::Philosopher *, std::allocator<dining_phil_prob::Philosopher *> >::_Vector_impl"* %3, i32 0, i32 2, !dbg !4915
  store %"class.dining_phil_prob::Philosopher"** null, %"class.dining_phil_prob::Philosopher"*** %7, align 8, !dbg !4915
  ret void, !dbg !4916
}

; Function Attrs: nounwind uwtable
define linkonce_odr void @_ZNSaIPN16dining_phil_prob11PhilosopherEEC2Ev(%"class.std::allocator"*) unnamed_addr #4 comdat align 2 !dbg !4917 {
  %2 = alloca %"class.std::allocator"*, align 8
  store %"class.std::allocator"* %0, %"class.std::allocator"** %2, align 8
  call void @llvm.dbg.declare(metadata %"class.std::allocator"** %2, metadata !4918, metadata !3199), !dbg !4920
  %3 = load %"class.std::allocator"*, %"class.std::allocator"** %2, align 8
  %4 = bitcast %"class.std::allocator"* %3 to %"class.__gnu_cxx::new_allocator"*, !dbg !4921
  call void @_ZN9__gnu_cxx13new_allocatorIPN16dining_phil_prob11PhilosopherEEC2Ev(%"class.__gnu_cxx::new_allocator"* %4) #3, !dbg !4922
  ret void, !dbg !4923
}

; Function Attrs: nounwind uwtable
define linkonce_odr void @_ZN9__gnu_cxx13new_allocatorIPN16dining_phil_prob11PhilosopherEEC2Ev(%"class.__gnu_cxx::new_allocator"*) unnamed_addr #4 comdat align 2 !dbg !4924 {
  %2 = alloca %"class.__gnu_cxx::new_allocator"*, align 8
  store %"class.__gnu_cxx::new_allocator"* %0, %"class.__gnu_cxx::new_allocator"** %2, align 8
  call void @llvm.dbg.declare(metadata %"class.__gnu_cxx::new_allocator"** %2, metadata !4925, metadata !3199), !dbg !4927
  %3 = load %"class.__gnu_cxx::new_allocator"*, %"class.__gnu_cxx::new_allocator"** %2, align 8
  ret void, !dbg !4928
}

; Function Attrs: inlinehint uwtable
define linkonce_odr void @_ZSt8_DestroyIPPN16dining_phil_prob11PhilosopherES2_EvT_S4_RSaIT0_E(%"class.dining_phil_prob::Philosopher"**, %"class.dining_phil_prob::Philosopher"**, %"class.std::allocator"* dereferenceable(1)) #13 comdat !dbg !4929 {
  %4 = alloca %"class.dining_phil_prob::Philosopher"**, align 8
  %5 = alloca %"class.dining_phil_prob::Philosopher"**, align 8
  %6 = alloca %"class.std::allocator"*, align 8
  store %"class.dining_phil_prob::Philosopher"** %0, %"class.dining_phil_prob::Philosopher"*** %4, align 8
  call void @llvm.dbg.declare(metadata %"class.dining_phil_prob::Philosopher"*** %4, metadata !4935, metadata !3199), !dbg !4936
  store %"class.dining_phil_prob::Philosopher"** %1, %"class.dining_phil_prob::Philosopher"*** %5, align 8
  call void @llvm.dbg.declare(metadata %"class.dining_phil_prob::Philosopher"*** %5, metadata !4937, metadata !3199), !dbg !4938
  store %"class.std::allocator"* %2, %"class.std::allocator"** %6, align 8
  call void @llvm.dbg.declare(metadata %"class.std::allocator"** %6, metadata !4939, metadata !3199), !dbg !4940
  %7 = load %"class.dining_phil_prob::Philosopher"**, %"class.dining_phil_prob::Philosopher"*** %4, align 8, !dbg !4941
  %8 = load %"class.dining_phil_prob::Philosopher"**, %"class.dining_phil_prob::Philosopher"*** %5, align 8, !dbg !4942
  call void @_ZSt8_DestroyIPPN16dining_phil_prob11PhilosopherEEvT_S4_(%"class.dining_phil_prob::Philosopher"** %7, %"class.dining_phil_prob::Philosopher"** %8), !dbg !4943
  ret void, !dbg !4944
}

; Function Attrs: nounwind uwtable
define linkonce_odr dereferenceable(1) %"class.std::allocator"* @_ZNSt12_Vector_baseIPN16dining_phil_prob11PhilosopherESaIS2_EE19_M_get_Tp_allocatorEv(%"struct.std::_Vector_base"*) #4 comdat align 2 !dbg !4945 {
  %2 = alloca %"struct.std::_Vector_base"*, align 8
  store %"struct.std::_Vector_base"* %0, %"struct.std::_Vector_base"** %2, align 8
  call void @llvm.dbg.declare(metadata %"struct.std::_Vector_base"** %2, metadata !4946, metadata !3199), !dbg !4947
  %3 = load %"struct.std::_Vector_base"*, %"struct.std::_Vector_base"** %2, align 8
  %4 = getelementptr inbounds %"struct.std::_Vector_base", %"struct.std::_Vector_base"* %3, i32 0, i32 0, !dbg !4948
  %5 = bitcast %"struct.std::_Vector_base<dining_phil_prob::Philosopher *, std::allocator<dining_phil_prob::Philosopher *> >::_Vector_impl"* %4 to %"class.std::allocator"*, !dbg !4949
  ret %"class.std::allocator"* %5, !dbg !4950
}

; Function Attrs: nounwind uwtable
define linkonce_odr void @_ZNSt12_Vector_baseIPN16dining_phil_prob11PhilosopherESaIS2_EED2Ev(%"struct.std::_Vector_base"*) unnamed_addr #4 comdat align 2 personality i8* bitcast (i32 (...)* @__gxx_personality_v0 to i8*) !dbg !4951 {
  %2 = alloca %"struct.std::_Vector_base"*, align 8
  %3 = alloca i8*
  %4 = alloca i32
  store %"struct.std::_Vector_base"* %0, %"struct.std::_Vector_base"** %2, align 8
  call void @llvm.dbg.declare(metadata %"struct.std::_Vector_base"** %2, metadata !4952, metadata !3199), !dbg !4953
  %5 = load %"struct.std::_Vector_base"*, %"struct.std::_Vector_base"** %2, align 8
  %6 = getelementptr inbounds %"struct.std::_Vector_base", %"struct.std::_Vector_base"* %5, i32 0, i32 0, !dbg !4954
  %7 = getelementptr inbounds %"struct.std::_Vector_base<dining_phil_prob::Philosopher *, std::allocator<dining_phil_prob::Philosopher *> >::_Vector_impl", %"struct.std::_Vector_base<dining_phil_prob::Philosopher *, std::allocator<dining_phil_prob::Philosopher *> >::_Vector_impl"* %6, i32 0, i32 0, !dbg !4956
  %8 = load %"class.dining_phil_prob::Philosopher"**, %"class.dining_phil_prob::Philosopher"*** %7, align 8, !dbg !4956
  %9 = getelementptr inbounds %"struct.std::_Vector_base", %"struct.std::_Vector_base"* %5, i32 0, i32 0, !dbg !4957
  %10 = getelementptr inbounds %"struct.std::_Vector_base<dining_phil_prob::Philosopher *, std::allocator<dining_phil_prob::Philosopher *> >::_Vector_impl", %"struct.std::_Vector_base<dining_phil_prob::Philosopher *, std::allocator<dining_phil_prob::Philosopher *> >::_Vector_impl"* %9, i32 0, i32 2, !dbg !4958
  %11 = load %"class.dining_phil_prob::Philosopher"**, %"class.dining_phil_prob::Philosopher"*** %10, align 8, !dbg !4958
  %12 = getelementptr inbounds %"struct.std::_Vector_base", %"struct.std::_Vector_base"* %5, i32 0, i32 0, !dbg !4959
  %13 = getelementptr inbounds %"struct.std::_Vector_base<dining_phil_prob::Philosopher *, std::allocator<dining_phil_prob::Philosopher *> >::_Vector_impl", %"struct.std::_Vector_base<dining_phil_prob::Philosopher *, std::allocator<dining_phil_prob::Philosopher *> >::_Vector_impl"* %12, i32 0, i32 0, !dbg !4960
  %14 = load %"class.dining_phil_prob::Philosopher"**, %"class.dining_phil_prob::Philosopher"*** %13, align 8, !dbg !4960
  %15 = ptrtoint %"class.dining_phil_prob::Philosopher"** %11 to i64, !dbg !4961
  %16 = ptrtoint %"class.dining_phil_prob::Philosopher"** %14 to i64, !dbg !4961
  %17 = sub i64 %15, %16, !dbg !4961
  %18 = sdiv exact i64 %17, 8, !dbg !4961
  invoke void @_ZNSt12_Vector_baseIPN16dining_phil_prob11PhilosopherESaIS2_EE13_M_deallocateEPS2_m(%"struct.std::_Vector_base"* %5, %"class.dining_phil_prob::Philosopher"** %8, i64 %18)
          to label %19 unwind label %21, !dbg !4962

; <label>:19:                                     ; preds = %1
  %20 = getelementptr inbounds %"struct.std::_Vector_base", %"struct.std::_Vector_base"* %5, i32 0, i32 0, !dbg !4963
  call void @_ZNSt12_Vector_baseIPN16dining_phil_prob11PhilosopherESaIS2_EE12_Vector_implD2Ev(%"struct.std::_Vector_base<dining_phil_prob::Philosopher *, std::allocator<dining_phil_prob::Philosopher *> >::_Vector_impl"* %20) #3, !dbg !4963
  ret void, !dbg !4963

; <label>:21:                                     ; preds = %1
  %22 = landingpad { i8*, i32 }
          catch i8* null, !dbg !4965
  %23 = extractvalue { i8*, i32 } %22, 0, !dbg !4965
  store i8* %23, i8** %3, align 8, !dbg !4965
  %24 = extractvalue { i8*, i32 } %22, 1, !dbg !4965
  store i32 %24, i32* %4, align 4, !dbg !4965
  %25 = getelementptr inbounds %"struct.std::_Vector_base", %"struct.std::_Vector_base"* %5, i32 0, i32 0, !dbg !4965
  call void @_ZNSt12_Vector_baseIPN16dining_phil_prob11PhilosopherESaIS2_EE12_Vector_implD2Ev(%"struct.std::_Vector_base<dining_phil_prob::Philosopher *, std::allocator<dining_phil_prob::Philosopher *> >::_Vector_impl"* %25) #3, !dbg !4965
  br label %26, !dbg !4965

; <label>:26:                                     ; preds = %21
  %27 = load i8*, i8** %3, align 8, !dbg !4967
  call void @__clang_call_terminate(i8* %27) #17, !dbg !4967
  unreachable, !dbg !4967
}

; Function Attrs: inlinehint uwtable
define linkonce_odr void @_ZSt8_DestroyIPPN16dining_phil_prob11PhilosopherEEvT_S4_(%"class.dining_phil_prob::Philosopher"**, %"class.dining_phil_prob::Philosopher"**) #13 comdat !dbg !4969 {
  %3 = alloca %"class.dining_phil_prob::Philosopher"**, align 8
  %4 = alloca %"class.dining_phil_prob::Philosopher"**, align 8
  store %"class.dining_phil_prob::Philosopher"** %0, %"class.dining_phil_prob::Philosopher"*** %3, align 8
  call void @llvm.dbg.declare(metadata %"class.dining_phil_prob::Philosopher"*** %3, metadata !4973, metadata !3199), !dbg !4974
  store %"class.dining_phil_prob::Philosopher"** %1, %"class.dining_phil_prob::Philosopher"*** %4, align 8
  call void @llvm.dbg.declare(metadata %"class.dining_phil_prob::Philosopher"*** %4, metadata !4975, metadata !3199), !dbg !4976
  %5 = load %"class.dining_phil_prob::Philosopher"**, %"class.dining_phil_prob::Philosopher"*** %3, align 8, !dbg !4977
  %6 = load %"class.dining_phil_prob::Philosopher"**, %"class.dining_phil_prob::Philosopher"*** %4, align 8, !dbg !4978
  call void @_ZNSt12_Destroy_auxILb1EE9__destroyIPPN16dining_phil_prob11PhilosopherEEEvT_S6_(%"class.dining_phil_prob::Philosopher"** %5, %"class.dining_phil_prob::Philosopher"** %6), !dbg !4979
  ret void, !dbg !4980
}

; Function Attrs: nounwind uwtable
define linkonce_odr void @_ZNSt12_Destroy_auxILb1EE9__destroyIPPN16dining_phil_prob11PhilosopherEEEvT_S6_(%"class.dining_phil_prob::Philosopher"**, %"class.dining_phil_prob::Philosopher"**) #4 comdat align 2 !dbg !4981 {
  %3 = alloca %"class.dining_phil_prob::Philosopher"**, align 8
  %4 = alloca %"class.dining_phil_prob::Philosopher"**, align 8
  store %"class.dining_phil_prob::Philosopher"** %0, %"class.dining_phil_prob::Philosopher"*** %3, align 8
  call void @llvm.dbg.declare(metadata %"class.dining_phil_prob::Philosopher"*** %3, metadata !4985, metadata !3199), !dbg !4986
  store %"class.dining_phil_prob::Philosopher"** %1, %"class.dining_phil_prob::Philosopher"*** %4, align 8
  call void @llvm.dbg.declare(metadata %"class.dining_phil_prob::Philosopher"*** %4, metadata !4987, metadata !3199), !dbg !4988
  ret void, !dbg !4989
}

; Function Attrs: uwtable
define linkonce_odr void @_ZNSt12_Vector_baseIPN16dining_phil_prob11PhilosopherESaIS2_EE13_M_deallocateEPS2_m(%"struct.std::_Vector_base"*, %"class.dining_phil_prob::Philosopher"**, i64) #0 comdat align 2 !dbg !4990 {
  %4 = alloca %"struct.std::_Vector_base"*, align 8
  %5 = alloca %"class.dining_phil_prob::Philosopher"**, align 8
  %6 = alloca i64, align 8
  store %"struct.std::_Vector_base"* %0, %"struct.std::_Vector_base"** %4, align 8
  call void @llvm.dbg.declare(metadata %"struct.std::_Vector_base"** %4, metadata !4991, metadata !3199), !dbg !4992
  store %"class.dining_phil_prob::Philosopher"** %1, %"class.dining_phil_prob::Philosopher"*** %5, align 8
  call void @llvm.dbg.declare(metadata %"class.dining_phil_prob::Philosopher"*** %5, metadata !4993, metadata !3199), !dbg !4994
  store i64 %2, i64* %6, align 8
  call void @llvm.dbg.declare(metadata i64* %6, metadata !4995, metadata !3199), !dbg !4996
  %7 = load %"struct.std::_Vector_base"*, %"struct.std::_Vector_base"** %4, align 8
  %8 = load %"class.dining_phil_prob::Philosopher"**, %"class.dining_phil_prob::Philosopher"*** %5, align 8, !dbg !4997
  %9 = icmp ne %"class.dining_phil_prob::Philosopher"** %8, null, !dbg !4997
  br i1 %9, label %10, label %15, !dbg !4999

; <label>:10:                                     ; preds = %3
  %11 = getelementptr inbounds %"struct.std::_Vector_base", %"struct.std::_Vector_base"* %7, i32 0, i32 0, !dbg !5000
  %12 = bitcast %"struct.std::_Vector_base<dining_phil_prob::Philosopher *, std::allocator<dining_phil_prob::Philosopher *> >::_Vector_impl"* %11 to %"class.std::allocator"*, !dbg !5000
  %13 = load %"class.dining_phil_prob::Philosopher"**, %"class.dining_phil_prob::Philosopher"*** %5, align 8, !dbg !5001
  %14 = load i64, i64* %6, align 8, !dbg !5002
  call void @_ZNSt16allocator_traitsISaIPN16dining_phil_prob11PhilosopherEEE10deallocateERS3_PS2_m(%"class.std::allocator"* dereferenceable(1) %12, %"class.dining_phil_prob::Philosopher"** %13, i64 %14), !dbg !5003
  br label %15, !dbg !5003

; <label>:15:                                     ; preds = %10, %3
  ret void, !dbg !5004
}

; Function Attrs: inlinehint nounwind uwtable
define linkonce_odr void @_ZNSt12_Vector_baseIPN16dining_phil_prob11PhilosopherESaIS2_EE12_Vector_implD2Ev(%"struct.std::_Vector_base<dining_phil_prob::Philosopher *, std::allocator<dining_phil_prob::Philosopher *> >::_Vector_impl"*) unnamed_addr #9 comdat align 2 !dbg !5005 {
  %2 = alloca %"struct.std::_Vector_base<dining_phil_prob::Philosopher *, std::allocator<dining_phil_prob::Philosopher *> >::_Vector_impl"*, align 8
  store %"struct.std::_Vector_base<dining_phil_prob::Philosopher *, std::allocator<dining_phil_prob::Philosopher *> >::_Vector_impl"* %0, %"struct.std::_Vector_base<dining_phil_prob::Philosopher *, std::allocator<dining_phil_prob::Philosopher *> >::_Vector_impl"** %2, align 8
  call void @llvm.dbg.declare(metadata %"struct.std::_Vector_base<dining_phil_prob::Philosopher *, std::allocator<dining_phil_prob::Philosopher *> >::_Vector_impl"** %2, metadata !5007, metadata !3199), !dbg !5008
  %3 = load %"struct.std::_Vector_base<dining_phil_prob::Philosopher *, std::allocator<dining_phil_prob::Philosopher *> >::_Vector_impl"*, %"struct.std::_Vector_base<dining_phil_prob::Philosopher *, std::allocator<dining_phil_prob::Philosopher *> >::_Vector_impl"** %2, align 8
  %4 = bitcast %"struct.std::_Vector_base<dining_phil_prob::Philosopher *, std::allocator<dining_phil_prob::Philosopher *> >::_Vector_impl"* %3 to %"class.std::allocator"*, !dbg !5009
  call void @_ZNSaIPN16dining_phil_prob11PhilosopherEED2Ev(%"class.std::allocator"* %4) #3, !dbg !5009
  ret void, !dbg !5011
}

; Function Attrs: uwtable
define linkonce_odr void @_ZNSt16allocator_traitsISaIPN16dining_phil_prob11PhilosopherEEE10deallocateERS3_PS2_m(%"class.std::allocator"* dereferenceable(1), %"class.dining_phil_prob::Philosopher"**, i64) #0 comdat align 2 !dbg !5012 {
  %4 = alloca %"class.std::allocator"*, align 8
  %5 = alloca %"class.dining_phil_prob::Philosopher"**, align 8
  %6 = alloca i64, align 8
  store %"class.std::allocator"* %0, %"class.std::allocator"** %4, align 8
  call void @llvm.dbg.declare(metadata %"class.std::allocator"** %4, metadata !5013, metadata !3199), !dbg !5014
  store %"class.dining_phil_prob::Philosopher"** %1, %"class.dining_phil_prob::Philosopher"*** %5, align 8
  call void @llvm.dbg.declare(metadata %"class.dining_phil_prob::Philosopher"*** %5, metadata !5015, metadata !3199), !dbg !5016
  store i64 %2, i64* %6, align 8
  call void @llvm.dbg.declare(metadata i64* %6, metadata !5017, metadata !3199), !dbg !5018
  %7 = load %"class.std::allocator"*, %"class.std::allocator"** %4, align 8, !dbg !5019
  %8 = bitcast %"class.std::allocator"* %7 to %"class.__gnu_cxx::new_allocator"*, !dbg !5019
  %9 = load %"class.dining_phil_prob::Philosopher"**, %"class.dining_phil_prob::Philosopher"*** %5, align 8, !dbg !5020
  %10 = load i64, i64* %6, align 8, !dbg !5021
  call void @_ZN9__gnu_cxx13new_allocatorIPN16dining_phil_prob11PhilosopherEE10deallocateEPS3_m(%"class.__gnu_cxx::new_allocator"* %8, %"class.dining_phil_prob::Philosopher"** %9, i64 %10), !dbg !5022
  ret void, !dbg !5023
}

; Function Attrs: nounwind uwtable
define linkonce_odr void @_ZN9__gnu_cxx13new_allocatorIPN16dining_phil_prob11PhilosopherEE10deallocateEPS3_m(%"class.__gnu_cxx::new_allocator"*, %"class.dining_phil_prob::Philosopher"**, i64) #4 comdat align 2 !dbg !5024 {
  %4 = alloca %"class.__gnu_cxx::new_allocator"*, align 8
  %5 = alloca %"class.dining_phil_prob::Philosopher"**, align 8
  %6 = alloca i64, align 8
  store %"class.__gnu_cxx::new_allocator"* %0, %"class.__gnu_cxx::new_allocator"** %4, align 8
  call void @llvm.dbg.declare(metadata %"class.__gnu_cxx::new_allocator"** %4, metadata !5025, metadata !3199), !dbg !5026
  store %"class.dining_phil_prob::Philosopher"** %1, %"class.dining_phil_prob::Philosopher"*** %5, align 8
  call void @llvm.dbg.declare(metadata %"class.dining_phil_prob::Philosopher"*** %5, metadata !5027, metadata !3199), !dbg !5028
  store i64 %2, i64* %6, align 8
  call void @llvm.dbg.declare(metadata i64* %6, metadata !5029, metadata !3199), !dbg !5030
  %7 = load %"class.__gnu_cxx::new_allocator"*, %"class.__gnu_cxx::new_allocator"** %4, align 8
  %8 = load %"class.dining_phil_prob::Philosopher"**, %"class.dining_phil_prob::Philosopher"*** %5, align 8, !dbg !5031
  %9 = bitcast %"class.dining_phil_prob::Philosopher"** %8 to i8*, !dbg !5031
  call void @_ZdlPv(i8* %9) #3, !dbg !5032
  ret void, !dbg !5033
}

; Function Attrs: nounwind uwtable
define linkonce_odr void @_ZNSaIPN16dining_phil_prob11PhilosopherEED2Ev(%"class.std::allocator"*) unnamed_addr #4 comdat align 2 !dbg !5034 {
  %2 = alloca %"class.std::allocator"*, align 8
  store %"class.std::allocator"* %0, %"class.std::allocator"** %2, align 8
  call void @llvm.dbg.declare(metadata %"class.std::allocator"** %2, metadata !5035, metadata !3199), !dbg !5036
  %3 = load %"class.std::allocator"*, %"class.std::allocator"** %2, align 8
  %4 = bitcast %"class.std::allocator"* %3 to %"class.__gnu_cxx::new_allocator"*, !dbg !5037
  call void @_ZN9__gnu_cxx13new_allocatorIPN16dining_phil_prob11PhilosopherEED2Ev(%"class.__gnu_cxx::new_allocator"* %4) #3, !dbg !5037
  ret void, !dbg !5039
}

; Function Attrs: nounwind uwtable
define linkonce_odr void @_ZN9__gnu_cxx13new_allocatorIPN16dining_phil_prob11PhilosopherEED2Ev(%"class.__gnu_cxx::new_allocator"*) unnamed_addr #4 comdat align 2 !dbg !5040 {
  %2 = alloca %"class.__gnu_cxx::new_allocator"*, align 8
  store %"class.__gnu_cxx::new_allocator"* %0, %"class.__gnu_cxx::new_allocator"** %2, align 8
  call void @llvm.dbg.declare(metadata %"class.__gnu_cxx::new_allocator"** %2, metadata !5041, metadata !3199), !dbg !5042
  %3 = load %"class.__gnu_cxx::new_allocator"*, %"class.__gnu_cxx::new_allocator"** %2, align 8
  ret void, !dbg !5043
}

; Function Attrs: uwtable
define linkonce_odr void @_ZNSt16allocator_traitsISaIPN16dining_phil_prob11PhilosopherEEE9constructIS2_JS2_EEEvRS3_PT_DpOT0_(%"class.std::allocator"* dereferenceable(1), %"class.dining_phil_prob::Philosopher"**, %"class.dining_phil_prob::Philosopher"** dereferenceable(8)) #0 comdat align 2 !dbg !5044 {
  %4 = alloca %"class.std::allocator"*, align 8
  %5 = alloca %"class.dining_phil_prob::Philosopher"**, align 8
  %6 = alloca %"class.dining_phil_prob::Philosopher"**, align 8
  store %"class.std::allocator"* %0, %"class.std::allocator"** %4, align 8
  call void @llvm.dbg.declare(metadata %"class.std::allocator"** %4, metadata !5050, metadata !3199), !dbg !5051
  store %"class.dining_phil_prob::Philosopher"** %1, %"class.dining_phil_prob::Philosopher"*** %5, align 8
  call void @llvm.dbg.declare(metadata %"class.dining_phil_prob::Philosopher"*** %5, metadata !5052, metadata !3199), !dbg !5053
  store %"class.dining_phil_prob::Philosopher"** %2, %"class.dining_phil_prob::Philosopher"*** %6, align 8
  call void @llvm.dbg.declare(metadata %"class.dining_phil_prob::Philosopher"*** %6, metadata !5054, metadata !3199), !dbg !5055
  %7 = load %"class.std::allocator"*, %"class.std::allocator"** %4, align 8, !dbg !5056
  %8 = bitcast %"class.std::allocator"* %7 to %"class.__gnu_cxx::new_allocator"*, !dbg !5056
  %9 = load %"class.dining_phil_prob::Philosopher"**, %"class.dining_phil_prob::Philosopher"*** %5, align 8, !dbg !5057
  %10 = load %"class.dining_phil_prob::Philosopher"**, %"class.dining_phil_prob::Philosopher"*** %6, align 8, !dbg !5058
  %11 = call dereferenceable(8) %"class.dining_phil_prob::Philosopher"** @_ZSt7forwardIPN16dining_phil_prob11PhilosopherEEOT_RNSt16remove_referenceIS3_E4typeE(%"class.dining_phil_prob::Philosopher"** dereferenceable(8) %10) #3, !dbg !5059
  call void @_ZN9__gnu_cxx13new_allocatorIPN16dining_phil_prob11PhilosopherEE9constructIS3_JS3_EEEvPT_DpOT0_(%"class.__gnu_cxx::new_allocator"* %8, %"class.dining_phil_prob::Philosopher"** %9, %"class.dining_phil_prob::Philosopher"** dereferenceable(8) %11), !dbg !5060
  ret void, !dbg !5062
}

; Function Attrs: uwtable
define linkonce_odr void @_ZNSt6vectorIPN16dining_phil_prob11PhilosopherESaIS2_EE19_M_emplace_back_auxIJS2_EEEvDpOT_(%"class.std::vector"*, %"class.dining_phil_prob::Philosopher"** dereferenceable(8)) #0 comdat align 2 personality i8* bitcast (i32 (...)* @__gxx_personality_v0 to i8*) !dbg !5063 {
  %3 = alloca %"class.std::vector"*, align 8
  %4 = alloca %"class.dining_phil_prob::Philosopher"**, align 8
  %5 = alloca i64, align 8
  %6 = alloca %"class.dining_phil_prob::Philosopher"**, align 8
  %7 = alloca %"class.dining_phil_prob::Philosopher"**, align 8
  %8 = alloca i8*
  %9 = alloca i32
  store %"class.std::vector"* %0, %"class.std::vector"** %3, align 8
  call void @llvm.dbg.declare(metadata %"class.std::vector"** %3, metadata !5065, metadata !3199), !dbg !5066
  store %"class.dining_phil_prob::Philosopher"** %1, %"class.dining_phil_prob::Philosopher"*** %4, align 8
  call void @llvm.dbg.declare(metadata %"class.dining_phil_prob::Philosopher"*** %4, metadata !5067, metadata !3199), !dbg !5068
  %10 = load %"class.std::vector"*, %"class.std::vector"** %3, align 8
  call void @llvm.dbg.declare(metadata i64* %5, metadata !5069, metadata !3199), !dbg !5071
  %11 = call i64 @_ZNKSt6vectorIPN16dining_phil_prob11PhilosopherESaIS2_EE12_M_check_lenEmPKc(%"class.std::vector"* %10, i64 1, i8* getelementptr inbounds ([28 x i8], [28 x i8]* @.str.8, i32 0, i32 0)), !dbg !5072
  store i64 %11, i64* %5, align 8, !dbg !5071
  call void @llvm.dbg.declare(metadata %"class.dining_phil_prob::Philosopher"*** %6, metadata !5073, metadata !3199), !dbg !5074
  %12 = bitcast %"class.std::vector"* %10 to %"struct.std::_Vector_base"*, !dbg !5075
  %13 = load i64, i64* %5, align 8, !dbg !5076
  %14 = call %"class.dining_phil_prob::Philosopher"** @_ZNSt12_Vector_baseIPN16dining_phil_prob11PhilosopherESaIS2_EE11_M_allocateEm(%"struct.std::_Vector_base"* %12, i64 %13), !dbg !5075
  store %"class.dining_phil_prob::Philosopher"** %14, %"class.dining_phil_prob::Philosopher"*** %6, align 8, !dbg !5074
  call void @llvm.dbg.declare(metadata %"class.dining_phil_prob::Philosopher"*** %7, metadata !5077, metadata !3199), !dbg !5078
  %15 = load %"class.dining_phil_prob::Philosopher"**, %"class.dining_phil_prob::Philosopher"*** %6, align 8, !dbg !5079
  store %"class.dining_phil_prob::Philosopher"** %15, %"class.dining_phil_prob::Philosopher"*** %7, align 8, !dbg !5078
  %16 = bitcast %"class.std::vector"* %10 to %"struct.std::_Vector_base"*, !dbg !5080
  %17 = getelementptr inbounds %"struct.std::_Vector_base", %"struct.std::_Vector_base"* %16, i32 0, i32 0, !dbg !5080
  %18 = bitcast %"struct.std::_Vector_base<dining_phil_prob::Philosopher *, std::allocator<dining_phil_prob::Philosopher *> >::_Vector_impl"* %17 to %"class.std::allocator"*, !dbg !5082
  %19 = load %"class.dining_phil_prob::Philosopher"**, %"class.dining_phil_prob::Philosopher"*** %6, align 8, !dbg !5083
  %20 = call i64 @_ZNKSt6vectorIPN16dining_phil_prob11PhilosopherESaIS2_EE4sizeEv(%"class.std::vector"* %10) #3, !dbg !5084
  %21 = getelementptr inbounds %"class.dining_phil_prob::Philosopher"*, %"class.dining_phil_prob::Philosopher"** %19, i64 %20, !dbg !5085
  %22 = load %"class.dining_phil_prob::Philosopher"**, %"class.dining_phil_prob::Philosopher"*** %4, align 8, !dbg !5086
  %23 = call dereferenceable(8) %"class.dining_phil_prob::Philosopher"** @_ZSt7forwardIPN16dining_phil_prob11PhilosopherEEOT_RNSt16remove_referenceIS3_E4typeE(%"class.dining_phil_prob::Philosopher"** dereferenceable(8) %22) #3, !dbg !5087
  invoke void @_ZNSt16allocator_traitsISaIPN16dining_phil_prob11PhilosopherEEE9constructIS2_JS2_EEEvRS3_PT_DpOT0_(%"class.std::allocator"* dereferenceable(1) %18, %"class.dining_phil_prob::Philosopher"** %21, %"class.dining_phil_prob::Philosopher"** dereferenceable(8) %23)
          to label %24 unwind label %40, !dbg !5088

; <label>:24:                                     ; preds = %2
  store %"class.dining_phil_prob::Philosopher"** null, %"class.dining_phil_prob::Philosopher"*** %7, align 8, !dbg !5089
  %25 = bitcast %"class.std::vector"* %10 to %"struct.std::_Vector_base"*, !dbg !5090
  %26 = getelementptr inbounds %"struct.std::_Vector_base", %"struct.std::_Vector_base"* %25, i32 0, i32 0, !dbg !5090
  %27 = getelementptr inbounds %"struct.std::_Vector_base<dining_phil_prob::Philosopher *, std::allocator<dining_phil_prob::Philosopher *> >::_Vector_impl", %"struct.std::_Vector_base<dining_phil_prob::Philosopher *, std::allocator<dining_phil_prob::Philosopher *> >::_Vector_impl"* %26, i32 0, i32 0, !dbg !5091
  %28 = load %"class.dining_phil_prob::Philosopher"**, %"class.dining_phil_prob::Philosopher"*** %27, align 8, !dbg !5091
  %29 = bitcast %"class.std::vector"* %10 to %"struct.std::_Vector_base"*, !dbg !5092
  %30 = getelementptr inbounds %"struct.std::_Vector_base", %"struct.std::_Vector_base"* %29, i32 0, i32 0, !dbg !5092
  %31 = getelementptr inbounds %"struct.std::_Vector_base<dining_phil_prob::Philosopher *, std::allocator<dining_phil_prob::Philosopher *> >::_Vector_impl", %"struct.std::_Vector_base<dining_phil_prob::Philosopher *, std::allocator<dining_phil_prob::Philosopher *> >::_Vector_impl"* %30, i32 0, i32 1, !dbg !5093
  %32 = load %"class.dining_phil_prob::Philosopher"**, %"class.dining_phil_prob::Philosopher"*** %31, align 8, !dbg !5093
  %33 = load %"class.dining_phil_prob::Philosopher"**, %"class.dining_phil_prob::Philosopher"*** %6, align 8, !dbg !5094
  %34 = bitcast %"class.std::vector"* %10 to %"struct.std::_Vector_base"*, !dbg !5095
  %35 = call dereferenceable(1) %"class.std::allocator"* @_ZNSt12_Vector_baseIPN16dining_phil_prob11PhilosopherESaIS2_EE19_M_get_Tp_allocatorEv(%"struct.std::_Vector_base"* %34) #3, !dbg !5095
  %36 = invoke %"class.dining_phil_prob::Philosopher"** @_ZSt34__uninitialized_move_if_noexcept_aIPPN16dining_phil_prob11PhilosopherES3_SaIS2_EET0_T_S6_S5_RT1_(%"class.dining_phil_prob::Philosopher"** %28, %"class.dining_phil_prob::Philosopher"** %32, %"class.dining_phil_prob::Philosopher"** %33, %"class.std::allocator"* dereferenceable(1) %35)
          to label %37 unwind label %40, !dbg !5096

; <label>:37:                                     ; preds = %24
  store %"class.dining_phil_prob::Philosopher"** %36, %"class.dining_phil_prob::Philosopher"*** %7, align 8, !dbg !5097
  %38 = load %"class.dining_phil_prob::Philosopher"**, %"class.dining_phil_prob::Philosopher"*** %7, align 8, !dbg !5099
  %39 = getelementptr inbounds %"class.dining_phil_prob::Philosopher"*, %"class.dining_phil_prob::Philosopher"** %38, i32 1, !dbg !5099
  store %"class.dining_phil_prob::Philosopher"** %39, %"class.dining_phil_prob::Philosopher"*** %7, align 8, !dbg !5099
  br label %73, !dbg !5100

; <label>:40:                                     ; preds = %24, %2
  %41 = landingpad { i8*, i32 }
          catch i8* null, !dbg !5101
  %42 = extractvalue { i8*, i32 } %41, 0, !dbg !5101
  store i8* %42, i8** %8, align 8, !dbg !5101
  %43 = extractvalue { i8*, i32 } %41, 1, !dbg !5101
  store i32 %43, i32* %9, align 4, !dbg !5101
  br label %44, !dbg !5101

; <label>:44:                                     ; preds = %40
  %45 = load i8*, i8** %8, align 8, !dbg !5102
  %46 = call i8* @__cxa_begin_catch(i8* %45) #3, !dbg !5102
  %47 = load %"class.dining_phil_prob::Philosopher"**, %"class.dining_phil_prob::Philosopher"*** %7, align 8, !dbg !5103
  %48 = icmp ne %"class.dining_phil_prob::Philosopher"** %47, null, !dbg !5103
  br i1 %48, label %61, label %49, !dbg !5106

; <label>:49:                                     ; preds = %44
  %50 = bitcast %"class.std::vector"* %10 to %"struct.std::_Vector_base"*, !dbg !5107
  %51 = getelementptr inbounds %"struct.std::_Vector_base", %"struct.std::_Vector_base"* %50, i32 0, i32 0, !dbg !5107
  %52 = bitcast %"struct.std::_Vector_base<dining_phil_prob::Philosopher *, std::allocator<dining_phil_prob::Philosopher *> >::_Vector_impl"* %51 to %"class.std::allocator"*, !dbg !5108
  %53 = load %"class.dining_phil_prob::Philosopher"**, %"class.dining_phil_prob::Philosopher"*** %6, align 8, !dbg !5109
  %54 = call i64 @_ZNKSt6vectorIPN16dining_phil_prob11PhilosopherESaIS2_EE4sizeEv(%"class.std::vector"* %10) #3, !dbg !5110
  %55 = getelementptr inbounds %"class.dining_phil_prob::Philosopher"*, %"class.dining_phil_prob::Philosopher"** %53, i64 %54, !dbg !5111
  invoke void @_ZNSt16allocator_traitsISaIPN16dining_phil_prob11PhilosopherEEE7destroyIS2_EEvRS3_PT_(%"class.std::allocator"* dereferenceable(1) %52, %"class.dining_phil_prob::Philosopher"** %55)
          to label %56 unwind label %57, !dbg !5112

; <label>:56:                                     ; preds = %49
  br label %67, !dbg !5113

; <label>:57:                                     ; preds = %71, %67, %61, %49
  %58 = landingpad { i8*, i32 }
          cleanup, !dbg !5115
  %59 = extractvalue { i8*, i32 } %58, 0, !dbg !5115
  store i8* %59, i8** %8, align 8, !dbg !5115
  %60 = extractvalue { i8*, i32 } %58, 1, !dbg !5115
  store i32 %60, i32* %9, align 4, !dbg !5115
  invoke void @__cxa_end_catch()
          to label %72 unwind label %120, !dbg !5116

; <label>:61:                                     ; preds = %44
  %62 = load %"class.dining_phil_prob::Philosopher"**, %"class.dining_phil_prob::Philosopher"*** %6, align 8, !dbg !5117
  %63 = load %"class.dining_phil_prob::Philosopher"**, %"class.dining_phil_prob::Philosopher"*** %7, align 8, !dbg !5118
  %64 = bitcast %"class.std::vector"* %10 to %"struct.std::_Vector_base"*, !dbg !5119
  %65 = call dereferenceable(1) %"class.std::allocator"* @_ZNSt12_Vector_baseIPN16dining_phil_prob11PhilosopherESaIS2_EE19_M_get_Tp_allocatorEv(%"struct.std::_Vector_base"* %64) #3, !dbg !5119
  invoke void @_ZSt8_DestroyIPPN16dining_phil_prob11PhilosopherES2_EvT_S4_RSaIT0_E(%"class.dining_phil_prob::Philosopher"** %62, %"class.dining_phil_prob::Philosopher"** %63, %"class.std::allocator"* dereferenceable(1) %65)
          to label %66 unwind label %57, !dbg !5120

; <label>:66:                                     ; preds = %61
  br label %67

; <label>:67:                                     ; preds = %66, %56
  %68 = bitcast %"class.std::vector"* %10 to %"struct.std::_Vector_base"*, !dbg !5121
  %69 = load %"class.dining_phil_prob::Philosopher"**, %"class.dining_phil_prob::Philosopher"*** %6, align 8, !dbg !5122
  %70 = load i64, i64* %5, align 8, !dbg !5123
  invoke void @_ZNSt12_Vector_baseIPN16dining_phil_prob11PhilosopherESaIS2_EE13_M_deallocateEPS2_m(%"struct.std::_Vector_base"* %68, %"class.dining_phil_prob::Philosopher"** %69, i64 %70)
          to label %71 unwind label %57, !dbg !5121

; <label>:71:                                     ; preds = %67
  invoke void @__cxa_rethrow() #18
          to label %123 unwind label %57, !dbg !5124

; <label>:72:                                     ; preds = %57
  br label %115, !dbg !5125

; <label>:73:                                     ; preds = %37
  %74 = bitcast %"class.std::vector"* %10 to %"struct.std::_Vector_base"*, !dbg !5127
  %75 = getelementptr inbounds %"struct.std::_Vector_base", %"struct.std::_Vector_base"* %74, i32 0, i32 0, !dbg !5127
  %76 = getelementptr inbounds %"struct.std::_Vector_base<dining_phil_prob::Philosopher *, std::allocator<dining_phil_prob::Philosopher *> >::_Vector_impl", %"struct.std::_Vector_base<dining_phil_prob::Philosopher *, std::allocator<dining_phil_prob::Philosopher *> >::_Vector_impl"* %75, i32 0, i32 0, !dbg !5128
  %77 = load %"class.dining_phil_prob::Philosopher"**, %"class.dining_phil_prob::Philosopher"*** %76, align 8, !dbg !5128
  %78 = bitcast %"class.std::vector"* %10 to %"struct.std::_Vector_base"*, !dbg !5129
  %79 = getelementptr inbounds %"struct.std::_Vector_base", %"struct.std::_Vector_base"* %78, i32 0, i32 0, !dbg !5129
  %80 = getelementptr inbounds %"struct.std::_Vector_base<dining_phil_prob::Philosopher *, std::allocator<dining_phil_prob::Philosopher *> >::_Vector_impl", %"struct.std::_Vector_base<dining_phil_prob::Philosopher *, std::allocator<dining_phil_prob::Philosopher *> >::_Vector_impl"* %79, i32 0, i32 1, !dbg !5130
  %81 = load %"class.dining_phil_prob::Philosopher"**, %"class.dining_phil_prob::Philosopher"*** %80, align 8, !dbg !5130
  %82 = bitcast %"class.std::vector"* %10 to %"struct.std::_Vector_base"*, !dbg !5131
  %83 = call dereferenceable(1) %"class.std::allocator"* @_ZNSt12_Vector_baseIPN16dining_phil_prob11PhilosopherESaIS2_EE19_M_get_Tp_allocatorEv(%"struct.std::_Vector_base"* %82) #3, !dbg !5131
  call void @_ZSt8_DestroyIPPN16dining_phil_prob11PhilosopherES2_EvT_S4_RSaIT0_E(%"class.dining_phil_prob::Philosopher"** %77, %"class.dining_phil_prob::Philosopher"** %81, %"class.std::allocator"* dereferenceable(1) %83), !dbg !5132
  %84 = bitcast %"class.std::vector"* %10 to %"struct.std::_Vector_base"*, !dbg !5133
  %85 = bitcast %"class.std::vector"* %10 to %"struct.std::_Vector_base"*, !dbg !5134
  %86 = getelementptr inbounds %"struct.std::_Vector_base", %"struct.std::_Vector_base"* %85, i32 0, i32 0, !dbg !5134
  %87 = getelementptr inbounds %"struct.std::_Vector_base<dining_phil_prob::Philosopher *, std::allocator<dining_phil_prob::Philosopher *> >::_Vector_impl", %"struct.std::_Vector_base<dining_phil_prob::Philosopher *, std::allocator<dining_phil_prob::Philosopher *> >::_Vector_impl"* %86, i32 0, i32 0, !dbg !5135
  %88 = load %"class.dining_phil_prob::Philosopher"**, %"class.dining_phil_prob::Philosopher"*** %87, align 8, !dbg !5135
  %89 = bitcast %"class.std::vector"* %10 to %"struct.std::_Vector_base"*, !dbg !5136
  %90 = getelementptr inbounds %"struct.std::_Vector_base", %"struct.std::_Vector_base"* %89, i32 0, i32 0, !dbg !5136
  %91 = getelementptr inbounds %"struct.std::_Vector_base<dining_phil_prob::Philosopher *, std::allocator<dining_phil_prob::Philosopher *> >::_Vector_impl", %"struct.std::_Vector_base<dining_phil_prob::Philosopher *, std::allocator<dining_phil_prob::Philosopher *> >::_Vector_impl"* %90, i32 0, i32 2, !dbg !5137
  %92 = load %"class.dining_phil_prob::Philosopher"**, %"class.dining_phil_prob::Philosopher"*** %91, align 8, !dbg !5137
  %93 = bitcast %"class.std::vector"* %10 to %"struct.std::_Vector_base"*, !dbg !5138
  %94 = getelementptr inbounds %"struct.std::_Vector_base", %"struct.std::_Vector_base"* %93, i32 0, i32 0, !dbg !5138
  %95 = getelementptr inbounds %"struct.std::_Vector_base<dining_phil_prob::Philosopher *, std::allocator<dining_phil_prob::Philosopher *> >::_Vector_impl", %"struct.std::_Vector_base<dining_phil_prob::Philosopher *, std::allocator<dining_phil_prob::Philosopher *> >::_Vector_impl"* %94, i32 0, i32 0, !dbg !5139
  %96 = load %"class.dining_phil_prob::Philosopher"**, %"class.dining_phil_prob::Philosopher"*** %95, align 8, !dbg !5139
  %97 = ptrtoint %"class.dining_phil_prob::Philosopher"** %92 to i64, !dbg !5140
  %98 = ptrtoint %"class.dining_phil_prob::Philosopher"** %96 to i64, !dbg !5140
  %99 = sub i64 %97, %98, !dbg !5140
  %100 = sdiv exact i64 %99, 8, !dbg !5140
  call void @_ZNSt12_Vector_baseIPN16dining_phil_prob11PhilosopherESaIS2_EE13_M_deallocateEPS2_m(%"struct.std::_Vector_base"* %84, %"class.dining_phil_prob::Philosopher"** %88, i64 %100), !dbg !5133
  %101 = load %"class.dining_phil_prob::Philosopher"**, %"class.dining_phil_prob::Philosopher"*** %6, align 8, !dbg !5141
  %102 = bitcast %"class.std::vector"* %10 to %"struct.std::_Vector_base"*, !dbg !5142
  %103 = getelementptr inbounds %"struct.std::_Vector_base", %"struct.std::_Vector_base"* %102, i32 0, i32 0, !dbg !5142
  %104 = getelementptr inbounds %"struct.std::_Vector_base<dining_phil_prob::Philosopher *, std::allocator<dining_phil_prob::Philosopher *> >::_Vector_impl", %"struct.std::_Vector_base<dining_phil_prob::Philosopher *, std::allocator<dining_phil_prob::Philosopher *> >::_Vector_impl"* %103, i32 0, i32 0, !dbg !5143
  store %"class.dining_phil_prob::Philosopher"** %101, %"class.dining_phil_prob::Philosopher"*** %104, align 8, !dbg !5144
  %105 = load %"class.dining_phil_prob::Philosopher"**, %"class.dining_phil_prob::Philosopher"*** %7, align 8, !dbg !5145
  %106 = bitcast %"class.std::vector"* %10 to %"struct.std::_Vector_base"*, !dbg !5146
  %107 = getelementptr inbounds %"struct.std::_Vector_base", %"struct.std::_Vector_base"* %106, i32 0, i32 0, !dbg !5146
  %108 = getelementptr inbounds %"struct.std::_Vector_base<dining_phil_prob::Philosopher *, std::allocator<dining_phil_prob::Philosopher *> >::_Vector_impl", %"struct.std::_Vector_base<dining_phil_prob::Philosopher *, std::allocator<dining_phil_prob::Philosopher *> >::_Vector_impl"* %107, i32 0, i32 1, !dbg !5147
  store %"class.dining_phil_prob::Philosopher"** %105, %"class.dining_phil_prob::Philosopher"*** %108, align 8, !dbg !5148
  %109 = load %"class.dining_phil_prob::Philosopher"**, %"class.dining_phil_prob::Philosopher"*** %6, align 8, !dbg !5149
  %110 = load i64, i64* %5, align 8, !dbg !5150
  %111 = getelementptr inbounds %"class.dining_phil_prob::Philosopher"*, %"class.dining_phil_prob::Philosopher"** %109, i64 %110, !dbg !5151
  %112 = bitcast %"class.std::vector"* %10 to %"struct.std::_Vector_base"*, !dbg !5152
  %113 = getelementptr inbounds %"struct.std::_Vector_base", %"struct.std::_Vector_base"* %112, i32 0, i32 0, !dbg !5152
  %114 = getelementptr inbounds %"struct.std::_Vector_base<dining_phil_prob::Philosopher *, std::allocator<dining_phil_prob::Philosopher *> >::_Vector_impl", %"struct.std::_Vector_base<dining_phil_prob::Philosopher *, std::allocator<dining_phil_prob::Philosopher *> >::_Vector_impl"* %113, i32 0, i32 2, !dbg !5153
  store %"class.dining_phil_prob::Philosopher"** %111, %"class.dining_phil_prob::Philosopher"*** %114, align 8, !dbg !5154
  ret void, !dbg !5155

; <label>:115:                                    ; preds = %72
  %116 = load i8*, i8** %8, align 8, !dbg !5157
  %117 = load i32, i32* %9, align 4, !dbg !5157
  %118 = insertvalue { i8*, i32 } undef, i8* %116, 0, !dbg !5157
  %119 = insertvalue { i8*, i32 } %118, i32 %117, 1, !dbg !5157
  resume { i8*, i32 } %119, !dbg !5157

; <label>:120:                                    ; preds = %57
  %121 = landingpad { i8*, i32 }
          catch i8* null, !dbg !5159
  %122 = extractvalue { i8*, i32 } %121, 0, !dbg !5159
  call void @__clang_call_terminate(i8* %122) #17, !dbg !5159
  unreachable, !dbg !5159

; <label>:123:                                    ; preds = %71
  unreachable
}

; Function Attrs: nounwind uwtable
define linkonce_odr void @_ZN9__gnu_cxx13new_allocatorIPN16dining_phil_prob11PhilosopherEE9constructIS3_JS3_EEEvPT_DpOT0_(%"class.__gnu_cxx::new_allocator"*, %"class.dining_phil_prob::Philosopher"**, %"class.dining_phil_prob::Philosopher"** dereferenceable(8)) #4 comdat align 2 !dbg !5161 {
  %4 = alloca %"class.__gnu_cxx::new_allocator"*, align 8
  %5 = alloca %"class.dining_phil_prob::Philosopher"**, align 8
  %6 = alloca %"class.dining_phil_prob::Philosopher"**, align 8
  store %"class.__gnu_cxx::new_allocator"* %0, %"class.__gnu_cxx::new_allocator"** %4, align 8
  call void @llvm.dbg.declare(metadata %"class.__gnu_cxx::new_allocator"** %4, metadata !5165, metadata !3199), !dbg !5166
  store %"class.dining_phil_prob::Philosopher"** %1, %"class.dining_phil_prob::Philosopher"*** %5, align 8
  call void @llvm.dbg.declare(metadata %"class.dining_phil_prob::Philosopher"*** %5, metadata !5167, metadata !3199), !dbg !5168
  store %"class.dining_phil_prob::Philosopher"** %2, %"class.dining_phil_prob::Philosopher"*** %6, align 8
  call void @llvm.dbg.declare(metadata %"class.dining_phil_prob::Philosopher"*** %6, metadata !5169, metadata !3199), !dbg !5170
  %7 = load %"class.__gnu_cxx::new_allocator"*, %"class.__gnu_cxx::new_allocator"** %4, align 8
  %8 = load %"class.dining_phil_prob::Philosopher"**, %"class.dining_phil_prob::Philosopher"*** %5, align 8, !dbg !5171
  %9 = bitcast %"class.dining_phil_prob::Philosopher"** %8 to i8*, !dbg !5171
  %10 = bitcast i8* %9 to %"class.dining_phil_prob::Philosopher"**, !dbg !5172
  %11 = load %"class.dining_phil_prob::Philosopher"**, %"class.dining_phil_prob::Philosopher"*** %6, align 8, !dbg !5173
  %12 = call dereferenceable(8) %"class.dining_phil_prob::Philosopher"** @_ZSt7forwardIPN16dining_phil_prob11PhilosopherEEOT_RNSt16remove_referenceIS3_E4typeE(%"class.dining_phil_prob::Philosopher"** dereferenceable(8) %11) #3, !dbg !5174
  %13 = load %"class.dining_phil_prob::Philosopher"*, %"class.dining_phil_prob::Philosopher"** %12, align 8, !dbg !5174
  store %"class.dining_phil_prob::Philosopher"* %13, %"class.dining_phil_prob::Philosopher"** %10, align 8, !dbg !5172
  ret void, !dbg !5175
}

; Function Attrs: uwtable
define linkonce_odr i64 @_ZNKSt6vectorIPN16dining_phil_prob11PhilosopherESaIS2_EE12_M_check_lenEmPKc(%"class.std::vector"*, i64, i8*) #0 comdat align 2 !dbg !5176 {
  %4 = alloca %"class.std::vector"*, align 8
  %5 = alloca i64, align 8
  %6 = alloca i8*, align 8
  %7 = alloca i64, align 8
  %8 = alloca i64, align 8
  store %"class.std::vector"* %0, %"class.std::vector"** %4, align 8
  call void @llvm.dbg.declare(metadata %"class.std::vector"** %4, metadata !5177, metadata !3199), !dbg !5179
  store i64 %1, i64* %5, align 8
  call void @llvm.dbg.declare(metadata i64* %5, metadata !5180, metadata !3199), !dbg !5181
  store i8* %2, i8** %6, align 8
  call void @llvm.dbg.declare(metadata i8** %6, metadata !5182, metadata !3199), !dbg !5183
  %9 = load %"class.std::vector"*, %"class.std::vector"** %4, align 8
  %10 = call i64 @_ZNKSt6vectorIPN16dining_phil_prob11PhilosopherESaIS2_EE8max_sizeEv(%"class.std::vector"* %9) #3, !dbg !5184
  %11 = call i64 @_ZNKSt6vectorIPN16dining_phil_prob11PhilosopherESaIS2_EE4sizeEv(%"class.std::vector"* %9) #3, !dbg !5186
  %12 = sub i64 %10, %11, !dbg !5188
  %13 = load i64, i64* %5, align 8, !dbg !5189
  %14 = icmp ult i64 %12, %13, !dbg !5190
  br i1 %14, label %15, label %17, !dbg !5191

; <label>:15:                                     ; preds = %3
  %16 = load i8*, i8** %6, align 8, !dbg !5192
  call void @_ZSt20__throw_length_errorPKc(i8* %16) #18, !dbg !5193
  unreachable, !dbg !5193

; <label>:17:                                     ; preds = %3
  call void @llvm.dbg.declare(metadata i64* %7, metadata !5194, metadata !3199), !dbg !5195
  %18 = call i64 @_ZNKSt6vectorIPN16dining_phil_prob11PhilosopherESaIS2_EE4sizeEv(%"class.std::vector"* %9) #3, !dbg !5196
  %19 = call i64 @_ZNKSt6vectorIPN16dining_phil_prob11PhilosopherESaIS2_EE4sizeEv(%"class.std::vector"* %9) #3, !dbg !5197
  store i64 %19, i64* %8, align 8, !dbg !5199
  %20 = call dereferenceable(8) i64* @_ZSt3maxImERKT_S2_S2_(i64* dereferenceable(8) %8, i64* dereferenceable(8) %5), !dbg !5200
  %21 = load i64, i64* %20, align 8, !dbg !5202
  %22 = add i64 %18, %21, !dbg !5203
  store i64 %22, i64* %7, align 8, !dbg !5195
  %23 = load i64, i64* %7, align 8, !dbg !5204
  %24 = call i64 @_ZNKSt6vectorIPN16dining_phil_prob11PhilosopherESaIS2_EE4sizeEv(%"class.std::vector"* %9) #3, !dbg !5205
  %25 = icmp ult i64 %23, %24, !dbg !5206
  br i1 %25, label %30, label %26, !dbg !5207

; <label>:26:                                     ; preds = %17
  %27 = load i64, i64* %7, align 8, !dbg !5208
  %28 = call i64 @_ZNKSt6vectorIPN16dining_phil_prob11PhilosopherESaIS2_EE8max_sizeEv(%"class.std::vector"* %9) #3, !dbg !5209
  %29 = icmp ugt i64 %27, %28, !dbg !5210
  br i1 %29, label %30, label %32, !dbg !5211

; <label>:30:                                     ; preds = %26, %17
  %31 = call i64 @_ZNKSt6vectorIPN16dining_phil_prob11PhilosopherESaIS2_EE8max_sizeEv(%"class.std::vector"* %9) #3, !dbg !5212
  br label %34, !dbg !5213

; <label>:32:                                     ; preds = %26
  %33 = load i64, i64* %7, align 8, !dbg !5214
  br label %34, !dbg !5216

; <label>:34:                                     ; preds = %32, %30
  %35 = phi i64 [ %31, %30 ], [ %33, %32 ], !dbg !5217
  ret i64 %35, !dbg !5219
}

; Function Attrs: uwtable
define linkonce_odr %"class.dining_phil_prob::Philosopher"** @_ZNSt12_Vector_baseIPN16dining_phil_prob11PhilosopherESaIS2_EE11_M_allocateEm(%"struct.std::_Vector_base"*, i64) #0 comdat align 2 !dbg !5220 {
  %3 = alloca %"struct.std::_Vector_base"*, align 8
  %4 = alloca i64, align 8
  store %"struct.std::_Vector_base"* %0, %"struct.std::_Vector_base"** %3, align 8
  call void @llvm.dbg.declare(metadata %"struct.std::_Vector_base"** %3, metadata !5221, metadata !3199), !dbg !5222
  store i64 %1, i64* %4, align 8
  call void @llvm.dbg.declare(metadata i64* %4, metadata !5223, metadata !3199), !dbg !5224
  %5 = load %"struct.std::_Vector_base"*, %"struct.std::_Vector_base"** %3, align 8
  %6 = load i64, i64* %4, align 8, !dbg !5225
  %7 = icmp ne i64 %6, 0, !dbg !5226
  br i1 %7, label %8, label %13, !dbg !5225

; <label>:8:                                      ; preds = %2
  %9 = getelementptr inbounds %"struct.std::_Vector_base", %"struct.std::_Vector_base"* %5, i32 0, i32 0, !dbg !5227
  %10 = bitcast %"struct.std::_Vector_base<dining_phil_prob::Philosopher *, std::allocator<dining_phil_prob::Philosopher *> >::_Vector_impl"* %9 to %"class.std::allocator"*, !dbg !5227
  %11 = load i64, i64* %4, align 8, !dbg !5229
  %12 = call %"class.dining_phil_prob::Philosopher"** @_ZNSt16allocator_traitsISaIPN16dining_phil_prob11PhilosopherEEE8allocateERS3_m(%"class.std::allocator"* dereferenceable(1) %10, i64 %11), !dbg !5230
  br label %14, !dbg !5231

; <label>:13:                                     ; preds = %2
  br label %14, !dbg !5232

; <label>:14:                                     ; preds = %13, %8
  %15 = phi %"class.dining_phil_prob::Philosopher"** [ %12, %8 ], [ null, %13 ], !dbg !5234
  ret %"class.dining_phil_prob::Philosopher"** %15, !dbg !5236
}

; Function Attrs: nounwind uwtable
define linkonce_odr i64 @_ZNKSt6vectorIPN16dining_phil_prob11PhilosopherESaIS2_EE4sizeEv(%"class.std::vector"*) #4 comdat align 2 !dbg !5237 {
  %2 = alloca %"class.std::vector"*, align 8
  store %"class.std::vector"* %0, %"class.std::vector"** %2, align 8
  call void @llvm.dbg.declare(metadata %"class.std::vector"** %2, metadata !5238, metadata !3199), !dbg !5239
  %3 = load %"class.std::vector"*, %"class.std::vector"** %2, align 8
  %4 = bitcast %"class.std::vector"* %3 to %"struct.std::_Vector_base"*, !dbg !5240
  %5 = getelementptr inbounds %"struct.std::_Vector_base", %"struct.std::_Vector_base"* %4, i32 0, i32 0, !dbg !5240
  %6 = getelementptr inbounds %"struct.std::_Vector_base<dining_phil_prob::Philosopher *, std::allocator<dining_phil_prob::Philosopher *> >::_Vector_impl", %"struct.std::_Vector_base<dining_phil_prob::Philosopher *, std::allocator<dining_phil_prob::Philosopher *> >::_Vector_impl"* %5, i32 0, i32 1, !dbg !5241
  %7 = load %"class.dining_phil_prob::Philosopher"**, %"class.dining_phil_prob::Philosopher"*** %6, align 8, !dbg !5241
  %8 = bitcast %"class.std::vector"* %3 to %"struct.std::_Vector_base"*, !dbg !5242
  %9 = getelementptr inbounds %"struct.std::_Vector_base", %"struct.std::_Vector_base"* %8, i32 0, i32 0, !dbg !5242
  %10 = getelementptr inbounds %"struct.std::_Vector_base<dining_phil_prob::Philosopher *, std::allocator<dining_phil_prob::Philosopher *> >::_Vector_impl", %"struct.std::_Vector_base<dining_phil_prob::Philosopher *, std::allocator<dining_phil_prob::Philosopher *> >::_Vector_impl"* %9, i32 0, i32 0, !dbg !5243
  %11 = load %"class.dining_phil_prob::Philosopher"**, %"class.dining_phil_prob::Philosopher"*** %10, align 8, !dbg !5243
  %12 = ptrtoint %"class.dining_phil_prob::Philosopher"** %7 to i64, !dbg !5244
  %13 = ptrtoint %"class.dining_phil_prob::Philosopher"** %11 to i64, !dbg !5244
  %14 = sub i64 %12, %13, !dbg !5244
  %15 = sdiv exact i64 %14, 8, !dbg !5244
  ret i64 %15, !dbg !5245
}

; Function Attrs: inlinehint uwtable
define linkonce_odr %"class.dining_phil_prob::Philosopher"** @_ZSt34__uninitialized_move_if_noexcept_aIPPN16dining_phil_prob11PhilosopherES3_SaIS2_EET0_T_S6_S5_RT1_(%"class.dining_phil_prob::Philosopher"**, %"class.dining_phil_prob::Philosopher"**, %"class.dining_phil_prob::Philosopher"**, %"class.std::allocator"* dereferenceable(1)) #13 comdat !dbg !5246 {
  %5 = alloca %"class.dining_phil_prob::Philosopher"**, align 8
  %6 = alloca %"class.dining_phil_prob::Philosopher"**, align 8
  %7 = alloca %"class.dining_phil_prob::Philosopher"**, align 8
  %8 = alloca %"class.std::allocator"*, align 8
  %9 = alloca %"class.std::move_iterator", align 8
  %10 = alloca %"class.std::move_iterator", align 8
  store %"class.dining_phil_prob::Philosopher"** %0, %"class.dining_phil_prob::Philosopher"*** %5, align 8
  call void @llvm.dbg.declare(metadata %"class.dining_phil_prob::Philosopher"*** %5, metadata !5253, metadata !3199), !dbg !5254
  store %"class.dining_phil_prob::Philosopher"** %1, %"class.dining_phil_prob::Philosopher"*** %6, align 8
  call void @llvm.dbg.declare(metadata %"class.dining_phil_prob::Philosopher"*** %6, metadata !5255, metadata !3199), !dbg !5256
  store %"class.dining_phil_prob::Philosopher"** %2, %"class.dining_phil_prob::Philosopher"*** %7, align 8
  call void @llvm.dbg.declare(metadata %"class.dining_phil_prob::Philosopher"*** %7, metadata !5257, metadata !3199), !dbg !5258
  store %"class.std::allocator"* %3, %"class.std::allocator"** %8, align 8
  call void @llvm.dbg.declare(metadata %"class.std::allocator"** %8, metadata !5259, metadata !3199), !dbg !5260
  %11 = load %"class.dining_phil_prob::Philosopher"**, %"class.dining_phil_prob::Philosopher"*** %5, align 8, !dbg !5261
  %12 = call %"class.dining_phil_prob::Philosopher"** @_ZSt32__make_move_if_noexcept_iteratorIPN16dining_phil_prob11PhilosopherESt13move_iteratorIPS2_EET0_PT_(%"class.dining_phil_prob::Philosopher"** %11), !dbg !5261
  %13 = getelementptr inbounds %"class.std::move_iterator", %"class.std::move_iterator"* %9, i32 0, i32 0, !dbg !5261
  store %"class.dining_phil_prob::Philosopher"** %12, %"class.dining_phil_prob::Philosopher"*** %13, align 8, !dbg !5261
  %14 = load %"class.dining_phil_prob::Philosopher"**, %"class.dining_phil_prob::Philosopher"*** %6, align 8, !dbg !5262
  %15 = call %"class.dining_phil_prob::Philosopher"** @_ZSt32__make_move_if_noexcept_iteratorIPN16dining_phil_prob11PhilosopherESt13move_iteratorIPS2_EET0_PT_(%"class.dining_phil_prob::Philosopher"** %14), !dbg !5262
  %16 = getelementptr inbounds %"class.std::move_iterator", %"class.std::move_iterator"* %10, i32 0, i32 0, !dbg !5262
  store %"class.dining_phil_prob::Philosopher"** %15, %"class.dining_phil_prob::Philosopher"*** %16, align 8, !dbg !5262
  %17 = load %"class.dining_phil_prob::Philosopher"**, %"class.dining_phil_prob::Philosopher"*** %7, align 8, !dbg !5263
  %18 = load %"class.std::allocator"*, %"class.std::allocator"** %8, align 8, !dbg !5264
  %19 = getelementptr inbounds %"class.std::move_iterator", %"class.std::move_iterator"* %9, i32 0, i32 0, !dbg !5265
  %20 = load %"class.dining_phil_prob::Philosopher"**, %"class.dining_phil_prob::Philosopher"*** %19, align 8, !dbg !5265
  %21 = getelementptr inbounds %"class.std::move_iterator", %"class.std::move_iterator"* %10, i32 0, i32 0, !dbg !5265
  %22 = load %"class.dining_phil_prob::Philosopher"**, %"class.dining_phil_prob::Philosopher"*** %21, align 8, !dbg !5265
  %23 = call %"class.dining_phil_prob::Philosopher"** @_ZSt22__uninitialized_copy_aISt13move_iteratorIPPN16dining_phil_prob11PhilosopherEES4_S3_ET0_T_S7_S6_RSaIT1_E(%"class.dining_phil_prob::Philosopher"** %20, %"class.dining_phil_prob::Philosopher"** %22, %"class.dining_phil_prob::Philosopher"** %17, %"class.std::allocator"* dereferenceable(1) %18), !dbg !5265
  ret %"class.dining_phil_prob::Philosopher"** %23, !dbg !5266
}

; Function Attrs: uwtable
define linkonce_odr void @_ZNSt16allocator_traitsISaIPN16dining_phil_prob11PhilosopherEEE7destroyIS2_EEvRS3_PT_(%"class.std::allocator"* dereferenceable(1), %"class.dining_phil_prob::Philosopher"**) #0 comdat align 2 !dbg !5267 {
  %3 = alloca %"class.std::allocator"*, align 8
  %4 = alloca %"class.dining_phil_prob::Philosopher"**, align 8
  store %"class.std::allocator"* %0, %"class.std::allocator"** %3, align 8
  call void @llvm.dbg.declare(metadata %"class.std::allocator"** %3, metadata !5272, metadata !3199), !dbg !5273
  store %"class.dining_phil_prob::Philosopher"** %1, %"class.dining_phil_prob::Philosopher"*** %4, align 8
  call void @llvm.dbg.declare(metadata %"class.dining_phil_prob::Philosopher"*** %4, metadata !5274, metadata !3199), !dbg !5275
  %5 = load %"class.std::allocator"*, %"class.std::allocator"** %3, align 8, !dbg !5276
  %6 = bitcast %"class.std::allocator"* %5 to %"class.__gnu_cxx::new_allocator"*, !dbg !5276
  %7 = load %"class.dining_phil_prob::Philosopher"**, %"class.dining_phil_prob::Philosopher"*** %4, align 8, !dbg !5277
  call void @_ZN9__gnu_cxx13new_allocatorIPN16dining_phil_prob11PhilosopherEE7destroyIS3_EEvPT_(%"class.__gnu_cxx::new_allocator"* %6, %"class.dining_phil_prob::Philosopher"** %7), !dbg !5278
  ret void, !dbg !5279
}

declare void @__cxa_rethrow()

declare void @__cxa_end_catch()

; Function Attrs: nounwind uwtable
define linkonce_odr i64 @_ZNKSt6vectorIPN16dining_phil_prob11PhilosopherESaIS2_EE8max_sizeEv(%"class.std::vector"*) #4 comdat align 2 !dbg !5280 {
  %2 = alloca %"class.std::vector"*, align 8
  store %"class.std::vector"* %0, %"class.std::vector"** %2, align 8
  call void @llvm.dbg.declare(metadata %"class.std::vector"** %2, metadata !5281, metadata !3199), !dbg !5282
  %3 = load %"class.std::vector"*, %"class.std::vector"** %2, align 8
  %4 = bitcast %"class.std::vector"* %3 to %"struct.std::_Vector_base"*, !dbg !5283
  %5 = call dereferenceable(1) %"class.std::allocator"* @_ZNKSt12_Vector_baseIPN16dining_phil_prob11PhilosopherESaIS2_EE19_M_get_Tp_allocatorEv(%"struct.std::_Vector_base"* %4) #3, !dbg !5283
  %6 = call i64 @_ZNSt16allocator_traitsISaIPN16dining_phil_prob11PhilosopherEEE8max_sizeERKS3_(%"class.std::allocator"* dereferenceable(1) %5) #3, !dbg !5284
  ret i64 %6, !dbg !5286
}

; Function Attrs: noreturn
declare void @_ZSt20__throw_length_errorPKc(i8*) #14

; Function Attrs: inlinehint nounwind uwtable
define linkonce_odr dereferenceable(8) i64* @_ZSt3maxImERKT_S2_S2_(i64* dereferenceable(8), i64* dereferenceable(8)) #9 comdat !dbg !5287 {
  %3 = alloca i64*, align 8
  %4 = alloca i64*, align 8
  %5 = alloca i64*, align 8
  store i64* %0, i64** %4, align 8
  call void @llvm.dbg.declare(metadata i64** %4, metadata !5295, metadata !3199), !dbg !5296
  store i64* %1, i64** %5, align 8
  call void @llvm.dbg.declare(metadata i64** %5, metadata !5297, metadata !3199), !dbg !5298
  %6 = load i64*, i64** %4, align 8, !dbg !5299
  %7 = load i64, i64* %6, align 8, !dbg !5299
  %8 = load i64*, i64** %5, align 8, !dbg !5301
  %9 = load i64, i64* %8, align 8, !dbg !5301
  %10 = icmp ult i64 %7, %9, !dbg !5302
  br i1 %10, label %11, label %13, !dbg !5303

; <label>:11:                                     ; preds = %2
  %12 = load i64*, i64** %5, align 8, !dbg !5304
