; ModuleID = '/home/sreeram/Dev/mastersthesis/userspace_implementation_thesis_ver/MemoryCheck/build/gen/file_system.bc'
source_filename = "/home/sreeram/Dev/mastersthesis/userspace_implementation_thesis_ver/MemoryCheck/src/Benchmark/file_system.cpp"
target datalayout = "e-m:e-i64:64-f80:128-n8:16:32:64-S128"
target triple = "x86_64-pc-linux-gnu"

%"class.std::ios_base::Init" = type { i8 }
%"struct.boost::none_t" = type { i8 }
%"class.boost::detail::make_property_map_from_arg_pack_gen" = type { i32 }
%union.pthread_mutex_t = type { %"struct.(anonymous union)::__pthread_mutex_s" }
%"struct.(anonymous union)::__pthread_mutex_s" = type { i32, i32, i32, i32, i32, i16, i16, %struct.__pthread_internal_list }
%struct.__pthread_internal_list = type { %struct.__pthread_internal_list*, %struct.__pthread_internal_list* }
%"class.std::basic_ostream" = type { i32 (...)**, %"class.std::basic_ios" }
%"class.std::basic_ios" = type { %"class.std::ios_base", %"class.std::basic_ostream"*, i8, i8, %"class.std::basic_streambuf"*, %"class.std::ctype"*, %"class.std::num_put"*, %"class.std::num_get"* }
%"class.std::ios_base" = type { i32 (...)**, i64, i64, i32, i32, i32, %"struct.std::ios_base::_Callback_list"*, %"struct.std::ios_base::_Words", [8 x %"struct.std::ios_base::_Words"], i32, %"struct.std::ios_base::_Words"*, %"class.std::locale" }
%"struct.std::ios_base::_Callback_list" = type { %"struct.std::ios_base::_Callback_list"*, void (i32, %"class.std::ios_base"*, i32)*, i32, i32 }
%"struct.std::ios_base::_Words" = type { i8*, i64 }
%"class.std::locale" = type { %"class.std::locale::_Impl"* }
%"class.std::locale::_Impl" = type { i32, %"class.std::locale::facet"**, i64, %"class.std::locale::facet"**, i8** }
%"class.std::locale::facet" = type <{ i32 (...)**, i32, [4 x i8] }>
%"class.std::basic_streambuf" = type { i32 (...)**, i8*, i8*, i8*, i8*, i8*, i8*, %"class.std::locale" }
%"class.std::ctype" = type <{ %"class.std::locale::facet.base", [4 x i8], %struct.__locale_struct*, i8, [7 x i8], i32*, i32*, i16*, i8, [256 x i8], [256 x i8], i8, [6 x i8] }>
%"class.std::locale::facet.base" = type <{ i32 (...)**, i32 }>
%struct.__locale_struct = type { [13 x %struct.__locale_data*], i16*, i32*, i32*, [13 x i8*] }
%struct.__locale_data = type opaque
%"class.std::num_put" = type { %"class.std::locale::facet.base", [4 x i8] }
%"class.std::num_get" = type { %"class.std::locale::facet.base", [4 x i8] }
%"struct.boost::none_t::init_tag" = type { i8 }
%"class.file_system::WorkUnit" = type { i32, i32, %class.IrsThread }
%class.IrsThread = type <{ %"class.std::thread", i32, [4 x i8] }>
%"class.std::thread" = type { %"class.std::thread::id" }
%"class.std::thread::id" = type { i64 }
%"class.std::vector" = type { %"struct.std::_Vector_base" }
%"struct.std::_Vector_base" = type { %"struct.std::_Vector_base<file_system::WorkUnit *, std::allocator<file_system::WorkUnit *> >::_Vector_impl" }
%"struct.std::_Vector_base<file_system::WorkUnit *, std::allocator<file_system::WorkUnit *> >::_Vector_impl" = type { %"class.file_system::WorkUnit"**, %"class.file_system::WorkUnit"**, %"class.file_system::WorkUnit"** }
%"struct.std::chrono::time_point" = type { %"struct.std::chrono::duration" }
%"struct.std::chrono::duration" = type { i64 }
%"class.__gnu_cxx::__normal_iterator" = type { %"class.file_system::WorkUnit"** }
%"struct.std::chrono::duration.0" = type { i64 }
%"class.std::allocator" = type { i8 }
%"class.std::mutex" = type { %"class.std::__mutex_base" }
%"class.std::__mutex_base" = type { %union.pthread_mutex_t }
%"class.std::unique_ptr" = type { %"class.std::tuple" }
%"class.std::tuple" = type { %"struct.std::_Tuple_impl" }
%"struct.std::_Tuple_impl" = type { %"struct.std::_Head_base.2" }
%"struct.std::_Head_base.2" = type { %"struct.std::thread::_State"* }
%"struct.std::thread::_State" = type { i32 (...)** }
%"struct.std::_Bind_simple" = type { %"class.std::tuple.3" }
%"class.std::tuple.3" = type { %"struct.std::_Tuple_impl.4" }
%"struct.std::_Tuple_impl.4" = type { %"struct.std::_Tuple_impl.5", %"struct.std::_Head_base.7" }
%"struct.std::_Tuple_impl.5" = type { %"struct.std::_Head_base.6" }
%"struct.std::_Head_base.6" = type { %"class.file_system::WorkUnit"* }
%"struct.std::_Head_base.7" = type { %"struct.std::_Mem_fn" }
%"struct.std::_Mem_fn" = type { %"class.std::_Mem_fn_base" }
%"class.std::_Mem_fn_base" = type { { i64, i64 } }
%union.pthread_attr_t = type { i64, [48 x i8] }
%"struct.std::thread::_State_impl" = type { %"struct.std::thread::_State", %"struct.std::_Bind_simple" }
%"struct.std::default_delete" = type { i8 }
%"struct.std::_Index_tuple" = type { i8 }
%"struct.std::__invoke_memfun_deref" = type { i8 }
%"struct.std::_Tuple_impl.1" = type { i8 }
%"struct.std::_Head_base" = type { i8 }
%"struct.std::_Maybe_unary_or_binary_function" = type { i8 }
%"class.__gnu_cxx::new_allocator" = type { i8 }
%"class.std::move_iterator" = type { %"class.file_system::WorkUnit"** }

$_ZN5boost6none_tC2ENS0_8init_tagE = comdat any

$_ZN5boost6detail35make_property_map_from_arg_pack_genINS_5graph8keywords3tag9color_mapENS_18default_color_typeEEC2ES6_ = comdat any

$_ZN11file_system8WorkUnit11getThreadIdEv = comdat any

$_ZNK9IrsThread6getTidEv = comdat any

$_ZNSt6vectorIPN11file_system8WorkUnitESaIS2_EEC2Ev = comdat any

$_ZNSt6vectorIPN11file_system8WorkUnitESaIS2_EE9push_backEOS2_ = comdat any

$_ZN11file_system8WorkUnitC2Ei = comdat any

$_ZNSt6vectorIPN11file_system8WorkUnitESaIS2_EE5beginEv = comdat any

$_ZNSt6vectorIPN11file_system8WorkUnitESaIS2_EE3endEv = comdat any

$_ZN9__gnu_cxxneIPPN11file_system8WorkUnitESt6vectorIS3_SaIS3_EEEEbRKNS_17__normal_iteratorIT_T0_EESD_ = comdat any

$_ZNK9__gnu_cxx17__normal_iteratorIPPN11file_system8WorkUnitESt6vectorIS3_SaIS3_EEEdeEv = comdat any

$_ZN11file_system8WorkUnit5startEv = comdat any

$_ZN9__gnu_cxx17__normal_iteratorIPPN11file_system8WorkUnitESt6vectorIS3_SaIS3_EEEppEv = comdat any

$_ZN11file_system8WorkUnit4joinEv = comdat any

$_ZN11file_system8WorkUnitD2Ev = comdat any

$_ZNSt6chrono13duration_castINS_8durationIlSt5ratioILl1ELl1000000EEEElS2_ILl1ELl1000000000EEEENSt9enable_ifIXsr13__is_durationIT_EE5valueES7_E4typeERKNS1_IT0_T1_EE = comdat any

$_ZNSt6chronomiINS_3_V212system_clockENS_8durationIlSt5ratioILl1ELl1000000000EEEES6_EENSt11common_typeIJT0_T1_EE4typeERKNS_10time_pointIT_S8_EERKNSC_ISD_S9_EE = comdat any

$_ZNKSt6chrono8durationIlSt5ratioILl1ELl1000000EEE5countEv = comdat any

$_ZNSt6vectorIPN11file_system8WorkUnitESaIS2_EED2Ev = comdat any

$_ZN9IrsThreadC2Ei = comdat any

$_ZNSt6threadC2Ev = comdat any

$_ZNSt6thread2idC2Ev = comdat any

$_ZN9IrsThreadclIJMN11file_system8WorkUnitEFvvEPS2_EEEvDpOT_ = comdat any

$_ZN11file_system8WorkUnit4execEv = comdat any

$_ZNSt6threadaSEOS_ = comdat any

$_ZSt7forwardIMN11file_system8WorkUnitEFvvEEOT_RNSt16remove_referenceIS4_E4typeE = comdat any

$_ZSt7forwardIPN11file_system8WorkUnitEEOT_RNSt16remove_referenceIS3_E4typeE = comdat any

$_ZNSt6threadC2IMN11file_system8WorkUnitEFvvEJPS2_EEEOT_DpOT0_ = comdat any

$_ZNSt6threadD2Ev = comdat any

$_ZNKSt6thread8joinableEv = comdat any

$_ZNSt6thread4swapERS_ = comdat any

$_ZSteqNSt6thread2idES0_ = comdat any

$_ZSt4swapINSt6thread2idEENSt9enable_ifIXsr6__and_ISt21is_move_constructibleIT_ESt18is_move_assignableIS4_EEE5valueEvE4typeERS4_SA_ = comdat any

$_ZSt4moveIRNSt6thread2idEEONSt16remove_referenceIT_E4typeEOS4_ = comdat any

$_ZNSt6thread13_S_make_stateISt12_Bind_simpleIFSt7_Mem_fnIMN11file_system8WorkUnitEFvvEEPS4_EEEESt10unique_ptrINS_6_StateESt14default_deleteISC_EEOT_ = comdat any

$_ZSt13__bind_simpleIMN11file_system8WorkUnitEFvvEJPS1_EENSt19_Bind_simple_helperIT_JDpT0_EE6__typeEOS6_DpOS7_ = comdat any

$_ZNSt10unique_ptrINSt6thread6_StateESt14default_deleteIS1_EED2Ev = comdat any

$_ZSt7forwardISt12_Bind_simpleIFSt7_Mem_fnIMN11file_system8WorkUnitEFvvEEPS3_EEEOT_RNSt16remove_referenceISA_E4typeE = comdat any

$_ZNSt6thread11_State_implISt12_Bind_simpleIFSt7_Mem_fnIMN11file_system8WorkUnitEFvvEEPS4_EEEC2EOSA_ = comdat any

$_ZNSt10unique_ptrINSt6thread6_StateESt14default_deleteIS1_EEC2EPS1_ = comdat any

$_ZNSt6thread6_StateC2Ev = comdat any

$_ZNSt12_Bind_simpleIFSt7_Mem_fnIMN11file_system8WorkUnitEFvvEEPS2_EEC2EOS8_ = comdat any

$_ZNSt6thread11_State_implISt12_Bind_simpleIFSt7_Mem_fnIMN11file_system8WorkUnitEFvvEEPS4_EEED2Ev = comdat any

$_ZNSt6thread11_State_implISt12_Bind_simpleIFSt7_Mem_fnIMN11file_system8WorkUnitEFvvEEPS4_EEED0Ev = comdat any

$_ZNSt6thread11_State_implISt12_Bind_simpleIFSt7_Mem_fnIMN11file_system8WorkUnitEFvvEEPS4_EEE6_M_runEv = comdat any

$_ZNSt5tupleIJSt7_Mem_fnIMN11file_system8WorkUnitEFvvEEPS2_EEC2EOS7_ = comdat any

$_ZNSt11_Tuple_implILm0EJSt7_Mem_fnIMN11file_system8WorkUnitEFvvEEPS2_EEC2EOS7_ = comdat any

$_ZSt4moveIRSt11_Tuple_implILm1EJPN11file_system8WorkUnitEEEEONSt16remove_referenceIT_E4typeEOS7_ = comdat any

$_ZNSt11_Tuple_implILm0EJSt7_Mem_fnIMN11file_system8WorkUnitEFvvEEPS2_EE7_M_tailERS7_ = comdat any

$_ZNSt11_Tuple_implILm1EJPN11file_system8WorkUnitEEEC2EOS3_ = comdat any

$_ZSt7forwardISt7_Mem_fnIMN11file_system8WorkUnitEFvvEEEOT_RNSt16remove_referenceIS6_E4typeE = comdat any

$_ZNSt11_Tuple_implILm0EJSt7_Mem_fnIMN11file_system8WorkUnitEFvvEEPS2_EE7_M_headERS7_ = comdat any

$_ZNSt10_Head_baseILm0ESt7_Mem_fnIMN11file_system8WorkUnitEFvvEELb0EEC2IS5_EEOT_ = comdat any

$__clang_call_terminate = comdat any

$_ZNSt11_Tuple_implILm1EJPN11file_system8WorkUnitEEE7_M_headERS3_ = comdat any

$_ZNSt10_Head_baseILm1EPN11file_system8WorkUnitELb0EEC2IS2_EEOT_ = comdat any

$_ZNSt10_Head_baseILm1EPN11file_system8WorkUnitELb0EE7_M_headERS3_ = comdat any

$_ZNSt10_Head_baseILm0ESt7_Mem_fnIMN11file_system8WorkUnitEFvvEELb0EE7_M_headERS6_ = comdat any

$_ZNSt12_Bind_simpleIFSt7_Mem_fnIMN11file_system8WorkUnitEFvvEEPS2_EEclEv = comdat any

$_ZNSt12_Bind_simpleIFSt7_Mem_fnIMN11file_system8WorkUnitEFvvEEPS2_EE9_M_invokeIJLm0EEEEvSt12_Index_tupleIJXspT_EEE = comdat any

$_ZSt3getILm0EJSt7_Mem_fnIMN11file_system8WorkUnitEFvvEEPS2_EERNSt13tuple_elementIXT_ESt5tupleIJDpT0_EEE4typeERSB_ = comdat any

$_ZNKSt12_Mem_fn_baseIMN11file_system8WorkUnitEFvvELb1EEclIJPS1_EEEDTclsr3stdE8__invokedtdefpT6_M_pmfspclsr3stdE7forwardIT_Efp_EEEDpOS7_ = comdat any

$_ZSt3getILm1EJSt7_Mem_fnIMN11file_system8WorkUnitEFvvEEPS2_EERNSt13tuple_elementIXT_ESt5tupleIJDpT0_EEE4typeERSB_ = comdat any

$_ZSt12__get_helperILm0ESt7_Mem_fnIMN11file_system8WorkUnitEFvvEEJPS2_EERT0_RSt11_Tuple_implIXT_EJS7_DpT1_EE = comdat any

$_ZSt8__invokeIRKMN11file_system8WorkUnitEFvvEJPS1_EENSt9result_ofIFOT_DpOT0_EE4typeES9_SC_ = comdat any

$_ZSt13__invoke_implIvRKMN11file_system8WorkUnitEFvvEPS1_JEET_St21__invoke_memfun_derefOT0_OT1_DpOT2_ = comdat any

$_ZSt7forwardIRKMN11file_system8WorkUnitEFvvEEOT_RNSt16remove_referenceIS6_E4typeE = comdat any

$_ZSt12__get_helperILm1EPN11file_system8WorkUnitEJEERT0_RSt11_Tuple_implIXT_EJS3_DpT1_EE = comdat any

$_ZNSt5tupleIJPNSt6thread6_StateESt14default_deleteIS1_EEEC2IS2_S4_Lb1EEEv = comdat any

$_ZSt3getILm0EJPNSt6thread6_StateESt14default_deleteIS1_EEERNSt13tuple_elementIXT_ESt5tupleIJDpT0_EEE4typeERS9_ = comdat any

$_ZNSt11_Tuple_implILm0EJPNSt6thread6_StateESt14default_deleteIS1_EEEC2Ev = comdat any

$_ZNSt11_Tuple_implILm1EJSt14default_deleteINSt6thread6_StateEEEEC2Ev = comdat any

$_ZNSt10_Head_baseILm0EPNSt6thread6_StateELb0EEC2Ev = comdat any

$_ZNSt10_Head_baseILm1ESt14default_deleteINSt6thread6_StateEELb1EEC2Ev = comdat any

$_ZSt12__get_helperILm0EPNSt6thread6_StateEJSt14default_deleteIS1_EEERT0_RSt11_Tuple_implIXT_EJS5_DpT1_EE = comdat any

$_ZNSt11_Tuple_implILm0EJPNSt6thread6_StateESt14default_deleteIS1_EEE7_M_headERS5_ = comdat any

$_ZNSt10_Head_baseILm0EPNSt6thread6_StateELb0EE7_M_headERS3_ = comdat any

$_ZNSt26_Maybe_wrap_member_pointerIMN11file_system8WorkUnitEFvvEE9__do_wrapES3_ = comdat any

$_ZNSt12_Bind_simpleIFSt7_Mem_fnIMN11file_system8WorkUnitEFvvEEPS2_EEC2IS5_JS6_EEEOT_DpOT0_ = comdat any

$_ZNSt7_Mem_fnIMN11file_system8WorkUnitEFvvEECI2St12_Mem_fn_baseIS3_Lb1EEES3_ = comdat any

$_ZNSt12_Mem_fn_baseIMN11file_system8WorkUnitEFvvELb1EEC2ES3_ = comdat any

$_ZNSt5tupleIJSt7_Mem_fnIMN11file_system8WorkUnitEFvvEEPS2_EEC2IS5_S6_Lb1EEEOT_OT0_ = comdat any

$_ZNSt11_Tuple_implILm0EJSt7_Mem_fnIMN11file_system8WorkUnitEFvvEEPS2_EEC2IS5_JS6_EvEEOT_DpOT0_ = comdat any

$_ZNSt11_Tuple_implILm1EJPN11file_system8WorkUnitEEEC2IS2_EEOT_ = comdat any

$_ZNSt10unique_ptrINSt6thread6_StateESt14default_deleteIS1_EE11get_deleterEv = comdat any

$_ZNKSt14default_deleteINSt6thread6_StateEEclEPS1_ = comdat any

$_ZSt3getILm1EJPNSt6thread6_StateESt14default_deleteIS1_EEERNSt13tuple_elementIXT_ESt5tupleIJDpT0_EEE4typeERS9_ = comdat any

$_ZSt12__get_helperILm1ESt14default_deleteINSt6thread6_StateEEJEERT0_RSt11_Tuple_implIXT_EJS4_DpT1_EE = comdat any

$_ZNSt11_Tuple_implILm1EJSt14default_deleteINSt6thread6_StateEEEE7_M_headERS4_ = comdat any

$_ZNSt10_Head_baseILm1ESt14default_deleteINSt6thread6_StateEELb1EE7_M_headERS4_ = comdat any

$_ZNSt5mutex4lockEv = comdat any

$_ZNSt5mutex6unlockEv = comdat any

$_ZN9IrsThread4joinEv = comdat any

$_ZN9IrsThreadD2Ev = comdat any

$_ZNSt6chrono20__duration_cast_implINS_8durationIlSt5ratioILl1ELl1000000EEEES2_ILl1ELl1000EElLb1ELb0EE6__castIlS2_ILl1ELl1000000000EEEES4_RKNS1_IT_T0_EE = comdat any

$_ZNKSt6chrono8durationIlSt5ratioILl1ELl1000000000EEE5countEv = comdat any

$_ZNSt6chrono8durationIlSt5ratioILl1ELl1000000EEEC2IlvEERKT_ = comdat any

$_ZNSt6chronomiIlSt5ratioILl1ELl1000000000EElS2_EENSt11common_typeIJNS_8durationIT_T0_EENS4_IT1_T2_EEEE4typeERKS7_RKSA_ = comdat any

$_ZNKSt6chrono10time_pointINS_3_V212system_clockENS_8durationIlSt5ratioILl1ELl1000000000EEEEE16time_since_epochEv = comdat any

$_ZNSt6chrono8durationIlSt5ratioILl1ELl1000000000EEEC2IlvEERKT_ = comdat any

$_ZNSt12_Vector_baseIPN11file_system8WorkUnitESaIS2_EEC2Ev = comdat any

$_ZNSt12_Vector_baseIPN11file_system8WorkUnitESaIS2_EE12_Vector_implC2Ev = comdat any

$_ZNSaIPN11file_system8WorkUnitEEC2Ev = comdat any

$_ZN9__gnu_cxx13new_allocatorIPN11file_system8WorkUnitEEC2Ev = comdat any

$_ZSt8_DestroyIPPN11file_system8WorkUnitES2_EvT_S4_RSaIT0_E = comdat any

$_ZNSt12_Vector_baseIPN11file_system8WorkUnitESaIS2_EE19_M_get_Tp_allocatorEv = comdat any

$_ZNSt12_Vector_baseIPN11file_system8WorkUnitESaIS2_EED2Ev = comdat any

$_ZSt8_DestroyIPPN11file_system8WorkUnitEEvT_S4_ = comdat any

$_ZNSt12_Destroy_auxILb1EE9__destroyIPPN11file_system8WorkUnitEEEvT_S6_ = comdat any

$_ZNSt12_Vector_baseIPN11file_system8WorkUnitESaIS2_EE13_M_deallocateEPS2_m = comdat any

$_ZNSt12_Vector_baseIPN11file_system8WorkUnitESaIS2_EE12_Vector_implD2Ev = comdat any

$_ZNSt16allocator_traitsISaIPN11file_system8WorkUnitEEE10deallocateERS3_PS2_m = comdat any

$_ZN9__gnu_cxx13new_allocatorIPN11file_system8WorkUnitEE10deallocateEPS3_m = comdat any

$_ZNSaIPN11file_system8WorkUnitEED2Ev = comdat any

$_ZN9__gnu_cxx13new_allocatorIPN11file_system8WorkUnitEED2Ev = comdat any

$_ZNSt6vectorIPN11file_system8WorkUnitESaIS2_EE12emplace_backIJS2_EEEvDpOT_ = comdat any

$_ZSt4moveIRPN11file_system8WorkUnitEEONSt16remove_referenceIT_E4typeEOS5_ = comdat any

$_ZNSt16allocator_traitsISaIPN11file_system8WorkUnitEEE9constructIS2_JS2_EEEvRS3_PT_DpOT0_ = comdat any

$_ZNSt6vectorIPN11file_system8WorkUnitESaIS2_EE19_M_emplace_back_auxIJS2_EEEvDpOT_ = comdat any

$_ZN9__gnu_cxx13new_allocatorIPN11file_system8WorkUnitEE9constructIS3_JS3_EEEvPT_DpOT0_ = comdat any

$_ZNKSt6vectorIPN11file_system8WorkUnitESaIS2_EE12_M_check_lenEmPKc = comdat any

$_ZNSt12_Vector_baseIPN11file_system8WorkUnitESaIS2_EE11_M_allocateEm = comdat any

$_ZNKSt6vectorIPN11file_system8WorkUnitESaIS2_EE4sizeEv = comdat any

$_ZSt34__uninitialized_move_if_noexcept_aIPPN11file_system8WorkUnitES3_SaIS2_EET0_T_S6_S5_RT1_ = comdat any

$_ZNSt16allocator_traitsISaIPN11file_system8WorkUnitEEE7destroyIS2_EEvRS3_PT_ = comdat any

$_ZNKSt6vectorIPN11file_system8WorkUnitESaIS2_EE8max_sizeEv = comdat any

$_ZSt3maxImERKT_S2_S2_ = comdat any

$_ZNSt16allocator_traitsISaIPN11file_system8WorkUnitEEE8max_sizeERKS3_ = comdat any

$_ZNKSt12_Vector_baseIPN11file_system8WorkUnitESaIS2_EE19_M_get_Tp_allocatorEv = comdat any

$_ZNK9__gnu_cxx13new_allocatorIPN11file_system8WorkUnitEE8max_sizeEv = comdat any

$_ZNSt16allocator_traitsISaIPN11file_system8WorkUnitEEE8allocateERS3_m = comdat any

$_ZN9__gnu_cxx13new_allocatorIPN11file_system8WorkUnitEE8allocateEmPKv = comdat any

$_ZSt22__uninitialized_copy_aISt13move_iteratorIPPN11file_system8WorkUnitEES4_S3_ET0_T_S7_S6_RSaIT1_E = comdat any

$_ZSt32__make_move_if_noexcept_iteratorIPN11file_system8WorkUnitESt13move_iteratorIPS2_EET0_PT_ = comdat any

$_ZSt18uninitialized_copyISt13move_iteratorIPPN11file_system8WorkUnitEES4_ET0_T_S7_S6_ = comdat any

$_ZNSt20__uninitialized_copyILb1EE13__uninit_copyISt13move_iteratorIPPN11file_system8WorkUnitEES6_EET0_T_S9_S8_ = comdat any

$_ZSt4copyISt13move_iteratorIPPN11file_system8WorkUnitEES4_ET0_T_S7_S6_ = comdat any

$_ZSt14__copy_move_a2ILb1EPPN11file_system8WorkUnitES3_ET1_T0_S5_S4_ = comdat any

$_ZSt12__miter_baseIPPN11file_system8WorkUnitEEDTcl12__miter_basecldtfp_4baseEEESt13move_iteratorIT_E = comdat any

$_ZSt13__copy_move_aILb1EPPN11file_system8WorkUnitES3_ET1_T0_S5_S4_ = comdat any

$_ZSt12__niter_baseIPPN11file_system8WorkUnitEET_S4_ = comdat any

$_ZNSt11__copy_moveILb1ELb1ESt26random_access_iterator_tagE8__copy_mIPN11file_system8WorkUnitEEEPT_PKS6_S9_S7_ = comdat any

$_ZSt12__miter_baseIPPN11file_system8WorkUnitEET_S4_ = comdat any

$_ZNKSt13move_iteratorIPPN11file_system8WorkUnitEE4baseEv = comdat any

$_ZNSt13move_iteratorIPPN11file_system8WorkUnitEEC2ES3_ = comdat any

$_ZN9__gnu_cxx13new_allocatorIPN11file_system8WorkUnitEE7destroyIS3_EEvPT_ = comdat any

$_ZN9__gnu_cxx17__normal_iteratorIPPN11file_system8WorkUnitESt6vectorIS3_SaIS3_EEEC2ERKS4_ = comdat any

$_ZNK9__gnu_cxx17__normal_iteratorIPPN11file_system8WorkUnitESt6vectorIS3_SaIS3_EEE4baseEv = comdat any

$_ZTVNSt6thread11_State_implISt12_Bind_simpleIFSt7_Mem_fnIMN11file_system8WorkUnitEFvvEEPS4_EEEE = comdat any

$_ZTSNSt6thread11_State_implISt12_Bind_simpleIFSt7_Mem_fnIMN11file_system8WorkUnitEFvvEEPS4_EEEE = comdat any

$_ZTINSt6thread11_State_implISt12_Bind_simpleIFSt7_Mem_fnIMN11file_system8WorkUnitEFvvEEPS4_EEEE = comdat any

@_ZStL8__ioinit = internal global %"class.std::ios_base::Init" zeroinitializer, align 1
@__dso_handle = external global i8
@_ZN5boostL4noneE = internal global %"struct.boost::none_t" zeroinitializer, align 1
@_ZN5boost6detailL28make_color_map_from_arg_packE = internal global %"class.boost::detail::make_property_map_from_arg_pack_gen" zeroinitializer, align 4
@.str = private unnamed_addr constant [15 x i8] c"after_callback\00", section "llvm.metadata"
@.str.3 = private unnamed_addr constant [130 x i8] c"/home/sreeram/Dev/mastersthesis/userspace_implementation_thesis_ver/MemoryCheck/src/Benchmark/../../include/Benchmark/benchmark.h\00", section "llvm.metadata"
@.str.4 = private unnamed_addr constant [16 x i8] c"before_callback\00", section "llvm.metadata"
@_ZN11file_system11threadCountE = global i32 0, align 4
@_ZN11file_system12THREAD_COUNTE = constant i32 4, align 4
@_ZN11file_system6gInodeE = global [32 x i32] zeroinitializer, align 16
@.str.5 = private unnamed_addr constant [5 x i8] c"gvar\00", section "llvm.metadata"
@.str.6 = private unnamed_addr constant [110 x i8] c"/home/sreeram/Dev/mastersthesis/userspace_implementation_thesis_ver/MemoryCheck/src/Benchmark/file_system.cpp\00", section "llvm.metadata"
@_ZN11file_system5gBusyE = global [26 x i8] zeroinitializer, align 16
@_ZN11file_system5lockiE = global [32 x { %union.pthread_mutex_t }] zeroinitializer, align 16
@_ZN11file_system5lockbE = global [26 x { %union.pthread_mutex_t }] zeroinitializer, align 16
@.str.7 = private unnamed_addr constant [5 x i8] c"ignr\00", section "llvm.metadata"
@_ZSt4cout = external global %"class.std::basic_ostream", align 8
@_ZTVNSt6thread11_State_implISt12_Bind_simpleIFSt7_Mem_fnIMN11file_system8WorkUnitEFvvEEPS4_EEEE = linkonce_odr unnamed_addr constant [5 x i8*] [i8* null, i8* bitcast ({ i8*, i8*, i8* }* @_ZTINSt6thread11_State_implISt12_Bind_simpleIFSt7_Mem_fnIMN11file_system8WorkUnitEFvvEEPS4_EEEE to i8*), i8* bitcast (void (%"struct.std::thread::_State_impl"*)* @_ZNSt6thread11_State_implISt12_Bind_simpleIFSt7_Mem_fnIMN11file_system8WorkUnitEFvvEEPS4_EEED2Ev to i8*), i8* bitcast (void (%"struct.std::thread::_State_impl"*)* @_ZNSt6thread11_State_implISt12_Bind_simpleIFSt7_Mem_fnIMN11file_system8WorkUnitEFvvEEPS4_EEED0Ev to i8*), i8* bitcast (void (%"struct.std::thread::_State_impl"*)* @_ZNSt6thread11_State_implISt12_Bind_simpleIFSt7_Mem_fnIMN11file_system8WorkUnitEFvvEEPS4_EEE6_M_runEv to i8*)], comdat, align 8
@_ZTVN10__cxxabiv120__si_class_type_infoE = external global i8*
@_ZTSNSt6thread11_State_implISt12_Bind_simpleIFSt7_Mem_fnIMN11file_system8WorkUnitEFvvEEPS4_EEEE = linkonce_odr constant [92 x i8] c"NSt6thread11_State_implISt12_Bind_simpleIFSt7_Mem_fnIMN11file_system8WorkUnitEFvvEEPS4_EEEE\00", comdat
@_ZTINSt6thread6_StateE = external constant i8*
@_ZTINSt6thread11_State_implISt12_Bind_simpleIFSt7_Mem_fnIMN11file_system8WorkUnitEFvvEEPS4_EEEE = linkonce_odr constant { i8*, i8*, i8* } { i8* bitcast (i8** getelementptr inbounds (i8*, i8** @_ZTVN10__cxxabiv120__si_class_type_infoE, i64 2) to i8*), i8* getelementptr inbounds ([92 x i8], [92 x i8]* @_ZTSNSt6thread11_State_implISt12_Bind_simpleIFSt7_Mem_fnIMN11file_system8WorkUnitEFvvEEPS4_EEEE, i32 0, i32 0), i8* bitcast (i8** @_ZTINSt6thread6_StateE to i8*) }, comdat
@_ZTVNSt6thread6_StateE = external unnamed_addr constant [5 x i8*]
@_ZZL18__gthread_active_pvE20__gthread_active_ptr = internal constant i8* bitcast (i32 (i32*, void (i8*)*)* @__pthread_key_create to i8*), align 8
@.str.8 = private unnamed_addr constant [28 x i8] c"vector::_M_emplace_back_aux\00", align 1
@llvm.global_ctors = appending global [1 x { i32, void ()*, i8* }] [{ i32, void ()*, i8* } { i32 65535, void ()* @_GLOBAL__sub_I_file_system.cpp, i8* null }]
@llvm.global.annotations = appending global [8 x { i8*, i8*, i8*, i32 }] [{ i8*, i8*, i8*, i32 } { i8* bitcast (void (i32)* @_Z9__afterMAi to i8*), i8* getelementptr inbounds ([15 x i8], [15 x i8]* @.str, i32 0, i32 0), i8* getelementptr inbounds ([130 x i8], [130 x i8]* @.str.3, i32 0, i32 0), i32 23 }, { i8*, i8*, i8*, i32 } { i8* bitcast (void (i32, i8*, i64, i32)* @_Z10__beforeMAiPvli to i8*), i8* getelementptr inbounds ([16 x i8], [16 x i8]* @.str.4, i32 0, i32 0), i8* getelementptr inbounds ([130 x i8], [130 x i8]* @.str.3, i32 0, i32 0), i32 26 }, { i8*, i8*, i8*, i32 } { i8* bitcast ([32 x i32]* @_ZN11file_system6gInodeE to i8*), i8* getelementptr inbounds ([5 x i8], [5 x i8]* @.str.5, i32 0, i32 0), i8* getelementptr inbounds ([110 x i8], [110 x i8]* @.str.6, i32 0, i32 0), i32 18 }, { i8*, i8*, i8*, i32 } { i8* getelementptr inbounds ([26 x i8], [26 x i8]* @_ZN11file_system5gBusyE, i32 0, i32 0), i8* getelementptr inbounds ([5 x i8], [5 x i8]* @.str.5, i32 0, i32 0), i8* getelementptr inbounds ([110 x i8], [110 x i8]* @.str.6, i32 0, i32 0), i32 19 }, { i8*, i8*, i8*, i32 } { i8* bitcast ([32 x { %union.pthread_mutex_t }]* @_ZN11file_system5lockiE to i8*), i8* getelementptr inbounds ([5 x i8], [5 x i8]* @.str.5, i32 0, i32 0), i8* getelementptr inbounds ([110 x i8], [110 x i8]* @.str.6, i32 0, i32 0), i32 21 }, { i8*, i8*, i8*, i32 } { i8* bitcast ([26 x { %union.pthread_mutex_t }]* @_ZN11file_system5lockbE to i8*), i8* getelementptr inbounds ([5 x i8], [5 x i8]* @.str.5, i32 0, i32 0), i8* getelementptr inbounds ([110 x i8], [110 x i8]* @.str.6, i32 0, i32 0), i32 22 }, { i8*, i8*, i8*, i32 } { i8* bitcast (void ()* @_ZN11file_system17initializeGlobalsEv to i8*), i8* getelementptr inbounds ([5 x i8], [5 x i8]* @.str.7, i32 0, i32 0), i8* getelementptr inbounds ([110 x i8], [110 x i8]* @.str.6, i32 0, i32 0), i32 63 }, { i8*, i8*, i8*, i32 } { i8* bitcast (void ()* @_ZN11file_system13run_benchmarkEv to i8*), i8* getelementptr inbounds ([5 x i8], [5 x i8]* @.str.7, i32 0, i32 0), i8* getelementptr inbounds ([110 x i8], [110 x i8]* @.str.6, i32 0, i32 0), i32 71 }], section "llvm.metadata"
@llvm.used = appending global [1 x i8*] [i8* bitcast (i32 (%"class.file_system::WorkUnit"*)* @_ZN11file_system8WorkUnit11getThreadIdEv to i8*)], section "llvm.metadata"

; Function Attrs: uwtable
define internal void @__cxx_global_var_init() #0 section ".text.startup" !dbg !3280 {
  call void @_ZNSt8ios_base4InitC1Ev(%"class.std::ios_base::Init"* @_ZStL8__ioinit), !dbg !3281
  %1 = call i32 @__cxa_atexit(void (i8*)* bitcast (void (%"class.std::ios_base::Init"*)* @_ZNSt8ios_base4InitD1Ev to void (i8*)*), i8* getelementptr inbounds (%"class.std::ios_base::Init", %"class.std::ios_base::Init"* @_ZStL8__ioinit, i32 0, i32 0), i8* @__dso_handle) #3, !dbg !3282
  ret void, !dbg !3281
}

declare void @_ZNSt8ios_base4InitC1Ev(%"class.std::ios_base::Init"*) unnamed_addr #1

; Function Attrs: nounwind
declare void @_ZNSt8ios_base4InitD1Ev(%"class.std::ios_base::Init"*) unnamed_addr #2

; Function Attrs: nounwind
declare i32 @__cxa_atexit(void (i8*)*, i8*, i8*) #3

; Function Attrs: uwtable
define internal void @__cxx_global_var_init.1() #0 section ".text.startup" !dbg !3284 {
  %1 = alloca %"struct.boost::none_t::init_tag", align 1
  call void @_ZN5boost6none_tC2ENS0_8init_tagE(%"struct.boost::none_t"* @_ZN5boostL4noneE), !dbg !3285
  ret void, !dbg !3286
}

; Function Attrs: nounwind uwtable
define linkonce_odr void @_ZN5boost6none_tC2ENS0_8init_tagE(%"struct.boost::none_t"*) unnamed_addr #4 comdat align 2 !dbg !3287 {
  %2 = alloca %"struct.boost::none_t::init_tag", align 1
  %3 = alloca %"struct.boost::none_t"*, align 8
  store %"struct.boost::none_t"* %0, %"struct.boost::none_t"** %3, align 8
  call void @llvm.dbg.declare(metadata %"struct.boost::none_t"** %3, metadata !3288, metadata !3290), !dbg !3291
  call void @llvm.dbg.declare(metadata %"struct.boost::none_t::init_tag"* %2, metadata !3292, metadata !3290), !dbg !3293
  %4 = load %"struct.boost::none_t"*, %"struct.boost::none_t"** %3, align 8
  ret void, !dbg !3294
}

; Function Attrs: uwtable
define internal void @__cxx_global_var_init.2() #0 section ".text.startup" !dbg !3295 {
  call void @_ZN5boost6detail35make_property_map_from_arg_pack_genINS_5graph8keywords3tag9color_mapENS_18default_color_typeEEC2ES6_(%"class.boost::detail::make_property_map_from_arg_pack_gen"* @_ZN5boost6detailL28make_color_map_from_arg_packE, i32 0), !dbg !3296
  ret void, !dbg !3297
}

; Function Attrs: nounwind uwtable
define linkonce_odr void @_ZN5boost6detail35make_property_map_from_arg_pack_genINS_5graph8keywords3tag9color_mapENS_18default_color_typeEEC2ES6_(%"class.boost::detail::make_property_map_from_arg_pack_gen"*, i32) unnamed_addr #4 comdat align 2 !dbg !3298 {
  %3 = alloca %"class.boost::detail::make_property_map_from_arg_pack_gen"*, align 8
  %4 = alloca i32, align 4
  store %"class.boost::detail::make_property_map_from_arg_pack_gen"* %0, %"class.boost::detail::make_property_map_from_arg_pack_gen"** %3, align 8
  call void @llvm.dbg.declare(metadata %"class.boost::detail::make_property_map_from_arg_pack_gen"** %3, metadata !3299, metadata !3290), !dbg !3301
  store i32 %1, i32* %4, align 4
  call void @llvm.dbg.declare(metadata i32* %4, metadata !3302, metadata !3290), !dbg !3303
  %5 = load %"class.boost::detail::make_property_map_from_arg_pack_gen"*, %"class.boost::detail::make_property_map_from_arg_pack_gen"** %3, align 8
  %6 = getelementptr inbounds %"class.boost::detail::make_property_map_from_arg_pack_gen", %"class.boost::detail::make_property_map_from_arg_pack_gen"* %5, i32 0, i32 0, !dbg !3304
  %7 = load i32, i32* %4, align 4, !dbg !3305
  store i32 %7, i32* %6, align 4, !dbg !3304
  ret void, !dbg !3306
}

; Function Attrs: uwtable
define void @_Z9__afterMAi(i32) #0 !dbg !3307 {
  %2 = alloca i32, align 4
  store i32 %0, i32* %2, align 4
  call void @llvm.dbg.declare(metadata i32* %2, metadata !3309, metadata !3290), !dbg !3310
  %3 = load i32, i32* %2, align 4, !dbg !3311
  call void @_ZN7Runtime7afterMAEi(i32 %3), !dbg !3312
  ret void, !dbg !3313
}

; Function Attrs: nounwind readnone
declare void @llvm.dbg.declare(metadata, metadata, metadata) #5

declare void @_ZN7Runtime7afterMAEi(i32) #1

; Function Attrs: uwtable
define void @_Z10__beforeMAiPvli(i32, i8*, i64, i32) #0 !dbg !3314 {
  %5 = alloca i32, align 4
  %6 = alloca i8*, align 8
  %7 = alloca i64, align 8
  %8 = alloca i32, align 4
  store i32 %0, i32* %5, align 4
  call void @llvm.dbg.declare(metadata i32* %5, metadata !3317, metadata !3290), !dbg !3318
  store i8* %1, i8** %6, align 8
  call void @llvm.dbg.declare(metadata i8** %6, metadata !3319, metadata !3290), !dbg !3320
  store i64 %2, i64* %7, align 8
  call void @llvm.dbg.declare(metadata i64* %7, metadata !3321, metadata !3290), !dbg !3322
  store i32 %3, i32* %8, align 4
  call void @llvm.dbg.declare(metadata i32* %8, metadata !3323, metadata !3290), !dbg !3324
  %9 = load i32, i32* %5, align 4, !dbg !3325
  %10 = load i8*, i8** %6, align 8, !dbg !3326
  %11 = load i32, i32* %8, align 4, !dbg !3327
  %12 = icmp ne i32 %11, 0, !dbg !3327
  call void @_ZN7Runtime8beforeMAEiPvb(i32 %9, i8* %10, i1 zeroext %12), !dbg !3328
  ret void, !dbg !3329
}

declare void @_ZN7Runtime8beforeMAEiPvb(i32, i8*, i1 zeroext) #1

; Function Attrs: noinline uwtable
define linkonce_odr i32 @_ZN11file_system8WorkUnit11getThreadIdEv(%"class.file_system::WorkUnit"*) #6 comdat align 2 !dbg !3330 {
  %2 = alloca %"class.file_system::WorkUnit"*, align 8
  store %"class.file_system::WorkUnit"* %0, %"class.file_system::WorkUnit"** %2, align 8
  call void @llvm.dbg.declare(metadata %"class.file_system::WorkUnit"** %2, metadata !3331, metadata !3290), !dbg !3332
  %3 = load %"class.file_system::WorkUnit"*, %"class.file_system::WorkUnit"** %2, align 8
  %4 = getelementptr inbounds %"class.file_system::WorkUnit", %"class.file_system::WorkUnit"* %3, i32 0, i32 2, !dbg !3333
  %5 = call i32 @_ZNK9IrsThread6getTidEv(%class.IrsThread* %4), !dbg !3334
  ret i32 %5, !dbg !3335
}

; Function Attrs: nounwind uwtable
define linkonce_odr i32 @_ZNK9IrsThread6getTidEv(%class.IrsThread*) #4 comdat align 2 !dbg !3336 {
  %2 = alloca %class.IrsThread*, align 8
  store %class.IrsThread* %0, %class.IrsThread** %2, align 8
  call void @llvm.dbg.declare(metadata %class.IrsThread** %2, metadata !3337, metadata !3290), !dbg !3339
  %3 = load %class.IrsThread*, %class.IrsThread** %2, align 8
  %4 = getelementptr inbounds %class.IrsThread, %class.IrsThread* %3, i32 0, i32 1, !dbg !3340
  %5 = load i32, i32* %4, align 8, !dbg !3340
  ret i32 %5, !dbg !3341
}

; Function Attrs: nounwind uwtable
define void @_ZN11file_system17initializeGlobalsEv() #4 !dbg !3342 {
  %1 = alloca i32, align 4
  %2 = alloca i32, align 4
  call void @llvm.dbg.declare(metadata i32* %1, metadata !3343, metadata !3290), !dbg !3345
  store i32 0, i32* %1, align 4, !dbg !3345
  br label %3, !dbg !3346

; <label>:3:                                      ; preds = %10, %0
  %4 = load i32, i32* %1, align 4, !dbg !3347
  %5 = icmp slt i32 %4, 32, !dbg !3350
  br i1 %5, label %6, label %13, !dbg !3351

; <label>:6:                                      ; preds = %3
  %7 = load i32, i32* %1, align 4, !dbg !3352
  %8 = sext i32 %7 to i64, !dbg !3353
  %9 = getelementptr inbounds [32 x i32], [32 x i32]* @_ZN11file_system6gInodeE, i64 0, i64 %8, !dbg !3353
  store i32 0, i32* %9, align 4, !dbg !3354
  br label %10, !dbg !3353

; <label>:10:                                     ; preds = %6
  %11 = load i32, i32* %1, align 4, !dbg !3355
  %12 = add nsw i32 %11, 1, !dbg !3355
  store i32 %12, i32* %1, align 4, !dbg !3355
  br label %3, !dbg !3357, !llvm.loop !3358

; <label>:13:                                     ; preds = %3
  call void @llvm.dbg.declare(metadata i32* %2, metadata !3360, metadata !3290), !dbg !3362
  store i32 0, i32* %2, align 4, !dbg !3362
  br label %14, !dbg !3363

; <label>:14:                                     ; preds = %21, %13
  %15 = load i32, i32* %2, align 4, !dbg !3364
  %16 = icmp slt i32 %15, 26, !dbg !3367
  br i1 %16, label %17, label %24, !dbg !3368

; <label>:17:                                     ; preds = %14
  %18 = load i32, i32* %2, align 4, !dbg !3369
  %19 = sext i32 %18 to i64, !dbg !3370
  %20 = getelementptr inbounds [26 x i8], [26 x i8]* @_ZN11file_system5gBusyE, i64 0, i64 %19, !dbg !3370
  store i8 0, i8* %20, align 1, !dbg !3371
  br label %21, !dbg !3370

; <label>:21:                                     ; preds = %17
  %22 = load i32, i32* %2, align 4, !dbg !3372
  %23 = add nsw i32 %22, 1, !dbg !3372
  store i32 %23, i32* %2, align 4, !dbg !3372
  br label %14, !dbg !3374, !llvm.loop !3375

; <label>:24:                                     ; preds = %14
  ret void, !dbg !3377
}

; Function Attrs: uwtable
define void @_ZN11file_system13run_benchmarkEv() #0 personality i8* bitcast (i32 (...)* @__gxx_personality_v0 to i8*) !dbg !3378 {
  %1 = alloca %"class.std::vector", align 8
  %2 = alloca %"struct.std::chrono::time_point", align 8
  %3 = alloca i32, align 4
  %4 = alloca %"class.file_system::WorkUnit"*, align 8
  %5 = alloca i8*
  %6 = alloca i32
  %7 = alloca %"class.std::vector"*, align 8
  %8 = alloca %"class.__gnu_cxx::__normal_iterator", align 8
  %9 = alloca %"class.__gnu_cxx::__normal_iterator", align 8
  %10 = alloca %"class.file_system::WorkUnit"**, align 8
  %11 = alloca %"class.std::vector"*, align 8
  %12 = alloca %"class.__gnu_cxx::__normal_iterator", align 8
  %13 = alloca %"class.__gnu_cxx::__normal_iterator", align 8
  %14 = alloca %"class.file_system::WorkUnit"**, align 8
  %15 = alloca %"struct.std::chrono::time_point", align 8
  %16 = alloca i64, align 8
  %17 = alloca %"struct.std::chrono::duration", align 8
  %18 = alloca %"struct.std::chrono::duration.0", align 8
  call void @_ZN11file_system17initializeGlobalsEv(), !dbg !3379
  call void @llvm.dbg.declare(metadata %"class.std::vector"* %1, metadata !3380, metadata !3290), !dbg !3381
  call void @_ZNSt6vectorIPN11file_system8WorkUnitESaIS2_EEC2Ev(%"class.std::vector"* %1) #3, !dbg !3381
  call void @llvm.dbg.declare(metadata %"struct.std::chrono::time_point"* %2, metadata !3382, metadata !3290), !dbg !3429
  %19 = call i64 @_ZNSt6chrono3_V212system_clock3nowEv() #3, !dbg !3429
  %20 = getelementptr inbounds %"struct.std::chrono::time_point", %"struct.std::chrono::time_point"* %2, i32 0, i32 0, !dbg !3429
  %21 = getelementptr inbounds %"struct.std::chrono::duration", %"struct.std::chrono::duration"* %20, i32 0, i32 0, !dbg !3429
  store i64 %19, i64* %21, align 8, !dbg !3429
  call void @llvm.dbg.declare(metadata i32* %3, metadata !3430, metadata !3290), !dbg !3432
  store i32 0, i32* %3, align 4, !dbg !3432
  br label %22, !dbg !3433

; <label>:22:                                     ; preds = %33, %0
  %23 = load i32, i32* %3, align 4, !dbg !3434
  %24 = load i32, i32* @_ZN11file_system11threadCountE, align 4, !dbg !3437
  %25 = icmp slt i32 %23, %24, !dbg !3438
  br i1 %25, label %26, label %44, !dbg !3439

; <label>:26:                                     ; preds = %22
  %27 = invoke i8* @_Znwm(i64 24) #15
          to label %28 unwind label %36, !dbg !3440

; <label>:28:                                     ; preds = %26
  %29 = bitcast i8* %27 to %"class.file_system::WorkUnit"*, !dbg !3442
  %30 = load i32, i32* %3, align 4, !dbg !3444
  invoke void @_ZN11file_system8WorkUnitC2Ei(%"class.file_system::WorkUnit"* %29, i32 %30)
          to label %31 unwind label %40, !dbg !3445

; <label>:31:                                     ; preds = %28
  store %"class.file_system::WorkUnit"* %29, %"class.file_system::WorkUnit"** %4, align 8, !dbg !3446
  invoke void @_ZNSt6vectorIPN11file_system8WorkUnitESaIS2_EE9push_backEOS2_(%"class.std::vector"* %1, %"class.file_system::WorkUnit"** dereferenceable(8) %4)
          to label %32 unwind label %36, !dbg !3448

; <label>:32:                                     ; preds = %31
  br label %33, !dbg !3449

; <label>:33:                                     ; preds = %32
  %34 = load i32, i32* %3, align 4, !dbg !3450
  %35 = add nsw i32 %34, 1, !dbg !3450
  store i32 %35, i32* %3, align 4, !dbg !3450
  br label %22, !dbg !3452, !llvm.loop !3453

; <label>:36:                                     ; preds = %96, %93, %90, %87, %82, %69, %53, %31, %26
  %37 = landingpad { i8*, i32 }
          cleanup, !dbg !3455
  %38 = extractvalue { i8*, i32 } %37, 0, !dbg !3455
  store i8* %38, i8** %5, align 8, !dbg !3455
  %39 = extractvalue { i8*, i32 } %37, 1, !dbg !3455
  store i32 %39, i32* %6, align 4, !dbg !3455
  br label %99, !dbg !3455

; <label>:40:                                     ; preds = %28
  %41 = landingpad { i8*, i32 }
          cleanup, !dbg !3456
  %42 = extractvalue { i8*, i32 } %41, 0, !dbg !3456
  store i8* %42, i8** %5, align 8, !dbg !3456
  %43 = extractvalue { i8*, i32 } %41, 1, !dbg !3456
  store i32 %43, i32* %6, align 4, !dbg !3456
  call void @_ZdlPv(i8* %27) #16, !dbg !3457
  br label %99, !dbg !3457

; <label>:44:                                     ; preds = %22
  call void @llvm.dbg.declare(metadata %"class.std::vector"** %7, metadata !3459, metadata !3290), !dbg !3461
  store %"class.std::vector"* %1, %"class.std::vector"** %7, align 8, !dbg !3462
  call void @llvm.dbg.declare(metadata %"class.__gnu_cxx::__normal_iterator"* %8, metadata !3463, metadata !3290), !dbg !3461
  %45 = load %"class.std::vector"*, %"class.std::vector"** %7, align 8, !dbg !3464
  %46 = call %"class.file_system::WorkUnit"** @_ZNSt6vectorIPN11file_system8WorkUnitESaIS2_EE5beginEv(%"class.std::vector"* %45) #3, !dbg !3464
  %47 = getelementptr inbounds %"class.__gnu_cxx::__normal_iterator", %"class.__gnu_cxx::__normal_iterator"* %8, i32 0, i32 0, !dbg !3464
  store %"class.file_system::WorkUnit"** %46, %"class.file_system::WorkUnit"*** %47, align 8, !dbg !3464
  call void @llvm.dbg.declare(metadata %"class.__gnu_cxx::__normal_iterator"* %9, metadata !3465, metadata !3290), !dbg !3461
  %48 = load %"class.std::vector"*, %"class.std::vector"** %7, align 8, !dbg !3464
  %49 = call %"class.file_system::WorkUnit"** @_ZNSt6vectorIPN11file_system8WorkUnitESaIS2_EE3endEv(%"class.std::vector"* %48) #3, !dbg !3466
  %50 = getelementptr inbounds %"class.__gnu_cxx::__normal_iterator", %"class.__gnu_cxx::__normal_iterator"* %9, i32 0, i32 0, !dbg !3464
  store %"class.file_system::WorkUnit"** %49, %"class.file_system::WorkUnit"*** %50, align 8, !dbg !3464
  br label %51, !dbg !3464

; <label>:51:                                     ; preds = %58, %44
  %52 = call zeroext i1 @_ZN9__gnu_cxxneIPPN11file_system8WorkUnitESt6vectorIS3_SaIS3_EEEEbRKNS_17__normal_iteratorIT_T0_EESD_(%"class.__gnu_cxx::__normal_iterator"* dereferenceable(8) %8, %"class.__gnu_cxx::__normal_iterator"* dereferenceable(8) %9) #3, !dbg !3468
  br i1 %52, label %53, label %60, !dbg !3468

; <label>:53:                                     ; preds = %51
  call void @llvm.dbg.declare(metadata %"class.file_system::WorkUnit"*** %10, metadata !3470, metadata !3290), !dbg !3472
  %54 = call dereferenceable(8) %"class.file_system::WorkUnit"** @_ZNK9__gnu_cxx17__normal_iteratorIPPN11file_system8WorkUnitESt6vectorIS3_SaIS3_EEEdeEv(%"class.__gnu_cxx::__normal_iterator"* %8) #3, !dbg !3473
  store %"class.file_system::WorkUnit"** %54, %"class.file_system::WorkUnit"*** %10, align 8, !dbg !3475
  %55 = load %"class.file_system::WorkUnit"**, %"class.file_system::WorkUnit"*** %10, align 8, !dbg !3476
  %56 = load %"class.file_system::WorkUnit"*, %"class.file_system::WorkUnit"** %55, align 8, !dbg !3476
  invoke void @_ZN11file_system8WorkUnit5startEv(%"class.file_system::WorkUnit"* %56)
          to label %57 unwind label %36, !dbg !3478

; <label>:57:                                     ; preds = %53
  br label %58, !dbg !3479

; <label>:58:                                     ; preds = %57
  %59 = call dereferenceable(8) %"class.__gnu_cxx::__normal_iterator"* @_ZN9__gnu_cxx17__normal_iteratorIPPN11file_system8WorkUnitESt6vectorIS3_SaIS3_EEEppEv(%"class.__gnu_cxx::__normal_iterator"* %8) #3, !dbg !3481
  br label %51, !dbg !3481, !llvm.loop !3483

; <label>:60:                                     ; preds = %51
  call void @llvm.dbg.declare(metadata %"class.std::vector"** %11, metadata !3485, metadata !3290), !dbg !3487
  store %"class.std::vector"* %1, %"class.std::vector"** %11, align 8, !dbg !3488
  call void @llvm.dbg.declare(metadata %"class.__gnu_cxx::__normal_iterator"* %12, metadata !3489, metadata !3290), !dbg !3487
  %61 = load %"class.std::vector"*, %"class.std::vector"** %11, align 8, !dbg !3490
  %62 = call %"class.file_system::WorkUnit"** @_ZNSt6vectorIPN11file_system8WorkUnitESaIS2_EE5beginEv(%"class.std::vector"* %61) #3, !dbg !3490
  %63 = getelementptr inbounds %"class.__gnu_cxx::__normal_iterator", %"class.__gnu_cxx::__normal_iterator"* %12, i32 0, i32 0, !dbg !3490
  store %"class.file_system::WorkUnit"** %62, %"class.file_system::WorkUnit"*** %63, align 8, !dbg !3490
  call void @llvm.dbg.declare(metadata %"class.__gnu_cxx::__normal_iterator"* %13, metadata !3491, metadata !3290), !dbg !3487
  %64 = load %"class.std::vector"*, %"class.std::vector"** %11, align 8, !dbg !3490
  %65 = call %"class.file_system::WorkUnit"** @_ZNSt6vectorIPN11file_system8WorkUnitESaIS2_EE3endEv(%"class.std::vector"* %64) #3, !dbg !3492
  %66 = getelementptr inbounds %"class.__gnu_cxx::__normal_iterator", %"class.__gnu_cxx::__normal_iterator"* %13, i32 0, i32 0, !dbg !3490
  store %"class.file_system::WorkUnit"** %65, %"class.file_system::WorkUnit"*** %66, align 8, !dbg !3490
  br label %67, !dbg !3490

; <label>:67:                                     ; preds = %80, %60
  %68 = call zeroext i1 @_ZN9__gnu_cxxneIPPN11file_system8WorkUnitESt6vectorIS3_SaIS3_EEEEbRKNS_17__normal_iteratorIT_T0_EESD_(%"class.__gnu_cxx::__normal_iterator"* dereferenceable(8) %12, %"class.__gnu_cxx::__normal_iterator"* dereferenceable(8) %13) #3, !dbg !3494
  br i1 %68, label %69, label %82, !dbg !3494

; <label>:69:                                     ; preds = %67
  call void @llvm.dbg.declare(metadata %"class.file_system::WorkUnit"*** %14, metadata !3496, metadata !3290), !dbg !3498
  %70 = call dereferenceable(8) %"class.file_system::WorkUnit"** @_ZNK9__gnu_cxx17__normal_iteratorIPPN11file_system8WorkUnitESt6vectorIS3_SaIS3_EEEdeEv(%"class.__gnu_cxx::__normal_iterator"* %12) #3, !dbg !3499
  store %"class.file_system::WorkUnit"** %70, %"class.file_system::WorkUnit"*** %14, align 8, !dbg !3501
  %71 = load %"class.file_system::WorkUnit"**, %"class.file_system::WorkUnit"*** %14, align 8, !dbg !3502
  %72 = load %"class.file_system::WorkUnit"*, %"class.file_system::WorkUnit"** %71, align 8, !dbg !3502
  invoke void @_ZN11file_system8WorkUnit4joinEv(%"class.file_system::WorkUnit"* %72)
          to label %73 unwind label %36, !dbg !3504

; <label>:73:                                     ; preds = %69
  %74 = load %"class.file_system::WorkUnit"**, %"class.file_system::WorkUnit"*** %14, align 8, !dbg !3505
  %75 = load %"class.file_system::WorkUnit"*, %"class.file_system::WorkUnit"** %74, align 8, !dbg !3505
  %76 = icmp eq %"class.file_system::WorkUnit"* %75, null, !dbg !3506
  br i1 %76, label %79, label %77, !dbg !3506

; <label>:77:                                     ; preds = %73
  call void @_ZN11file_system8WorkUnitD2Ev(%"class.file_system::WorkUnit"* %75) #3, !dbg !3507
  %78 = bitcast %"class.file_system::WorkUnit"* %75 to i8*, !dbg !3507
  call void @_ZdlPv(i8* %78) #16, !dbg !3509
  br label %79, !dbg !3507

; <label>:79:                                     ; preds = %77, %73
  br label %80, !dbg !3511

; <label>:80:                                     ; preds = %79
  %81 = call dereferenceable(8) %"class.__gnu_cxx::__normal_iterator"* @_ZN9__gnu_cxx17__normal_iteratorIPPN11file_system8WorkUnitESt6vectorIS3_SaIS3_EEEppEv(%"class.__gnu_cxx::__normal_iterator"* %12) #3, !dbg !3513
  br label %67, !dbg !3513, !llvm.loop !3515

; <label>:82:                                     ; preds = %67
  call void @llvm.dbg.declare(metadata %"struct.std::chrono::time_point"* %15, metadata !3517, metadata !3290), !dbg !3518
  %83 = call i64 @_ZNSt6chrono3_V212system_clock3nowEv() #3, !dbg !3518
  %84 = getelementptr inbounds %"struct.std::chrono::time_point", %"struct.std::chrono::time_point"* %15, i32 0, i32 0, !dbg !3518
  %85 = getelementptr inbounds %"struct.std::chrono::duration", %"struct.std::chrono::duration"* %84, i32 0, i32 0, !dbg !3518
  store i64 %83, i64* %85, align 8, !dbg !3518
  call void @llvm.dbg.declare(metadata i64* %16, metadata !3519, metadata !3290), !dbg !3518
  %86 = invoke i64 @_ZNSt6chronomiINS_3_V212system_clockENS_8durationIlSt5ratioILl1ELl1000000000EEEES6_EENSt11common_typeIJT0_T1_EE4typeERKNS_10time_pointIT_S8_EERKNSC_ISD_S9_EE(%"struct.std::chrono::time_point"* dereferenceable(8) %15, %"struct.std::chrono::time_point"* dereferenceable(8) %2)
          to label %87 unwind label %36, !dbg !3518

; <label>:87:                                     ; preds = %82
  %88 = getelementptr inbounds %"struct.std::chrono::duration", %"struct.std::chrono::duration"* %17, i32 0, i32 0, !dbg !3520
  store i64 %86, i64* %88, align 8, !dbg !3520
  %89 = invoke i64 @_ZNSt6chrono13duration_castINS_8durationIlSt5ratioILl1ELl1000000EEEElS2_ILl1ELl1000000000EEEENSt9enable_ifIXsr13__is_durationIT_EE5valueES7_E4typeERKNS1_IT0_T1_EE(%"struct.std::chrono::duration"* dereferenceable(8) %17)
          to label %90 unwind label %36, !dbg !3520

; <label>:90:                                     ; preds = %87
  %91 = getelementptr inbounds %"struct.std::chrono::duration.0", %"struct.std::chrono::duration.0"* %18, i32 0, i32 0, !dbg !3522
  store i64 %89, i64* %91, align 8, !dbg !3522
  %92 = invoke i64 @_ZNKSt6chrono8durationIlSt5ratioILl1ELl1000000EEE5countEv(%"struct.std::chrono::duration.0"* %18)
          to label %93 unwind label %36, !dbg !3522

; <label>:93:                                     ; preds = %90
  store i64 %92, i64* %16, align 8, !dbg !3524
  %94 = load i64, i64* %16, align 8, !dbg !3524
  %95 = invoke dereferenceable(272) %"class.std::basic_ostream"* @_ZNSolsEl(%"class.std::basic_ostream"* @_ZSt4cout, i64 %94)
          to label %96 unwind label %36, !dbg !3524

; <label>:96:                                     ; preds = %93
  %97 = invoke dereferenceable(272) %"class.std::basic_ostream"* @_ZNSolsEPFRSoS_E(%"class.std::basic_ostream"* %95, %"class.std::basic_ostream"* (%"class.std::basic_ostream"*)* @_ZSt4endlIcSt11char_traitsIcEERSt13basic_ostreamIT_T0_ES6_)
          to label %98 unwind label %36, !dbg !3526

; <label>:98:                                     ; preds = %96
  call void @_ZNSt6vectorIPN11file_system8WorkUnitESaIS2_EED2Ev(%"class.std::vector"* %1) #3, !dbg !3528
  ret void, !dbg !3528

; <label>:99:                                     ; preds = %40, %36
  call void @_ZNSt6vectorIPN11file_system8WorkUnitESaIS2_EED2Ev(%"class.std::vector"* %1) #3, !dbg !3529
  br label %100, !dbg !3529

; <label>:100:                                    ; preds = %99
  %101 = load i8*, i8** %5, align 8, !dbg !3530
  %102 = load i32, i32* %6, align 4, !dbg !3530
  %103 = insertvalue { i8*, i32 } undef, i8* %101, 0, !dbg !3530
  %104 = insertvalue { i8*, i32 } %103, i32 %102, 1, !dbg !3530
  resume { i8*, i32 } %104, !dbg !3530
}

; Function Attrs: nounwind uwtable
define linkonce_odr void @_ZNSt6vectorIPN11file_system8WorkUnitESaIS2_EEC2Ev(%"class.std::vector"*) unnamed_addr #4 comdat align 2 personality i8* bitcast (i32 (...)* @__gxx_personality_v0 to i8*) !dbg !3531 {
  %2 = alloca %"class.std::vector"*, align 8
  store %"class.std::vector"* %0, %"class.std::vector"** %2, align 8
  call void @llvm.dbg.declare(metadata %"class.std::vector"** %2, metadata !3532, metadata !3290), !dbg !3534
  %3 = load %"class.std::vector"*, %"class.std::vector"** %2, align 8
  %4 = bitcast %"class.std::vector"* %3 to %"struct.std::_Vector_base"*, !dbg !3535
  invoke void @_ZNSt12_Vector_baseIPN11file_system8WorkUnitESaIS2_EEC2Ev(%"struct.std::_Vector_base"* %4)
          to label %5 unwind label %6, !dbg !3536

; <label>:5:                                      ; preds = %1
  ret void, !dbg !3537

; <label>:6:                                      ; preds = %1
  %7 = landingpad { i8*, i32 }
          catch i8* null, !dbg !3539
  %8 = extractvalue { i8*, i32 } %7, 0, !dbg !3539
  call void @__clang_call_terminate(i8* %8) #17, !dbg !3539
  unreachable, !dbg !3539
}

; Function Attrs: nounwind
declare i64 @_ZNSt6chrono3_V212system_clock3nowEv() #2

; Function Attrs: uwtable
define linkonce_odr void @_ZNSt6vectorIPN11file_system8WorkUnitESaIS2_EE9push_backEOS2_(%"class.std::vector"*, %"class.file_system::WorkUnit"** dereferenceable(8)) #0 comdat align 2 !dbg !3541 {
  %3 = alloca %"class.std::vector"*, align 8
  %4 = alloca %"class.file_system::WorkUnit"**, align 8
  store %"class.std::vector"* %0, %"class.std::vector"** %3, align 8
  call void @llvm.dbg.declare(metadata %"class.std::vector"** %3, metadata !3542, metadata !3290), !dbg !3543
  store %"class.file_system::WorkUnit"** %1, %"class.file_system::WorkUnit"*** %4, align 8
  call void @llvm.dbg.declare(metadata %"class.file_system::WorkUnit"*** %4, metadata !3544, metadata !3290), !dbg !3545
  %5 = load %"class.std::vector"*, %"class.std::vector"** %3, align 8
  %6 = load %"class.file_system::WorkUnit"**, %"class.file_system::WorkUnit"*** %4, align 8, !dbg !3546
  %7 = call dereferenceable(8) %"class.file_system::WorkUnit"** @_ZSt4moveIRPN11file_system8WorkUnitEEONSt16remove_referenceIT_E4typeEOS5_(%"class.file_system::WorkUnit"** dereferenceable(8) %6) #3, !dbg !3547
  call void @_ZNSt6vectorIPN11file_system8WorkUnitESaIS2_EE12emplace_backIJS2_EEEvDpOT_(%"class.std::vector"* %5, %"class.file_system::WorkUnit"** dereferenceable(8) %7), !dbg !3548
  ret void, !dbg !3550
}

; Function Attrs: nobuiltin
declare noalias i8* @_Znwm(i64) #7

declare i32 @__gxx_personality_v0(...)

; Function Attrs: uwtable
define linkonce_odr void @_ZN11file_system8WorkUnitC2Ei(%"class.file_system::WorkUnit"*, i32) unnamed_addr #0 comdat align 2 !dbg !3551 {
  %3 = alloca %"class.file_system::WorkUnit"*, align 8
  %4 = alloca i32, align 4
  store %"class.file_system::WorkUnit"* %0, %"class.file_system::WorkUnit"** %3, align 8
  call void @llvm.dbg.declare(metadata %"class.file_system::WorkUnit"** %3, metadata !3552, metadata !3290), !dbg !3553
  store i32 %1, i32* %4, align 4
  call void @llvm.dbg.declare(metadata i32* %4, metadata !3554, metadata !3290), !dbg !3555
  %5 = load %"class.file_system::WorkUnit"*, %"class.file_system::WorkUnit"** %3, align 8
  %6 = getelementptr inbounds %"class.file_system::WorkUnit", %"class.file_system::WorkUnit"* %5, i32 0, i32 2, !dbg !3556
  %7 = load i32, i32* %4, align 4, !dbg !3557
  call void @_ZN9IrsThreadC2Ei(%class.IrsThread* %6, i32 %7), !dbg !3556
  ret void, !dbg !3558
}

; Function Attrs: nobuiltin nounwind
declare void @_ZdlPv(i8*) #8

; Function Attrs: nounwind uwtable
define linkonce_odr %"class.file_system::WorkUnit"** @_ZNSt6vectorIPN11file_system8WorkUnitESaIS2_EE5beginEv(%"class.std::vector"*) #4 comdat align 2 !dbg !3559 {
  %2 = alloca %"class.__gnu_cxx::__normal_iterator", align 8
  %3 = alloca %"class.std::vector"*, align 8
  store %"class.std::vector"* %0, %"class.std::vector"** %3, align 8
  call void @llvm.dbg.declare(metadata %"class.std::vector"** %3, metadata !3560, metadata !3290), !dbg !3561
  %4 = load %"class.std::vector"*, %"class.std::vector"** %3, align 8
  %5 = bitcast %"class.std::vector"* %4 to %"struct.std::_Vector_base"*, !dbg !3562
  %6 = getelementptr inbounds %"struct.std::_Vector_base", %"struct.std::_Vector_base"* %5, i32 0, i32 0, !dbg !3562
  %7 = getelementptr inbounds %"struct.std::_Vector_base<file_system::WorkUnit *, std::allocator<file_system::WorkUnit *> >::_Vector_impl", %"struct.std::_Vector_base<file_system::WorkUnit *, std::allocator<file_system::WorkUnit *> >::_Vector_impl"* %6, i32 0, i32 0, !dbg !3563
  call void @_ZN9__gnu_cxx17__normal_iteratorIPPN11file_system8WorkUnitESt6vectorIS3_SaIS3_EEEC2ERKS4_(%"class.__gnu_cxx::__normal_iterator"* %2, %"class.file_system::WorkUnit"*** dereferenceable(8) %7) #3, !dbg !3564
  %8 = getelementptr inbounds %"class.__gnu_cxx::__normal_iterator", %"class.__gnu_cxx::__normal_iterator"* %2, i32 0, i32 0, !dbg !3565
  %9 = load %"class.file_system::WorkUnit"**, %"class.file_system::WorkUnit"*** %8, align 8, !dbg !3565
  ret %"class.file_system::WorkUnit"** %9, !dbg !3565
}

; Function Attrs: nounwind uwtable
define linkonce_odr %"class.file_system::WorkUnit"** @_ZNSt6vectorIPN11file_system8WorkUnitESaIS2_EE3endEv(%"class.std::vector"*) #4 comdat align 2 !dbg !3566 {
  %2 = alloca %"class.__gnu_cxx::__normal_iterator", align 8
  %3 = alloca %"class.std::vector"*, align 8
  store %"class.std::vector"* %0, %"class.std::vector"** %3, align 8
  call void @llvm.dbg.declare(metadata %"class.std::vector"** %3, metadata !3567, metadata !3290), !dbg !3568
  %4 = load %"class.std::vector"*, %"class.std::vector"** %3, align 8
  %5 = bitcast %"class.std::vector"* %4 to %"struct.std::_Vector_base"*, !dbg !3569
  %6 = getelementptr inbounds %"struct.std::_Vector_base", %"struct.std::_Vector_base"* %5, i32 0, i32 0, !dbg !3569
  %7 = getelementptr inbounds %"struct.std::_Vector_base<file_system::WorkUnit *, std::allocator<file_system::WorkUnit *> >::_Vector_impl", %"struct.std::_Vector_base<file_system::WorkUnit *, std::allocator<file_system::WorkUnit *> >::_Vector_impl"* %6, i32 0, i32 1, !dbg !3570
  call void @_ZN9__gnu_cxx17__normal_iteratorIPPN11file_system8WorkUnitESt6vectorIS3_SaIS3_EEEC2ERKS4_(%"class.__gnu_cxx::__normal_iterator"* %2, %"class.file_system::WorkUnit"*** dereferenceable(8) %7) #3, !dbg !3571
  %8 = getelementptr inbounds %"class.__gnu_cxx::__normal_iterator", %"class.__gnu_cxx::__normal_iterator"* %2, i32 0, i32 0, !dbg !3572
  %9 = load %"class.file_system::WorkUnit"**, %"class.file_system::WorkUnit"*** %8, align 8, !dbg !3572
  ret %"class.file_system::WorkUnit"** %9, !dbg !3572
}

; Function Attrs: inlinehint nounwind uwtable
define linkonce_odr zeroext i1 @_ZN9__gnu_cxxneIPPN11file_system8WorkUnitESt6vectorIS3_SaIS3_EEEEbRKNS_17__normal_iteratorIT_T0_EESD_(%"class.__gnu_cxx::__normal_iterator"* dereferenceable(8), %"class.__gnu_cxx::__normal_iterator"* dereferenceable(8)) #9 comdat !dbg !3573 {
  %3 = alloca %"class.__gnu_cxx::__normal_iterator"*, align 8
  %4 = alloca %"class.__gnu_cxx::__normal_iterator"*, align 8
  store %"class.__gnu_cxx::__normal_iterator"* %0, %"class.__gnu_cxx::__normal_iterator"** %3, align 8
  call void @llvm.dbg.declare(metadata %"class.__gnu_cxx::__normal_iterator"** %3, metadata !3577, metadata !3290), !dbg !3578
  store %"class.__gnu_cxx::__normal_iterator"* %1, %"class.__gnu_cxx::__normal_iterator"** %4, align 8
  call void @llvm.dbg.declare(metadata %"class.__gnu_cxx::__normal_iterator"** %4, metadata !3579, metadata !3290), !dbg !3580
  %5 = load %"class.__gnu_cxx::__normal_iterator"*, %"class.__gnu_cxx::__normal_iterator"** %3, align 8, !dbg !3581
  %6 = call dereferenceable(8) %"class.file_system::WorkUnit"*** @_ZNK9__gnu_cxx17__normal_iteratorIPPN11file_system8WorkUnitESt6vectorIS3_SaIS3_EEE4baseEv(%"class.__gnu_cxx::__normal_iterator"* %5) #3, !dbg !3582
  %7 = load %"class.file_system::WorkUnit"**, %"class.file_system::WorkUnit"*** %6, align 8, !dbg !3582
  %8 = load %"class.__gnu_cxx::__normal_iterator"*, %"class.__gnu_cxx::__normal_iterator"** %4, align 8, !dbg !3583
  %9 = call dereferenceable(8) %"class.file_system::WorkUnit"*** @_ZNK9__gnu_cxx17__normal_iteratorIPPN11file_system8WorkUnitESt6vectorIS3_SaIS3_EEE4baseEv(%"class.__gnu_cxx::__normal_iterator"* %8) #3, !dbg !3584
  %10 = load %"class.file_system::WorkUnit"**, %"class.file_system::WorkUnit"*** %9, align 8, !dbg !3586
  %11 = icmp ne %"class.file_system::WorkUnit"** %7, %10, !dbg !3587
  ret i1 %11, !dbg !3588
}

; Function Attrs: nounwind uwtable
define linkonce_odr dereferenceable(8) %"class.file_system::WorkUnit"** @_ZNK9__gnu_cxx17__normal_iteratorIPPN11file_system8WorkUnitESt6vectorIS3_SaIS3_EEEdeEv(%"class.__gnu_cxx::__normal_iterator"*) #4 comdat align 2 !dbg !3589 {
  %2 = alloca %"class.__gnu_cxx::__normal_iterator"*, align 8
  store %"class.__gnu_cxx::__normal_iterator"* %0, %"class.__gnu_cxx::__normal_iterator"** %2, align 8
  call void @llvm.dbg.declare(metadata %"class.__gnu_cxx::__normal_iterator"** %2, metadata !3590, metadata !3290), !dbg !3592
  %3 = load %"class.__gnu_cxx::__normal_iterator"*, %"class.__gnu_cxx::__normal_iterator"** %2, align 8
  %4 = getelementptr inbounds %"class.__gnu_cxx::__normal_iterator", %"class.__gnu_cxx::__normal_iterator"* %3, i32 0, i32 0, !dbg !3593
  %5 = load %"class.file_system::WorkUnit"**, %"class.file_system::WorkUnit"*** %4, align 8, !dbg !3593
  ret %"class.file_system::WorkUnit"** %5, !dbg !3594
}

; Function Attrs: uwtable
define linkonce_odr void @_ZN11file_system8WorkUnit5startEv(%"class.file_system::WorkUnit"*) #0 comdat align 2 !dbg !3595 {
  %2 = alloca %"class.file_system::WorkUnit"*, align 8
  %3 = alloca { i64, i64 }, align 8
  %4 = alloca %"class.file_system::WorkUnit"*, align 8
  store %"class.file_system::WorkUnit"* %0, %"class.file_system::WorkUnit"** %2, align 8
  call void @llvm.dbg.declare(metadata %"class.file_system::WorkUnit"** %2, metadata !3596, metadata !3290), !dbg !3597
  %5 = load %"class.file_system::WorkUnit"*, %"class.file_system::WorkUnit"** %2, align 8
  %6 = getelementptr inbounds %"class.file_system::WorkUnit", %"class.file_system::WorkUnit"* %5, i32 0, i32 2, !dbg !3598
  store { i64, i64 } { i64 ptrtoint (void (%"class.file_system::WorkUnit"*)* @_ZN11file_system8WorkUnit4execEv to i64), i64 0 }, { i64, i64 }* %3, align 8, !dbg !3599
  store %"class.file_system::WorkUnit"* %5, %"class.file_system::WorkUnit"** %4, align 8, !dbg !3600
  call void @_ZN9IrsThreadclIJMN11file_system8WorkUnitEFvvEPS2_EEEvDpOT_(%class.IrsThread* %6, { i64, i64 }* dereferenceable(16) %3, %"class.file_system::WorkUnit"** dereferenceable(8) %4), !dbg !3598
  ret void, !dbg !3601
}

; Function Attrs: nounwind uwtable
define linkonce_odr dereferenceable(8) %"class.__gnu_cxx::__normal_iterator"* @_ZN9__gnu_cxx17__normal_iteratorIPPN11file_system8WorkUnitESt6vectorIS3_SaIS3_EEEppEv(%"class.__gnu_cxx::__normal_iterator"*) #4 comdat align 2 !dbg !3602 {
  %2 = alloca %"class.__gnu_cxx::__normal_iterator"*, align 8
  store %"class.__gnu_cxx::__normal_iterator"* %0, %"class.__gnu_cxx::__normal_iterator"** %2, align 8
  call void @llvm.dbg.declare(metadata %"class.__gnu_cxx::__normal_iterator"** %2, metadata !3603, metadata !3290), !dbg !3605
  %3 = load %"class.__gnu_cxx::__normal_iterator"*, %"class.__gnu_cxx::__normal_iterator"** %2, align 8
  %4 = getelementptr inbounds %"class.__gnu_cxx::__normal_iterator", %"class.__gnu_cxx::__normal_iterator"* %3, i32 0, i32 0, !dbg !3606
  %5 = load %"class.file_system::WorkUnit"**, %"class.file_system::WorkUnit"*** %4, align 8, !dbg !3607
  %6 = getelementptr inbounds %"class.file_system::WorkUnit"*, %"class.file_system::WorkUnit"** %5, i32 1, !dbg !3607
  store %"class.file_system::WorkUnit"** %6, %"class.file_system::WorkUnit"*** %4, align 8, !dbg !3607
  ret %"class.__gnu_cxx::__normal_iterator"* %3, !dbg !3608
}

; Function Attrs: uwtable
define linkonce_odr void @_ZN11file_system8WorkUnit4joinEv(%"class.file_system::WorkUnit"*) #0 comdat align 2 !dbg !3609 {
  %2 = alloca %"class.file_system::WorkUnit"*, align 8
  store %"class.file_system::WorkUnit"* %0, %"class.file_system::WorkUnit"** %2, align 8
  call void @llvm.dbg.declare(metadata %"class.file_system::WorkUnit"** %2, metadata !3610, metadata !3290), !dbg !3611
  %3 = load %"class.file_system::WorkUnit"*, %"class.file_system::WorkUnit"** %2, align 8
  %4 = getelementptr inbounds %"class.file_system::WorkUnit", %"class.file_system::WorkUnit"* %3, i32 0, i32 2, !dbg !3612
  call void @_ZN9IrsThread4joinEv(%class.IrsThread* %4), !dbg !3613
  ret void, !dbg !3614
}

; Function Attrs: inlinehint nounwind uwtable
define linkonce_odr void @_ZN11file_system8WorkUnitD2Ev(%"class.file_system::WorkUnit"*) unnamed_addr #9 comdat align 2 !dbg !3615 {
  %2 = alloca %"class.file_system::WorkUnit"*, align 8
  store %"class.file_system::WorkUnit"* %0, %"class.file_system::WorkUnit"** %2, align 8
  call void @llvm.dbg.declare(metadata %"class.file_system::WorkUnit"** %2, metadata !3617, metadata !3290), !dbg !3618
  %3 = load %"class.file_system::WorkUnit"*, %"class.file_system::WorkUnit"** %2, align 8
  %4 = getelementptr inbounds %"class.file_system::WorkUnit", %"class.file_system::WorkUnit"* %3, i32 0, i32 2, !dbg !3619
  call void @_ZN9IrsThreadD2Ev(%class.IrsThread* %4) #3, !dbg !3619
  ret void, !dbg !3621
}

; Function Attrs: uwtable
define linkonce_odr i64 @_ZNSt6chrono13duration_castINS_8durationIlSt5ratioILl1ELl1000000EEEElS2_ILl1ELl1000000000EEEENSt9enable_ifIXsr13__is_durationIT_EE5valueES7_E4typeERKNS1_IT0_T1_EE(%"struct.std::chrono::duration"* dereferenceable(8)) #0 comdat !dbg !3622 {
  %2 = alloca %"struct.std::chrono::duration.0", align 8
  %3 = alloca %"struct.std::chrono::duration"*, align 8
  store %"struct.std::chrono::duration"* %0, %"struct.std::chrono::duration"** %3, align 8
  call void @llvm.dbg.declare(metadata %"struct.std::chrono::duration"** %3, metadata !3631, metadata !3290), !dbg !3632
  %4 = load %"struct.std::chrono::duration"*, %"struct.std::chrono::duration"** %3, align 8, !dbg !3633
  %5 = call i64 @_ZNSt6chrono20__duration_cast_implINS_8durationIlSt5ratioILl1ELl1000000EEEES2_ILl1ELl1000EElLb1ELb0EE6__castIlS2_ILl1ELl1000000000EEEES4_RKNS1_IT_T0_EE(%"struct.std::chrono::duration"* dereferenceable(8) %4), !dbg !3634
  %6 = getelementptr inbounds %"struct.std::chrono::duration.0", %"struct.std::chrono::duration.0"* %2, i32 0, i32 0, !dbg !3634
  store i64 %5, i64* %6, align 8, !dbg !3634
  %7 = getelementptr inbounds %"struct.std::chrono::duration.0", %"struct.std::chrono::duration.0"* %2, i32 0, i32 0, !dbg !3635
  %8 = load i64, i64* %7, align 8, !dbg !3635
  ret i64 %8, !dbg !3635
}

; Function Attrs: uwtable
define linkonce_odr i64 @_ZNSt6chronomiINS_3_V212system_clockENS_8durationIlSt5ratioILl1ELl1000000000EEEES6_EENSt11common_typeIJT0_T1_EE4typeERKNS_10time_pointIT_S8_EERKNSC_ISD_S9_EE(%"struct.std::chrono::time_point"* dereferenceable(8), %"struct.std::chrono::time_point"* dereferenceable(8)) #0 comdat !dbg !3636 {
  %3 = alloca %"struct.std::chrono::duration", align 8
  %4 = alloca %"struct.std::chrono::time_point"*, align 8
  %5 = alloca %"struct.std::chrono::time_point"*, align 8
  %6 = alloca %"struct.std::chrono::duration", align 8
  %7 = alloca %"struct.std::chrono::duration", align 8
  store %"struct.std::chrono::time_point"* %0, %"struct.std::chrono::time_point"** %4, align 8
  call void @llvm.dbg.declare(metadata %"struct.std::chrono::time_point"** %4, metadata !3643, metadata !3290), !dbg !3644
  store %"struct.std::chrono::time_point"* %1, %"struct.std::chrono::time_point"** %5, align 8
  call void @llvm.dbg.declare(metadata %"struct.std::chrono::time_point"** %5, metadata !3645, metadata !3290), !dbg !3646
  %8 = load %"struct.std::chrono::time_point"*, %"struct.std::chrono::time_point"** %4, align 8, !dbg !3647
  %9 = call i64 @_ZNKSt6chrono10time_pointINS_3_V212system_clockENS_8durationIlSt5ratioILl1ELl1000000000EEEEE16time_since_epochEv(%"struct.std::chrono::time_point"* %8), !dbg !3648
  %10 = getelementptr inbounds %"struct.std::chrono::duration", %"struct.std::chrono::duration"* %6, i32 0, i32 0, !dbg !3648
  store i64 %9, i64* %10, align 8, !dbg !3648
  %11 = load %"struct.std::chrono::time_point"*, %"struct.std::chrono::time_point"** %5, align 8, !dbg !3649
  %12 = call i64 @_ZNKSt6chrono10time_pointINS_3_V212system_clockENS_8durationIlSt5ratioILl1ELl1000000000EEEEE16time_since_epochEv(%"struct.std::chrono::time_point"* %11), !dbg !3650
  %13 = getelementptr inbounds %"struct.std::chrono::duration", %"struct.std::chrono::duration"* %7, i32 0, i32 0, !dbg !3652
  store i64 %12, i64* %13, align 8, !dbg !3652
  %14 = call i64 @_ZNSt6chronomiIlSt5ratioILl1ELl1000000000EElS2_EENSt11common_typeIJNS_8durationIT_T0_EENS4_IT1_T2_EEEE4typeERKS7_RKSA_(%"struct.std::chrono::duration"* dereferenceable(8) %6, %"struct.std::chrono::duration"* dereferenceable(8) %7), !dbg !3653
  %15 = getelementptr inbounds %"struct.std::chrono::duration", %"struct.std::chrono::duration"* %3, i32 0, i32 0, !dbg !3655
  store i64 %14, i64* %15, align 8, !dbg !3655
  %16 = getelementptr inbounds %"struct.std::chrono::duration", %"struct.std::chrono::duration"* %3, i32 0, i32 0, !dbg !3656
  %17 = load i64, i64* %16, align 8, !dbg !3656
  ret i64 %17, !dbg !3656
}

; Function Attrs: nounwind uwtable
define linkonce_odr i64 @_ZNKSt6chrono8durationIlSt5ratioILl1ELl1000000EEE5countEv(%"struct.std::chrono::duration.0"*) #4 comdat align 2 !dbg !3657 {
  %2 = alloca %"struct.std::chrono::duration.0"*, align 8
  store %"struct.std::chrono::duration.0"* %0, %"struct.std::chrono::duration.0"** %2, align 8
  call void @llvm.dbg.declare(metadata %"struct.std::chrono::duration.0"** %2, metadata !3658, metadata !3290), !dbg !3660
  %3 = load %"struct.std::chrono::duration.0"*, %"struct.std::chrono::duration.0"** %2, align 8
  %4 = getelementptr inbounds %"struct.std::chrono::duration.0", %"struct.std::chrono::duration.0"* %3, i32 0, i32 0, !dbg !3661
  %5 = load i64, i64* %4, align 8, !dbg !3661
  ret i64 %5, !dbg !3662
}

declare dereferenceable(272) %"class.std::basic_ostream"* @_ZNSolsEl(%"class.std::basic_ostream"*, i64) #1

declare dereferenceable(272) %"class.std::basic_ostream"* @_ZNSolsEPFRSoS_E(%"class.std::basic_ostream"*, %"class.std::basic_ostream"* (%"class.std::basic_ostream"*)*) #1

declare dereferenceable(272) %"class.std::basic_ostream"* @_ZSt4endlIcSt11char_traitsIcEERSt13basic_ostreamIT_T0_ES6_(%"class.std::basic_ostream"* dereferenceable(272)) #1

; Function Attrs: nounwind uwtable
define linkonce_odr void @_ZNSt6vectorIPN11file_system8WorkUnitESaIS2_EED2Ev(%"class.std::vector"*) unnamed_addr #4 comdat align 2 personality i8* bitcast (i32 (...)* @__gxx_personality_v0 to i8*) !dbg !3663 {
  %2 = alloca %"class.std::vector"*, align 8
  %3 = alloca i8*
  %4 = alloca i32
  store %"class.std::vector"* %0, %"class.std::vector"** %2, align 8
  call void @llvm.dbg.declare(metadata %"class.std::vector"** %2, metadata !3664, metadata !3290), !dbg !3665
  %5 = load %"class.std::vector"*, %"class.std::vector"** %2, align 8
  %6 = bitcast %"class.std::vector"* %5 to %"struct.std::_Vector_base"*, !dbg !3666
  %7 = getelementptr inbounds %"struct.std::_Vector_base", %"struct.std::_Vector_base"* %6, i32 0, i32 0, !dbg !3666
  %8 = getelementptr inbounds %"struct.std::_Vector_base<file_system::WorkUnit *, std::allocator<file_system::WorkUnit *> >::_Vector_impl", %"struct.std::_Vector_base<file_system::WorkUnit *, std::allocator<file_system::WorkUnit *> >::_Vector_impl"* %7, i32 0, i32 0, !dbg !3668
  %9 = load %"class.file_system::WorkUnit"**, %"class.file_system::WorkUnit"*** %8, align 8, !dbg !3668
  %10 = bitcast %"class.std::vector"* %5 to %"struct.std::_Vector_base"*, !dbg !3669
  %11 = getelementptr inbounds %"struct.std::_Vector_base", %"struct.std::_Vector_base"* %10, i32 0, i32 0, !dbg !3669
  %12 = getelementptr inbounds %"struct.std::_Vector_base<file_system::WorkUnit *, std::allocator<file_system::WorkUnit *> >::_Vector_impl", %"struct.std::_Vector_base<file_system::WorkUnit *, std::allocator<file_system::WorkUnit *> >::_Vector_impl"* %11, i32 0, i32 1, !dbg !3670
  %13 = load %"class.file_system::WorkUnit"**, %"class.file_system::WorkUnit"*** %12, align 8, !dbg !3670
  %14 = bitcast %"class.std::vector"* %5 to %"struct.std::_Vector_base"*, !dbg !3671
  %15 = call dereferenceable(1) %"class.std::allocator"* @_ZNSt12_Vector_baseIPN11file_system8WorkUnitESaIS2_EE19_M_get_Tp_allocatorEv(%"struct.std::_Vector_base"* %14) #3, !dbg !3671
  invoke void @_ZSt8_DestroyIPPN11file_system8WorkUnitES2_EvT_S4_RSaIT0_E(%"class.file_system::WorkUnit"** %9, %"class.file_system::WorkUnit"** %13, %"class.std::allocator"* dereferenceable(1) %15)
          to label %16 unwind label %18, !dbg !3672

; <label>:16:                                     ; preds = %1
  %17 = bitcast %"class.std::vector"* %5 to %"struct.std::_Vector_base"*, !dbg !3673
  call void @_ZNSt12_Vector_baseIPN11file_system8WorkUnitESaIS2_EED2Ev(%"struct.std::_Vector_base"* %17) #3, !dbg !3673
  ret void, !dbg !3673

; <label>:18:                                     ; preds = %1
  %19 = landingpad { i8*, i32 }
          catch i8* null, !dbg !3675
  %20 = extractvalue { i8*, i32 } %19, 0, !dbg !3675
  store i8* %20, i8** %3, align 8, !dbg !3675
  %21 = extractvalue { i8*, i32 } %19, 1, !dbg !3675
  store i32 %21, i32* %4, align 4, !dbg !3675
  %22 = bitcast %"class.std::vector"* %5 to %"struct.std::_Vector_base"*, !dbg !3675
  call void @_ZNSt12_Vector_baseIPN11file_system8WorkUnitESaIS2_EED2Ev(%"struct.std::_Vector_base"* %22) #3, !dbg !3675
  br label %23, !dbg !3675

; <label>:23:                                     ; preds = %18
  %24 = load i8*, i8** %3, align 8, !dbg !3677
  call void @__clang_call_terminate(i8* %24) #17, !dbg !3677
  unreachable, !dbg !3677
}

; Function Attrs: nounwind uwtable
define linkonce_odr void @_ZN9IrsThreadC2Ei(%class.IrsThread*, i32) unnamed_addr #4 comdat align 2 !dbg !3679 {
  %3 = alloca %class.IrsThread*, align 8
  %4 = alloca i32, align 4
  store %class.IrsThread* %0, %class.IrsThread** %3, align 8
  call void @llvm.dbg.declare(metadata %class.IrsThread** %3, metadata !3680, metadata !3290), !dbg !3682
  store i32 %1, i32* %4, align 4
  call void @llvm.dbg.declare(metadata i32* %4, metadata !3683, metadata !3290), !dbg !3684
  %5 = load %class.IrsThread*, %class.IrsThread** %3, align 8
  %6 = getelementptr inbounds %class.IrsThread, %class.IrsThread* %5, i32 0, i32 0, !dbg !3685
  call void @_ZNSt6threadC2Ev(%"class.std::thread"* %6) #3, !dbg !3685
  %7 = getelementptr inbounds %class.IrsThread, %class.IrsThread* %5, i32 0, i32 1, !dbg !3686
  %8 = load i32, i32* %4, align 4, !dbg !3687
  store i32 %8, i32* %7, align 8, !dbg !3686
  ret void, !dbg !3688
}

; Function Attrs: nounwind uwtable
define linkonce_odr void @_ZNSt6threadC2Ev(%"class.std::thread"*) unnamed_addr #4 comdat align 2 !dbg !3689 {
  %2 = alloca %"class.std::thread"*, align 8
  store %"class.std::thread"* %0, %"class.std::thread"** %2, align 8
  call void @llvm.dbg.declare(metadata %"class.std::thread"** %2, metadata !3690, metadata !3290), !dbg !3692
  %3 = load %"class.std::thread"*, %"class.std::thread"** %2, align 8
  %4 = getelementptr inbounds %"class.std::thread", %"class.std::thread"* %3, i32 0, i32 0, !dbg !3693
  call void @_ZNSt6thread2idC2Ev(%"class.std::thread::id"* %4) #3, !dbg !3693
  ret void, !dbg !3694
}

; Function Attrs: nounwind uwtable
define linkonce_odr void @_ZNSt6thread2idC2Ev(%"class.std::thread::id"*) unnamed_addr #4 comdat align 2 !dbg !3695 {
  %2 = alloca %"class.std::thread::id"*, align 8
  store %"class.std::thread::id"* %0, %"class.std::thread::id"** %2, align 8
  call void @llvm.dbg.declare(metadata %"class.std::thread::id"** %2, metadata !3696, metadata !3290), !dbg !3698
  %3 = load %"class.std::thread::id"*, %"class.std::thread::id"** %2, align 8
  %4 = getelementptr inbounds %"class.std::thread::id", %"class.std::thread::id"* %3, i32 0, i32 0, !dbg !3699
  store i64 0, i64* %4, align 8, !dbg !3699
  ret void, !dbg !3700
}

; Function Attrs: uwtable
define linkonce_odr void @_ZN9IrsThreadclIJMN11file_system8WorkUnitEFvvEPS2_EEEvDpOT_(%class.IrsThread*, { i64, i64 }* dereferenceable(16), %"class.file_system::WorkUnit"** dereferenceable(8)) #0 comdat align 2 !dbg !3701 {
  %4 = alloca %class.IrsThread*, align 8
  %5 = alloca { i64, i64 }*, align 8
  %6 = alloca %"class.file_system::WorkUnit"**, align 8
  %7 = alloca %"class.std::thread", align 8
  store %class.IrsThread* %0, %class.IrsThread** %4, align 8
  call void @llvm.dbg.declare(metadata %class.IrsThread** %4, metadata !3710, metadata !3290), !dbg !3711
  store { i64, i64 }* %1, { i64, i64 }** %5, align 8
  call void @llvm.dbg.declare(metadata { i64, i64 }** %5, metadata !3712, metadata !3290), !dbg !3713
  store %"class.file_system::WorkUnit"** %2, %"class.file_system::WorkUnit"*** %6, align 8
  call void @llvm.dbg.declare(metadata %"class.file_system::WorkUnit"*** %6, metadata !3714, metadata !3290), !dbg !3713
  %8 = load %class.IrsThread*, %class.IrsThread** %4, align 8
  %9 = getelementptr inbounds %class.IrsThread, %class.IrsThread* %8, i32 0, i32 0, !dbg !3715
  %10 = load { i64, i64 }*, { i64, i64 }** %5, align 8, !dbg !3716
  %11 = call dereferenceable(16) { i64, i64 }* @_ZSt7forwardIMN11file_system8WorkUnitEFvvEEOT_RNSt16remove_referenceIS4_E4typeE({ i64, i64 }* dereferenceable(16) %10) #3, !dbg !3717
  %12 = load %"class.file_system::WorkUnit"**, %"class.file_system::WorkUnit"*** %6, align 8, !dbg !3716
  %13 = call dereferenceable(8) %"class.file_system::WorkUnit"** @_ZSt7forwardIPN11file_system8WorkUnitEEOT_RNSt16remove_referenceIS3_E4typeE(%"class.file_system::WorkUnit"** dereferenceable(8) %12) #3, !dbg !3718
  call void @_ZNSt6threadC2IMN11file_system8WorkUnitEFvvEJPS2_EEEOT_DpOT0_(%"class.std::thread"* %7, { i64, i64 }* dereferenceable(16) %11, %"class.file_system::WorkUnit"** dereferenceable(8) %13), !dbg !3720
  %14 = call dereferenceable(8) %"class.std::thread"* @_ZNSt6threadaSEOS_(%"class.std::thread"* %9, %"class.std::thread"* dereferenceable(8) %7) #3, !dbg !3722
  call void @_ZNSt6threadD2Ev(%"class.std::thread"* %7) #3, !dbg !3724
  ret void, !dbg !3726
}

; Function Attrs: uwtable
define linkonce_odr void @_ZN11file_system8WorkUnit4execEv(%"class.file_system::WorkUnit"*) #0 comdat align 2 !dbg !3727 {
  %2 = alloca %"class.file_system::WorkUnit"*, align 8
  %3 = alloca i32, align 4
  store %"class.file_system::WorkUnit"* %0, %"class.file_system::WorkUnit"** %2, align 8
  call void @llvm.dbg.declare(metadata %"class.file_system::WorkUnit"** %2, metadata !3728, metadata !3290), !dbg !3729
  %4 = load %"class.file_system::WorkUnit"*, %"class.file_system::WorkUnit"** %2, align 8
  call void @llvm.dbg.declare(metadata i32* %3, metadata !3730, metadata !3290), !dbg !3731
  %5 = call i32 @_ZN11file_system8WorkUnit11getThreadIdEv(%"class.file_system::WorkUnit"* %4), !dbg !3732
  store i32 %5, i32* %3, align 4, !dbg !3731
  %6 = load i32, i32* %3, align 4, !dbg !3733
  %7 = srem i32 %6, 32, !dbg !3734
  %8 = getelementptr inbounds %"class.file_system::WorkUnit", %"class.file_system::WorkUnit"* %4, i32 0, i32 0, !dbg !3735
  store i32 %7, i32* %8, align 8, !dbg !3736
  %9 = getelementptr inbounds %"class.file_system::WorkUnit", %"class.file_system::WorkUnit"* %4, i32 0, i32 0, !dbg !3737
  %10 = load i32, i32* %9, align 8, !dbg !3737
  %11 = sext i32 %10 to i64, !dbg !3738
  %12 = getelementptr inbounds [32 x %"class.std::mutex"], [32 x %"class.std::mutex"]* bitcast ([32 x { %union.pthread_mutex_t }]* @_ZN11file_system5lockiE to [32 x %"class.std::mutex"]*), i64 0, i64 %11, !dbg !3738
  %13 = call i32 @_ZN11file_system8WorkUnit11getThreadIdEv(%"class.file_system::WorkUnit"* %0), !dbg !3739
  %14 = alloca i32, !dbg !3739
  store i32 %13, i32* %14, !dbg !3739
  %15 = load i32, i32* %14, !dbg !3739
  %16 = bitcast %"class.std::mutex"* %12 to i8*, !dbg !3739
  call void @_Z10__beforeMAiPvli(i32 %15, i8* %16, i64 8, i32 1), !dbg !3739
  call void @_ZNSt5mutex4lockEv(%"class.std::mutex"* %12), !dbg !3739
  call void @_Z9__afterMAi(i32 %15), !dbg !3739
  %17 = getelementptr inbounds %"class.file_system::WorkUnit", %"class.file_system::WorkUnit"* %4, i32 0, i32 0, !dbg !3740
  %18 = load i32, i32* %17, align 8, !dbg !3740
  %19 = sext i32 %18 to i64, !dbg !3742
  %20 = getelementptr inbounds [32 x i32], [32 x i32]* @_ZN11file_system6gInodeE, i64 0, i64 %19, !dbg !3742
  %21 = call i32 @_ZN11file_system8WorkUnit11getThreadIdEv(%"class.file_system::WorkUnit"* %0), !dbg !3742
  %22 = alloca i32, !dbg !3742
  store i32 %21, i32* %22, !dbg !3742
  %23 = load i32, i32* %22, !dbg !3742
  %24 = bitcast i32* %20 to i8*, !dbg !3742
  call void @_Z10__beforeMAiPvli(i32 %23, i8* %24, i64 4, i32 0), !dbg !3742
  %25 = load i32, i32* %20, align 4, !dbg !3742
  call void @_Z9__afterMAi(i32 %23), !dbg !3742
  %26 = icmp eq i32 %25, 0, !dbg !3743
  br i1 %26, label %27, label %93, !dbg !3744

; <label>:27:                                     ; preds = %1
  %28 = getelementptr inbounds %"class.file_system::WorkUnit", %"class.file_system::WorkUnit"* %4, i32 0, i32 0, !dbg !3745
  %29 = load i32, i32* %28, align 8, !dbg !3745
  %30 = mul nsw i32 %29, 2, !dbg !3747
  %31 = srem i32 %30, 26, !dbg !3748
  %32 = getelementptr inbounds %"class.file_system::WorkUnit", %"class.file_system::WorkUnit"* %4, i32 0, i32 1, !dbg !3749
  store i32 %31, i32* %32, align 4, !dbg !3750
  br label %33, !dbg !3751

; <label>:33:                                     ; preds = %27, %78
  %34 = getelementptr inbounds %"class.file_system::WorkUnit", %"class.file_system::WorkUnit"* %4, i32 0, i32 1, !dbg !3752
  %35 = load i32, i32* %34, align 4, !dbg !3752
  %36 = sext i32 %35 to i64, !dbg !3754
  %37 = getelementptr inbounds [26 x %"class.std::mutex"], [26 x %"class.std::mutex"]* bitcast ([26 x { %union.pthread_mutex_t }]* @_ZN11file_system5lockbE to [26 x %"class.std::mutex"]*), i64 0, i64 %36, !dbg !3754
  %38 = call i32 @_ZN11file_system8WorkUnit11getThreadIdEv(%"class.file_system::WorkUnit"* %0), !dbg !3755
  %39 = alloca i32, !dbg !3755
  store i32 %38, i32* %39, !dbg !3755
  %40 = load i32, i32* %39, !dbg !3755
  %41 = bitcast %"class.std::mutex"* %37 to i8*, !dbg !3755
  call void @_Z10__beforeMAiPvli(i32 %40, i8* %41, i64 8, i32 1), !dbg !3755
  call void @_ZNSt5mutex4lockEv(%"class.std::mutex"* %37), !dbg !3755
  call void @_Z9__afterMAi(i32 %40), !dbg !3755
  %42 = getelementptr inbounds %"class.file_system::WorkUnit", %"class.file_system::WorkUnit"* %4, i32 0, i32 1, !dbg !3756
  %43 = load i32, i32* %42, align 4, !dbg !3756
  %44 = sext i32 %43 to i64, !dbg !3758
  %45 = getelementptr inbounds [26 x i8], [26 x i8]* @_ZN11file_system5gBusyE, i64 0, i64 %44, !dbg !3758
  %46 = call i32 @_ZN11file_system8WorkUnit11getThreadIdEv(%"class.file_system::WorkUnit"* %0), !dbg !3758
  %47 = alloca i32, !dbg !3758
  store i32 %46, i32* %47, !dbg !3758
  %48 = load i32, i32* %47, !dbg !3758
  call void @_Z10__beforeMAiPvli(i32 %48, i8* %45, i64 1, i32 0), !dbg !3758
  %49 = load i8, i8* %45, align 1, !dbg !3758
  call void @_Z9__afterMAi(i32 %48), !dbg !3758
  %50 = trunc i8 %49 to i1, !dbg !3758
  br i1 %50, label %78, label %51, !dbg !3759

; <label>:51:                                     ; preds = %33
  %52 = getelementptr inbounds %"class.file_system::WorkUnit", %"class.file_system::WorkUnit"* %4, i32 0, i32 1, !dbg !3760
  %53 = load i32, i32* %52, align 4, !dbg !3760
  %54 = sext i32 %53 to i64, !dbg !3762
  %55 = getelementptr inbounds [26 x i8], [26 x i8]* @_ZN11file_system5gBusyE, i64 0, i64 %54, !dbg !3762
  %56 = call i32 @_ZN11file_system8WorkUnit11getThreadIdEv(%"class.file_system::WorkUnit"* %0), !dbg !3763
  %57 = alloca i32, !dbg !3763
  store i32 %56, i32* %57, !dbg !3763
  %58 = load i32, i32* %57, !dbg !3763
  call void @_Z10__beforeMAiPvli(i32 %58, i8* %55, i64 1, i32 1), !dbg !3763
  store i8 1, i8* %55, align 1, !dbg !3763
  call void @_Z9__afterMAi(i32 %58), !dbg !3763
  %59 = getelementptr inbounds %"class.file_system::WorkUnit", %"class.file_system::WorkUnit"* %4, i32 0, i32 1, !dbg !3764
  %60 = load i32, i32* %59, align 4, !dbg !3764
  %61 = add nsw i32 %60, 1, !dbg !3765
  %62 = getelementptr inbounds %"class.file_system::WorkUnit", %"class.file_system::WorkUnit"* %4, i32 0, i32 0, !dbg !3766
  %63 = load i32, i32* %62, align 8, !dbg !3766
  %64 = sext i32 %63 to i64, !dbg !3767
  %65 = getelementptr inbounds [32 x i32], [32 x i32]* @_ZN11file_system6gInodeE, i64 0, i64 %64, !dbg !3767
  %66 = call i32 @_ZN11file_system8WorkUnit11getThreadIdEv(%"class.file_system::WorkUnit"* %0), !dbg !3768
  %67 = alloca i32, !dbg !3768
  store i32 %66, i32* %67, !dbg !3768
  %68 = load i32, i32* %67, !dbg !3768
  %69 = bitcast i32* %65 to i8*, !dbg !3768
  call void @_Z10__beforeMAiPvli(i32 %68, i8* %69, i64 4, i32 1), !dbg !3768
  store i32 %61, i32* %65, align 4, !dbg !3768
  call void @_Z9__afterMAi(i32 %68), !dbg !3768
  %70 = getelementptr inbounds %"class.file_system::WorkUnit", %"class.file_system::WorkUnit"* %4, i32 0, i32 1, !dbg !3769
  %71 = load i32, i32* %70, align 4, !dbg !3769
  %72 = sext i32 %71 to i64, !dbg !3770
  %73 = getelementptr inbounds [26 x %"class.std::mutex"], [26 x %"class.std::mutex"]* bitcast ([26 x { %union.pthread_mutex_t }]* @_ZN11file_system5lockbE to [26 x %"class.std::mutex"]*), i64 0, i64 %72, !dbg !3770
  %74 = call i32 @_ZN11file_system8WorkUnit11getThreadIdEv(%"class.file_system::WorkUnit"* %0), !dbg !3771
  %75 = alloca i32, !dbg !3771
  store i32 %74, i32* %75, !dbg !3771
  %76 = load i32, i32* %75, !dbg !3771
  %77 = bitcast %"class.std::mutex"* %73 to i8*, !dbg !3771
  call void @_Z10__beforeMAiPvli(i32 %76, i8* %77, i64 8, i32 1), !dbg !3771
  call void @_ZNSt5mutex6unlockEv(%"class.std::mutex"* %73), !dbg !3771
  call void @_Z9__afterMAi(i32 %76), !dbg !3771
  br label %92, !dbg !3772

; <label>:78:                                     ; preds = %33
  %79 = getelementptr inbounds %"class.file_system::WorkUnit", %"class.file_system::WorkUnit"* %4, i32 0, i32 1, !dbg !3773
  %80 = load i32, i32* %79, align 4, !dbg !3773
  %81 = sext i32 %80 to i64, !dbg !3774
  %82 = getelementptr inbounds [26 x %"class.std::mutex"], [26 x %"class.std::mutex"]* bitcast ([26 x { %union.pthread_mutex_t }]* @_ZN11file_system5lockbE to [26 x %"class.std::mutex"]*), i64 0, i64 %81, !dbg !3774
  %83 = call i32 @_ZN11file_system8WorkUnit11getThreadIdEv(%"class.file_system::WorkUnit"* %0), !dbg !3775
  %84 = alloca i32, !dbg !3775
  store i32 %83, i32* %84, !dbg !3775
  %85 = load i32, i32* %84, !dbg !3775
  %86 = bitcast %"class.std::mutex"* %82 to i8*, !dbg !3775
  call void @_Z10__beforeMAiPvli(i32 %85, i8* %86, i64 8, i32 1), !dbg !3775
  call void @_ZNSt5mutex6unlockEv(%"class.std::mutex"* %82), !dbg !3775
  call void @_Z9__afterMAi(i32 %85), !dbg !3775
  %87 = getelementptr inbounds %"class.file_system::WorkUnit", %"class.file_system::WorkUnit"* %4, i32 0, i32 1, !dbg !3776
  %88 = load i32, i32* %87, align 4, !dbg !3776
  %89 = add nsw i32 %88, 1, !dbg !3777
  %90 = srem i32 %89, 26, !dbg !3778
  %91 = getelementptr inbounds %"class.file_system::WorkUnit", %"class.file_system::WorkUnit"* %4, i32 0, i32 1, !dbg !3779
  store i32 %90, i32* %91, align 4, !dbg !3780
  br label %33, !dbg !3781, !llvm.loop !3783

; <label>:92:                                     ; preds = %51
  br label %93, !dbg !3784

; <label>:93:                                     ; preds = %92, %1
  %94 = getelementptr inbounds %"class.file_system::WorkUnit", %"class.file_system::WorkUnit"* %4, i32 0, i32 0, !dbg !3785
  %95 = load i32, i32* %94, align 8, !dbg !3785
  %96 = sext i32 %95 to i64, !dbg !3786
  %97 = getelementptr inbounds [32 x %"class.std::mutex"], [32 x %"class.std::mutex"]* bitcast ([32 x { %union.pthread_mutex_t }]* @_ZN11file_system5lockiE to [32 x %"class.std::mutex"]*), i64 0, i64 %96, !dbg !3786
  %98 = call i32 @_ZN11file_system8WorkUnit11getThreadIdEv(%"class.file_system::WorkUnit"* %0), !dbg !3787
  %99 = alloca i32, !dbg !3787
  store i32 %98, i32* %99, !dbg !3787
  %100 = load i32, i32* %99, !dbg !3787
  %101 = bitcast %"class.std::mutex"* %97 to i8*, !dbg !3787
  call void @_Z10__beforeMAiPvli(i32 %100, i8* %101, i64 8, i32 1), !dbg !3787
  call void @_ZNSt5mutex6unlockEv(%"class.std::mutex"* %97), !dbg !3787
  call void @_Z9__afterMAi(i32 %100), !dbg !3787
  ret void, !dbg !3788
}

; Function Attrs: nounwind uwtable
define linkonce_odr dereferenceable(8) %"class.std::thread"* @_ZNSt6threadaSEOS_(%"class.std::thread"*, %"class.std::thread"* dereferenceable(8)) #4 comdat align 2 !dbg !3789 {
  %3 = alloca %"class.std::thread"*, align 8
  %4 = alloca %"class.std::thread"*, align 8
  store %"class.std::thread"* %0, %"class.std::thread"** %3, align 8
  call void @llvm.dbg.declare(metadata %"class.std::thread"** %3, metadata !3790, metadata !3290), !dbg !3791
  store %"class.std::thread"* %1, %"class.std::thread"** %4, align 8
  call void @llvm.dbg.declare(metadata %"class.std::thread"** %4, metadata !3792, metadata !3290), !dbg !3793
  %5 = load %"class.std::thread"*, %"class.std::thread"** %3, align 8
  %6 = call zeroext i1 @_ZNKSt6thread8joinableEv(%"class.std::thread"* %5) #3, !dbg !3794
  br i1 %6, label %7, label %8, !dbg !3796

; <label>:7:                                      ; preds = %2
  call void @_ZSt9terminatev() #17, !dbg !3797
  unreachable, !dbg !3797

; <label>:8:                                      ; preds = %2
  %9 = load %"class.std::thread"*, %"class.std::thread"** %4, align 8, !dbg !3798
  call void @_ZNSt6thread4swapERS_(%"class.std::thread"* %5, %"class.std::thread"* dereferenceable(8) %9) #3, !dbg !3799
  ret %"class.std::thread"* %5, !dbg !3800
}

; Function Attrs: nounwind uwtable
define linkonce_odr dereferenceable(16) { i64, i64 }* @_ZSt7forwardIMN11file_system8WorkUnitEFvvEEOT_RNSt16remove_referenceIS4_E4typeE({ i64, i64 }* dereferenceable(16)) #4 comdat !dbg !3801 {
  %2 = alloca { i64, i64 }*, align 8
  store { i64, i64 }* %0, { i64, i64 }** %2, align 8
  call void @llvm.dbg.declare(metadata { i64, i64 }** %2, metadata !3808, metadata !3290), !dbg !3809
  %3 = load { i64, i64 }*, { i64, i64 }** %2, align 8, !dbg !3810
  ret { i64, i64 }* %3, !dbg !3811
}

; Function Attrs: nounwind uwtable
define linkonce_odr dereferenceable(8) %"class.file_system::WorkUnit"** @_ZSt7forwardIPN11file_system8WorkUnitEEOT_RNSt16remove_referenceIS3_E4typeE(%"class.file_system::WorkUnit"** dereferenceable(8)) #4 comdat !dbg !3812 {
  %2 = alloca %"class.file_system::WorkUnit"**, align 8
  store %"class.file_system::WorkUnit"** %0, %"class.file_system::WorkUnit"*** %2, align 8
  call void @llvm.dbg.declare(metadata %"class.file_system::WorkUnit"*** %2, metadata !3818, metadata !3290), !dbg !3819
  %3 = load %"class.file_system::WorkUnit"**, %"class.file_system::WorkUnit"*** %2, align 8, !dbg !3820
  ret %"class.file_system::WorkUnit"** %3, !dbg !3821
}

; Function Attrs: uwtable
define linkonce_odr void @_ZNSt6threadC2IMN11file_system8WorkUnitEFvvEJPS2_EEEOT_DpOT0_(%"class.std::thread"*, { i64, i64 }* dereferenceable(16), %"class.file_system::WorkUnit"** dereferenceable(8)) unnamed_addr #0 comdat align 2 personality i8* bitcast (i32 (...)* @__gxx_personality_v0 to i8*) !dbg !3822 {
  %4 = alloca %"class.std::thread"*, align 8
  %5 = alloca { i64, i64 }*, align 8
  %6 = alloca %"class.file_system::WorkUnit"**, align 8
  %7 = alloca void ()*, align 8
  %8 = alloca %"class.std::unique_ptr", align 8
  %9 = alloca %"struct.std::_Bind_simple", align 8
  %10 = alloca i8*
  %11 = alloca i32
  store %"class.std::thread"* %0, %"class.std::thread"** %4, align 8
  call void @llvm.dbg.declare(metadata %"class.std::thread"** %4, metadata !3828, metadata !3290), !dbg !3829
  store { i64, i64 }* %1, { i64, i64 }** %5, align 8
  call void @llvm.dbg.declare(metadata { i64, i64 }** %5, metadata !3830, metadata !3290), !dbg !3831
  store %"class.file_system::WorkUnit"** %2, %"class.file_system::WorkUnit"*** %6, align 8
  call void @llvm.dbg.declare(metadata %"class.file_system::WorkUnit"*** %6, metadata !3832, metadata !3290), !dbg !3833
  %12 = load %"class.std::thread"*, %"class.std::thread"** %4, align 8
  %13 = getelementptr inbounds %"class.std::thread", %"class.std::thread"* %12, i32 0, i32 0, !dbg !3834
  call void @_ZNSt6thread2idC2Ev(%"class.std::thread::id"* %13) #3, !dbg !3834
  call void @llvm.dbg.declare(metadata void ()** %7, metadata !3835, metadata !3290), !dbg !3837
  store void ()* bitcast (i32 (i64*, %union.pthread_attr_t*, i8* (i8*)*, i8*)* @pthread_create to void ()*), void ()** %7, align 8, !dbg !3837
  %14 = load { i64, i64 }*, { i64, i64 }** %5, align 8, !dbg !3838
  %15 = call dereferenceable(16) { i64, i64 }* @_ZSt7forwardIMN11file_system8WorkUnitEFvvEEOT_RNSt16remove_referenceIS4_E4typeE({ i64, i64 }* dereferenceable(16) %14) #3, !dbg !3839
  %16 = load %"class.file_system::WorkUnit"**, %"class.file_system::WorkUnit"*** %6, align 8, !dbg !3840
  %17 = call dereferenceable(8) %"class.file_system::WorkUnit"** @_ZSt7forwardIPN11file_system8WorkUnitEEOT_RNSt16remove_referenceIS3_E4typeE(%"class.file_system::WorkUnit"** dereferenceable(8) %16) #3, !dbg !3841
  call void @_ZSt13__bind_simpleIMN11file_system8WorkUnitEFvvEJPS1_EENSt19_Bind_simple_helperIT_JDpT0_EE6__typeEOS6_DpOS7_(%"struct.std::_Bind_simple"* sret %9, { i64, i64 }* dereferenceable(16) %15, %"class.file_system::WorkUnit"** dereferenceable(8) %17), !dbg !3842
  call void @_ZNSt6thread13_S_make_stateISt12_Bind_simpleIFSt7_Mem_fnIMN11file_system8WorkUnitEFvvEEPS4_EEEESt10unique_ptrINS_6_StateESt14default_deleteISC_EEOT_(%"class.std::unique_ptr"* sret %8, %"struct.std::_Bind_simple"* dereferenceable(24) %9), !dbg !3844
  %18 = load void ()*, void ()** %7, align 8, !dbg !3845
  invoke void @_ZNSt6thread15_M_start_threadESt10unique_ptrINS_6_StateESt14default_deleteIS1_EEPFvvE(%"class.std::thread"* %12, %"class.std::unique_ptr"* %8, void ()* %18)
          to label %19 unwind label %20, !dbg !3846

; <label>:19:                                     ; preds = %3
  call void @_ZNSt10unique_ptrINSt6thread6_StateESt14default_deleteIS1_EED2Ev(%"class.std::unique_ptr"* %8) #3, !dbg !3847
  ret void, !dbg !3848

; <label>:20:                                     ; preds = %3
  %21 = landingpad { i8*, i32 }
          cleanup, !dbg !3849
  %22 = extractvalue { i8*, i32 } %21, 0, !dbg !3849
  store i8* %22, i8** %10, align 8, !dbg !3849
  %23 = extractvalue { i8*, i32 } %21, 1, !dbg !3849
  store i32 %23, i32* %11, align 4, !dbg !3849
  call void @_ZNSt10unique_ptrINSt6thread6_StateESt14default_deleteIS1_EED2Ev(%"class.std::unique_ptr"* %8) #3, !dbg !3850
  br label %24, !dbg !3850

; <label>:24:                                     ; preds = %20
  %25 = load i8*, i8** %10, align 8, !dbg !3852
  %26 = load i32, i32* %11, align 4, !dbg !3852
  %27 = insertvalue { i8*, i32 } undef, i8* %25, 0, !dbg !3852
  %28 = insertvalue { i8*, i32 } %27, i32 %26, 1, !dbg !3852
  resume { i8*, i32 } %28, !dbg !3852
}

; Function Attrs: nounwind uwtable
define linkonce_odr void @_ZNSt6threadD2Ev(%"class.std::thread"*) unnamed_addr #4 comdat align 2 !dbg !3854 {
  %2 = alloca %"class.std::thread"*, align 8
  store %"class.std::thread"* %0, %"class.std::thread"** %2, align 8
  call void @llvm.dbg.declare(metadata %"class.std::thread"** %2, metadata !3855, metadata !3290), !dbg !3856
  %3 = load %"class.std::thread"*, %"class.std::thread"** %2, align 8
  %4 = call zeroext i1 @_ZNKSt6thread8joinableEv(%"class.std::thread"* %3) #3, !dbg !3857
  br i1 %4, label %5, label %6, !dbg !3860

; <label>:5:                                      ; preds = %1
  call void @_ZSt9terminatev() #17, !dbg !3861
  unreachable, !dbg !3861

; <label>:6:                                      ; preds = %1
  ret void, !dbg !3862
}

; Function Attrs: nounwind uwtable
define linkonce_odr zeroext i1 @_ZNKSt6thread8joinableEv(%"class.std::thread"*) #4 comdat align 2 !dbg !3863 {
  %2 = alloca %"class.std::thread"*, align 8
  %3 = alloca %"class.std::thread::id", align 8
  %4 = alloca %"class.std::thread::id", align 8
  store %"class.std::thread"* %0, %"class.std::thread"** %2, align 8
  call void @llvm.dbg.declare(metadata %"class.std::thread"** %2, metadata !3864, metadata !3290), !dbg !3866
  %5 = load %"class.std::thread"*, %"class.std::thread"** %2, align 8
  %6 = getelementptr inbounds %"class.std::thread", %"class.std::thread"* %5, i32 0, i32 0, !dbg !3867
  %7 = bitcast %"class.std::thread::id"* %3 to i8*, !dbg !3867
  %8 = bitcast %"class.std::thread::id"* %6 to i8*, !dbg !3867
  call void @llvm.memcpy.p0i8.p0i8.i64(i8* %7, i8* %8, i64 8, i32 8, i1 false), !dbg !3867
  call void @_ZNSt6thread2idC2Ev(%"class.std::thread::id"* %4) #3, !dbg !3868
  %9 = getelementptr inbounds %"class.std::thread::id", %"class.std::thread::id"* %3, i32 0, i32 0, !dbg !3870
  %10 = load i64, i64* %9, align 8, !dbg !3870
  %11 = getelementptr inbounds %"class.std::thread::id", %"class.std::thread::id"* %4, i32 0, i32 0, !dbg !3870
  %12 = load i64, i64* %11, align 8, !dbg !3870
  %13 = call zeroext i1 @_ZSteqNSt6thread2idES0_(i64 %10, i64 %12) #3, !dbg !3871
  %14 = xor i1 %13, true, !dbg !3873
  ret i1 %14, !dbg !3874
}

; Function Attrs: noreturn nounwind
declare void @_ZSt9terminatev() #10

; Function Attrs: nounwind uwtable
define linkonce_odr void @_ZNSt6thread4swapERS_(%"class.std::thread"*, %"class.std::thread"* dereferenceable(8)) #4 comdat align 2 !dbg !3875 {
  %3 = alloca %"class.std::thread"*, align 8
  %4 = alloca %"class.std::thread"*, align 8
  store %"class.std::thread"* %0, %"class.std::thread"** %3, align 8
  call void @llvm.dbg.declare(metadata %"class.std::thread"** %3, metadata !3876, metadata !3290), !dbg !3877
  store %"class.std::thread"* %1, %"class.std::thread"** %4, align 8
  call void @llvm.dbg.declare(metadata %"class.std::thread"** %4, metadata !3878, metadata !3290), !dbg !3879
  %5 = load %"class.std::thread"*, %"class.std::thread"** %3, align 8
  %6 = getelementptr inbounds %"class.std::thread", %"class.std::thread"* %5, i32 0, i32 0, !dbg !3880
  %7 = load %"class.std::thread"*, %"class.std::thread"** %4, align 8, !dbg !3881
  %8 = getelementptr inbounds %"class.std::thread", %"class.std::thread"* %7, i32 0, i32 0, !dbg !3882
  call void @_ZSt4swapINSt6thread2idEENSt9enable_ifIXsr6__and_ISt21is_move_constructibleIT_ESt18is_move_assignableIS4_EEE5valueEvE4typeERS4_SA_(%"class.std::thread::id"* dereferenceable(8) %6, %"class.std::thread::id"* dereferenceable(8) %8) #3, !dbg !3883
  ret void, !dbg !3884
}

; Function Attrs: nounwind uwtable
define linkonce_odr zeroext i1 @_ZSteqNSt6thread2idES0_(i64, i64) #4 comdat !dbg !3885 {
  %3 = alloca %"class.std::thread::id", align 8
  %4 = alloca %"class.std::thread::id", align 8
  %5 = getelementptr inbounds %"class.std::thread::id", %"class.std::thread::id"* %3, i32 0, i32 0
  store i64 %0, i64* %5, align 8
  %6 = getelementptr inbounds %"class.std::thread::id", %"class.std::thread::id"* %4, i32 0, i32 0
  store i64 %1, i64* %6, align 8
  call void @llvm.dbg.declare(metadata %"class.std::thread::id"* %3, metadata !3888, metadata !3290), !dbg !3889
  call void @llvm.dbg.declare(metadata %"class.std::thread::id"* %4, metadata !3890, metadata !3290), !dbg !3891
  %7 = getelementptr inbounds %"class.std::thread::id", %"class.std::thread::id"* %3, i32 0, i32 0, !dbg !3892
  %8 = load i64, i64* %7, align 8, !dbg !3892
  %9 = getelementptr inbounds %"class.std::thread::id", %"class.std::thread::id"* %4, i32 0, i32 0, !dbg !3893
  %10 = load i64, i64* %9, align 8, !dbg !3893
  %11 = icmp eq i64 %8, %10, !dbg !3894
  ret i1 %11, !dbg !3895
}

; Function Attrs: argmemonly nounwind
declare void @llvm.memcpy.p0i8.p0i8.i64(i8* nocapture writeonly, i8* nocapture readonly, i64, i32, i1) #11

; Function Attrs: inlinehint nounwind uwtable
define linkonce_odr void @_ZSt4swapINSt6thread2idEENSt9enable_ifIXsr6__and_ISt21is_move_constructibleIT_ESt18is_move_assignableIS4_EEE5valueEvE4typeERS4_SA_(%"class.std::thread::id"* dereferenceable(8), %"class.std::thread::id"* dereferenceable(8)) #9 comdat !dbg !3896 {
  %3 = alloca %"class.std::thread::id"*, align 8
  %4 = alloca %"class.std::thread::id"*, align 8
  %5 = alloca %"class.std::thread::id", align 8
  store %"class.std::thread::id"* %0, %"class.std::thread::id"** %3, align 8
  call void @llvm.dbg.declare(metadata %"class.std::thread::id"** %3, metadata !3905, metadata !3290), !dbg !3906
  store %"class.std::thread::id"* %1, %"class.std::thread::id"** %4, align 8
  call void @llvm.dbg.declare(metadata %"class.std::thread::id"** %4, metadata !3907, metadata !3290), !dbg !3908
  call void @llvm.dbg.declare(metadata %"class.std::thread::id"* %5, metadata !3909, metadata !3290), !dbg !3910
  %6 = load %"class.std::thread::id"*, %"class.std::thread::id"** %3, align 8, !dbg !3911
  %7 = call dereferenceable(8) %"class.std::thread::id"* @_ZSt4moveIRNSt6thread2idEEONSt16remove_referenceIT_E4typeEOS4_(%"class.std::thread::id"* dereferenceable(8) %6) #3, !dbg !3911
  %8 = bitcast %"class.std::thread::id"* %5 to i8*, !dbg !3911
  %9 = bitcast %"class.std::thread::id"* %7 to i8*, !dbg !3911
  call void @llvm.memcpy.p0i8.p0i8.i64(i8* %8, i8* %9, i64 8, i32 8, i1 false), !dbg !3912
  %10 = load %"class.std::thread::id"*, %"class.std::thread::id"** %3, align 8, !dbg !3914
  %11 = load %"class.std::thread::id"*, %"class.std::thread::id"** %4, align 8, !dbg !3915
  %12 = call dereferenceable(8) %"class.std::thread::id"* @_ZSt4moveIRNSt6thread2idEEONSt16remove_referenceIT_E4typeEOS4_(%"class.std::thread::id"* dereferenceable(8) %11) #3, !dbg !3915
  %13 = bitcast %"class.std::thread::id"* %10 to i8*, !dbg !3916
  %14 = bitcast %"class.std::thread::id"* %12 to i8*, !dbg !3916
  call void @llvm.memcpy.p0i8.p0i8.i64(i8* %13, i8* %14, i64 8, i32 8, i1 false), !dbg !3917
  %15 = load %"class.std::thread::id"*, %"class.std::thread::id"** %4, align 8, !dbg !3918
  %16 = call dereferenceable(8) %"class.std::thread::id"* @_ZSt4moveIRNSt6thread2idEEONSt16remove_referenceIT_E4typeEOS4_(%"class.std::thread::id"* dereferenceable(8) %5) #3, !dbg !3919
  %17 = bitcast %"class.std::thread::id"* %15 to i8*, !dbg !3920
  %18 = bitcast %"class.std::thread::id"* %16 to i8*, !dbg !3920
  call void @llvm.memcpy.p0i8.p0i8.i64(i8* %17, i8* %18, i64 8, i32 8, i1 false), !dbg !3921
  ret void, !dbg !3922
}

; Function Attrs: nounwind uwtable
define linkonce_odr dereferenceable(8) %"class.std::thread::id"* @_ZSt4moveIRNSt6thread2idEEONSt16remove_referenceIT_E4typeEOS4_(%"class.std::thread::id"* dereferenceable(8)) #4 comdat !dbg !3923 {
  %2 = alloca %"class.std::thread::id"*, align 8
  store %"class.std::thread::id"* %0, %"class.std::thread::id"** %2, align 8
  call void @llvm.dbg.declare(metadata %"class.std::thread::id"** %2, metadata !3931, metadata !3290), !dbg !3932
  %3 = load %"class.std::thread::id"*, %"class.std::thread::id"** %2, align 8, !dbg !3933
  ret %"class.std::thread::id"* %3, !dbg !3934
}

; Function Attrs: nounwind
declare i32 @pthread_create(i64*, %union.pthread_attr_t*, i8* (i8*)*, i8*) #2

declare void @_ZNSt6thread15_M_start_threadESt10unique_ptrINS_6_StateESt14default_deleteIS1_EEPFvvE(%"class.std::thread"*, %"class.std::unique_ptr"*, void ()*) #1

; Function Attrs: uwtable
define linkonce_odr void @_ZNSt6thread13_S_make_stateISt12_Bind_simpleIFSt7_Mem_fnIMN11file_system8WorkUnitEFvvEEPS4_EEEESt10unique_ptrINS_6_StateESt14default_deleteISC_EEOT_(%"class.std::unique_ptr"* noalias sret, %"struct.std::_Bind_simple"* dereferenceable(24)) #0 comdat align 2 personality i8* bitcast (i32 (...)* @__gxx_personality_v0 to i8*) !dbg !3935 {
  %3 = alloca %"struct.std::_Bind_simple"*, align 8
  %4 = alloca i8*
  %5 = alloca i32
  store %"struct.std::_Bind_simple"* %1, %"struct.std::_Bind_simple"** %3, align 8
  call void @llvm.dbg.declare(metadata %"struct.std::_Bind_simple"** %3, metadata !4138, metadata !3290), !dbg !4139
  %6 = call i8* @_Znwm(i64 32) #15, !dbg !4140
  %7 = bitcast i8* %6 to %"struct.std::thread::_State_impl"*, !dbg !4140
  %8 = load %"struct.std::_Bind_simple"*, %"struct.std::_Bind_simple"** %3, align 8, !dbg !4141
  %9 = call dereferenceable(24) %"struct.std::_Bind_simple"* @_ZSt7forwardISt12_Bind_simpleIFSt7_Mem_fnIMN11file_system8WorkUnitEFvvEEPS3_EEEOT_RNSt16remove_referenceISA_E4typeE(%"struct.std::_Bind_simple"* dereferenceable(24) %8) #3, !dbg !4142
  invoke void @_ZNSt6thread11_State_implISt12_Bind_simpleIFSt7_Mem_fnIMN11file_system8WorkUnitEFvvEEPS4_EEEC2EOSA_(%"struct.std::thread::_State_impl"* %7, %"struct.std::_Bind_simple"* dereferenceable(24) %9)
          to label %10 unwind label %12, !dbg !4144

; <label>:10:                                     ; preds = %2
  %11 = bitcast %"struct.std::thread::_State_impl"* %7 to %"struct.std::thread::_State"*, !dbg !4145
  call void @_ZNSt10unique_ptrINSt6thread6_StateESt14default_deleteIS1_EEC2EPS1_(%"class.std::unique_ptr"* %0, %"struct.std::thread::_State"* %11) #3, !dbg !4147
  ret void, !dbg !4148

; <label>:12:                                     ; preds = %2
  %13 = landingpad { i8*, i32 }
          cleanup, !dbg !4149
  %14 = extractvalue { i8*, i32 } %13, 0, !dbg !4149
  store i8* %14, i8** %4, align 8, !dbg !4149
  %15 = extractvalue { i8*, i32 } %13, 1, !dbg !4149
  store i32 %15, i32* %5, align 4, !dbg !4149
  call void @_ZdlPv(i8* %6) #16, !dbg !4150
  br label %16, !dbg !4150

; <label>:16:                                     ; preds = %12
  %17 = load i8*, i8** %4, align 8, !dbg !4152
  %18 = load i32, i32* %5, align 4, !dbg !4152
  %19 = insertvalue { i8*, i32 } undef, i8* %17, 0, !dbg !4152
  %20 = insertvalue { i8*, i32 } %19, i32 %18, 1, !dbg !4152
  resume { i8*, i32 } %20, !dbg !4152
}

; Function Attrs: uwtable
define linkonce_odr void @_ZSt13__bind_simpleIMN11file_system8WorkUnitEFvvEJPS1_EENSt19_Bind_simple_helperIT_JDpT0_EE6__typeEOS6_DpOS7_(%"struct.std::_Bind_simple"* noalias sret, { i64, i64 }* dereferenceable(16), %"class.file_system::WorkUnit"** dereferenceable(8)) #0 comdat !dbg !4154 {
  %4 = alloca { i64, i64 }*, align 8
  %5 = alloca %"class.file_system::WorkUnit"**, align 8
  %6 = alloca %"struct.std::_Mem_fn", align 8
  %7 = alloca { i64, i64 }, align 8
  store { i64, i64 }* %1, { i64, i64 }** %4, align 8
  call void @llvm.dbg.declare(metadata { i64, i64 }** %4, metadata !4165, metadata !3290), !dbg !4166
  store %"class.file_system::WorkUnit"** %2, %"class.file_system::WorkUnit"*** %5, align 8
  call void @llvm.dbg.declare(metadata %"class.file_system::WorkUnit"*** %5, metadata !4167, metadata !3290), !dbg !4168
  %8 = load { i64, i64 }*, { i64, i64 }** %4, align 8, !dbg !4169
  %9 = call dereferenceable(16) { i64, i64 }* @_ZSt7forwardIMN11file_system8WorkUnitEFvvEEOT_RNSt16remove_referenceIS4_E4typeE({ i64, i64 }* dereferenceable(16) %8) #3, !dbg !4170
  %10 = load { i64, i64 }, { i64, i64 }* %9, align 8, !dbg !4170
  store { i64, i64 } %10, { i64, i64 }* %7, align 8, !dbg !4171
  %11 = getelementptr inbounds { i64, i64 }, { i64, i64 }* %7, i32 0, i32 0, !dbg !4171
  %12 = load i64, i64* %11, align 8, !dbg !4171
  %13 = getelementptr inbounds { i64, i64 }, { i64, i64 }* %7, i32 0, i32 1, !dbg !4171
  %14 = load i64, i64* %13, align 8, !dbg !4171
  %15 = call { i64, i64 } @_ZNSt26_Maybe_wrap_member_pointerIMN11file_system8WorkUnitEFvvEE9__do_wrapES3_(i64 %12, i64 %14), !dbg !4172
  %16 = getelementptr inbounds %"struct.std::_Mem_fn", %"struct.std::_Mem_fn"* %6, i32 0, i32 0, !dbg !4171
  %17 = getelementptr inbounds %"class.std::_Mem_fn_base", %"class.std::_Mem_fn_base"* %16, i32 0, i32 0, !dbg !4171
  %18 = getelementptr inbounds { i64, i64 }, { i64, i64 }* %17, i32 0, i32 0, !dbg !4171
  %19 = extractvalue { i64, i64 } %15, 0, !dbg !4171
  store i64 %19, i64* %18, align 8, !dbg !4171
  %20 = getelementptr inbounds { i64, i64 }, { i64, i64 }* %17, i32 0, i32 1, !dbg !4171
  %21 = extractvalue { i64, i64 } %15, 1, !dbg !4171
  store i64 %21, i64* %20, align 8, !dbg !4171
  %22 = load %"class.file_system::WorkUnit"**, %"class.file_system::WorkUnit"*** %5, align 8, !dbg !4174
  %23 = call dereferenceable(8) %"class.file_system::WorkUnit"** @_ZSt7forwardIPN11file_system8WorkUnitEEOT_RNSt16remove_referenceIS3_E4typeE(%"class.file_system::WorkUnit"** dereferenceable(8) %22) #3, !dbg !4175
  call void @_ZNSt12_Bind_simpleIFSt7_Mem_fnIMN11file_system8WorkUnitEFvvEEPS2_EEC2IS5_JS6_EEEOT_DpOT0_(%"struct.std::_Bind_simple"* %0, %"struct.std::_Mem_fn"* dereferenceable(16) %6, %"class.file_system::WorkUnit"** dereferenceable(8) %23), !dbg !4176
  ret void, !dbg !4177
}

; Function Attrs: nounwind uwtable
define linkonce_odr void @_ZNSt10unique_ptrINSt6thread6_StateESt14default_deleteIS1_EED2Ev(%"class.std::unique_ptr"*) unnamed_addr #4 comdat align 2 personality i8* bitcast (i32 (...)* @__gxx_personality_v0 to i8*) !dbg !4178 {
  %2 = alloca %"class.std::unique_ptr"*, align 8
  %3 = alloca %"struct.std::thread::_State"**, align 8
  store %"class.std::unique_ptr"* %0, %"class.std::unique_ptr"** %2, align 8
  call void @llvm.dbg.declare(metadata %"class.std::unique_ptr"** %2, metadata !4179, metadata !3290), !dbg !4181
  %4 = load %"class.std::unique_ptr"*, %"class.std::unique_ptr"** %2, align 8
  call void @llvm.dbg.declare(metadata %"struct.std::thread::_State"*** %3, metadata !4182, metadata !3290), !dbg !4184
  %5 = getelementptr inbounds %"class.std::unique_ptr", %"class.std::unique_ptr"* %4, i32 0, i32 0, !dbg !4185
  %6 = call dereferenceable(8) %"struct.std::thread::_State"** @_ZSt3getILm0EJPNSt6thread6_StateESt14default_deleteIS1_EEERNSt13tuple_elementIXT_ESt5tupleIJDpT0_EEE4typeERS9_(%"class.std::tuple"* dereferenceable(8) %5) #3, !dbg !4186
  store %"struct.std::thread::_State"** %6, %"struct.std::thread::_State"*** %3, align 8, !dbg !4184
  %7 = load %"struct.std::thread::_State"**, %"struct.std::thread::_State"*** %3, align 8, !dbg !4187
  %8 = load %"struct.std::thread::_State"*, %"struct.std::thread::_State"** %7, align 8, !dbg !4187
  %9 = icmp ne %"struct.std::thread::_State"* %8, null, !dbg !4189
  br i1 %9, label %10, label %15, !dbg !4190

; <label>:10:                                     ; preds = %1
  %11 = call dereferenceable(1) %"struct.std::default_delete"* @_ZNSt10unique_ptrINSt6thread6_StateESt14default_deleteIS1_EE11get_deleterEv(%"class.std::unique_ptr"* %4) #3, !dbg !4191
  %12 = load %"struct.std::thread::_State"**, %"struct.std::thread::_State"*** %3, align 8, !dbg !4192
  %13 = load %"struct.std::thread::_State"*, %"struct.std::thread::_State"** %12, align 8, !dbg !4192
  invoke void @_ZNKSt14default_deleteINSt6thread6_StateEEclEPS1_(%"struct.std::default_delete"* %11, %"struct.std::thread::_State"* %13)
          to label %14 unwind label %17, !dbg !4191

; <label>:14:                                     ; preds = %10
  br label %15, !dbg !4193

; <label>:15:                                     ; preds = %14, %1
  %16 = load %"struct.std::thread::_State"**, %"struct.std::thread::_State"*** %3, align 8, !dbg !4195
  store %"struct.std::thread::_State"* null, %"struct.std::thread::_State"** %16, align 8, !dbg !4196
  ret void, !dbg !4197

; <label>:17:                                     ; preds = %10
  %18 = landingpad { i8*, i32 }
          catch i8* null, !dbg !4198
  %19 = extractvalue { i8*, i32 } %18, 0, !dbg !4198
  call void @__clang_call_terminate(i8* %19) #17, !dbg !4198
  unreachable, !dbg !4198
}

; Function Attrs: nounwind uwtable
define linkonce_odr dereferenceable(24) %"struct.std::_Bind_simple"* @_ZSt7forwardISt12_Bind_simpleIFSt7_Mem_fnIMN11file_system8WorkUnitEFvvEEPS3_EEEOT_RNSt16remove_referenceISA_E4typeE(%"struct.std::_Bind_simple"* dereferenceable(24)) #4 comdat !dbg !4200 {
  %2 = alloca %"struct.std::_Bind_simple"*, align 8
  store %"struct.std::_Bind_simple"* %0, %"struct.std::_Bind_simple"** %2, align 8
  call void @llvm.dbg.declare(metadata %"struct.std::_Bind_simple"** %2, metadata !4208, metadata !3290), !dbg !4209
  %3 = load %"struct.std::_Bind_simple"*, %"struct.std::_Bind_simple"** %2, align 8, !dbg !4210
  ret %"struct.std::_Bind_simple"* %3, !dbg !4211
}

; Function Attrs: nounwind uwtable
define linkonce_odr void @_ZNSt6thread11_State_implISt12_Bind_simpleIFSt7_Mem_fnIMN11file_system8WorkUnitEFvvEEPS4_EEEC2EOSA_(%"struct.std::thread::_State_impl"*, %"struct.std::_Bind_simple"* dereferenceable(24)) unnamed_addr #4 comdat align 2 !dbg !4212 {
  %3 = alloca %"struct.std::thread::_State_impl"*, align 8
  %4 = alloca %"struct.std::_Bind_simple"*, align 8
  store %"struct.std::thread::_State_impl"* %0, %"struct.std::thread::_State_impl"** %3, align 8
  call void @llvm.dbg.declare(metadata %"struct.std::thread::_State_impl"** %3, metadata !4224, metadata !3290), !dbg !4226
  store %"struct.std::_Bind_simple"* %1, %"struct.std::_Bind_simple"** %4, align 8
  call void @llvm.dbg.declare(metadata %"struct.std::_Bind_simple"** %4, metadata !4227, metadata !3290), !dbg !4228
  %5 = load %"struct.std::thread::_State_impl"*, %"struct.std::thread::_State_impl"** %3, align 8
  %6 = bitcast %"struct.std::thread::_State_impl"* %5 to %"struct.std::thread::_State"*, !dbg !4229
  call void @_ZNSt6thread6_StateC2Ev(%"struct.std::thread::_State"* %6) #3, !dbg !4230
  %7 = bitcast %"struct.std::thread::_State_impl"* %5 to i32 (...)***, !dbg !4229
  store i32 (...)** bitcast (i8** getelementptr inbounds ([5 x i8*], [5 x i8*]* @_ZTVNSt6thread11_State_implISt12_Bind_simpleIFSt7_Mem_fnIMN11file_system8WorkUnitEFvvEEPS4_EEEE, i32 0, i32 2) to i32 (...)**), i32 (...)*** %7, align 8, !dbg !4229
  %8 = getelementptr inbounds %"struct.std::thread::_State_impl", %"struct.std::thread::_State_impl"* %5, i32 0, i32 1, !dbg !4231
  %9 = load %"struct.std::_Bind_simple"*, %"struct.std::_Bind_simple"** %4, align 8, !dbg !4232
  %10 = call dereferenceable(24) %"struct.std::_Bind_simple"* @_ZSt7forwardISt12_Bind_simpleIFSt7_Mem_fnIMN11file_system8WorkUnitEFvvEEPS3_EEEOT_RNSt16remove_referenceISA_E4typeE(%"struct.std::_Bind_simple"* dereferenceable(24) %9) #3, !dbg !4233
  call void @_ZNSt12_Bind_simpleIFSt7_Mem_fnIMN11file_system8WorkUnitEFvvEEPS2_EEC2EOS8_(%"struct.std::_Bind_simple"* %8, %"struct.std::_Bind_simple"* dereferenceable(24) %10) #3, !dbg !4235
  ret void, !dbg !4237
}

; Function Attrs: nounwind uwtable
define linkonce_odr void @_ZNSt10unique_ptrINSt6thread6_StateESt14default_deleteIS1_EEC2EPS1_(%"class.std::unique_ptr"*, %"struct.std::thread::_State"*) unnamed_addr #4 comdat align 2 personality i8* bitcast (i32 (...)* @__gxx_personality_v0 to i8*) !dbg !4238 {
  %3 = alloca %"class.std::unique_ptr"*, align 8
  %4 = alloca %"struct.std::thread::_State"*, align 8
  store %"class.std::unique_ptr"* %0, %"class.std::unique_ptr"** %3, align 8
  call void @llvm.dbg.declare(metadata %"class.std::unique_ptr"** %3, metadata !4239, metadata !3290), !dbg !4240
  store %"struct.std::thread::_State"* %1, %"struct.std::thread::_State"** %4, align 8
  call void @llvm.dbg.declare(metadata %"struct.std::thread::_State"** %4, metadata !4241, metadata !3290), !dbg !4242
  %5 = load %"class.std::unique_ptr"*, %"class.std::unique_ptr"** %3, align 8
  %6 = getelementptr inbounds %"class.std::unique_ptr", %"class.std::unique_ptr"* %5, i32 0, i32 0, !dbg !4243
  invoke void @_ZNSt5tupleIJPNSt6thread6_StateESt14default_deleteIS1_EEEC2IS2_S4_Lb1EEEv(%"class.std::tuple"* %6)
          to label %7 unwind label %11, !dbg !4243

; <label>:7:                                      ; preds = %2
  %8 = load %"struct.std::thread::_State"*, %"struct.std::thread::_State"** %4, align 8, !dbg !4244
  %9 = getelementptr inbounds %"class.std::unique_ptr", %"class.std::unique_ptr"* %5, i32 0, i32 0, !dbg !4246
  %10 = call dereferenceable(8) %"struct.std::thread::_State"** @_ZSt3getILm0EJPNSt6thread6_StateESt14default_deleteIS1_EEERNSt13tuple_elementIXT_ESt5tupleIJDpT0_EEE4typeERS9_(%"class.std::tuple"* dereferenceable(8) %9) #3, !dbg !4247
  store %"struct.std::thread::_State"* %8, %"struct.std::thread::_State"** %10, align 8, !dbg !4248
  ret void, !dbg !4249

; <label>:11:                                     ; preds = %2
  %12 = landingpad { i8*, i32 }
          catch i8* null, !dbg !4250
  %13 = extractvalue { i8*, i32 } %12, 0, !dbg !4250
  call void @__clang_call_terminate(i8* %13) #17, !dbg !4250
  unreachable, !dbg !4250
}

; Function Attrs: inlinehint nounwind uwtable
define linkonce_odr void @_ZNSt6thread6_StateC2Ev(%"struct.std::thread::_State"*) unnamed_addr #9 comdat align 2 !dbg !4252 {
  %2 = alloca %"struct.std::thread::_State"*, align 8
  store %"struct.std::thread::_State"* %0, %"struct.std::thread::_State"** %2, align 8
  call void @llvm.dbg.declare(metadata %"struct.std::thread::_State"** %2, metadata !4257, metadata !3290), !dbg !4258
  %3 = load %"struct.std::thread::_State"*, %"struct.std::thread::_State"** %2, align 8
  %4 = bitcast %"struct.std::thread::_State"* %3 to i32 (...)***, !dbg !4259
  store i32 (...)** bitcast (i8** getelementptr inbounds ([5 x i8*], [5 x i8*]* @_ZTVNSt6thread6_StateE, i32 0, i32 2) to i32 (...)**), i32 (...)*** %4, align 8, !dbg !4259
  ret void, !dbg !4259
}

; Function Attrs: nounwind uwtable
define linkonce_odr void @_ZNSt12_Bind_simpleIFSt7_Mem_fnIMN11file_system8WorkUnitEFvvEEPS2_EEC2EOS8_(%"struct.std::_Bind_simple"*, %"struct.std::_Bind_simple"* dereferenceable(24)) unnamed_addr #4 comdat align 2 !dbg !4260 {
  %3 = alloca %"struct.std::_Bind_simple"*, align 8
  %4 = alloca %"struct.std::_Bind_simple"*, align 8
  store %"struct.std::_Bind_simple"* %0, %"struct.std::_Bind_simple"** %3, align 8
  call void @llvm.dbg.declare(metadata %"struct.std::_Bind_simple"** %3, metadata !4261, metadata !3290), !dbg !4263
  store %"struct.std::_Bind_simple"* %1, %"struct.std::_Bind_simple"** %4, align 8
  call void @llvm.dbg.declare(metadata %"struct.std::_Bind_simple"** %4, metadata !4264, metadata !3290), !dbg !4265
  %5 = load %"struct.std::_Bind_simple"*, %"struct.std::_Bind_simple"** %3, align 8
  %6 = getelementptr inbounds %"struct.std::_Bind_simple", %"struct.std::_Bind_simple"* %5, i32 0, i32 0, !dbg !4266
  %7 = load %"struct.std::_Bind_simple"*, %"struct.std::_Bind_simple"** %4, align 8, !dbg !4266
  %8 = getelementptr inbounds %"struct.std::_Bind_simple", %"struct.std::_Bind_simple"* %7, i32 0, i32 0, !dbg !4266
  call void @_ZNSt5tupleIJSt7_Mem_fnIMN11file_system8WorkUnitEFvvEEPS2_EEC2EOS7_(%"class.std::tuple.3"* %6, %"class.std::tuple.3"* dereferenceable(24) %8) #3, !dbg !4266
  ret void, !dbg !4266
}

; Function Attrs: inlinehint nounwind uwtable
define linkonce_odr void @_ZNSt6thread11_State_implISt12_Bind_simpleIFSt7_Mem_fnIMN11file_system8WorkUnitEFvvEEPS4_EEED2Ev(%"struct.std::thread::_State_impl"*) unnamed_addr #9 comdat align 2 !dbg !4267 {
  %2 = alloca %"struct.std::thread::_State_impl"*, align 8
  store %"struct.std::thread::_State_impl"* %0, %"struct.std::thread::_State_impl"** %2, align 8
  call void @llvm.dbg.declare(metadata %"struct.std::thread::_State_impl"** %2, metadata !4269, metadata !3290), !dbg !4270
  %3 = load %"struct.std::thread::_State_impl"*, %"struct.std::thread::_State_impl"** %2, align 8
  %4 = bitcast %"struct.std::thread::_State_impl"* %3 to %"struct.std::thread::_State"*, !dbg !4271
  call void @_ZNSt6thread6_StateD2Ev(%"struct.std::thread::_State"* %4) #3, !dbg !4271
  ret void, !dbg !4273
}

; Function Attrs: inlinehint nounwind uwtable
define linkonce_odr void @_ZNSt6thread11_State_implISt12_Bind_simpleIFSt7_Mem_fnIMN11file_system8WorkUnitEFvvEEPS4_EEED0Ev(%"struct.std::thread::_State_impl"*) unnamed_addr #9 comdat align 2 !dbg !4274 {
  %2 = alloca %"struct.std::thread::_State_impl"*, align 8
  store %"struct.std::thread::_State_impl"* %0, %"struct.std::thread::_State_impl"** %2, align 8
  call void @llvm.dbg.declare(metadata %"struct.std::thread::_State_impl"** %2, metadata !4275, metadata !3290), !dbg !4276
  %3 = load %"struct.std::thread::_State_impl"*, %"struct.std::thread::_State_impl"** %2, align 8
  call void @_ZNSt6thread11_State_implISt12_Bind_simpleIFSt7_Mem_fnIMN11file_system8WorkUnitEFvvEEPS4_EEED2Ev(%"struct.std::thread::_State_impl"* %3) #3, !dbg !4277
  %4 = bitcast %"struct.std::thread::_State_impl"* %3 to i8*, !dbg !4277
  call void @_ZdlPv(i8* %4) #16, !dbg !4278
  ret void, !dbg !4277
}

; Function Attrs: uwtable
define linkonce_odr void @_ZNSt6thread11_State_implISt12_Bind_simpleIFSt7_Mem_fnIMN11file_system8WorkUnitEFvvEEPS4_EEE6_M_runEv(%"struct.std::thread::_State_impl"*) unnamed_addr #0 comdat align 2 !dbg !4280 {
  %2 = alloca %"struct.std::thread::_State_impl"*, align 8
  store %"struct.std::thread::_State_impl"* %0, %"struct.std::thread::_State_impl"** %2, align 8
  call void @llvm.dbg.declare(metadata %"struct.std::thread::_State_impl"** %2, metadata !4281, metadata !3290), !dbg !4282
  %3 = load %"struct.std::thread::_State_impl"*, %"struct.std::thread::_State_impl"** %2, align 8
  %4 = getelementptr inbounds %"struct.std::thread::_State_impl", %"struct.std::thread::_State_impl"* %3, i32 0, i32 1, !dbg !4283
  call void @_ZNSt12_Bind_simpleIFSt7_Mem_fnIMN11file_system8WorkUnitEFvvEEPS2_EEclEv(%"struct.std::_Bind_simple"* %4), !dbg !4283
  ret void, !dbg !4284
}

; Function Attrs: nounwind uwtable
define linkonce_odr void @_ZNSt5tupleIJSt7_Mem_fnIMN11file_system8WorkUnitEFvvEEPS2_EEC2EOS7_(%"class.std::tuple.3"*, %"class.std::tuple.3"* dereferenceable(24)) unnamed_addr #4 comdat align 2 !dbg !4285 {
  %3 = alloca %"class.std::tuple.3"*, align 8
  %4 = alloca %"class.std::tuple.3"*, align 8
  store %"class.std::tuple.3"* %0, %"class.std::tuple.3"** %3, align 8
  call void @llvm.dbg.declare(metadata %"class.std::tuple.3"** %3, metadata !4286, metadata !3290), !dbg !4288
  store %"class.std::tuple.3"* %1, %"class.std::tuple.3"** %4, align 8
  call void @llvm.dbg.declare(metadata %"class.std::tuple.3"** %4, metadata !4289, metadata !3290), !dbg !4290
  %5 = load %"class.std::tuple.3"*, %"class.std::tuple.3"** %3, align 8
  %6 = bitcast %"class.std::tuple.3"* %5 to %"struct.std::_Tuple_impl.4"*, !dbg !4291
  %7 = load %"class.std::tuple.3"*, %"class.std::tuple.3"** %4, align 8, !dbg !4291
  %8 = bitcast %"class.std::tuple.3"* %7 to %"struct.std::_Tuple_impl.4"*, !dbg !4291
  call void @_ZNSt11_Tuple_implILm0EJSt7_Mem_fnIMN11file_system8WorkUnitEFvvEEPS2_EEC2EOS7_(%"struct.std::_Tuple_impl.4"* %6, %"struct.std::_Tuple_impl.4"* dereferenceable(24) %8) #3, !dbg !4291
  ret void, !dbg !4291
}

; Function Attrs: nounwind uwtable
define linkonce_odr void @_ZNSt11_Tuple_implILm0EJSt7_Mem_fnIMN11file_system8WorkUnitEFvvEEPS2_EEC2EOS7_(%"struct.std::_Tuple_impl.4"*, %"struct.std::_Tuple_impl.4"* dereferenceable(24)) unnamed_addr #4 comdat align 2 personality i8* bitcast (i32 (...)* @__gxx_personality_v0 to i8*) !dbg !4292 {
  %3 = alloca %"struct.std::_Tuple_impl.4"*, align 8
  %4 = alloca %"struct.std::_Tuple_impl.4"*, align 8
  store %"struct.std::_Tuple_impl.4"* %0, %"struct.std::_Tuple_impl.4"** %3, align 8
  call void @llvm.dbg.declare(metadata %"struct.std::_Tuple_impl.4"** %3, metadata !4293, metadata !3290), !dbg !4295
  store %"struct.std::_Tuple_impl.4"* %1, %"struct.std::_Tuple_impl.4"** %4, align 8
  call void @llvm.dbg.declare(metadata %"struct.std::_Tuple_impl.4"** %4, metadata !4296, metadata !3290), !dbg !4297
  %5 = load %"struct.std::_Tuple_impl.4"*, %"struct.std::_Tuple_impl.4"** %3, align 8
  %6 = bitcast %"struct.std::_Tuple_impl.4"* %5 to %"struct.std::_Tuple_impl.5"*, !dbg !4298
  %7 = load %"struct.std::_Tuple_impl.4"*, %"struct.std::_Tuple_impl.4"** %4, align 8, !dbg !4299
  %8 = call dereferenceable(8) %"struct.std::_Tuple_impl.5"* @_ZNSt11_Tuple_implILm0EJSt7_Mem_fnIMN11file_system8WorkUnitEFvvEEPS2_EE7_M_tailERS7_(%"struct.std::_Tuple_impl.4"* dereferenceable(24) %7) #3, !dbg !4300
  %9 = call dereferenceable(8) %"struct.std::_Tuple_impl.5"* @_ZSt4moveIRSt11_Tuple_implILm1EJPN11file_system8WorkUnitEEEEONSt16remove_referenceIT_E4typeEOS7_(%"struct.std::_Tuple_impl.5"* dereferenceable(8) %8) #3, !dbg !4301
  call void @_ZNSt11_Tuple_implILm1EJPN11file_system8WorkUnitEEEC2EOS3_(%"struct.std::_Tuple_impl.5"* %6, %"struct.std::_Tuple_impl.5"* dereferenceable(8) %9) #3, !dbg !4303
  %10 = bitcast %"struct.std::_Tuple_impl.4"* %5 to i8*, !dbg !4298
  %11 = getelementptr inbounds i8, i8* %10, i64 8, !dbg !4298
  %12 = bitcast i8* %11 to %"struct.std::_Head_base.7"*, !dbg !4298
  %13 = load %"struct.std::_Tuple_impl.4"*, %"struct.std::_Tuple_impl.4"** %4, align 8, !dbg !4305
  %14 = call dereferenceable(16) %"struct.std::_Mem_fn"* @_ZNSt11_Tuple_implILm0EJSt7_Mem_fnIMN11file_system8WorkUnitEFvvEEPS2_EE7_M_headERS7_(%"struct.std::_Tuple_impl.4"* dereferenceable(24) %13) #3, !dbg !4306
  %15 = call dereferenceable(16) %"struct.std::_Mem_fn"* @_ZSt7forwardISt7_Mem_fnIMN11file_system8WorkUnitEFvvEEEOT_RNSt16remove_referenceIS6_E4typeE(%"struct.std::_Mem_fn"* dereferenceable(16) %14) #3, !dbg !4307
  invoke void @_ZNSt10_Head_baseILm0ESt7_Mem_fnIMN11file_system8WorkUnitEFvvEELb0EEC2IS5_EEOT_(%"struct.std::_Head_base.7"* %12, %"struct.std::_Mem_fn"* dereferenceable(16) %15)
          to label %16 unwind label %17, !dbg !4309

; <label>:16:                                     ; preds = %2
  ret void, !dbg !4310

; <label>:17:                                     ; preds = %2
  %18 = landingpad { i8*, i32 }
          catch i8* null, !dbg !4311
  %19 = extractvalue { i8*, i32 } %18, 0, !dbg !4311
  call void @__clang_call_terminate(i8* %19) #17, !dbg !4311
  unreachable, !dbg !4311
}

; Function Attrs: nounwind uwtable
define linkonce_odr dereferenceable(8) %"struct.std::_Tuple_impl.5"* @_ZSt4moveIRSt11_Tuple_implILm1EJPN11file_system8WorkUnitEEEEONSt16remove_referenceIT_E4typeEOS7_(%"struct.std::_Tuple_impl.5"* dereferenceable(8)) #4 comdat !dbg !4312 {
  %2 = alloca %"struct.std::_Tuple_impl.5"*, align 8
  store %"struct.std::_Tuple_impl.5"* %0, %"struct.std::_Tuple_impl.5"** %2, align 8
  call void @llvm.dbg.declare(metadata %"struct.std::_Tuple_impl.5"** %2, metadata !4320, metadata !3290), !dbg !4321
  %3 = load %"struct.std::_Tuple_impl.5"*, %"struct.std::_Tuple_impl.5"** %2, align 8, !dbg !4322
  ret %"struct.std::_Tuple_impl.5"* %3, !dbg !4323
}

; Function Attrs: nounwind uwtable
define linkonce_odr dereferenceable(8) %"struct.std::_Tuple_impl.5"* @_ZNSt11_Tuple_implILm0EJSt7_Mem_fnIMN11file_system8WorkUnitEFvvEEPS2_EE7_M_tailERS7_(%"struct.std::_Tuple_impl.4"* dereferenceable(24)) #4 comdat align 2 !dbg !4324 {
  %2 = alloca %"struct.std::_Tuple_impl.4"*, align 8
  store %"struct.std::_Tuple_impl.4"* %0, %"struct.std::_Tuple_impl.4"** %2, align 8
  call void @llvm.dbg.declare(metadata %"struct.std::_Tuple_impl.4"** %2, metadata !4325, metadata !3290), !dbg !4326
  %3 = load %"struct.std::_Tuple_impl.4"*, %"struct.std::_Tuple_impl.4"** %2, align 8, !dbg !4327
  %4 = bitcast %"struct.std::_Tuple_impl.4"* %3 to %"struct.std::_Tuple_impl.5"*, !dbg !4327
  ret %"struct.std::_Tuple_impl.5"* %4, !dbg !4328
}

; Function Attrs: nounwind uwtable
define linkonce_odr void @_ZNSt11_Tuple_implILm1EJPN11file_system8WorkUnitEEEC2EOS3_(%"struct.std::_Tuple_impl.5"*, %"struct.std::_Tuple_impl.5"* dereferenceable(8)) unnamed_addr #4 comdat align 2 personality i8* bitcast (i32 (...)* @__gxx_personality_v0 to i8*) !dbg !4329 {
  %3 = alloca %"struct.std::_Tuple_impl.5"*, align 8
  %4 = alloca %"struct.std::_Tuple_impl.5"*, align 8
  store %"struct.std::_Tuple_impl.5"* %0, %"struct.std::_Tuple_impl.5"** %3, align 8
  call void @llvm.dbg.declare(metadata %"struct.std::_Tuple_impl.5"** %3, metadata !4330, metadata !3290), !dbg !4332
  store %"struct.std::_Tuple_impl.5"* %1, %"struct.std::_Tuple_impl.5"** %4, align 8
  call void @llvm.dbg.declare(metadata %"struct.std::_Tuple_impl.5"** %4, metadata !4333, metadata !3290), !dbg !4334
  %5 = load %"struct.std::_Tuple_impl.5"*, %"struct.std::_Tuple_impl.5"** %3, align 8
  %6 = bitcast %"struct.std::_Tuple_impl.5"* %5 to %"struct.std::_Head_base.6"*, !dbg !4335
  %7 = load %"struct.std::_Tuple_impl.5"*, %"struct.std::_Tuple_impl.5"** %4, align 8, !dbg !4336
  %8 = call dereferenceable(8) %"class.file_system::WorkUnit"** @_ZNSt11_Tuple_implILm1EJPN11file_system8WorkUnitEEE7_M_headERS3_(%"struct.std::_Tuple_impl.5"* dereferenceable(8) %7) #3, !dbg !4337
  %9 = call dereferenceable(8) %"class.file_system::WorkUnit"** @_ZSt7forwardIPN11file_system8WorkUnitEEOT_RNSt16remove_referenceIS3_E4typeE(%"class.file_system::WorkUnit"** dereferenceable(8) %8) #3, !dbg !4338
  invoke void @_ZNSt10_Head_baseILm1EPN11file_system8WorkUnitELb0EEC2IS2_EEOT_(%"struct.std::_Head_base.6"* %6, %"class.file_system::WorkUnit"** dereferenceable(8) %9)
          to label %10 unwind label %11, !dbg !4340

; <label>:10:                                     ; preds = %2
  ret void, !dbg !4341

; <label>:11:                                     ; preds = %2
  %12 = landingpad { i8*, i32 }
          catch i8* null, !dbg !4343
  %13 = extractvalue { i8*, i32 } %12, 0, !dbg !4343
  call void @__clang_call_terminate(i8* %13) #17, !dbg !4343
  unreachable, !dbg !4343
}

; Function Attrs: nounwind uwtable
define linkonce_odr dereferenceable(16) %"struct.std::_Mem_fn"* @_ZSt7forwardISt7_Mem_fnIMN11file_system8WorkUnitEFvvEEEOT_RNSt16remove_referenceIS6_E4typeE(%"struct.std::_Mem_fn"* dereferenceable(16)) #4 comdat !dbg !4345 {
  %2 = alloca %"struct.std::_Mem_fn"*, align 8
  store %"struct.std::_Mem_fn"* %0, %"struct.std::_Mem_fn"** %2, align 8
  call void @llvm.dbg.declare(metadata %"struct.std::_Mem_fn"** %2, metadata !4354, metadata !3290), !dbg !4355
  %3 = load %"struct.std::_Mem_fn"*, %"struct.std::_Mem_fn"** %2, align 8, !dbg !4356
  ret %"struct.std::_Mem_fn"* %3, !dbg !4357
}

; Function Attrs: nounwind uwtable
define linkonce_odr dereferenceable(16) %"struct.std::_Mem_fn"* @_ZNSt11_Tuple_implILm0EJSt7_Mem_fnIMN11file_system8WorkUnitEFvvEEPS2_EE7_M_headERS7_(%"struct.std::_Tuple_impl.4"* dereferenceable(24)) #4 comdat align 2 !dbg !4358 {
  %2 = alloca %"struct.std::_Tuple_impl.4"*, align 8
  store %"struct.std::_Tuple_impl.4"* %0, %"struct.std::_Tuple_impl.4"** %2, align 8
  call void @llvm.dbg.declare(metadata %"struct.std::_Tuple_impl.4"** %2, metadata !4359, metadata !3290), !dbg !4360
  %3 = load %"struct.std::_Tuple_impl.4"*, %"struct.std::_Tuple_impl.4"** %2, align 8, !dbg !4361
  %4 = bitcast %"struct.std::_Tuple_impl.4"* %3 to i8*, !dbg !4361
  %5 = getelementptr inbounds i8, i8* %4, i64 8, !dbg !4361
  %6 = bitcast i8* %5 to %"struct.std::_Head_base.7"*, !dbg !4361
  %7 = call dereferenceable(16) %"struct.std::_Mem_fn"* @_ZNSt10_Head_baseILm0ESt7_Mem_fnIMN11file_system8WorkUnitEFvvEELb0EE7_M_headERS6_(%"struct.std::_Head_base.7"* dereferenceable(16) %6) #3, !dbg !4362
  ret %"struct.std::_Mem_fn"* %7, !dbg !4363
}

; Function Attrs: nounwind uwtable
define linkonce_odr void @_ZNSt10_Head_baseILm0ESt7_Mem_fnIMN11file_system8WorkUnitEFvvEELb0EEC2IS5_EEOT_(%"struct.std::_Head_base.7"*, %"struct.std::_Mem_fn"* dereferenceable(16)) unnamed_addr #4 comdat align 2 !dbg !4364 {
  %3 = alloca %"struct.std::_Head_base.7"*, align 8
  %4 = alloca %"struct.std::_Mem_fn"*, align 8
  store %"struct.std::_Head_base.7"* %0, %"struct.std::_Head_base.7"** %3, align 8
  call void @llvm.dbg.declare(metadata %"struct.std::_Head_base.7"** %3, metadata !4370, metadata !3290), !dbg !4372
  store %"struct.std::_Mem_fn"* %1, %"struct.std::_Mem_fn"** %4, align 8
  call void @llvm.dbg.declare(metadata %"struct.std::_Mem_fn"** %4, metadata !4373, metadata !3290), !dbg !4374
  %5 = load %"struct.std::_Head_base.7"*, %"struct.std::_Head_base.7"** %3, align 8
  %6 = getelementptr inbounds %"struct.std::_Head_base.7", %"struct.std::_Head_base.7"* %5, i32 0, i32 0, !dbg !4375
  %7 = load %"struct.std::_Mem_fn"*, %"struct.std::_Mem_fn"** %4, align 8, !dbg !4376
  %8 = call dereferenceable(16) %"struct.std::_Mem_fn"* @_ZSt7forwardISt7_Mem_fnIMN11file_system8WorkUnitEFvvEEEOT_RNSt16remove_referenceIS6_E4typeE(%"struct.std::_Mem_fn"* dereferenceable(16) %7) #3, !dbg !4377
  %9 = bitcast %"struct.std::_Mem_fn"* %6 to i8*, !dbg !4375
  %10 = bitcast %"struct.std::_Mem_fn"* %8 to i8*, !dbg !4375
  call void @llvm.memcpy.p0i8.p0i8.i64(i8* %9, i8* %10, i64 16, i32 8, i1 false), !dbg !4378
  ret void, !dbg !4380
}

; Function Attrs: noinline noreturn nounwind
define linkonce_odr hidden void @__clang_call_terminate(i8*) #12 comdat {
  %2 = call i8* @__cxa_begin_catch(i8* %0) #3
  call void @_ZSt9terminatev() #17
  unreachable
}

declare i8* @__cxa_begin_catch(i8*)

; Function Attrs: nounwind uwtable
define linkonce_odr dereferenceable(8) %"class.file_system::WorkUnit"** @_ZNSt11_Tuple_implILm1EJPN11file_system8WorkUnitEEE7_M_headERS3_(%"struct.std::_Tuple_impl.5"* dereferenceable(8)) #4 comdat align 2 !dbg !4381 {
  %2 = alloca %"struct.std::_Tuple_impl.5"*, align 8
  store %"struct.std::_Tuple_impl.5"* %0, %"struct.std::_Tuple_impl.5"** %2, align 8
  call void @llvm.dbg.declare(metadata %"struct.std::_Tuple_impl.5"** %2, metadata !4382, metadata !3290), !dbg !4383
  %3 = load %"struct.std::_Tuple_impl.5"*, %"struct.std::_Tuple_impl.5"** %2, align 8, !dbg !4384
  %4 = bitcast %"struct.std::_Tuple_impl.5"* %3 to %"struct.std::_Head_base.6"*, !dbg !4384
  %5 = call dereferenceable(8) %"class.file_system::WorkUnit"** @_ZNSt10_Head_baseILm1EPN11file_system8WorkUnitELb0EE7_M_headERS3_(%"struct.std::_Head_base.6"* dereferenceable(8) %4) #3, !dbg !4385
  ret %"class.file_system::WorkUnit"** %5, !dbg !4386
}

; Function Attrs: nounwind uwtable
define linkonce_odr void @_ZNSt10_Head_baseILm1EPN11file_system8WorkUnitELb0EEC2IS2_EEOT_(%"struct.std::_Head_base.6"*, %"class.file_system::WorkUnit"** dereferenceable(8)) unnamed_addr #4 comdat align 2 !dbg !4387 {
  %3 = alloca %"struct.std::_Head_base.6"*, align 8
  %4 = alloca %"class.file_system::WorkUnit"**, align 8
  store %"struct.std::_Head_base.6"* %0, %"struct.std::_Head_base.6"** %3, align 8
  call void @llvm.dbg.declare(metadata %"struct.std::_Head_base.6"** %3, metadata !4393, metadata !3290), !dbg !4395
  store %"class.file_system::WorkUnit"** %1, %"class.file_system::WorkUnit"*** %4, align 8
  call void @llvm.dbg.declare(metadata %"class.file_system::WorkUnit"*** %4, metadata !4396, metadata !3290), !dbg !4397
  %5 = load %"struct.std::_Head_base.6"*, %"struct.std::_Head_base.6"** %3, align 8
  %6 = getelementptr inbounds %"struct.std::_Head_base.6", %"struct.std::_Head_base.6"* %5, i32 0, i32 0, !dbg !4398
  %7 = load %"class.file_system::WorkUnit"**, %"class.file_system::WorkUnit"*** %4, align 8, !dbg !4399
  %8 = call dereferenceable(8) %"class.file_system::WorkUnit"** @_ZSt7forwardIPN11file_system8WorkUnitEEOT_RNSt16remove_referenceIS3_E4typeE(%"class.file_system::WorkUnit"** dereferenceable(8) %7) #3, !dbg !4400
  %9 = load %"class.file_system::WorkUnit"*, %"class.file_system::WorkUnit"** %8, align 8, !dbg !4400
  store %"class.file_system::WorkUnit"* %9, %"class.file_system::WorkUnit"** %6, align 8, !dbg !4398
  ret void, !dbg !4401
}

; Function Attrs: nounwind uwtable
define linkonce_odr dereferenceable(8) %"class.file_system::WorkUnit"** @_ZNSt10_Head_baseILm1EPN11file_system8WorkUnitELb0EE7_M_headERS3_(%"struct.std::_Head_base.6"* dereferenceable(8)) #4 comdat align 2 !dbg !4402 {
  %2 = alloca %"struct.std::_Head_base.6"*, align 8
  store %"struct.std::_Head_base.6"* %0, %"struct.std::_Head_base.6"** %2, align 8
  call void @llvm.dbg.declare(metadata %"struct.std::_Head_base.6"** %2, metadata !4403, metadata !3290), !dbg !4404
  %3 = load %"struct.std::_Head_base.6"*, %"struct.std::_Head_base.6"** %2, align 8, !dbg !4405
  %4 = getelementptr inbounds %"struct.std::_Head_base.6", %"struct.std::_Head_base.6"* %3, i32 0, i32 0, !dbg !4406
  ret %"class.file_system::WorkUnit"** %4, !dbg !4407
}

; Function Attrs: nounwind uwtable
define linkonce_odr dereferenceable(16) %"struct.std::_Mem_fn"* @_ZNSt10_Head_baseILm0ESt7_Mem_fnIMN11file_system8WorkUnitEFvvEELb0EE7_M_headERS6_(%"struct.std::_Head_base.7"* dereferenceable(16)) #4 comdat align 2 !dbg !4408 {
  %2 = alloca %"struct.std::_Head_base.7"*, align 8
  store %"struct.std::_Head_base.7"* %0, %"struct.std::_Head_base.7"** %2, align 8
  call void @llvm.dbg.declare(metadata %"struct.std::_Head_base.7"** %2, metadata !4409, metadata !3290), !dbg !4410
  %3 = load %"struct.std::_Head_base.7"*, %"struct.std::_Head_base.7"** %2, align 8, !dbg !4411
  %4 = getelementptr inbounds %"struct.std::_Head_base.7", %"struct.std::_Head_base.7"* %3, i32 0, i32 0, !dbg !4412
  ret %"struct.std::_Mem_fn"* %4, !dbg !4413
}

; Function Attrs: nounwind
declare void @_ZNSt6thread6_StateD2Ev(%"struct.std::thread::_State"*) unnamed_addr #2

; Function Attrs: uwtable
define linkonce_odr void @_ZNSt12_Bind_simpleIFSt7_Mem_fnIMN11file_system8WorkUnitEFvvEEPS2_EEclEv(%"struct.std::_Bind_simple"*) #0 comdat align 2 !dbg !4414 {
  %2 = alloca %"struct.std::_Bind_simple"*, align 8
  %3 = alloca %"struct.std::_Index_tuple", align 1
  store %"struct.std::_Bind_simple"* %0, %"struct.std::_Bind_simple"** %2, align 8
  call void @llvm.dbg.declare(metadata %"struct.std::_Bind_simple"** %2, metadata !4415, metadata !3290), !dbg !4416
  %4 = load %"struct.std::_Bind_simple"*, %"struct.std::_Bind_simple"** %2, align 8
  call void @_ZNSt12_Bind_simpleIFSt7_Mem_fnIMN11file_system8WorkUnitEFvvEEPS2_EE9_M_invokeIJLm0EEEEvSt12_Index_tupleIJXspT_EEE(%"struct.std::_Bind_simple"* %4), !dbg !4417
  ret void, !dbg !4418
}

; Function Attrs: uwtable
define linkonce_odr void @_ZNSt12_Bind_simpleIFSt7_Mem_fnIMN11file_system8WorkUnitEFvvEEPS2_EE9_M_invokeIJLm0EEEEvSt12_Index_tupleIJXspT_EEE(%"struct.std::_Bind_simple"*) #0 comdat align 2 !dbg !4419 {
  %2 = alloca %"struct.std::_Index_tuple", align 1
  %3 = alloca %"struct.std::_Bind_simple"*, align 8
  store %"struct.std::_Bind_simple"* %0, %"struct.std::_Bind_simple"** %3, align 8
  call void @llvm.dbg.declare(metadata %"struct.std::_Bind_simple"** %3, metadata !4431, metadata !3290), !dbg !4432
  call void @llvm.dbg.declare(metadata %"struct.std::_Index_tuple"* %2, metadata !4433, metadata !3290), !dbg !4434
  %4 = load %"struct.std::_Bind_simple"*, %"struct.std::_Bind_simple"** %3, align 8
  %5 = getelementptr inbounds %"struct.std::_Bind_simple", %"struct.std::_Bind_simple"* %4, i32 0, i32 0, !dbg !4435
  %6 = call dereferenceable(16) %"struct.std::_Mem_fn"* @_ZSt3getILm0EJSt7_Mem_fnIMN11file_system8WorkUnitEFvvEEPS2_EERNSt13tuple_elementIXT_ESt5tupleIJDpT0_EEE4typeERSB_(%"class.std::tuple.3"* dereferenceable(24) %5) #3, !dbg !4436
  %7 = call dereferenceable(16) %"struct.std::_Mem_fn"* @_ZSt7forwardISt7_Mem_fnIMN11file_system8WorkUnitEFvvEEEOT_RNSt16remove_referenceIS6_E4typeE(%"struct.std::_Mem_fn"* dereferenceable(16) %6) #3, !dbg !4437
  %8 = bitcast %"struct.std::_Mem_fn"* %7 to %"class.std::_Mem_fn_base"*, !dbg !4439
  %9 = getelementptr inbounds %"struct.std::_Bind_simple", %"struct.std::_Bind_simple"* %4, i32 0, i32 0, !dbg !4440
  %10 = call dereferenceable(8) %"class.file_system::WorkUnit"** @_ZSt3getILm1EJSt7_Mem_fnIMN11file_system8WorkUnitEFvvEEPS2_EERNSt13tuple_elementIXT_ESt5tupleIJDpT0_EEE4typeERSB_(%"class.std::tuple.3"* dereferenceable(24) %9) #3, !dbg !4441
  %11 = call dereferenceable(8) %"class.file_system::WorkUnit"** @_ZSt7forwardIPN11file_system8WorkUnitEEOT_RNSt16remove_referenceIS3_E4typeE(%"class.file_system::WorkUnit"** dereferenceable(8) %10) #3, !dbg !4442
  call void @_ZNKSt12_Mem_fn_baseIMN11file_system8WorkUnitEFvvELb1EEclIJPS1_EEEDTclsr3stdE8__invokedtdefpT6_M_pmfspclsr3stdE7forwardIT_Efp_EEEDpOS7_(%"class.std::_Mem_fn_base"* %8, %"class.file_system::WorkUnit"** dereferenceable(8) %11), !dbg !4443
  ret void, !dbg !4445
}

; Function Attrs: nounwind uwtable
define linkonce_odr dereferenceable(16) %"struct.std::_Mem_fn"* @_ZSt3getILm0EJSt7_Mem_fnIMN11file_system8WorkUnitEFvvEEPS2_EERNSt13tuple_elementIXT_ESt5tupleIJDpT0_EEE4typeERSB_(%"class.std::tuple.3"* dereferenceable(24)) #4 comdat !dbg !4446 {
  %2 = alloca %"class.std::tuple.3"*, align 8
  store %"class.std::tuple.3"* %0, %"class.std::tuple.3"** %2, align 8
  call void @llvm.dbg.declare(metadata %"class.std::tuple.3"** %2, metadata !4458, metadata !3290), !dbg !4459
  %3 = load %"class.std::tuple.3"*, %"class.std::tuple.3"** %2, align 8, !dbg !4460
  %4 = bitcast %"class.std::tuple.3"* %3 to %"struct.std::_Tuple_impl.4"*, !dbg !4460
  %5 = call dereferenceable(16) %"struct.std::_Mem_fn"* @_ZSt12__get_helperILm0ESt7_Mem_fnIMN11file_system8WorkUnitEFvvEEJPS2_EERT0_RSt11_Tuple_implIXT_EJS7_DpT1_EE(%"struct.std::_Tuple_impl.4"* dereferenceable(24) %4) #3, !dbg !4461
  ret %"struct.std::_Mem_fn"* %5, !dbg !4462
}

; Function Attrs: uwtable
define linkonce_odr void @_ZNKSt12_Mem_fn_baseIMN11file_system8WorkUnitEFvvELb1EEclIJPS1_EEEDTclsr3stdE8__invokedtdefpT6_M_pmfspclsr3stdE7forwardIT_Efp_EEEDpOS7_(%"class.std::_Mem_fn_base"*, %"class.file_system::WorkUnit"** dereferenceable(8)) #0 comdat align 2 !dbg !4463 {
  %3 = alloca %"class.std::_Mem_fn_base"*, align 8
  %4 = alloca %"class.file_system::WorkUnit"**, align 8
  store %"class.std::_Mem_fn_base"* %0, %"class.std::_Mem_fn_base"** %3, align 8
  call void @llvm.dbg.declare(metadata %"class.std::_Mem_fn_base"** %3, metadata !4470, metadata !3290), !dbg !4472
  store %"class.file_system::WorkUnit"** %1, %"class.file_system::WorkUnit"*** %4, align 8
  call void @llvm.dbg.declare(metadata %"class.file_system::WorkUnit"*** %4, metadata !4473, metadata !3290), !dbg !4474
  %5 = load %"class.std::_Mem_fn_base"*, %"class.std::_Mem_fn_base"** %3, align 8
  %6 = getelementptr inbounds %"class.std::_Mem_fn_base", %"class.std::_Mem_fn_base"* %5, i32 0, i32 0, !dbg !4475
  %7 = load %"class.file_system::WorkUnit"**, %"class.file_system::WorkUnit"*** %4, align 8, !dbg !4476
  %8 = call dereferenceable(8) %"class.file_system::WorkUnit"** @_ZSt7forwardIPN11file_system8WorkUnitEEOT_RNSt16remove_referenceIS3_E4typeE(%"class.file_system::WorkUnit"** dereferenceable(8) %7) #3, !dbg !4477
  call void @_ZSt8__invokeIRKMN11file_system8WorkUnitEFvvEJPS1_EENSt9result_ofIFOT_DpOT0_EE4typeES9_SC_({ i64, i64 }* dereferenceable(16) %6, %"class.file_system::WorkUnit"** dereferenceable(8) %8), !dbg !4478
  ret void, !dbg !4480
}

; Function Attrs: nounwind uwtable
define linkonce_odr dereferenceable(8) %"class.file_system::WorkUnit"** @_ZSt3getILm1EJSt7_Mem_fnIMN11file_system8WorkUnitEFvvEEPS2_EERNSt13tuple_elementIXT_ESt5tupleIJDpT0_EEE4typeERSB_(%"class.std::tuple.3"* dereferenceable(24)) #4 comdat !dbg !4481 {
  %2 = alloca %"class.std::tuple.3"*, align 8
  store %"class.std::tuple.3"* %0, %"class.std::tuple.3"** %2, align 8
  call void @llvm.dbg.declare(metadata %"class.std::tuple.3"** %2, metadata !4493, metadata !3290), !dbg !4494
  %3 = load %"class.std::tuple.3"*, %"class.std::tuple.3"** %2, align 8, !dbg !4495
  %4 = bitcast %"class.std::tuple.3"* %3 to %"struct.std::_Tuple_impl.5"*, !dbg !4495
  %5 = call dereferenceable(8) %"class.file_system::WorkUnit"** @_ZSt12__get_helperILm1EPN11file_system8WorkUnitEJEERT0_RSt11_Tuple_implIXT_EJS3_DpT1_EE(%"struct.std::_Tuple_impl.5"* dereferenceable(8) %4) #3, !dbg !4496
  ret %"class.file_system::WorkUnit"** %5, !dbg !4497
}

; Function Attrs: nounwind uwtable
define linkonce_odr dereferenceable(16) %"struct.std::_Mem_fn"* @_ZSt12__get_helperILm0ESt7_Mem_fnIMN11file_system8WorkUnitEFvvEEJPS2_EERT0_RSt11_Tuple_implIXT_EJS7_DpT1_EE(%"struct.std::_Tuple_impl.4"* dereferenceable(24)) #4 comdat !dbg !4498 {
  %2 = alloca %"struct.std::_Tuple_impl.4"*, align 8
  store %"struct.std::_Tuple_impl.4"* %0, %"struct.std::_Tuple_impl.4"** %2, align 8
  call void @llvm.dbg.declare(metadata %"struct.std::_Tuple_impl.4"** %2, metadata !4501, metadata !3290), !dbg !4502
  %3 = load %"struct.std::_Tuple_impl.4"*, %"struct.std::_Tuple_impl.4"** %2, align 8, !dbg !4503
  %4 = call dereferenceable(16) %"struct.std::_Mem_fn"* @_ZNSt11_Tuple_implILm0EJSt7_Mem_fnIMN11file_system8WorkUnitEFvvEEPS2_EE7_M_headERS7_(%"struct.std::_Tuple_impl.4"* dereferenceable(24) %3) #3, !dbg !4504
  ret %"struct.std::_Mem_fn"* %4, !dbg !4505
}

; Function Attrs: inlinehint uwtable
define linkonce_odr void @_ZSt8__invokeIRKMN11file_system8WorkUnitEFvvEJPS1_EENSt9result_ofIFOT_DpOT0_EE4typeES9_SC_({ i64, i64 }* dereferenceable(16), %"class.file_system::WorkUnit"** dereferenceable(8)) #13 comdat !dbg !483 {
  %3 = alloca { i64, i64 }*, align 8
  %4 = alloca %"class.file_system::WorkUnit"**, align 8
  %5 = alloca %"struct.std::__invoke_memfun_deref", align 1
  store { i64, i64 }* %0, { i64, i64 }** %3, align 8
  call void @llvm.dbg.declare(metadata { i64, i64 }** %3, metadata !4506, metadata !3290), !dbg !4507
  store %"class.file_system::WorkUnit"** %1, %"class.file_system::WorkUnit"*** %4, align 8
  call void @llvm.dbg.declare(metadata %"class.file_system::WorkUnit"*** %4, metadata !4508, metadata !3290), !dbg !4509
  %6 = load { i64, i64 }*, { i64, i64 }** %3, align 8, !dbg !4510
  %7 = call dereferenceable(16) { i64, i64 }* @_ZSt7forwardIRKMN11file_system8WorkUnitEFvvEEOT_RNSt16remove_referenceIS6_E4typeE({ i64, i64 }* dereferenceable(16) %6) #3, !dbg !4511
  %8 = load %"class.file_system::WorkUnit"**, %"class.file_system::WorkUnit"*** %4, align 8, !dbg !4512
  %9 = call dereferenceable(8) %"class.file_system::WorkUnit"** @_ZSt7forwardIPN11file_system8WorkUnitEEOT_RNSt16remove_referenceIS3_E4typeE(%"class.file_system::WorkUnit"** dereferenceable(8) %8) #3, !dbg !4513
  call void @_ZSt13__invoke_implIvRKMN11file_system8WorkUnitEFvvEPS1_JEET_St21__invoke_memfun_derefOT0_OT1_DpOT2_({ i64, i64 }* dereferenceable(16) %7, %"class.file_system::WorkUnit"** dereferenceable(8) %9), !dbg !4514
  ret void, !dbg !4516
}

; Function Attrs: inlinehint uwtable
define linkonce_odr void @_ZSt13__invoke_implIvRKMN11file_system8WorkUnitEFvvEPS1_JEET_St21__invoke_memfun_derefOT0_OT1_DpOT2_({ i64, i64 }* dereferenceable(16), %"class.file_system::WorkUnit"** dereferenceable(8)) #13 comdat !dbg !4517 {
  %3 = alloca %"struct.std::__invoke_memfun_deref", align 1
  %4 = alloca { i64, i64 }*, align 8
  %5 = alloca %"class.file_system::WorkUnit"**, align 8
  call void @llvm.dbg.declare(metadata %"struct.std::__invoke_memfun_deref"* %3, metadata !4523, metadata !3290), !dbg !4524
  store { i64, i64 }* %0, { i64, i64 }** %4, align 8
  call void @llvm.dbg.declare(metadata { i64, i64 }** %4, metadata !4525, metadata !3290), !dbg !4526
  store %"class.file_system::WorkUnit"** %1, %"class.file_system::WorkUnit"*** %5, align 8
  call void @llvm.dbg.declare(metadata %"class.file_system::WorkUnit"*** %5, metadata !4527, metadata !3290), !dbg !4528
  %6 = load { i64, i64 }*, { i64, i64 }** %4, align 8, !dbg !4529
  %7 = load { i64, i64 }, { i64, i64 }* %6, align 8, !dbg !4529
  %8 = load %"class.file_system::WorkUnit"**, %"class.file_system::WorkUnit"*** %5, align 8, !dbg !4530
  %9 = call dereferenceable(8) %"class.file_system::WorkUnit"** @_ZSt7forwardIPN11file_system8WorkUnitEEOT_RNSt16remove_referenceIS3_E4typeE(%"class.file_system::WorkUnit"** dereferenceable(8) %8) #3, !dbg !4531
  %10 = load %"class.file_system::WorkUnit"*, %"class.file_system::WorkUnit"** %9, align 8, !dbg !4531
  %11 = extractvalue { i64, i64 } %7, 1, !dbg !4532
  %12 = bitcast %"class.file_system::WorkUnit"* %10 to i8*, !dbg !4532
  %13 = getelementptr inbounds i8, i8* %12, i64 %11, !dbg !4532
  %14 = bitcast i8* %13 to %"class.file_system::WorkUnit"*, !dbg !4532
  %15 = extractvalue { i64, i64 } %7, 0, !dbg !4532
  %16 = and i64 %15, 1, !dbg !4532
  %17 = icmp ne i64 %16, 0, !dbg !4532
  br i1 %17, label %18, label %25, !dbg !4532

; <label>:18:                                     ; preds = %2
  %19 = bitcast %"class.file_system::WorkUnit"* %14 to i8**, !dbg !4533
  %20 = load i8*, i8** %19, align 8, !dbg !4533
  %21 = sub i64 %15, 1, !dbg !4533
  %22 = getelementptr i8, i8* %20, i64 %21, !dbg !4533
  %23 = bitcast i8* %22 to void (%"class.file_system::WorkUnit"*)**, !dbg !4533
  %24 = load void (%"class.file_system::WorkUnit"*)*, void (%"class.file_system::WorkUnit"*)** %23, align 8, !dbg !4533
  br label %27, !dbg !4533

; <label>:25:                                     ; preds = %2
  %26 = inttoptr i64 %15 to void (%"class.file_system::WorkUnit"*)*, !dbg !4535
  br label %27, !dbg !4535

; <label>:27:                                     ; preds = %25, %18
  %28 = phi void (%"class.file_system::WorkUnit"*)* [ %24, %18 ], [ %26, %25 ], !dbg !4537
  call void %28(%"class.file_system::WorkUnit"* %14), !dbg !4537
  ret void, !dbg !4539
}

; Function Attrs: nounwind uwtable
define linkonce_odr dereferenceable(16) { i64, i64 }* @_ZSt7forwardIRKMN11file_system8WorkUnitEFvvEEOT_RNSt16remove_referenceIS6_E4typeE({ i64, i64 }* dereferenceable(16)) #4 comdat !dbg !4540 {
  %2 = alloca { i64, i64 }*, align 8
  store { i64, i64 }* %0, { i64, i64 }** %2, align 8
  call void @llvm.dbg.declare(metadata { i64, i64 }** %2, metadata !4548, metadata !3290), !dbg !4549
  %3 = load { i64, i64 }*, { i64, i64 }** %2, align 8, !dbg !4550
  ret { i64, i64 }* %3, !dbg !4551
}

; Function Attrs: nounwind uwtable
define linkonce_odr dereferenceable(8) %"class.file_system::WorkUnit"** @_ZSt12__get_helperILm1EPN11file_system8WorkUnitEJEERT0_RSt11_Tuple_implIXT_EJS3_DpT1_EE(%"struct.std::_Tuple_impl.5"* dereferenceable(8)) #4 comdat !dbg !4552 {
  %2 = alloca %"struct.std::_Tuple_impl.5"*, align 8
  store %"struct.std::_Tuple_impl.5"* %0, %"struct.std::_Tuple_impl.5"** %2, align 8
  call void @llvm.dbg.declare(metadata %"struct.std::_Tuple_impl.5"** %2, metadata !4555, metadata !3290), !dbg !4556
  %3 = load %"struct.std::_Tuple_impl.5"*, %"struct.std::_Tuple_impl.5"** %2, align 8, !dbg !4557
  %4 = call dereferenceable(8) %"class.file_system::WorkUnit"** @_ZNSt11_Tuple_implILm1EJPN11file_system8WorkUnitEEE7_M_headERS3_(%"struct.std::_Tuple_impl.5"* dereferenceable(8) %3) #3, !dbg !4558
  ret %"class.file_system::WorkUnit"** %4, !dbg !4559
}

; Function Attrs: uwtable
define linkonce_odr void @_ZNSt5tupleIJPNSt6thread6_StateESt14default_deleteIS1_EEEC2IS2_S4_Lb1EEEv(%"class.std::tuple"*) unnamed_addr #0 comdat align 2 !dbg !4560 {
  %2 = alloca %"class.std::tuple"*, align 8
  store %"class.std::tuple"* %0, %"class.std::tuple"** %2, align 8
  call void @llvm.dbg.declare(metadata %"class.std::tuple"** %2, metadata !4567, metadata !3290), !dbg !4569
  %3 = load %"class.std::tuple"*, %"class.std::tuple"** %2, align 8
  %4 = bitcast %"class.std::tuple"* %3 to %"struct.std::_Tuple_impl"*, !dbg !4570
  call void @_ZNSt11_Tuple_implILm0EJPNSt6thread6_StateESt14default_deleteIS1_EEEC2Ev(%"struct.std::_Tuple_impl"* %4), !dbg !4571
  ret void, !dbg !4572
}

; Function Attrs: nounwind uwtable
define linkonce_odr dereferenceable(8) %"struct.std::thread::_State"** @_ZSt3getILm0EJPNSt6thread6_StateESt14default_deleteIS1_EEERNSt13tuple_elementIXT_ESt5tupleIJDpT0_EEE4typeERS9_(%"class.std::tuple"* dereferenceable(8)) #4 comdat !dbg !4573 {
  %2 = alloca %"class.std::tuple"*, align 8
  store %"class.std::tuple"* %0, %"class.std::tuple"** %2, align 8
  call void @llvm.dbg.declare(metadata %"class.std::tuple"** %2, metadata !4583, metadata !3290), !dbg !4584
  %3 = load %"class.std::tuple"*, %"class.std::tuple"** %2, align 8, !dbg !4585
  %4 = bitcast %"class.std::tuple"* %3 to %"struct.std::_Tuple_impl"*, !dbg !4585
  %5 = call dereferenceable(8) %"struct.std::thread::_State"** @_ZSt12__get_helperILm0EPNSt6thread6_StateEJSt14default_deleteIS1_EEERT0_RSt11_Tuple_implIXT_EJS5_DpT1_EE(%"struct.std::_Tuple_impl"* dereferenceable(8) %4) #3, !dbg !4586
  ret %"struct.std::thread::_State"** %5, !dbg !4587
}

; Function Attrs: uwtable
define linkonce_odr void @_ZNSt11_Tuple_implILm0EJPNSt6thread6_StateESt14default_deleteIS1_EEEC2Ev(%"struct.std::_Tuple_impl"*) unnamed_addr #0 comdat align 2 !dbg !4588 {
  %2 = alloca %"struct.std::_Tuple_impl"*, align 8
  store %"struct.std::_Tuple_impl"* %0, %"struct.std::_Tuple_impl"** %2, align 8
  call void @llvm.dbg.declare(metadata %"struct.std::_Tuple_impl"** %2, metadata !4589, metadata !3290), !dbg !4591
  %3 = load %"struct.std::_Tuple_impl"*, %"struct.std::_Tuple_impl"** %2, align 8
  %4 = bitcast %"struct.std::_Tuple_impl"* %3 to %"struct.std::_Tuple_impl.1"*, !dbg !4592
  call void @_ZNSt11_Tuple_implILm1EJSt14default_deleteINSt6thread6_StateEEEEC2Ev(%"struct.std::_Tuple_impl.1"* %4), !dbg !4593
  %5 = bitcast %"struct.std::_Tuple_impl"* %3 to %"struct.std::_Head_base.2"*, !dbg !4592
  call void @_ZNSt10_Head_baseILm0EPNSt6thread6_StateELb0EEC2Ev(%"struct.std::_Head_base.2"* %5), !dbg !4594
  ret void, !dbg !4596
}

; Function Attrs: uwtable
define linkonce_odr void @_ZNSt11_Tuple_implILm1EJSt14default_deleteINSt6thread6_StateEEEEC2Ev(%"struct.std::_Tuple_impl.1"*) unnamed_addr #0 comdat align 2 !dbg !4597 {
  %2 = alloca %"struct.std::_Tuple_impl.1"*, align 8
  store %"struct.std::_Tuple_impl.1"* %0, %"struct.std::_Tuple_impl.1"** %2, align 8
  call void @llvm.dbg.declare(metadata %"struct.std::_Tuple_impl.1"** %2, metadata !4598, metadata !3290), !dbg !4600
  %3 = load %"struct.std::_Tuple_impl.1"*, %"struct.std::_Tuple_impl.1"** %2, align 8
  %4 = bitcast %"struct.std::_Tuple_impl.1"* %3 to %"struct.std::_Head_base"*, !dbg !4601
  call void @_ZNSt10_Head_baseILm1ESt14default_deleteINSt6thread6_StateEELb1EEC2Ev(%"struct.std::_Head_base"* %4), !dbg !4602
  ret void, !dbg !4603
}

; Function Attrs: nounwind uwtable
define linkonce_odr void @_ZNSt10_Head_baseILm0EPNSt6thread6_StateELb0EEC2Ev(%"struct.std::_Head_base.2"*) unnamed_addr #4 comdat align 2 !dbg !4604 {
  %2 = alloca %"struct.std::_Head_base.2"*, align 8
  store %"struct.std::_Head_base.2"* %0, %"struct.std::_Head_base.2"** %2, align 8
  call void @llvm.dbg.declare(metadata %"struct.std::_Head_base.2"** %2, metadata !4605, metadata !3290), !dbg !4607
  %3 = load %"struct.std::_Head_base.2"*, %"struct.std::_Head_base.2"** %2, align 8
  %4 = getelementptr inbounds %"struct.std::_Head_base.2", %"struct.std::_Head_base.2"* %3, i32 0, i32 0, !dbg !4608
  store %"struct.std::thread::_State"* null, %"struct.std::thread::_State"** %4, align 8, !dbg !4608
  ret void, !dbg !4609
}

; Function Attrs: nounwind uwtable
define linkonce_odr void @_ZNSt10_Head_baseILm1ESt14default_deleteINSt6thread6_StateEELb1EEC2Ev(%"struct.std::_Head_base"*) unnamed_addr #4 comdat align 2 !dbg !4610 {
  %2 = alloca %"struct.std::_Head_base"*, align 8
  store %"struct.std::_Head_base"* %0, %"struct.std::_Head_base"** %2, align 8
  call void @llvm.dbg.declare(metadata %"struct.std::_Head_base"** %2, metadata !4611, metadata !3290), !dbg !4613
  %3 = load %"struct.std::_Head_base"*, %"struct.std::_Head_base"** %2, align 8
  %4 = bitcast %"struct.std::_Head_base"* %3 to %"struct.std::default_delete"*, !dbg !4614
  ret void, !dbg !4615
}

; Function Attrs: nounwind uwtable
define linkonce_odr dereferenceable(8) %"struct.std::thread::_State"** @_ZSt12__get_helperILm0EPNSt6thread6_StateEJSt14default_deleteIS1_EEERT0_RSt11_Tuple_implIXT_EJS5_DpT1_EE(%"struct.std::_Tuple_impl"* dereferenceable(8)) #4 comdat !dbg !4616 {
  %2 = alloca %"struct.std::_Tuple_impl"*, align 8
  store %"struct.std::_Tuple_impl"* %0, %"struct.std::_Tuple_impl"** %2, align 8
  call void @llvm.dbg.declare(metadata %"struct.std::_Tuple_impl"** %2, metadata !4619, metadata !3290), !dbg !4620
  %3 = load %"struct.std::_Tuple_impl"*, %"struct.std::_Tuple_impl"** %2, align 8, !dbg !4621
  %4 = call dereferenceable(8) %"struct.std::thread::_State"** @_ZNSt11_Tuple_implILm0EJPNSt6thread6_StateESt14default_deleteIS1_EEE7_M_headERS5_(%"struct.std::_Tuple_impl"* dereferenceable(8) %3) #3, !dbg !4622
  ret %"struct.std::thread::_State"** %4, !dbg !4623
}

; Function Attrs: nounwind uwtable
define linkonce_odr dereferenceable(8) %"struct.std::thread::_State"** @_ZNSt11_Tuple_implILm0EJPNSt6thread6_StateESt14default_deleteIS1_EEE7_M_headERS5_(%"struct.std::_Tuple_impl"* dereferenceable(8)) #4 comdat align 2 !dbg !4624 {
  %2 = alloca %"struct.std::_Tuple_impl"*, align 8
  store %"struct.std::_Tuple_impl"* %0, %"struct.std::_Tuple_impl"** %2, align 8
  call void @llvm.dbg.declare(metadata %"struct.std::_Tuple_impl"** %2, metadata !4625, metadata !3290), !dbg !4626
  %3 = load %"struct.std::_Tuple_impl"*, %"struct.std::_Tuple_impl"** %2, align 8, !dbg !4627
  %4 = bitcast %"struct.std::_Tuple_impl"* %3 to %"struct.std::_Head_base.2"*, !dbg !4627
  %5 = call dereferenceable(8) %"struct.std::thread::_State"** @_ZNSt10_Head_baseILm0EPNSt6thread6_StateELb0EE7_M_headERS3_(%"struct.std::_Head_base.2"* dereferenceable(8) %4) #3, !dbg !4628
  ret %"struct.std::thread::_State"** %5, !dbg !4629
}

; Function Attrs: nounwind uwtable
define linkonce_odr dereferenceable(8) %"struct.std::thread::_State"** @_ZNSt10_Head_baseILm0EPNSt6thread6_StateELb0EE7_M_headERS3_(%"struct.std::_Head_base.2"* dereferenceable(8)) #4 comdat align 2 !dbg !4630 {
  %2 = alloca %"struct.std::_Head_base.2"*, align 8
  store %"struct.std::_Head_base.2"* %0, %"struct.std::_Head_base.2"** %2, align 8
  call void @llvm.dbg.declare(metadata %"struct.std::_Head_base.2"** %2, metadata !4631, metadata !3290), !dbg !4632
  %3 = load %"struct.std::_Head_base.2"*, %"struct.std::_Head_base.2"** %2, align 8, !dbg !4633
  %4 = getelementptr inbounds %"struct.std::_Head_base.2", %"struct.std::_Head_base.2"* %3, i32 0, i32 0, !dbg !4634
  ret %"struct.std::thread::_State"** %4, !dbg !4635
}

; Function Attrs: nounwind uwtable
define linkonce_odr { i64, i64 } @_ZNSt26_Maybe_wrap_member_pointerIMN11file_system8WorkUnitEFvvEE9__do_wrapES3_(i64, i64) #4 comdat align 2 !dbg !4636 {
  %3 = alloca %"struct.std::_Mem_fn", align 8
  %4 = alloca { i64, i64 }, align 8
  %5 = alloca { i64, i64 }, align 8
  %6 = alloca { i64, i64 }, align 8
  %7 = getelementptr inbounds { i64, i64 }, { i64, i64 }* %4, i32 0, i32 0
  store i64 %0, i64* %7, align 8
  %8 = getelementptr inbounds { i64, i64 }, { i64, i64 }* %4, i32 0, i32 1
  store i64 %1, i64* %8, align 8
  %9 = load { i64, i64 }, { i64, i64 }* %4, align 8
  store { i64, i64 } %9, { i64, i64 }* %5, align 8
  call void @llvm.dbg.declare(metadata { i64, i64 }* %5, metadata !4637, metadata !3290), !dbg !4638
  %10 = load { i64, i64 }, { i64, i64 }* %5, align 8, !dbg !4639
  store { i64, i64 } %10, { i64, i64 }* %6, align 8, !dbg !4640
  %11 = getelementptr inbounds { i64, i64 }, { i64, i64 }* %6, i32 0, i32 0, !dbg !4640
  %12 = load i64, i64* %11, align 8, !dbg !4640
  %13 = getelementptr inbounds { i64, i64 }, { i64, i64 }* %6, i32 0, i32 1, !dbg !4640
  %14 = load i64, i64* %13, align 8, !dbg !4640
  call void @_ZNSt7_Mem_fnIMN11file_system8WorkUnitEFvvEECI2St12_Mem_fn_baseIS3_Lb1EEES3_(%"struct.std::_Mem_fn"* %3, i64 %12, i64 %14) #3, !dbg !4640
  %15 = getelementptr inbounds %"struct.std::_Mem_fn", %"struct.std::_Mem_fn"* %3, i32 0, i32 0, !dbg !4641
  %16 = getelementptr inbounds %"class.std::_Mem_fn_base", %"class.std::_Mem_fn_base"* %15, i32 0, i32 0, !dbg !4641
  %17 = load { i64, i64 }, { i64, i64 }* %16, align 8, !dbg !4641
  ret { i64, i64 } %17, !dbg !4641
}

; Function Attrs: uwtable
define linkonce_odr void @_ZNSt12_Bind_simpleIFSt7_Mem_fnIMN11file_system8WorkUnitEFvvEEPS2_EEC2IS5_JS6_EEEOT_DpOT0_(%"struct.std::_Bind_simple"*, %"struct.std::_Mem_fn"* dereferenceable(16), %"class.file_system::WorkUnit"** dereferenceable(8)) unnamed_addr #0 comdat align 2 !dbg !4642 {
  %4 = alloca %"struct.std::_Bind_simple"*, align 8
  %5 = alloca %"struct.std::_Mem_fn"*, align 8
  %6 = alloca %"class.file_system::WorkUnit"**, align 8
  store %"struct.std::_Bind_simple"* %0, %"struct.std::_Bind_simple"** %4, align 8
  call void @llvm.dbg.declare(metadata %"struct.std::_Bind_simple"** %4, metadata !4648, metadata !3290), !dbg !4649
  store %"struct.std::_Mem_fn"* %1, %"struct.std::_Mem_fn"** %5, align 8
  call void @llvm.dbg.declare(metadata %"struct.std::_Mem_fn"** %5, metadata !4650, metadata !3290), !dbg !4651
  store %"class.file_system::WorkUnit"** %2, %"class.file_system::WorkUnit"*** %6, align 8
  call void @llvm.dbg.declare(metadata %"class.file_system::WorkUnit"*** %6, metadata !4652, metadata !3290), !dbg !4653
  %7 = load %"struct.std::_Bind_simple"*, %"struct.std::_Bind_simple"** %4, align 8
  %8 = getelementptr inbounds %"struct.std::_Bind_simple", %"struct.std::_Bind_simple"* %7, i32 0, i32 0, !dbg !4654
  %9 = load %"struct.std::_Mem_fn"*, %"struct.std::_Mem_fn"** %5, align 8, !dbg !4655
  %10 = call dereferenceable(16) %"struct.std::_Mem_fn"* @_ZSt7forwardISt7_Mem_fnIMN11file_system8WorkUnitEFvvEEEOT_RNSt16remove_referenceIS6_E4typeE(%"struct.std::_Mem_fn"* dereferenceable(16) %9) #3, !dbg !4656
  %11 = load %"class.file_system::WorkUnit"**, %"class.file_system::WorkUnit"*** %6, align 8, !dbg !4657
  %12 = call dereferenceable(8) %"class.file_system::WorkUnit"** @_ZSt7forwardIPN11file_system8WorkUnitEEOT_RNSt16remove_referenceIS3_E4typeE(%"class.file_system::WorkUnit"** dereferenceable(8) %11) #3, !dbg !4658
  call void @_ZNSt5tupleIJSt7_Mem_fnIMN11file_system8WorkUnitEFvvEEPS2_EEC2IS5_S6_Lb1EEEOT_OT0_(%"class.std::tuple.3"* %8, %"struct.std::_Mem_fn"* dereferenceable(16) %10, %"class.file_system::WorkUnit"** dereferenceable(8) %12), !dbg !4660
  ret void, !dbg !4662
}

; Function Attrs: inlinehint nounwind uwtable
define linkonce_odr void @_ZNSt7_Mem_fnIMN11file_system8WorkUnitEFvvEECI2St12_Mem_fn_baseIS3_Lb1EEES3_(%"struct.std::_Mem_fn"*, i64, i64) unnamed_addr #9 comdat align 2 !dbg !4663 {
  %4 = alloca { i64, i64 }, align 8
  %5 = alloca %"struct.std::_Mem_fn"*, align 8
  %6 = alloca { i64, i64 }, align 8
  %7 = alloca { i64, i64 }, align 8
  %8 = getelementptr inbounds { i64, i64 }, { i64, i64 }* %4, i32 0, i32 0
  store i64 %1, i64* %8, align 8
  %9 = getelementptr inbounds { i64, i64 }, { i64, i64 }* %4, i32 0, i32 1
  store i64 %2, i64* %9, align 8
  %10 = load { i64, i64 }, { i64, i64 }* %4, align 8
  store %"struct.std::_Mem_fn"* %0, %"struct.std::_Mem_fn"** %5, align 8
  call void @llvm.dbg.declare(metadata %"struct.std::_Mem_fn"** %5, metadata !4668, metadata !3290), !dbg !4670
  store { i64, i64 } %10, { i64, i64 }* %6, align 8
  call void @llvm.dbg.declare(metadata { i64, i64 }* %6, metadata !4671, metadata !3290), !dbg !4670
  %11 = load %"struct.std::_Mem_fn"*, %"struct.std::_Mem_fn"** %5, align 8
  %12 = bitcast %"struct.std::_Mem_fn"* %11 to %"class.std::_Mem_fn_base"*, !dbg !4672
  %13 = load { i64, i64 }, { i64, i64 }* %6, align 8, !dbg !4672
  store { i64, i64 } %13, { i64, i64 }* %7, align 8, !dbg !4672
  %14 = getelementptr inbounds { i64, i64 }, { i64, i64 }* %7, i32 0, i32 0, !dbg !4672
  %15 = load i64, i64* %14, align 8, !dbg !4672
  %16 = getelementptr inbounds { i64, i64 }, { i64, i64 }* %7, i32 0, i32 1, !dbg !4672
  %17 = load i64, i64* %16, align 8, !dbg !4672
  call void @_ZNSt12_Mem_fn_baseIMN11file_system8WorkUnitEFvvELb1EEC2ES3_(%"class.std::_Mem_fn_base"* %12, i64 %15, i64 %17) #3, !dbg !4672
  ret void, !dbg !4672
}

; Function Attrs: nounwind uwtable
define linkonce_odr void @_ZNSt12_Mem_fn_baseIMN11file_system8WorkUnitEFvvELb1EEC2ES3_(%"class.std::_Mem_fn_base"*, i64, i64) unnamed_addr #4 comdat align 2 !dbg !4673 {
  %4 = alloca { i64, i64 }, align 8
  %5 = alloca %"class.std::_Mem_fn_base"*, align 8
  %6 = alloca { i64, i64 }, align 8
  %7 = getelementptr inbounds { i64, i64 }, { i64, i64 }* %4, i32 0, i32 0
  store i64 %1, i64* %7, align 8
  %8 = getelementptr inbounds { i64, i64 }, { i64, i64 }* %4, i32 0, i32 1
  store i64 %2, i64* %8, align 8
  %9 = load { i64, i64 }, { i64, i64 }* %4, align 8
  store %"class.std::_Mem_fn_base"* %0, %"class.std::_Mem_fn_base"** %5, align 8
  call void @llvm.dbg.declare(metadata %"class.std::_Mem_fn_base"** %5, metadata !4674, metadata !3290), !dbg !4676
  store { i64, i64 } %9, { i64, i64 }* %6, align 8
  call void @llvm.dbg.declare(metadata { i64, i64 }* %6, metadata !4677, metadata !3290), !dbg !4678
  %10 = load %"class.std::_Mem_fn_base"*, %"class.std::_Mem_fn_base"** %5, align 8
  %11 = bitcast %"class.std::_Mem_fn_base"* %10 to %"struct.std::_Maybe_unary_or_binary_function"*, !dbg !4679
  %12 = getelementptr inbounds %"class.std::_Mem_fn_base", %"class.std::_Mem_fn_base"* %10, i32 0, i32 0, !dbg !4680
  %13 = load { i64, i64 }, { i64, i64 }* %6, align 8, !dbg !4681
  store { i64, i64 } %13, { i64, i64 }* %12, align 8, !dbg !4680
  ret void, !dbg !4682
}

; Function Attrs: uwtable
define linkonce_odr void @_ZNSt5tupleIJSt7_Mem_fnIMN11file_system8WorkUnitEFvvEEPS2_EEC2IS5_S6_Lb1EEEOT_OT0_(%"class.std::tuple.3"*, %"struct.std::_Mem_fn"* dereferenceable(16), %"class.file_system::WorkUnit"** dereferenceable(8)) unnamed_addr #0 comdat align 2 !dbg !4683 {
  %4 = alloca %"class.std::tuple.3"*, align 8
  %5 = alloca %"struct.std::_Mem_fn"*, align 8
  %6 = alloca %"class.file_system::WorkUnit"**, align 8
  store %"class.std::tuple.3"* %0, %"class.std::tuple.3"** %4, align 8
  call void @llvm.dbg.declare(metadata %"class.std::tuple.3"** %4, metadata !4690, metadata !3290), !dbg !4691
  store %"struct.std::_Mem_fn"* %1, %"struct.std::_Mem_fn"** %5, align 8
  call void @llvm.dbg.declare(metadata %"struct.std::_Mem_fn"** %5, metadata !4692, metadata !3290), !dbg !4693
  store %"class.file_system::WorkUnit"** %2, %"class.file_system::WorkUnit"*** %6, align 8
  call void @llvm.dbg.declare(metadata %"class.file_system::WorkUnit"*** %6, metadata !4694, metadata !3290), !dbg !4695
  %7 = load %"class.std::tuple.3"*, %"class.std::tuple.3"** %4, align 8
  %8 = bitcast %"class.std::tuple.3"* %7 to %"struct.std::_Tuple_impl.4"*, !dbg !4696
  %9 = load %"struct.std::_Mem_fn"*, %"struct.std::_Mem_fn"** %5, align 8, !dbg !4697
  %10 = call dereferenceable(16) %"struct.std::_Mem_fn"* @_ZSt7forwardISt7_Mem_fnIMN11file_system8WorkUnitEFvvEEEOT_RNSt16remove_referenceIS6_E4typeE(%"struct.std::_Mem_fn"* dereferenceable(16) %9) #3, !dbg !4698
  %11 = load %"class.file_system::WorkUnit"**, %"class.file_system::WorkUnit"*** %6, align 8, !dbg !4699
  %12 = call dereferenceable(8) %"class.file_system::WorkUnit"** @_ZSt7forwardIPN11file_system8WorkUnitEEOT_RNSt16remove_referenceIS3_E4typeE(%"class.file_system::WorkUnit"** dereferenceable(8) %11) #3, !dbg !4700
  call void @_ZNSt11_Tuple_implILm0EJSt7_Mem_fnIMN11file_system8WorkUnitEFvvEEPS2_EEC2IS5_JS6_EvEEOT_DpOT0_(%"struct.std::_Tuple_impl.4"* %8, %"struct.std::_Mem_fn"* dereferenceable(16) %10, %"class.file_system::WorkUnit"** dereferenceable(8) %12), !dbg !4702
  ret void, !dbg !4704
}

; Function Attrs: uwtable
define linkonce_odr void @_ZNSt11_Tuple_implILm0EJSt7_Mem_fnIMN11file_system8WorkUnitEFvvEEPS2_EEC2IS5_JS6_EvEEOT_DpOT0_(%"struct.std::_Tuple_impl.4"*, %"struct.std::_Mem_fn"* dereferenceable(16), %"class.file_system::WorkUnit"** dereferenceable(8)) unnamed_addr #0 comdat align 2 !dbg !4705 {
  %4 = alloca %"struct.std::_Tuple_impl.4"*, align 8
  %5 = alloca %"struct.std::_Mem_fn"*, align 8
  %6 = alloca %"class.file_system::WorkUnit"**, align 8
  store %"struct.std::_Tuple_impl.4"* %0, %"struct.std::_Tuple_impl.4"** %4, align 8
  call void @llvm.dbg.declare(metadata %"struct.std::_Tuple_impl.4"** %4, metadata !4712, metadata !3290), !dbg !4713
  store %"struct.std::_Mem_fn"* %1, %"struct.std::_Mem_fn"** %5, align 8
  call void @llvm.dbg.declare(metadata %"struct.std::_Mem_fn"** %5, metadata !4714, metadata !3290), !dbg !4715
  store %"class.file_system::WorkUnit"** %2, %"class.file_system::WorkUnit"*** %6, align 8
  call void @llvm.dbg.declare(metadata %"class.file_system::WorkUnit"*** %6, metadata !4716, metadata !3290), !dbg !4717
  %7 = load %"struct.std::_Tuple_impl.4"*, %"struct.std::_Tuple_impl.4"** %4, align 8
  %8 = bitcast %"struct.std::_Tuple_impl.4"* %7 to %"struct.std::_Tuple_impl.5"*, !dbg !4718
  %9 = load %"class.file_system::WorkUnit"**, %"class.file_system::WorkUnit"*** %6, align 8, !dbg !4719
  %10 = call dereferenceable(8) %"class.file_system::WorkUnit"** @_ZSt7forwardIPN11file_system8WorkUnitEEOT_RNSt16remove_referenceIS3_E4typeE(%"class.file_system::WorkUnit"** dereferenceable(8) %9) #3, !dbg !4720
  call void @_ZNSt11_Tuple_implILm1EJPN11file_system8WorkUnitEEEC2IS2_EEOT_(%"struct.std::_Tuple_impl.5"* %8, %"class.file_system::WorkUnit"** dereferenceable(8) %10), !dbg !4721
  %11 = bitcast %"struct.std::_Tuple_impl.4"* %7 to i8*, !dbg !4718
  %12 = getelementptr inbounds i8, i8* %11, i64 8, !dbg !4718
  %13 = bitcast i8* %12 to %"struct.std::_Head_base.7"*, !dbg !4718
  %14 = load %"struct.std::_Mem_fn"*, %"struct.std::_Mem_fn"** %5, align 8, !dbg !4723
  %15 = call dereferenceable(16) %"struct.std::_Mem_fn"* @_ZSt7forwardISt7_Mem_fnIMN11file_system8WorkUnitEFvvEEEOT_RNSt16remove_referenceIS6_E4typeE(%"struct.std::_Mem_fn"* dereferenceable(16) %14) #3, !dbg !4724
  call void @_ZNSt10_Head_baseILm0ESt7_Mem_fnIMN11file_system8WorkUnitEFvvEELb0EEC2IS5_EEOT_(%"struct.std::_Head_base.7"* %13, %"struct.std::_Mem_fn"* dereferenceable(16) %15), !dbg !4725
  ret void, !dbg !4726
}

; Function Attrs: nounwind uwtable
define linkonce_odr void @_ZNSt11_Tuple_implILm1EJPN11file_system8WorkUnitEEEC2IS2_EEOT_(%"struct.std::_Tuple_impl.5"*, %"class.file_system::WorkUnit"** dereferenceable(8)) unnamed_addr #4 comdat align 2 !dbg !4727 {
  %3 = alloca %"struct.std::_Tuple_impl.5"*, align 8
  %4 = alloca %"class.file_system::WorkUnit"**, align 8
  store %"struct.std::_Tuple_impl.5"* %0, %"struct.std::_Tuple_impl.5"** %3, align 8
  call void @llvm.dbg.declare(metadata %"struct.std::_Tuple_impl.5"** %3, metadata !4731, metadata !3290), !dbg !4732
  store %"class.file_system::WorkUnit"** %1, %"class.file_system::WorkUnit"*** %4, align 8
  call void @llvm.dbg.declare(metadata %"class.file_system::WorkUnit"*** %4, metadata !4733, metadata !3290), !dbg !4734
  %5 = load %"struct.std::_Tuple_impl.5"*, %"struct.std::_Tuple_impl.5"** %3, align 8
  %6 = bitcast %"struct.std::_Tuple_impl.5"* %5 to %"struct.std::_Head_base.6"*, !dbg !4735
  %7 = load %"class.file_system::WorkUnit"**, %"class.file_system::WorkUnit"*** %4, align 8, !dbg !4736
  %8 = call dereferenceable(8) %"class.file_system::WorkUnit"** @_ZSt7forwardIPN11file_system8WorkUnitEEOT_RNSt16remove_referenceIS3_E4typeE(%"class.file_system::WorkUnit"** dereferenceable(8) %7) #3, !dbg !4737
  call void @_ZNSt10_Head_baseILm1EPN11file_system8WorkUnitELb0EEC2IS2_EEOT_(%"struct.std::_Head_base.6"* %6, %"class.file_system::WorkUnit"** dereferenceable(8) %8), !dbg !4738
  ret void, !dbg !4740
}

; Function Attrs: nounwind uwtable
define linkonce_odr dereferenceable(1) %"struct.std::default_delete"* @_ZNSt10unique_ptrINSt6thread6_StateESt14default_deleteIS1_EE11get_deleterEv(%"class.std::unique_ptr"*) #4 comdat align 2 !dbg !4741 {
  %2 = alloca %"class.std::unique_ptr"*, align 8
  store %"class.std::unique_ptr"* %0, %"class.std::unique_ptr"** %2, align 8
  call void @llvm.dbg.declare(metadata %"class.std::unique_ptr"** %2, metadata !4742, metadata !3290), !dbg !4743
  %3 = load %"class.std::unique_ptr"*, %"class.std::unique_ptr"** %2, align 8
  %4 = getelementptr inbounds %"class.std::unique_ptr", %"class.std::unique_ptr"* %3, i32 0, i32 0, !dbg !4744
  %5 = call dereferenceable(1) %"struct.std::default_delete"* @_ZSt3getILm1EJPNSt6thread6_StateESt14default_deleteIS1_EEERNSt13tuple_elementIXT_ESt5tupleIJDpT0_EEE4typeERS9_(%"class.std::tuple"* dereferenceable(8) %4) #3, !dbg !4745
  ret %"struct.std::default_delete"* %5, !dbg !4746
}

; Function Attrs: nounwind uwtable
define linkonce_odr void @_ZNKSt14default_deleteINSt6thread6_StateEEclEPS1_(%"struct.std::default_delete"*, %"struct.std::thread::_State"*) #4 comdat align 2 !dbg !4747 {
  %3 = alloca %"struct.std::default_delete"*, align 8
  %4 = alloca %"struct.std::thread::_State"*, align 8
  store %"struct.std::default_delete"* %0, %"struct.std::default_delete"** %3, align 8
  call void @llvm.dbg.declare(metadata %"struct.std::default_delete"** %3, metadata !4748, metadata !3290), !dbg !4750
  store %"struct.std::thread::_State"* %1, %"struct.std::thread::_State"** %4, align 8
  call void @llvm.dbg.declare(metadata %"struct.std::thread::_State"** %4, metadata !4751, metadata !3290), !dbg !4752
  %5 = load %"struct.std::default_delete"*, %"struct.std::default_delete"** %3, align 8
  %6 = load %"struct.std::thread::_State"*, %"struct.std::thread::_State"** %4, align 8, !dbg !4753
  %7 = icmp eq %"struct.std::thread::_State"* %6, null, !dbg !4754
  br i1 %7, label %13, label %8, !dbg !4754

; <label>:8:                                      ; preds = %2
  %9 = bitcast %"struct.std::thread::_State"* %6 to void (%"struct.std::thread::_State"*)***, !dbg !4755
  %10 = load void (%"struct.std::thread::_State"*)**, void (%"struct.std::thread::_State"*)*** %9, align 8, !dbg !4755
  %11 = getelementptr inbounds void (%"struct.std::thread::_State"*)*, void (%"struct.std::thread::_State"*)** %10, i64 1, !dbg !4755
  %12 = load void (%"struct.std::thread::_State"*)*, void (%"struct.std::thread::_State"*)** %11, align 8, !dbg !4755
  call void %12(%"struct.std::thread::_State"* %6) #3, !dbg !4755
  br label %13, !dbg !4755

; <label>:13:                                     ; preds = %8, %2
  ret void, !dbg !4757
}

; Function Attrs: nounwind uwtable
define linkonce_odr dereferenceable(1) %"struct.std::default_delete"* @_ZSt3getILm1EJPNSt6thread6_StateESt14default_deleteIS1_EEERNSt13tuple_elementIXT_ESt5tupleIJDpT0_EEE4typeERS9_(%"class.std::tuple"* dereferenceable(8)) #4 comdat !dbg !4758 {
  %2 = alloca %"class.std::tuple"*, align 8
  store %"class.std::tuple"* %0, %"class.std::tuple"** %2, align 8
  call void @llvm.dbg.declare(metadata %"class.std::tuple"** %2, metadata !4769, metadata !3290), !dbg !4770
  %3 = load %"class.std::tuple"*, %"class.std::tuple"** %2, align 8, !dbg !4771
  %4 = bitcast %"class.std::tuple"* %3 to %"struct.std::_Tuple_impl.1"*, !dbg !4771
  %5 = call dereferenceable(1) %"struct.std::default_delete"* @_ZSt12__get_helperILm1ESt14default_deleteINSt6thread6_StateEEJEERT0_RSt11_Tuple_implIXT_EJS4_DpT1_EE(%"struct.std::_Tuple_impl.1"* dereferenceable(1) %4) #3, !dbg !4772
  ret %"struct.std::default_delete"* %5, !dbg !4773
}

; Function Attrs: nounwind uwtable
define linkonce_odr dereferenceable(1) %"struct.std::default_delete"* @_ZSt12__get_helperILm1ESt14default_deleteINSt6thread6_StateEEJEERT0_RSt11_Tuple_implIXT_EJS4_DpT1_EE(%"struct.std::_Tuple_impl.1"* dereferenceable(1)) #4 comdat !dbg !4774 {
  %2 = alloca %"struct.std::_Tuple_impl.1"*, align 8
  store %"struct.std::_Tuple_impl.1"* %0, %"struct.std::_Tuple_impl.1"** %2, align 8
  call void @llvm.dbg.declare(metadata %"struct.std::_Tuple_impl.1"** %2, metadata !4776, metadata !3290), !dbg !4777
  %3 = load %"struct.std::_Tuple_impl.1"*, %"struct.std::_Tuple_impl.1"** %2, align 8, !dbg !4778
  %4 = call dereferenceable(1) %"struct.std::default_delete"* @_ZNSt11_Tuple_implILm1EJSt14default_deleteINSt6thread6_StateEEEE7_M_headERS4_(%"struct.std::_Tuple_impl.1"* dereferenceable(1) %3) #3, !dbg !4779
  ret %"struct.std::default_delete"* %4, !dbg !4780
}

; Function Attrs: nounwind uwtable
define linkonce_odr dereferenceable(1) %"struct.std::default_delete"* @_ZNSt11_Tuple_implILm1EJSt14default_deleteINSt6thread6_StateEEEE7_M_headERS4_(%"struct.std::_Tuple_impl.1"* dereferenceable(1)) #4 comdat align 2 !dbg !4781 {
  %2 = alloca %"struct.std::_Tuple_impl.1"*, align 8
  store %"struct.std::_Tuple_impl.1"* %0, %"struct.std::_Tuple_impl.1"** %2, align 8
  call void @llvm.dbg.declare(metadata %"struct.std::_Tuple_impl.1"** %2, metadata !4782, metadata !3290), !dbg !4783
  %3 = load %"struct.std::_Tuple_impl.1"*, %"struct.std::_Tuple_impl.1"** %2, align 8, !dbg !4784
  %4 = bitcast %"struct.std::_Tuple_impl.1"* %3 to %"struct.std::_Head_base"*, !dbg !4784
  %5 = call dereferenceable(1) %"struct.std::default_delete"* @_ZNSt10_Head_baseILm1ESt14default_deleteINSt6thread6_StateEELb1EE7_M_headERS4_(%"struct.std::_Head_base"* dereferenceable(1) %4) #3, !dbg !4785
  ret %"struct.std::default_delete"* %5, !dbg !4786
}

; Function Attrs: nounwind uwtable
define linkonce_odr dereferenceable(1) %"struct.std::default_delete"* @_ZNSt10_Head_baseILm1ESt14default_deleteINSt6thread6_StateEELb1EE7_M_headERS4_(%"struct.std::_Head_base"* dereferenceable(1)) #4 comdat align 2 !dbg !4787 {
  %2 = alloca %"struct.std::_Head_base"*, align 8
  store %"struct.std::_Head_base"* %0, %"struct.std::_Head_base"** %2, align 8
  call void @llvm.dbg.declare(metadata %"struct.std::_Head_base"** %2, metadata !4788, metadata !3290), !dbg !4789
  %3 = load %"struct.std::_Head_base"*, %"struct.std::_Head_base"** %2, align 8, !dbg !4790
  %4 = bitcast %"struct.std::_Head_base"* %3 to %"struct.std::default_delete"*, !dbg !4790
  ret %"struct.std::default_delete"* %4, !dbg !4791
}

; Function Attrs: uwtable
define linkonce_odr void @_ZNSt5mutex4lockEv(%"class.std::mutex"*) #0 comdat align 2 !dbg !4792 {
  %2 = alloca %"class.std::mutex"*, align 8
  %3 = alloca i32, align 4
  store %"class.std::mutex"* %0, %"class.std::mutex"** %2, align 8
  call void @llvm.dbg.declare(metadata %"class.std::mutex"** %2, metadata !4793, metadata !3290), !dbg !4795
  %4 = load %"class.std::mutex"*, %"class.std::mutex"** %2, align 8
  call void @llvm.dbg.declare(metadata i32* %3, metadata !4796, metadata !3290), !dbg !4797
  %5 = bitcast %"class.std::mutex"* %4 to %"class.std::__mutex_base"*, !dbg !4798
  %6 = getelementptr inbounds %"class.std::__mutex_base", %"class.std::__mutex_base"* %5, i32 0, i32 0, !dbg !4798
  %7 = call i32 @_ZL20__gthread_mutex_lockP15pthread_mutex_t(%union.pthread_mutex_t* %6), !dbg !4799
  store i32 %7, i32* %3, align 4, !dbg !4797
  %8 = load i32, i32* %3, align 4, !dbg !4800
  %9 = icmp ne i32 %8, 0, !dbg !4800
  br i1 %9, label %10, label %12, !dbg !4802

; <label>:10:                                     ; preds = %1
  %11 = load i32, i32* %3, align 4, !dbg !4803
  call void @_ZSt20__throw_system_errori(i32 %11) #18, !dbg !4804
  unreachable, !dbg !4804

; <label>:12:                                     ; preds = %1
  ret void, !dbg !4805
}

; Function Attrs: uwtable
define linkonce_odr void @_ZNSt5mutex6unlockEv(%"class.std::mutex"*) #0 comdat align 2 !dbg !4806 {
  %2 = alloca %"class.std::mutex"*, align 8
  store %"class.std::mutex"* %0, %"class.std::mutex"** %2, align 8
  call void @llvm.dbg.declare(metadata %"class.std::mutex"** %2, metadata !4807, metadata !3290), !dbg !4808
  %3 = load %"class.std::mutex"*, %"class.std::mutex"** %2, align 8
  %4 = bitcast %"class.std::mutex"* %3 to %"class.std::__mutex_base"*, !dbg !4809
  %5 = getelementptr inbounds %"class.std::__mutex_base", %"class.std::__mutex_base"* %4, i32 0, i32 0, !dbg !4809
  %6 = call i32 @_ZL22__gthread_mutex_unlockP15pthread_mutex_t(%union.pthread_mutex_t* %5), !dbg !4810
  ret void, !dbg !4811
}

; Function Attrs: inlinehint uwtable
define internal i32 @_ZL20__gthread_mutex_lockP15pthread_mutex_t(%union.pthread_mutex_t*) #13 !dbg !4812 {
  %2 = alloca i32, align 4
  %3 = alloca %union.pthread_mutex_t*, align 8
  store %union.pthread_mutex_t* %0, %union.pthread_mutex_t** %3, align 8
  call void @llvm.dbg.declare(metadata %union.pthread_mutex_t** %3, metadata !4816, metadata !3290), !dbg !4817
  %4 = call i32 @_ZL18__gthread_active_pv(), !dbg !4818
  %5 = icmp ne i32 %4, 0, !dbg !4818
  br i1 %5, label %6, label %9, !dbg !4820

; <label>:6:                                      ; preds = %1
  %7 = load %union.pthread_mutex_t*, %union.pthread_mutex_t** %3, align 8, !dbg !4821
  %8 = call i32 @pthread_mutex_lock(%union.pthread_mutex_t* %7) #3, !dbg !4822
  store i32 %8, i32* %2, align 4, !dbg !4823
  br label %10, !dbg !4823

; <label>:9:                                      ; preds = %1
  store i32 0, i32* %2, align 4, !dbg !4824
  br label %10, !dbg !4824

; <label>:10:                                     ; preds = %9, %6
  %11 = load i32, i32* %2, align 4, !dbg !4825
  ret i32 %11, !dbg !4825
}

; Function Attrs: noreturn
declare void @_ZSt20__throw_system_errori(i32) #14

; Function Attrs: inlinehint nounwind uwtable
define internal i32 @_ZL18__gthread_active_pv() #9 !dbg !1340 {
  %1 = load i8*, i8** @_ZZL18__gthread_active_pvE20__gthread_active_ptr, align 8, !dbg !4826
  %2 = icmp ne i8* %1, null, !dbg !4827
  %3 = zext i1 %2 to i32, !dbg !4826
  ret i32 %3, !dbg !4828
}

; Function Attrs: nounwind
declare extern_weak i32 @pthread_mutex_lock(%union.pthread_mutex_t*) #2

; Function Attrs: nounwind
declare extern_weak i32 @__pthread_key_create(i32*, void (i8*)*) #2

; Function Attrs: inlinehint nounwind uwtable
define internal i32 @_ZL22__gthread_mutex_unlockP15pthread_mutex_t(%union.pthread_mutex_t*) #9 !dbg !4829 {
  %2 = alloca i32, align 4
  %3 = alloca %union.pthread_mutex_t*, align 8
  store %union.pthread_mutex_t* %0, %union.pthread_mutex_t** %3, align 8
  call void @llvm.dbg.declare(metadata %union.pthread_mutex_t** %3, metadata !4830, metadata !3290), !dbg !4831
  %4 = call i32 @_ZL18__gthread_active_pv(), !dbg !4832
  %5 = icmp ne i32 %4, 0, !dbg !4832
  br i1 %5, label %6, label %9, !dbg !4834

; <label>:6:                                      ; preds = %1
  %7 = load %union.pthread_mutex_t*, %union.pthread_mutex_t** %3, align 8, !dbg !4835
  %8 = call i32 @pthread_mutex_unlock(%union.pthread_mutex_t* %7) #3, !dbg !4836
  store i32 %8, i32* %2, align 4, !dbg !4837
  br label %10, !dbg !4837

; <label>:9:                                      ; preds = %1
  store i32 0, i32* %2, align 4, !dbg !4838
  br label %10, !dbg !4838

; <label>:10:                                     ; preds = %9, %6
  %11 = load i32, i32* %2, align 4, !dbg !4839
  ret i32 %11, !dbg !4839
}

; Function Attrs: nounwind
declare extern_weak i32 @pthread_mutex_unlock(%union.pthread_mutex_t*) #2

; Function Attrs: uwtable
define linkonce_odr void @_ZN9IrsThread4joinEv(%class.IrsThread*) #0 comdat align 2 !dbg !4840 {
  %2 = alloca %class.IrsThread*, align 8
  store %class.IrsThread* %0, %class.IrsThread** %2, align 8
  call void @llvm.dbg.declare(metadata %class.IrsThread** %2, metadata !4841, metadata !3290), !dbg !4842
  %3 = load %class.IrsThread*, %class.IrsThread** %2, align 8
  %4 = getelementptr inbounds %class.IrsThread, %class.IrsThread* %3, i32 0, i32 0, !dbg !4843
  %5 = call zeroext i1 @_ZNKSt6thread8joinableEv(%"class.std::thread"* %4) #3, !dbg !4845
  br i1 %5, label %6, label %8, !dbg !4846

; <label>:6:                                      ; preds = %1
  %7 = getelementptr inbounds %class.IrsThread, %class.IrsThread* %3, i32 0, i32 0, !dbg !4847
  call void @_ZNSt6thread4joinEv(%"class.std::thread"* %7), !dbg !4848
  br label %8, !dbg !4847

; <label>:8:                                      ; preds = %6, %1
  ret void, !dbg !4849
}

declare void @_ZNSt6thread4joinEv(%"class.std::thread"*) #1

; Function Attrs: inlinehint nounwind uwtable
define linkonce_odr void @_ZN9IrsThreadD2Ev(%class.IrsThread*) unnamed_addr #9 comdat align 2 !dbg !4850 {
  %2 = alloca %class.IrsThread*, align 8
  store %class.IrsThread* %0, %class.IrsThread** %2, align 8
  call void @llvm.dbg.declare(metadata %class.IrsThread** %2, metadata !4852, metadata !3290), !dbg !4853
  %3 = load %class.IrsThread*, %class.IrsThread** %2, align 8
  %4 = getelementptr inbounds %class.IrsThread, %class.IrsThread* %3, i32 0, i32 0, !dbg !4854
  call void @_ZNSt6threadD2Ev(%"class.std::thread"* %4) #3, !dbg !4854
  ret void, !dbg !4856
}

; Function Attrs: uwtable
define linkonce_odr i64 @_ZNSt6chrono20__duration_cast_implINS_8durationIlSt5ratioILl1ELl1000000EEEES2_ILl1ELl1000EElLb1ELb0EE6__castIlS2_ILl1ELl1000000000EEEES4_RKNS1_IT_T0_EE(%"struct.std::chrono::duration"* dereferenceable(8)) #0 comdat align 2 !dbg !4857 {
  %2 = alloca %"struct.std::chrono::duration.0", align 8
  %3 = alloca %"struct.std::chrono::duration"*, align 8
  %4 = alloca i64, align 8
  store %"struct.std::chrono::duration"* %0, %"struct.std::chrono::duration"** %3, align 8
  call void @llvm.dbg.declare(metadata %"struct.std::chrono::duration"** %3, metadata !4867, metadata !3290), !dbg !4868
  %5 = load %"struct.std::chrono::duration"*, %"struct.std::chrono::duration"** %3, align 8, !dbg !4869
  %6 = call i64 @_ZNKSt6chrono8durationIlSt5ratioILl1ELl1000000000EEE5countEv(%"struct.std::chrono::duration"* %5), !dbg !4870
  %7 = sdiv i64 %6, 1000, !dbg !4871
  store i64 %7, i64* %4, align 8, !dbg !4872
  call void @_ZNSt6chrono8durationIlSt5ratioILl1ELl1000000EEEC2IlvEERKT_(%"struct.std::chrono::duration.0"* %2, i64* dereferenceable(8) %4), !dbg !4873
  %8 = getelementptr inbounds %"struct.std::chrono::duration.0", %"struct.std::chrono::duration.0"* %2, i32 0, i32 0, !dbg !4874
  %9 = load i64, i64* %8, align 8, !dbg !4874
  ret i64 %9, !dbg !4874
}

; Function Attrs: nounwind uwtable
define linkonce_odr i64 @_ZNKSt6chrono8durationIlSt5ratioILl1ELl1000000000EEE5countEv(%"struct.std::chrono::duration"*) #4 comdat align 2 !dbg !4875 {
  %2 = alloca %"struct.std::chrono::duration"*, align 8
  store %"struct.std::chrono::duration"* %0, %"struct.std::chrono::duration"** %2, align 8
  call void @llvm.dbg.declare(metadata %"struct.std::chrono::duration"** %2, metadata !4876, metadata !3290), !dbg !4878
  %3 = load %"struct.std::chrono::duration"*, %"struct.std::chrono::duration"** %2, align 8
  %4 = getelementptr inbounds %"struct.std::chrono::duration", %"struct.std::chrono::duration"* %3, i32 0, i32 0, !dbg !4879
  %5 = load i64, i64* %4, align 8, !dbg !4879
  ret i64 %5, !dbg !4880
}

; Function Attrs: nounwind uwtable
define linkonce_odr void @_ZNSt6chrono8durationIlSt5ratioILl1ELl1000000EEEC2IlvEERKT_(%"struct.std::chrono::duration.0"*, i64* dereferenceable(8)) unnamed_addr #4 comdat align 2 !dbg !4881 {
  %3 = alloca %"struct.std::chrono::duration.0"*, align 8
  %4 = alloca i64*, align 8
  store %"struct.std::chrono::duration.0"* %0, %"struct.std::chrono::duration.0"** %3, align 8
  call void @llvm.dbg.declare(metadata %"struct.std::chrono::duration.0"** %3, metadata !4888, metadata !3290), !dbg !4890
  store i64* %1, i64** %4, align 8
  call void @llvm.dbg.declare(metadata i64** %4, metadata !4891, metadata !3290), !dbg !4892
  %5 = load %"struct.std::chrono::duration.0"*, %"struct.std::chrono::duration.0"** %3, align 8
  %6 = getelementptr inbounds %"struct.std::chrono::duration.0", %"struct.std::chrono::duration.0"* %5, i32 0, i32 0, !dbg !4893
  %7 = load i64*, i64** %4, align 8, !dbg !4894
  %8 = load i64, i64* %7, align 8, !dbg !4894
  store i64 %8, i64* %6, align 8, !dbg !4893
  ret void, !dbg !4895
}

; Function Attrs: uwtable
define linkonce_odr i64 @_ZNSt6chronomiIlSt5ratioILl1ELl1000000000EElS2_EENSt11common_typeIJNS_8durationIT_T0_EENS4_IT1_T2_EEEE4typeERKS7_RKSA_(%"struct.std::chrono::duration"* dereferenceable(8), %"struct.std::chrono::duration"* dereferenceable(8)) #0 comdat !dbg !610 {
  %3 = alloca %"struct.std::chrono::duration", align 8
  %4 = alloca %"struct.std::chrono::duration"*, align 8
  %5 = alloca %"struct.std::chrono::duration"*, align 8
  %6 = alloca i64, align 8
  %7 = alloca %"struct.std::chrono::duration", align 8
  %8 = alloca %"struct.std::chrono::duration", align 8
  store %"struct.std::chrono::duration"* %0, %"struct.std::chrono::duration"** %4, align 8
  call void @llvm.dbg.declare(metadata %"struct.std::chrono::duration"** %4, metadata !4896, metadata !3290), !dbg !4897
  store %"struct.std::chrono::duration"* %1, %"struct.std::chrono::duration"** %5, align 8
  call void @llvm.dbg.declare(metadata %"struct.std::chrono::duration"** %5, metadata !4898, metadata !3290), !dbg !4899
  %9 = load %"struct.std::chrono::duration"*, %"struct.std::chrono::duration"** %4, align 8, !dbg !4900
  %10 = bitcast %"struct.std::chrono::duration"* %7 to i8*, !dbg !4901
  %11 = bitcast %"struct.std::chrono::duration"* %9 to i8*, !dbg !4901
  call void @llvm.memcpy.p0i8.p0i8.i64(i8* %10, i8* %11, i64 8, i32 8, i1 false), !dbg !4901
  %12 = call i64 @_ZNKSt6chrono8durationIlSt5ratioILl1ELl1000000000EEE5countEv(%"struct.std::chrono::duration"* %7), !dbg !4902
  %13 = load %"struct.std::chrono::duration"*, %"struct.std::chrono::duration"** %5, align 8, !dbg !4904
  %14 = bitcast %"struct.std::chrono::duration"* %8 to i8*, !dbg !4905
  %15 = bitcast %"struct.std::chrono::duration"* %13 to i8*, !dbg !4905
  call void @llvm.memcpy.p0i8.p0i8.i64(i8* %14, i8* %15, i64 8, i32 8, i1 false), !dbg !4906
  %16 = call i64 @_ZNKSt6chrono8durationIlSt5ratioILl1ELl1000000000EEE5countEv(%"struct.std::chrono::duration"* %8), !dbg !4908
  %17 = sub nsw i64 %12, %16, !dbg !4910
  store i64 %17, i64* %6, align 8, !dbg !4901
  call void @_ZNSt6chrono8durationIlSt5ratioILl1ELl1000000000EEEC2IlvEERKT_(%"struct.std::chrono::duration"* %3, i64* dereferenceable(8) %6), !dbg !4911
  %18 = getelementptr inbounds %"struct.std::chrono::duration", %"struct.std::chrono::duration"* %3, i32 0, i32 0, !dbg !4913
  %19 = load i64, i64* %18, align 8, !dbg !4913
  ret i64 %19, !dbg !4913
}

; Function Attrs: nounwind uwtable
define linkonce_odr i64 @_ZNKSt6chrono10time_pointINS_3_V212system_clockENS_8durationIlSt5ratioILl1ELl1000000000EEEEE16time_since_epochEv(%"struct.std::chrono::time_point"*) #4 comdat align 2 !dbg !4914 {
  %2 = alloca %"struct.std::chrono::duration", align 8
  %3 = alloca %"struct.std::chrono::time_point"*, align 8
  store %"struct.std::chrono::time_point"* %0, %"struct.std::chrono::time_point"** %3, align 8
  call void @llvm.dbg.declare(metadata %"struct.std::chrono::time_point"** %3, metadata !4915, metadata !3290), !dbg !4917
  %4 = load %"struct.std::chrono::time_point"*, %"struct.std::chrono::time_point"** %3, align 8
  %5 = getelementptr inbounds %"struct.std::chrono::time_point", %"struct.std::chrono::time_point"* %4, i32 0, i32 0, !dbg !4918
  %6 = bitcast %"struct.std::chrono::duration"* %2 to i8*, !dbg !4918
  %7 = bitcast %"struct.std::chrono::duration"* %5 to i8*, !dbg !4918
  call void @llvm.memcpy.p0i8.p0i8.i64(i8* %6, i8* %7, i64 8, i32 8, i1 false), !dbg !4918
  %8 = getelementptr inbounds %"struct.std::chrono::duration", %"struct.std::chrono::duration"* %2, i32 0, i32 0, !dbg !4919
  %9 = load i64, i64* %8, align 8, !dbg !4919
  ret i64 %9, !dbg !4919
}

; Function Attrs: nounwind uwtable
define linkonce_odr void @_ZNSt6chrono8durationIlSt5ratioILl1ELl1000000000EEEC2IlvEERKT_(%"struct.std::chrono::duration"*, i64* dereferenceable(8)) unnamed_addr #4 comdat align 2 !dbg !4920 {
  %3 = alloca %"struct.std::chrono::duration"*, align 8
  %4 = alloca i64*, align 8
  store %"struct.std::chrono::duration"* %0, %"struct.std::chrono::duration"** %3, align 8
  call void @llvm.dbg.declare(metadata %"struct.std::chrono::duration"** %3, metadata !4924, metadata !3290), !dbg !4926
  store i64* %1, i64** %4, align 8
  call void @llvm.dbg.declare(metadata i64** %4, metadata !4927, metadata !3290), !dbg !4928
  %5 = load %"struct.std::chrono::duration"*, %"struct.std::chrono::duration"** %3, align 8
  %6 = getelementptr inbounds %"struct.std::chrono::duration", %"struct.std::chrono::duration"* %5, i32 0, i32 0, !dbg !4929
  %7 = load i64*, i64** %4, align 8, !dbg !4930
  %8 = load i64, i64* %7, align 8, !dbg !4930
  store i64 %8, i64* %6, align 8, !dbg !4929
  ret void, !dbg !4931
}

; Function Attrs: uwtable
define linkonce_odr void @_ZNSt12_Vector_baseIPN11file_system8WorkUnitESaIS2_EEC2Ev(%"struct.std::_Vector_base"*) unnamed_addr #0 comdat align 2 !dbg !4932 {
  %2 = alloca %"struct.std::_Vector_base"*, align 8
  store %"struct.std::_Vector_base"* %0, %"struct.std::_Vector_base"** %2, align 8
  call void @llvm.dbg.declare(metadata %"struct.std::_Vector_base"** %2, metadata !4933, metadata !3290), !dbg !4935
  %3 = load %"struct.std::_Vector_base"*, %"struct.std::_Vector_base"** %2, align 8
  %4 = getelementptr inbounds %"struct.std::_Vector_base", %"struct.std::_Vector_base"* %3, i32 0, i32 0, !dbg !4936
  call void @_ZNSt12_Vector_baseIPN11file_system8WorkUnitESaIS2_EE12_Vector_implC2Ev(%"struct.std::_Vector_base<file_system::WorkUnit *, std::allocator<file_system::WorkUnit *> >::_Vector_impl"* %4), !dbg !4936
  ret void, !dbg !4937
}

; Function Attrs: nounwind uwtable
define linkonce_odr void @_ZNSt12_Vector_baseIPN11file_system8WorkUnitESaIS2_EE12_Vector_implC2Ev(%"struct.std::_Vector_base<file_system::WorkUnit *, std::allocator<file_system::WorkUnit *> >::_Vector_impl"*) unnamed_addr #4 comdat align 2 !dbg !4938 {
  %2 = alloca %"struct.std::_Vector_base<file_system::WorkUnit *, std::allocator<file_system::WorkUnit *> >::_Vector_impl"*, align 8
  store %"struct.std::_Vector_base<file_system::WorkUnit *, std::allocator<file_system::WorkUnit *> >::_Vector_impl"* %0, %"struct.std::_Vector_base<file_system::WorkUnit *, std::allocator<file_system::WorkUnit *> >::_Vector_impl"** %2, align 8
  call void @llvm.dbg.declare(metadata %"struct.std::_Vector_base<file_system::WorkUnit *, std::allocator<file_system::WorkUnit *> >::_Vector_impl"** %2, metadata !4939, metadata !3290), !dbg !4941
  %3 = load %"struct.std::_Vector_base<file_system::WorkUnit *, std::allocator<file_system::WorkUnit *> >::_Vector_impl"*, %"struct.std::_Vector_base<file_system::WorkUnit *, std::allocator<file_system::WorkUnit *> >::_Vector_impl"** %2, align 8
  %4 = bitcast %"struct.std::_Vector_base<file_system::WorkUnit *, std::allocator<file_system::WorkUnit *> >::_Vector_impl"* %3 to %"class.std::allocator"*, !dbg !4942
  call void @_ZNSaIPN11file_system8WorkUnitEEC2Ev(%"class.std::allocator"* %4) #3, !dbg !4943
  %5 = getelementptr inbounds %"struct.std::_Vector_base<file_system::WorkUnit *, std::allocator<file_system::WorkUnit *> >::_Vector_impl", %"struct.std::_Vector_base<file_system::WorkUnit *, std::allocator<file_system::WorkUnit *> >::_Vector_impl"* %3, i32 0, i32 0, !dbg !4944
  store %"class.file_system::WorkUnit"** null, %"class.file_system::WorkUnit"*** %5, align 8, !dbg !4944
  %6 = getelementptr inbounds %"struct.std::_Vector_base<file_system::WorkUnit *, std::allocator<file_system::WorkUnit *> >::_Vector_impl", %"struct.std::_Vector_base<file_system::WorkUnit *, std::allocator<file_system::WorkUnit *> >::_Vector_impl"* %3, i32 0, i32 1, !dbg !4945
  store %"class.file_system::WorkUnit"** null, %"class.file_system::WorkUnit"*** %6, align 8, !dbg !4945
  %7 = getelementptr inbounds %"struct.std::_Vector_base<file_system::WorkUnit *, std::allocator<file_system::WorkUnit *> >::_Vector_impl", %"struct.std::_Vector_base<file_system::WorkUnit *, std::allocator<file_system::WorkUnit *> >::_Vector_impl"* %3, i32 0, i32 2, !dbg !4946
  store %"class.file_system::WorkUnit"** null, %"class.file_system::WorkUnit"*** %7, align 8, !dbg !4946
  ret void, !dbg !4947
}

; Function Attrs: nounwind uwtable
define linkonce_odr void @_ZNSaIPN11file_system8WorkUnitEEC2Ev(%"class.std::allocator"*) unnamed_addr #4 comdat align 2 !dbg !4948 {
  %2 = alloca %"class.std::allocator"*, align 8
  store %"class.std::allocator"* %0, %"class.std::allocator"** %2, align 8
  call void @llvm.dbg.declare(metadata %"class.std::allocator"** %2, metadata !4949, metadata !3290), !dbg !4951
  %3 = load %"class.std::allocator"*, %"class.std::allocator"** %2, align 8
  %4 = bitcast %"class.std::allocator"* %3 to %"class.__gnu_cxx::new_allocator"*, !dbg !4952
  call void @_ZN9__gnu_cxx13new_allocatorIPN11file_system8WorkUnitEEC2Ev(%"class.__gnu_cxx::new_allocator"* %4) #3, !dbg !4953
  ret void, !dbg !4954
}

; Function Attrs: nounwind uwtable
define linkonce_odr void @_ZN9__gnu_cxx13new_allocatorIPN11file_system8WorkUnitEEC2Ev(%"class.__gnu_cxx::new_allocator"*) unnamed_addr #4 comdat align 2 !dbg !4955 {
  %2 = alloca %"class.__gnu_cxx::new_allocator"*, align 8
  store %"class.__gnu_cxx::new_allocator"* %0, %"class.__gnu_cxx::new_allocator"** %2, align 8
  call void @llvm.dbg.declare(metadata %"class.__gnu_cxx::new_allocator"** %2, metadata !4956, metadata !3290), !dbg !4958
  %3 = load %"class.__gnu_cxx::new_allocator"*, %"class.__gnu_cxx::new_allocator"** %2, align 8
  ret void, !dbg !4959
}

; Function Attrs: inlinehint uwtable
define linkonce_odr void @_ZSt8_DestroyIPPN11file_system8WorkUnitES2_EvT_S4_RSaIT0_E(%"class.file_system::WorkUnit"**, %"class.file_system::WorkUnit"**, %"class.std::allocator"* dereferenceable(1)) #13 comdat !dbg !4960 {
  %4 = alloca %"class.file_system::WorkUnit"**, align 8
  %5 = alloca %"class.file_system::WorkUnit"**, align 8
  %6 = alloca %"class.std::allocator"*, align 8
  store %"class.file_system::WorkUnit"** %0, %"class.file_system::WorkUnit"*** %4, align 8
  call void @llvm.dbg.declare(metadata %"class.file_system::WorkUnit"*** %4, metadata !4966, metadata !3290), !dbg !4967
  store %"class.file_system::WorkUnit"** %1, %"class.file_system::WorkUnit"*** %5, align 8
  call void @llvm.dbg.declare(metadata %"class.file_system::WorkUnit"*** %5, metadata !4968, metadata !3290), !dbg !4969
  store %"class.std::allocator"* %2, %"class.std::allocator"** %6, align 8
  call void @llvm.dbg.declare(metadata %"class.std::allocator"** %6, metadata !4970, metadata !3290), !dbg !4971
  %7 = load %"class.file_system::WorkUnit"**, %"class.file_system::WorkUnit"*** %4, align 8, !dbg !4972
  %8 = load %"class.file_system::WorkUnit"**, %"class.file_system::WorkUnit"*** %5, align 8, !dbg !4973
  call void @_ZSt8_DestroyIPPN11file_system8WorkUnitEEvT_S4_(%"class.file_system::WorkUnit"** %7, %"class.file_system::WorkUnit"** %8), !dbg !4974
  ret void, !dbg !4975
}

; Function Attrs: nounwind uwtable
define linkonce_odr dereferenceable(1) %"class.std::allocator"* @_ZNSt12_Vector_baseIPN11file_system8WorkUnitESaIS2_EE19_M_get_Tp_allocatorEv(%"struct.std::_Vector_base"*) #4 comdat align 2 !dbg !4976 {
  %2 = alloca %"struct.std::_Vector_base"*, align 8
  store %"struct.std::_Vector_base"* %0, %"struct.std::_Vector_base"** %2, align 8
  call void @llvm.dbg.declare(metadata %"struct.std::_Vector_base"** %2, metadata !4977, metadata !3290), !dbg !4978
  %3 = load %"struct.std::_Vector_base"*, %"struct.std::_Vector_base"** %2, align 8
  %4 = getelementptr inbounds %"struct.std::_Vector_base", %"struct.std::_Vector_base"* %3, i32 0, i32 0, !dbg !4979
  %5 = bitcast %"struct.std::_Vector_base<file_system::WorkUnit *, std::allocator<file_system::WorkUnit *> >::_Vector_impl"* %4 to %"class.std::allocator"*, !dbg !4980
  ret %"class.std::allocator"* %5, !dbg !4981
}

; Function Attrs: nounwind uwtable
define linkonce_odr void @_ZNSt12_Vector_baseIPN11file_system8WorkUnitESaIS2_EED2Ev(%"struct.std::_Vector_base"*) unnamed_addr #4 comdat align 2 personality i8* bitcast (i32 (...)* @__gxx_personality_v0 to i8*) !dbg !4982 {
  %2 = alloca %"struct.std::_Vector_base"*, align 8
  %3 = alloca i8*
  %4 = alloca i32
  store %"struct.std::_Vector_base"* %0, %"struct.std::_Vector_base"** %2, align 8
  call void @llvm.dbg.declare(metadata %"struct.std::_Vector_base"** %2, metadata !4983, metadata !3290), !dbg !4984
  %5 = load %"struct.std::_Vector_base"*, %"struct.std::_Vector_base"** %2, align 8
  %6 = getelementptr inbounds %"struct.std::_Vector_base", %"struct.std::_Vector_base"* %5, i32 0, i32 0, !dbg !4985
  %7 = getelementptr inbounds %"struct.std::_Vector_base<file_system::WorkUnit *, std::allocator<file_system::WorkUnit *> >::_Vector_impl", %"struct.std::_Vector_base<file_system::WorkUnit *, std::allocator<file_system::WorkUnit *> >::_Vector_impl"* %6, i32 0, i32 0, !dbg !4987
  %8 = load %"class.file_system::WorkUnit"**, %"class.file_system::WorkUnit"*** %7, align 8, !dbg !4987
  %9 = getelementptr inbounds %"struct.std::_Vector_base", %"struct.std::_Vector_base"* %5, i32 0, i32 0, !dbg !4988
  %10 = getelementptr inbounds %"struct.std::_Vector_base<file_system::WorkUnit *, std::allocator<file_system::WorkUnit *> >::_Vector_impl", %"struct.std::_Vector_base<file_system::WorkUnit *, std::allocator<file_system::WorkUnit *> >::_Vector_impl"* %9, i32 0, i32 2, !dbg !4989
  %11 = load %"class.file_system::WorkUnit"**, %"class.file_system::WorkUnit"*** %10, align 8, !dbg !4989
  %12 = getelementptr inbounds %"struct.std::_Vector_base", %"struct.std::_Vector_base"* %5, i32 0, i32 0, !dbg !4990
  %13 = getelementptr inbounds %"struct.std::_Vector_base<file_system::WorkUnit *, std::allocator<file_system::WorkUnit *> >::_Vector_impl", %"struct.std::_Vector_base<file_system::WorkUnit *, std::allocator<file_system::WorkUnit *> >::_Vector_impl"* %12, i32 0, i32 0, !dbg !4991
  %14 = load %"class.file_system::WorkUnit"**, %"class.file_system::WorkUnit"*** %13, align 8, !dbg !4991
  %15 = ptrtoint %"class.file_system::WorkUnit"** %11 to i64, !dbg !4992
  %16 = ptrtoint %"class.file_system::WorkUnit"** %14 to i64, !dbg !4992
  %17 = sub i64 %15, %16, !dbg !4992
  %18 = sdiv exact i64 %17, 8, !dbg !4992
  invoke void @_ZNSt12_Vector_baseIPN11file_system8WorkUnitESaIS2_EE13_M_deallocateEPS2_m(%"struct.std::_Vector_base"* %5, %"class.file_system::WorkUnit"** %8, i64 %18)
          to label %19 unwind label %21, !dbg !4993

; <label>:19:                                     ; preds = %1
  %20 = getelementptr inbounds %"struct.std::_Vector_base", %"struct.std::_Vector_base"* %5, i32 0, i32 0, !dbg !4994
  call void @_ZNSt12_Vector_baseIPN11file_system8WorkUnitESaIS2_EE12_Vector_implD2Ev(%"struct.std::_Vector_base<file_system::WorkUnit *, std::allocator<file_system::WorkUnit *> >::_Vector_impl"* %20) #3, !dbg !4994
  ret void, !dbg !4994

; <label>:21:                                     ; preds = %1
  %22 = landingpad { i8*, i32 }
          catch i8* null, !dbg !4996
  %23 = extractvalue { i8*, i32 } %22, 0, !dbg !4996
  store i8* %23, i8** %3, align 8, !dbg !4996
  %24 = extractvalue { i8*, i32 } %22, 1, !dbg !4996
  store i32 %24, i32* %4, align 4, !dbg !4996
  %25 = getelementptr inbounds %"struct.std::_Vector_base", %"struct.std::_Vector_base"* %5, i32 0, i32 0, !dbg !4996
  call void @_ZNSt12_Vector_baseIPN11file_system8WorkUnitESaIS2_EE12_Vector_implD2Ev(%"struct.std::_Vector_base<file_system::WorkUnit *, std::allocator<file_system::WorkUnit *> >::_Vector_impl"* %25) #3, !dbg !4996
  br label %26, !dbg !4996

; <label>:26:                                     ; preds = %21
  %27 = load i8*, i8** %3, align 8, !dbg !4998
  call void @__clang_call_terminate(i8* %27) #17, !dbg !4998
  unreachable, !dbg !4998
}

; Function Attrs: inlinehint uwtable
define linkonce_odr void @_ZSt8_DestroyIPPN11file_system8WorkUnitEEvT_S4_(%"class.file_system::WorkUnit"**, %"class.file_system::WorkUnit"**) #13 comdat !dbg !5000 {
  %3 = alloca %"class.file_system::WorkUnit"**, align 8
  %4 = alloca %"class.file_system::WorkUnit"**, align 8
  store %"class.file_system::WorkUnit"** %0, %"class.file_system::WorkUnit"*** %3, align 8
  call void @llvm.dbg.declare(metadata %"class.file_system::WorkUnit"*** %3, metadata !5004, metadata !3290), !dbg !5005
  store %"class.file_system::WorkUnit"** %1, %"class.file_system::WorkUnit"*** %4, align 8
  call void @llvm.dbg.declare(metadata %"class.file_system::WorkUnit"*** %4, metadata !5006, metadata !3290), !dbg !5007
  %5 = load %"class.file_system::WorkUnit"**, %"class.file_system::WorkUnit"*** %3, align 8, !dbg !5008
  %6 = load %"class.file_system::WorkUnit"**, %"class.file_system::WorkUnit"*** %4, align 8, !dbg !5009
  call void @_ZNSt12_Destroy_auxILb1EE9__destroyIPPN11file_system8WorkUnitEEEvT_S6_(%"class.file_system::WorkUnit"** %5, %"class.file_system::WorkUnit"** %6), !dbg !5010
  ret void, !dbg !5011
}

; Function Attrs: nounwind uwtable
define linkonce_odr void @_ZNSt12_Destroy_auxILb1EE9__destroyIPPN11file_system8WorkUnitEEEvT_S6_(%"class.file_system::WorkUnit"**, %"class.file_system::WorkUnit"**) #4 comdat align 2 !dbg !5012 {
  %3 = alloca %"class.file_system::WorkUnit"**, align 8
  %4 = alloca %"class.file_system::WorkUnit"**, align 8
  store %"class.file_system::WorkUnit"** %0, %"class.file_system::WorkUnit"*** %3, align 8
  call void @llvm.dbg.declare(metadata %"class.file_system::WorkUnit"*** %3, metadata !5016, metadata !3290), !dbg !5017
  store %"class.file_system::WorkUnit"** %1, %"class.file_system::WorkUnit"*** %4, align 8
  call void @llvm.dbg.declare(metadata %"class.file_system::WorkUnit"*** %4, metadata !5018, metadata !3290), !dbg !5019
  ret void, !dbg !5020
}

; Function Attrs: uwtable
define linkonce_odr void @_ZNSt12_Vector_baseIPN11file_system8WorkUnitESaIS2_EE13_M_deallocateEPS2_m(%"struct.std::_Vector_base"*, %"class.file_system::WorkUnit"**, i64) #0 comdat align 2 !dbg !5021 {
  %4 = alloca %"struct.std::_Vector_base"*, align 8
  %5 = alloca %"class.file_system::WorkUnit"**, align 8
  %6 = alloca i64, align 8
  store %"struct.std::_Vector_base"* %0, %"struct.std::_Vector_base"** %4, align 8
  call void @llvm.dbg.declare(metadata %"struct.std::_Vector_base"** %4, metadata !5022, metadata !3290), !dbg !5023
  store %"class.file_system::WorkUnit"** %1, %"class.file_system::WorkUnit"*** %5, align 8
  call void @llvm.dbg.declare(metadata %"class.file_system::WorkUnit"*** %5, metadata !5024, metadata !3290), !dbg !5025
  store i64 %2, i64* %6, align 8
  call void @llvm.dbg.declare(metadata i64* %6, metadata !5026, metadata !3290), !dbg !5027
  %7 = load %"struct.std::_Vector_base"*, %"struct.std::_Vector_base"** %4, align 8
  %8 = load %"class.file_system::WorkUnit"**, %"class.file_system::WorkUnit"*** %5, align 8, !dbg !5028
  %9 = icmp ne %"class.file_system::WorkUnit"** %8, null, !dbg !5028
  br i1 %9, label %10, label %15, !dbg !5030

; <label>:10:                                     ; preds = %3
  %11 = getelementptr inbounds %"struct.std::_Vector_base", %"struct.std::_Vector_base"* %7, i32 0, i32 0, !dbg !5031
  %12 = bitcast %"struct.std::_Vector_base<file_system::WorkUnit *, std::allocator<file_system::WorkUnit *> >::_Vector_impl"* %11 to %"class.std::allocator"*, !dbg !5031
  %13 = load %"class.file_system::WorkUnit"**, %"class.file_system::WorkUnit"*** %5, align 8, !dbg !5032
  %14 = load i64, i64* %6, align 8, !dbg !5033
  call void @_ZNSt16allocator_traitsISaIPN11file_system8WorkUnitEEE10deallocateERS3_PS2_m(%"class.std::allocator"* dereferenceable(1) %12, %"class.file_system::WorkUnit"** %13, i64 %14), !dbg !5034
  br label %15, !dbg !5034

; <label>:15:                                     ; preds = %10, %3
  ret void, !dbg !5035
}

; Function Attrs: inlinehint nounwind uwtable
define linkonce_odr void @_ZNSt12_Vector_baseIPN11file_system8WorkUnitESaIS2_EE12_Vector_implD2Ev(%"struct.std::_Vector_base<file_system::WorkUnit *, std::allocator<file_system::WorkUnit *> >::_Vector_impl"*) unnamed_addr #9 comdat align 2 !dbg !5036 {
  %2 = alloca %"struct.std::_Vector_base<file_system::WorkUnit *, std::allocator<file_system::WorkUnit *> >::_Vector_impl"*, align 8
  store %"struct.std::_Vector_base<file_system::WorkUnit *, std::allocator<file_system::WorkUnit *> >::_Vector_impl"* %0, %"struct.std::_Vector_base<file_system::WorkUnit *, std::allocator<file_system::WorkUnit *> >::_Vector_impl"** %2, align 8
  call void @llvm.dbg.declare(metadata %"struct.std::_Vector_base<file_system::WorkUnit *, std::allocator<file_system::WorkUnit *> >::_Vector_impl"** %2, metadata !5038, metadata !3290), !dbg !5039
  %3 = load %"struct.std::_Vector_base<file_system::WorkUnit *, std::allocator<file_system::WorkUnit *> >::_Vector_impl"*, %"struct.std::_Vector_base<file_system::WorkUnit *, std::allocator<file_system::WorkUnit *> >::_Vector_impl"** %2, align 8
  %4 = bitcast %"struct.std::_Vector_base<file_system::WorkUnit *, std::allocator<file_system::WorkUnit *> >::_Vector_impl"* %3 to %"class.std::allocator"*, !dbg !5040
  call void @_ZNSaIPN11file_system8WorkUnitEED2Ev(%"class.std::allocator"* %4) #3, !dbg !5040
  ret void, !dbg !5042
}

; Function Attrs: uwtable
define linkonce_odr void @_ZNSt16allocator_traitsISaIPN11file_system8WorkUnitEEE10deallocateERS3_PS2_m(%"class.std::allocator"* dereferenceable(1), %"class.file_system::WorkUnit"**, i64) #0 comdat align 2 !dbg !5043 {
  %4 = alloca %"class.std::allocator"*, align 8
  %5 = alloca %"class.file_system::WorkUnit"**, align 8
  %6 = alloca i64, align 8
  store %"class.std::allocator"* %0, %"class.std::allocator"** %4, align 8
  call void @llvm.dbg.declare(metadata %"class.std::allocator"** %4, metadata !5044, metadata !3290), !dbg !5045
  store %"class.file_system::WorkUnit"** %1, %"class.file_system::WorkUnit"*** %5, align 8
  call void @llvm.dbg.declare(metadata %"class.file_system::WorkUnit"*** %5, metadata !5046, metadata !3290), !dbg !5047
  store i64 %2, i64* %6, align 8
  call void @llvm.dbg.declare(metadata i64* %6, metadata !5048, metadata !3290), !dbg !5049
  %7 = load %"class.std::allocator"*, %"class.std::allocator"** %4, align 8, !dbg !5050
  %8 = bitcast %"class.std::allocator"* %7 to %"class.__gnu_cxx::new_allocator"*, !dbg !5050
  %9 = load %"class.file_system::WorkUnit"**, %"class.file_system::WorkUnit"*** %5, align 8, !dbg !5051
  %10 = load i64, i64* %6, align 8, !dbg !5052
  call void @_ZN9__gnu_cxx13new_allocatorIPN11file_system8WorkUnitEE10deallocateEPS3_m(%"class.__gnu_cxx::new_allocator"* %8, %"class.file_system::WorkUnit"** %9, i64 %10), !dbg !5053
  ret void, !dbg !5054
}

; Function Attrs: nounwind uwtable
define linkonce_odr void @_ZN9__gnu_cxx13new_allocatorIPN11file_system8WorkUnitEE10deallocateEPS3_m(%"class.__gnu_cxx::new_allocator"*, %"class.file_system::WorkUnit"**, i64) #4 comdat align 2 !dbg !5055 {
  %4 = alloca %"class.__gnu_cxx::new_allocator"*, align 8
  %5 = alloca %"class.file_system::WorkUnit"**, align 8
  %6 = alloca i64, align 8
  store %"class.__gnu_cxx::new_allocator"* %0, %"class.__gnu_cxx::new_allocator"** %4, align 8
  call void @llvm.dbg.declare(metadata %"class.__gnu_cxx::new_allocator"** %4, metadata !5056, metadata !3290), !dbg !5057
  store %"class.file_system::WorkUnit"** %1, %"class.file_system::WorkUnit"*** %5, align 8
  call void @llvm.dbg.declare(metadata %"class.file_system::WorkUnit"*** %5, metadata !5058, metadata !3290), !dbg !5059
  store i64 %2, i64* %6, align 8
  call void @llvm.dbg.declare(metadata i64* %6, metadata !5060, metadata !3290), !dbg !5061
  %7 = load %"class.__gnu_cxx::new_allocator"*, %"class.__gnu_cxx::new_allocator"** %4, align 8
  %8 = load %"class.file_system::WorkUnit"**, %"class.file_system::WorkUnit"*** %5, align 8, !dbg !5062
  %9 = bitcast %"class.file_system::WorkUnit"** %8 to i8*, !dbg !5062
  call void @_ZdlPv(i8* %9) #3, !dbg !5063
  ret void, !dbg !5064
}

; Function Attrs: nounwind uwtable
define linkonce_odr void @_ZNSaIPN11file_system8WorkUnitEED2Ev(%"class.std::allocator"*) unnamed_addr #4 comdat align 2 !dbg !5065 {
  %2 = alloca %"class.std::allocator"*, align 8
  store %"class.std::allocator"* %0, %"class.std::allocator"** %2, align 8
  call void @llvm.dbg.declare(metadata %"class.std::allocator"** %2, metadata !5066, metadata !3290), !dbg !5067
  %3 = load %"class.std::allocator"*, %"class.std::allocator"** %2, align 8
  %4 = bitcast %"class.std::allocator"* %3 to %"class.__gnu_cxx::new_allocator"*, !dbg !5068
  call void @_ZN9__gnu_cxx13new_allocatorIPN11file_system8WorkUnitEED2Ev(%"class.__gnu_cxx::new_allocator"* %4) #3, !dbg !5068
  ret void, !dbg !5070
}

; Function Attrs: nounwind uwtable
define linkonce_odr void @_ZN9__gnu_cxx13new_allocatorIPN11file_system8WorkUnitEED2Ev(%"class.__gnu_cxx::new_allocator"*) unnamed_addr #4 comdat align 2 !dbg !5071 {
  %2 = alloca %"class.__gnu_cxx::new_allocator"*, align 8
  store %"class.__gnu_cxx::new_allocator"* %0, %"class.__gnu_cxx::new_allocator"** %2, align 8
  call void @llvm.dbg.declare(metadata %"class.__gnu_cxx::new_allocator"** %2, metadata !5072, metadata !3290), !dbg !5073
  %3 = load %"class.__gnu_cxx::new_allocator"*, %"class.__gnu_cxx::new_allocator"** %2, align 8
  ret void, !dbg !5074
}

; Function Attrs: uwtable
define linkonce_odr void @_ZNSt6vectorIPN11file_system8WorkUnitESaIS2_EE12emplace_backIJS2_EEEvDpOT_(%"class.std::vector"*, %"class.file_system::WorkUnit"** dereferenceable(8)) #0 comdat align 2 !dbg !5075 {
  %3 = alloca %"class.std::vector"*, align 8
  %4 = alloca %"class.file_system::WorkUnit"**, align 8
  store %"class.std::vector"* %0, %"class.std::vector"** %3, align 8
  call void @llvm.dbg.declare(metadata %"class.std::vector"** %3, metadata !5080, metadata !3290), !dbg !5081
  store %"class.file_system::WorkUnit"** %1, %"class.file_system::WorkUnit"*** %4, align 8
  call void @llvm.dbg.declare(metadata %"class.file_system::WorkUnit"*** %4, metadata !5082, metadata !3290), !dbg !5083
  %5 = load %"class.std::vector"*, %"class.std::vector"** %3, align 8
  %6 = bitcast %"class.std::vector"* %5 to %"struct.std::_Vector_base"*, !dbg !5084
  %7 = getelementptr inbounds %"struct.std::_Vector_base", %"struct.std::_Vector_base"* %6, i32 0, i32 0, !dbg !5084
  %8 = getelementptr inbounds %"struct.std::_Vector_base<file_system::WorkUnit *, std::allocator<file_system::WorkUnit *> >::_Vector_impl", %"struct.std::_Vector_base<file_system::WorkUnit *, std::allocator<file_system::WorkUnit *> >::_Vector_impl"* %7, i32 0, i32 1, !dbg !5086
  %9 = load %"class.file_system::WorkUnit"**, %"class.file_system::WorkUnit"*** %8, align 8, !dbg !5086
  %10 = bitcast %"class.std::vector"* %5 to %"struct.std::_Vector_base"*, !dbg !5087
  %11 = getelementptr inbounds %"struct.std::_Vector_base", %"struct.std::_Vector_base"* %10, i32 0, i32 0, !dbg !5087
  %12 = getelementptr inbounds %"struct.std::_Vector_base<file_system::WorkUnit *, std::allocator<file_system::WorkUnit *> >::_Vector_impl", %"struct.std::_Vector_base<file_system::WorkUnit *, std::allocator<file_system::WorkUnit *> >::_Vector_impl"* %11, i32 0, i32 2, !dbg !5088
  %13 = load %"class.file_system::WorkUnit"**, %"class.file_system::WorkUnit"*** %12, align 8, !dbg !5088
  %14 = icmp ne %"class.file_system::WorkUnit"** %9, %13, !dbg !5089
  br i1 %14, label %15, label %30, !dbg !5090

; <label>:15:                                     ; preds = %2
  %16 = bitcast %"class.std::vector"* %5 to %"struct.std::_Vector_base"*, !dbg !5091
  %17 = getelementptr inbounds %"struct.std::_Vector_base", %"struct.std::_Vector_base"* %16, i32 0, i32 0, !dbg !5091
  %18 = bitcast %"struct.std::_Vector_base<file_system::WorkUnit *, std::allocator<file_system::WorkUnit *> >::_Vector_impl"* %17 to %"class.std::allocator"*, !dbg !5093
  %19 = bitcast %"class.std::vector"* %5 to %"struct.std::_Vector_base"*, !dbg !5094
  %20 = getelementptr inbounds %"struct.std::_Vector_base", %"struct.std::_Vector_base"* %19, i32 0, i32 0, !dbg !5094
  %21 = getelementptr inbounds %"struct.std::_Vector_base<file_system::WorkUnit *, std::allocator<file_system::WorkUnit *> >::_Vector_impl", %"struct.std::_Vector_base<file_system::WorkUnit *, std::allocator<file_system::WorkUnit *> >::_Vector_impl"* %20, i32 0, i32 1, !dbg !5095
  %22 = load %"class.file_system::WorkUnit"**, %"class.file_system::WorkUnit"*** %21, align 8, !dbg !5095
  %23 = load %"class.file_system::WorkUnit"**, %"class.file_system::WorkUnit"*** %4, align 8, !dbg !5096
  %24 = call dereferenceable(8) %"class.file_system::WorkUnit"** @_ZSt7forwardIPN11file_system8WorkUnitEEOT_RNSt16remove_referenceIS3_E4typeE(%"class.file_system::WorkUnit"** dereferenceable(8) %23) #3, !dbg !5097
  call void @_ZNSt16allocator_traitsISaIPN11file_system8WorkUnitEEE9constructIS2_JS2_EEEvRS3_PT_DpOT0_(%"class.std::allocator"* dereferenceable(1) %18, %"class.file_system::WorkUnit"** %22, %"class.file_system::WorkUnit"** dereferenceable(8) %24), !dbg !5098
  %25 = bitcast %"class.std::vector"* %5 to %"struct.std::_Vector_base"*, !dbg !5099
  %26 = getelementptr inbounds %"struct.std::_Vector_base", %"struct.std::_Vector_base"* %25, i32 0, i32 0, !dbg !5099
  %27 = getelementptr inbounds %"struct.std::_Vector_base<file_system::WorkUnit *, std::allocator<file_system::WorkUnit *> >::_Vector_impl", %"struct.std::_Vector_base<file_system::WorkUnit *, std::allocator<file_system::WorkUnit *> >::_Vector_impl"* %26, i32 0, i32 1, !dbg !5100
  %28 = load %"class.file_system::WorkUnit"**, %"class.file_system::WorkUnit"*** %27, align 8, !dbg !5101
  %29 = getelementptr inbounds %"class.file_system::WorkUnit"*, %"class.file_system::WorkUnit"** %28, i32 1, !dbg !5101
  store %"class.file_system::WorkUnit"** %29, %"class.file_system::WorkUnit"*** %27, align 8, !dbg !5101
  br label %33, !dbg !5102

; <label>:30:                                     ; preds = %2
  %31 = load %"class.file_system::WorkUnit"**, %"class.file_system::WorkUnit"*** %4, align 8, !dbg !5103
  %32 = call dereferenceable(8) %"class.file_system::WorkUnit"** @_ZSt7forwardIPN11file_system8WorkUnitEEOT_RNSt16remove_referenceIS3_E4typeE(%"class.file_system::WorkUnit"** dereferenceable(8) %31) #3, !dbg !5104
  call void @_ZNSt6vectorIPN11file_system8WorkUnitESaIS2_EE19_M_emplace_back_auxIJS2_EEEvDpOT_(%"class.std::vector"* %5, %"class.file_system::WorkUnit"** dereferenceable(8) %32), !dbg !5105
  br label %33

; <label>:33:                                     ; preds = %30, %15
  ret void, !dbg !5107
}

; Function Attrs: nounwind uwtable
define linkonce_odr dereferenceable(8) %"class.file_system::WorkUnit"** @_ZSt4moveIRPN11file_system8WorkUnitEEONSt16remove_referenceIT_E4typeEOS5_(%"class.file_system::WorkUnit"** dereferenceable(8)) #4 comdat !dbg !5108 {
  %2 = alloca %"class.file_system::WorkUnit"**, align 8
  store %"class.file_system::WorkUnit"** %0, %"class.file_system::WorkUnit"*** %2, align 8
  call void @llvm.dbg.declare(metadata %"class.file_system::WorkUnit"*** %2, metadata !5116, metadata !3290), !dbg !5117
  %3 = load %"class.file_system::WorkUnit"**, %"class.file_system::WorkUnit"*** %2, align 8, !dbg !5118
  ret %"class.file_system::WorkUnit"** %3, !dbg !5119
}

; Function Attrs: uwtable
define linkonce_odr void @_ZNSt16allocator_traitsISaIPN11file_system8WorkUnitEEE9constructIS2_JS2_EEEvRS3_PT_DpOT0_(%"class.std::allocator"* dereferenceable(1), %"class.file_system::WorkUnit"**, %"class.file_system::WorkUnit"** dereferenceable(8)) #0 comdat align 2 !dbg !5120 {
  %4 = alloca %"class.std::allocator"*, align 8
  %5 = alloca %"class.file_system::WorkUnit"**, align 8
  %6 = alloca %"class.file_system::WorkUnit"**, align 8
  store %"class.std::allocator"* %0, %"class.std::allocator"** %4, align 8
  call void @llvm.dbg.declare(metadata %"class.std::allocator"** %4, metadata !5126, metadata !3290), !dbg !5127
  store %"class.file_system::WorkUnit"** %1, %"class.file_system::WorkUnit"*** %5, align 8
  call void @llvm.dbg.declare(metadata %"class.file_system::WorkUnit"*** %5, metadata !5128, metadata !3290), !dbg !5129
  store %"class.file_system::WorkUnit"** %2, %"class.file_system::WorkUnit"*** %6, align 8
  call void @llvm.dbg.declare(metadata %"class.file_system::WorkUnit"*** %6, metadata !5130, metadata !3290), !dbg !5131
  %7 = load %"class.std::allocator"*, %"class.std::allocator"** %4, align 8, !dbg !5132
  %8 = bitcast %"class.std::allocator"* %7 to %"class.__gnu_cxx::new_allocator"*, !dbg !5132
  %9 = load %"class.file_system::WorkUnit"**, %"class.file_system::WorkUnit"*** %5, align 8, !dbg !5133
  %10 = load %"class.file_system::WorkUnit"**, %"class.file_system::WorkUnit"*** %6, align 8, !dbg !5134
  %11 = call dereferenceable(8) %"class.file_system::WorkUnit"** @_ZSt7forwardIPN11file_system8WorkUnitEEOT_RNSt16remove_referenceIS3_E4typeE(%"class.file_system::WorkUnit"** dereferenceable(8) %10) #3, !dbg !5135
  call void @_ZN9__gnu_cxx13new_allocatorIPN11file_system8WorkUnitEE9constructIS3_JS3_EEEvPT_DpOT0_(%"class.__gnu_cxx::new_allocator"* %8, %"class.file_system::WorkUnit"** %9, %"class.file_system::WorkUnit"** dereferenceable(8) %11), !dbg !5136
  ret void, !dbg !5138
}

; Function Attrs: uwtable
define linkonce_odr void @_ZNSt6vectorIPN11file_system8WorkUnitESaIS2_EE19_M_emplace_back_auxIJS2_EEEvDpOT_(%"class.std::vector"*, %"class.file_system::WorkUnit"** dereferenceable(8)) #0 comdat align 2 personality i8* bitcast (i32 (...)* @__gxx_personality_v0 to i8*) !dbg !5139 {
  %3 = alloca %"class.std::vector"*, align 8
  %4 = alloca %"class.file_system::WorkUnit"**, align 8
  %5 = alloca i64, align 8
  %6 = alloca %"class.file_system::WorkUnit"**, align 8
  %7 = alloca %"class.file_system::WorkUnit"**, align 8
  %8 = alloca i8*
  %9 = alloca i32
  store %"class.std::vector"* %0, %"class.std::vector"** %3, align 8
  call void @llvm.dbg.declare(metadata %"class.std::vector"** %3, metadata !5141, metadata !3290), !dbg !5142
  store %"class.file_system::WorkUnit"** %1, %"class.file_system::WorkUnit"*** %4, align 8
  call void @llvm.dbg.declare(metadata %"class.file_system::WorkUnit"*** %4, metadata !5143, metadata !3290), !dbg !5144
  %10 = load %"class.std::vector"*, %"class.std::vector"** %3, align 8
  call void @llvm.dbg.declare(metadata i64* %5, metadata !5145, metadata !3290), !dbg !5147
  %11 = call i64 @_ZNKSt6vectorIPN11file_system8WorkUnitESaIS2_EE12_M_check_lenEmPKc(%"class.std::vector"* %10, i64 1, i8* getelementptr inbounds ([28 x i8], [28 x i8]* @.str.8, i32 0, i32 0)), !dbg !5148
  store i64 %11, i64* %5, align 8, !dbg !5147
  call void @llvm.dbg.declare(metadata %"class.file_system::WorkUnit"*** %6, metadata !5149, metadata !3290), !dbg !5150
  %12 = bitcast %"class.std::vector"* %10 to %"struct.std::_Vector_base"*, !dbg !5151
  %13 = load i64, i64* %5, align 8, !dbg !5152
  %14 = call %"class.file_system::WorkUnit"** @_ZNSt12_Vector_baseIPN11file_system8WorkUnitESaIS2_EE11_M_allocateEm(%"struct.std::_Vector_base"* %12, i64 %13), !dbg !5151
  store %"class.file_system::WorkUnit"** %14, %"class.file_system::WorkUnit"*** %6, align 8, !dbg !5150
  call void @llvm.dbg.declare(metadata %"class.file_system::WorkUnit"*** %7, metadata !5153, metadata !3290), !dbg !5154
  %15 = load %"class.file_system::WorkUnit"**, %"class.file_system::WorkUnit"*** %6, align 8, !dbg !5155
  store %"class.file_system::WorkUnit"** %15, %"class.file_system::WorkUnit"*** %7, align 8, !dbg !5154
  %16 = bitcast %"class.std::vector"* %10 to %"struct.std::_Vector_base"*, !dbg !5156
  %17 = getelementptr inbounds %"struct.std::_Vector_base", %"struct.std::_Vector_base"* %16, i32 0, i32 0, !dbg !5156
  %18 = bitcast %"struct.std::_Vector_base<file_system::WorkUnit *, std::allocator<file_system::WorkUnit *> >::_Vector_impl"* %17 to %"class.std::allocator"*, !dbg !5158
  %19 = load %"class.file_system::WorkUnit"**, %"class.file_system::WorkUnit"*** %6, align 8, !dbg !5159
  %20 = call i64 @_ZNKSt6vectorIPN11file_system8WorkUnitESaIS2_EE4sizeEv(%"class.std::vector"* %10) #3, !dbg !5160
  %21 = getelementptr inbounds %"class.file_system::WorkUnit"*, %"class.file_system::WorkUnit"** %19, i64 %20, !dbg !5161
  %22 = load %"class.file_system::WorkUnit"**, %"class.file_system::WorkUnit"*** %4, align 8, !dbg !5162
  %23 = call dereferenceable(8) %"class.file_system::WorkUnit"** @_ZSt7forwardIPN11file_system8WorkUnitEEOT_RNSt16remove_referenceIS3_E4typeE(%"class.file_system::WorkUnit"** dereferenceable(8) %22) #3, !dbg !5163
  invoke void @_ZNSt16allocator_traitsISaIPN11file_system8WorkUnitEEE9constructIS2_JS2_EEEvRS3_PT_DpOT0_(%"class.std::allocator"* dereferenceable(1) %18, %"class.file_system::WorkUnit"** %21, %"class.file_system::WorkUnit"** dereferenceable(8) %23)
          to label %24 unwind label %40, !dbg !5164

; <label>:24:                                     ; preds = %2
  store %"class.file_system::WorkUnit"** null, %"class.file_system::WorkUnit"*** %7, align 8, !dbg !5165
  %25 = bitcast %"class.std::vector"* %10 to %"struct.std::_Vector_base"*, !dbg !5166
  %26 = getelementptr inbounds %"struct.std::_Vector_base", %"struct.std::_Vector_base"* %25, i32 0, i32 0, !dbg !5166
  %27 = getelementptr inbounds %"struct.std::_Vector_base<file_system::WorkUnit *, std::allocator<file_system::WorkUnit *> >::_Vector_impl", %"struct.std::_Vector_base<file_system::WorkUnit *, std::allocator<file_system::WorkUnit *> >::_Vector_impl"* %26, i32 0, i32 0, !dbg !5167
  %28 = load %"class.file_system::WorkUnit"**, %"class.file_system::WorkUnit"*** %27, align 8, !dbg !5167
  %29 = bitcast %"class.std::vector"* %10 to %"struct.std::_Vector_base"*, !dbg !5168
  %30 = getelementptr inbounds %"struct.std::_Vector_base", %"struct.std::_Vector_base"* %29, i32 0, i32 0, !dbg !5168
  %31 = getelementptr inbounds %"struct.std::_Vector_base<file_system::WorkUnit *, std::allocator<file_system::WorkUnit *> >::_Vector_impl", %"struct.std::_Vector_base<file_system::WorkUnit *, std::allocator<file_system::WorkUnit *> >::_Vector_impl"* %30, i32 0, i32 1, !dbg !5169
  %32 = load %"class.file_system::WorkUnit"**, %"class.file_system::WorkUnit"*** %31, align 8, !dbg !5169
  %33 = load %"class.file_system::WorkUnit"**, %"class.file_system::WorkUnit"*** %6, align 8, !dbg !5170
  %34 = bitcast %"class.std::vector"* %10 to %"struct.std::_Vector_base"*, !dbg !5171
  %35 = call dereferenceable(1) %"class.std::allocator"* @_ZNSt12_Vector_baseIPN11file_system8WorkUnitESaIS2_EE19_M_get_Tp_allocatorEv(%"struct.std::_Vector_base"* %34) #3, !dbg !5171
  %36 = invoke %"class.file_system::WorkUnit"** @_ZSt34__uninitialized_move_if_noexcept_aIPPN11file_system8WorkUnitES3_SaIS2_EET0_T_S6_S5_RT1_(%"class.file_system::WorkUnit"** %28, %"class.file_system::WorkUnit"** %32, %"class.file_system::WorkUnit"** %33, %"class.std::allocator"* dereferenceable(1) %35)
          to label %37 unwind label %40, !dbg !5172

; <label>:37:                                     ; preds = %24
  store %"class.file_system::WorkUnit"** %36, %"class.file_system::WorkUnit"*** %7, align 8, !dbg !5173
  %38 = load %"class.file_system::WorkUnit"**, %"class.file_system::WorkUnit"*** %7, align 8, !dbg !5175
  %39 = getelementptr inbounds %"class.file_system::WorkUnit"*, %"class.file_system::WorkUnit"** %38, i32 1, !dbg !5175
  store %"class.file_system::WorkUnit"** %39, %"class.file_system::WorkUnit"*** %7, align 8, !dbg !5175
  br label %73, !dbg !5176

; <label>:40:                                     ; preds = %24, %2
  %41 = landingpad { i8*, i32 }
          catch i8* null, !dbg !5177
  %42 = extractvalue { i8*, i32 } %41, 0, !dbg !5177
  store i8* %42, i8** %8, align 8, !dbg !5177
  %43 = extractvalue { i8*, i32 } %41, 1, !dbg !5177
  store i32 %43, i32* %9, align 4, !dbg !5177
  br label %44, !dbg !5177

; <label>:44:                                     ; preds = %40
  %45 = load i8*, i8** %8, align 8, !dbg !5178
  %46 = call i8* @__cxa_begin_catch(i8* %45) #3, !dbg !5178
  %47 = load %"class.file_system::WorkUnit"**, %"class.file_system::WorkUnit"*** %7, align 8, !dbg !5179
  %48 = icmp ne %"class.file_system::WorkUnit"** %47, null, !dbg !5179
  br i1 %48, label %61, label %49, !dbg !5182

; <label>:49:                                     ; preds = %44
  %50 = bitcast %"class.std::vector"* %10 to %"struct.std::_Vector_base"*, !dbg !5183
  %51 = getelementptr inbounds %"struct.std::_Vector_base", %"struct.std::_Vector_base"* %50, i32 0, i32 0, !dbg !5183
  %52 = bitcast %"struct.std::_Vector_base<file_system::WorkUnit *, std::allocator<file_system::WorkUnit *> >::_Vector_impl"* %51 to %"class.std::allocator"*, !dbg !5184
  %53 = load %"class.file_system::WorkUnit"**, %"class.file_system::WorkUnit"*** %6, align 8, !dbg !5185
  %54 = call i64 @_ZNKSt6vectorIPN11file_system8WorkUnitESaIS2_EE4sizeEv(%"class.std::vector"* %10) #3, !dbg !5186
  %55 = getelementptr inbounds %"class.file_system::WorkUnit"*, %"class.file_system::WorkUnit"** %53, i64 %54, !dbg !5187
  invoke void @_ZNSt16allocator_traitsISaIPN11file_system8WorkUnitEEE7destroyIS2_EEvRS3_PT_(%"class.std::allocator"* dereferenceable(1) %52, %"class.file_system::WorkUnit"** %55)
          to label %56 unwind label %57, !dbg !5188

; <label>:56:                                     ; preds = %49
  br label %67, !dbg !5189

; <label>:57:                                     ; preds = %71, %67, %61, %49
  %58 = landingpad { i8*, i32 }
          cleanup, !dbg !5191
  %59 = extractvalue { i8*, i32 } %58, 0, !dbg !5191
  store i8* %59, i8** %8, align 8, !dbg !5191
  %60 = extractvalue { i8*, i32 } %58, 1, !dbg !5191
  store i32 %60, i32* %9, align 4, !dbg !5191
  invoke void @__cxa_end_catch()
          to label %72 unwind label %120, !dbg !5192

; <label>:61:                                     ; preds = %44
  %62 = load %"class.file_system::WorkUnit"**, %"class.file_system::WorkUnit"*** %6, align 8, !dbg !5193
  %63 = load %"class.file_system::WorkUnit"**, %"class.file_system::WorkUnit"*** %7, align 8, !dbg !5194
  %64 = bitcast %"class.std::vector"* %10 to %"struct.std::_Vector_base"*, !dbg !5195
  %65 = call dereferenceable(1) %"class.std::allocator"* @_ZNSt12_Vector_baseIPN11file_system8WorkUnitESaIS2_EE19_M_get_Tp_allocatorEv(%"struct.std::_Vector_base"* %64) #3, !dbg !5195
  invoke void @_ZSt8_DestroyIPPN11file_system8WorkUnitES2_EvT_S4_RSaIT0_E(%"class.file_system::WorkUnit"** %62, %"class.file_system::WorkUnit"** %63, %"class.std::allocator"* dereferenceable(1) %65)
          to label %66 unwind label %57, !dbg !5196

; <label>:66:                                     ; preds = %61
  br label %67

; <label>:67:                                     ; preds = %66, %56
  %68 = bitcast %"class.std::vector"* %10 to %"struct.std::_Vector_base"*, !dbg !5197
  %69 = load %"class.file_system::WorkUnit"**, %"class.file_system::WorkUnit"*** %6, align 8, !dbg !5198
  %70 = load i64, i64* %5, align 8, !dbg !5199
  invoke void @_ZNSt12_Vector_baseIPN11file_system8WorkUnitESaIS2_EE13_M_deallocateEPS2_m(%"struct.std::_Vector_base"* %68, %"class.file_system::WorkUnit"** %69, i64 %70)
          to label %71 unwind label %57, !dbg !5197

; <label>:71:                                     ; preds = %67
  invoke void @__cxa_rethrow() #18
          to label %123 unwind label %57, !dbg !5200

; <label>:72:                                     ; preds = %57
  br label %115, !dbg !5201

; <label>:73:                                     ; preds = %37
  %74 = bitcast %"class.std::vector"* %10 to %"struct.std::_Vector_base"*, !dbg !5203
  %75 = getelementptr inbounds %"struct.std::_Vector_base", %"struct.std::_Vector_base"* %74, i32 0, i32 0, !dbg !5203
  %76 = getelementptr inbounds %"struct.std::_Vector_base<file_system::WorkUnit *, std::allocator<file_system::WorkUnit *> >::_Vector_impl", %"struct.std::_Vector_base<file_system::WorkUnit *, std::allocator<file_system::WorkUnit *> >::_Vector_impl"* %75, i32 0, i32 0, !dbg !5204
  %77 = load %"class.file_system::WorkUnit"**, %"class.file_system::WorkUnit"*** %76, align 8, !dbg !5204
  %78 = bitcast %"class.std::vector"* %10 to %"struct.std::_Vector_base"*, !dbg !5205
  %79 = getelementptr inbounds %"struct.std::_Vector_base", %"struct.std::_Vector_base"* %78, i32 0, i32 0, !dbg !5205
  %80 = getelementptr inbounds %"struct.std::_Vector_base<file_system::WorkUnit *, std::allocator<file_system::WorkUnit *> >::_Vector_impl", %"struct.std::_Vector_base<file_system::WorkUnit *, std::allocator<file_system::WorkUnit *> >::_Vector_impl"* %79, i32 0, i32 1, !dbg !5206
  %81 = load %"class.file_system::WorkUnit"**, %"class.file_system::WorkUnit"*** %80, align 8, !dbg !5206
  %82 = bitcast %"class.std::vector"* %10 to %"struct.std::_Vector_base"*, !dbg !5207
  %83 = call dereferenceable(1) %"class.std::allocator"* @_ZNSt12_Vector_baseIPN11file_system8WorkUnitESaIS2_EE19_M_get_Tp_allocatorEv(%"struct.std::_Vector_base"* %82) #3, !dbg !5207
  call void @_ZSt8_DestroyIPPN11file_system8WorkUnitES2_EvT_S4_RSaIT0_E(%"class.file_system::WorkUnit"** %77, %"class.file_system::WorkUnit"** %81, %"class.std::allocator"* dereferenceable(1) %83), !dbg !5208
  %84 = bitcast %"class.std::vector"* %10 to %"struct.std::_Vector_base"*, !dbg !5209
  %85 = bitcast %"class.std::vector"* %10 to %"struct.std::_Vector_base"*, !dbg !5210
  %86 = getelementptr inbounds %"struct.std::_Vector_base", %"struct.std::_Vector_base"* %85, i32 0, i32 0, !dbg !5210
  %87 = getelementptr inbounds %"struct.std::_Vector_base<file_system::WorkUnit *, std::allocator<file_system::WorkUnit *> >::_Vector_impl", %"struct.std::_Vector_base<file_system::WorkUnit *, std::allocator<file_system::WorkUnit *> >::_Vector_impl"* %86, i32 0, i32 0, !dbg !5211
  %88 = load %"class.file_system::WorkUnit"**, %"class.file_system::WorkUnit"*** %87, align 8, !dbg !5211
  %89 = bitcast %"class.std::vector"* %10 to %"struct.std::_Vector_base"*, !dbg !5212
  %90 = getelementptr inbounds %"struct.std::_Vector_base", %"struct.std::_Vector_base"* %89, i32 0, i32 0, !dbg !5212
  %91 = getelementptr inbounds %"struct.std::_Vector_base<file_system::WorkUnit *, std::allocator<file_system::WorkUnit *> >::_Vector_impl", %"struct.std::_Vector_base<file_system::WorkUnit *, std::allocator<file_system::WorkUnit *> >::_Vector_impl"* %90, i32 0, i32 2, !dbg !5213
  %92 = load %"class.file_system::WorkUnit"**, %"class.file_system::WorkUnit"*** %91, align 8, !dbg !5213
  %93 = bitcast %"class.std::vector"* %10 to %"struct.std::_Vector_base"*, !dbg !5214
  %94 = getelementptr inbounds %"struct.std::_Vector_base", %"struct.std::_Vector_base"* %93, i32 0, i32 0, !dbg !5214
  %95 = getelementptr inbounds %"struct.std::_Vector_base<file_system::WorkUnit *, std::allocator<file_system::WorkUnit *> >::_Vector_impl", %"struct.std::_Vector_base<file_system::WorkUnit *, std::allocator<file_system::WorkUnit *> >::_Vector_impl"* %94, i32 0, i32 0, !dbg !5215
  %96 = load %"class.file_system::WorkUnit"**, %"class.file_system::WorkUnit"*** %95, align 8, !dbg !5215
  %97 = ptrtoint %"class.file_system::WorkUnit"** %92 to i64, !dbg !5216
  %98 = ptrtoint %"class.file_system::WorkUnit"** %96 to i64, !dbg !5216
  %99 = sub i64 %97, %98, !dbg !5216
  %100 = sdiv exact i64 %99, 8, !dbg !5216
  call void @_ZNSt12_Vector_baseIPN11file_system8WorkUnitESaIS2_EE13_M_deallocateEPS2_m(%"struct.std::_Vector_base"* %84, %"class.file_system::WorkUnit"** %88, i64 %100), !dbg !5209
  %101 = load %"class.file_system::WorkUnit"**, %"class.file_system::WorkUnit"*** %6, align 8, !dbg !5217
  %102 = bitcast %"class.std::vector"* %10 to %"struct.std::_Vector_base"*, !dbg !5218
  %103 = getelementptr inbounds %"struct.std::_Vector_base", %"struct.std::_Vector_base"* %102, i32 0, i32 0, !dbg !5218
  %104 = getelementptr inbounds %"struct.std::_Vector_base<file_system::WorkUnit *, std::allocator<file_system::WorkUnit *> >::_Vector_impl", %"struct.std::_Vector_base<file_system::WorkUnit *, std::allocator<file_system::WorkUnit *> >::_Vector_impl"* %103, i32 0, i32 0, !dbg !5219
  store %"class.file_system::WorkUnit"** %101, %"class.file_system::WorkUnit"*** %104, align 8, !dbg !5220
  %105 = load %"class.file_system::WorkUnit"**, %"class.file_system::WorkUnit"*** %7, align 8, !dbg !5221
  %106 = bitcast %"class.std::vector"* %10 to %"struct.std::_Vector_base"*, !dbg !5222
  %107 = getelementptr inbounds %"struct.std::_Vector_base", %"struct.std::_Vector_base"* %106, i32 0, i32 0, !dbg !5222
  %108 = getelementptr inbounds %"struct.std::_Vector_base<file_system::WorkUnit *, std::allocator<file_system::WorkUnit *> >::_Vector_impl", %"struct.std::_Vector_base<file_system::WorkUnit *, std::allocator<file_system::WorkUnit *> >::_Vector_impl"* %107, i32 0, i32 1, !dbg !5223
  store %"class.file_system::WorkUnit"** %105, %"class.file_system::WorkUnit"*** %108, align 8, !dbg !5224
  %109 = load %"class.file_system::WorkUnit"**, %"class.file_system::WorkUnit"*** %6, align 8, !dbg !5225
  %110 = load i64, i64* %5, align 8, !dbg !5226
  %111 = getelementptr inbounds %"class.file_system::WorkUnit"*, %"class.file_system::WorkUnit"** %109, i64 %110, !dbg !5227
  %112 = bitcast %"class.std::vector"* %10 to %"struct.std::_Vector_base"*, !dbg !5228
  %113 = getelementptr inbounds %"struct.std::_Vector_base", %"struct.std::_Vector_base"* %112, i32 0, i32 0, !dbg !5228
  %114 = getelementptr inbounds %"struct.std::_Vector_base<file_system::WorkUnit *, std::allocator<file_system::WorkUnit *> >::_Vector_impl", %"struct.std::_Vector_base<file_system::WorkUnit *, std::allocator<file_system::WorkUnit *> >::_Vector_impl"* %113, i32 0, i32 2, !dbg !5229
  store %"class.file_system::WorkUnit"** %111, %"class.file_system::WorkUnit"*** %114, align 8, !dbg !5230
  ret void, !dbg !5231

; <label>:115:                                    ; preds = %72
  %116 = load i8*, i8** %8, align 8, !dbg !5233
  %117 = load i32, i32* %9, align 4, !dbg !5233
  %118 = insertvalue { i8*, i32 } undef, i8* %116, 0, !dbg !5233
  %119 = insertvalue { i8*, i32 } %118, i32 %117, 1, !dbg !5233
  resume { i8*, i32 } %119, !dbg !5233

; <label>:120:                                    ; preds = %57
  %121 = landingpad { i8*, i32 }
          catch i8* null, !dbg !5235
  %122 = extractvalue { i8*, i32 } %121, 0, !dbg !5235
  call void @__clang_call_terminate(i8* %122) #17, !dbg !5235
  unreachable, !dbg !5235

; <label>:123:                                    ; preds = %71
  unreachable
}

; Function Attrs: nounwind uwtable
define linkonce_odr void @_ZN9__gnu_cxx13new_allocatorIPN11file_system8WorkUnitEE9constructIS3_JS3_EEEvPT_DpOT0_(%"class.__gnu_cxx::new_allocator"*, %"class.file_system::WorkUnit"**, %"class.file_system::WorkUnit"** dereferenceable(8)) #4 comdat align 2 !dbg !5237 {
  %4 = alloca %"class.__gnu_cxx::new_allocator"*, align 8
  %5 = alloca %"class.file_system::WorkUnit"**, align 8
  %6 = alloca %"class.file_system::WorkUnit"**, align 8
  store %"class.__gnu_cxx::new_allocator"* %0, %"class.__gnu_cxx::new_allocator"** %4, align 8
  call void @llvm.dbg.declare(metadata %"class.__gnu_cxx::new_allocator"** %4, metadata !5241, metadata !3290), !dbg !5242
  store %"class.file_system::WorkUnit"** %1, %"class.file_system::WorkUnit"*** %5, align 8
  call void @llvm.dbg.declare(metadata %"class.file_system::WorkUnit"*** %5, metadata !5243, metadata !3290), !dbg !5244
  store %"class.file_system::WorkUnit"** %2, %"class.file_system::WorkUnit"*** %6, align 8
  call void @llvm.dbg.declare(metadata %"class.file_system::WorkUnit"*** %6, metadata !5245, metadata !3290), !dbg !5246
  %7 = load %"class.__gnu_cxx::new_allocator"*, %"class.__gnu_cxx::new_allocator"** %4, align 8
  %8 = load %"class.file_system::WorkUnit"**, %"class.file_system::WorkUnit"*** %5, align 8, !dbg !5247
  %9 = bitcast %"class.file_system::WorkUnit"** %8 to i8*, !dbg !5247
  %10 = bitcast i8* %9 to %"class.file_system::WorkUnit"**, !dbg !5248
  %11 = load %"class.file_system::WorkUnit"**, %"class.file_system::WorkUnit"*** %6, align 8, !dbg !5249
  %12 = call dereferenceable(8) %"class.file_system::WorkUnit"** @_ZSt7forwardIPN11file_system8WorkUnitEEOT_RNSt16remove_referenceIS3_E4typeE(%"class.file_system::WorkUnit"** dereferenceable(8) %11) #3, !dbg !5250
  %13 = load %"class.file_system::WorkUnit"*, %"class.file_system::WorkUnit"** %12, align 8, !dbg !5250
  store %"class.file_system::WorkUnit"* %13, %"class.file_system::WorkUnit"** %10, align 8, !dbg !5248
  ret void, !dbg !5251
}

; Function Attrs: uwtable
define linkonce_odr i64 @_ZNKSt6vectorIPN11file_system8WorkUnitESaIS2_EE12_M_check_lenEmPKc(%"class.std::vector"*, i64, i8*) #0 comdat align 2 !dbg !5252 {
  %4 = alloca %"class.std::vector"*, align 8
  %5 = alloca i64, align 8
  %6 = alloca i8*, align 8
  %7 = alloca i64, align 8
  %8 = alloca i64, align 8
  store %"class.std::vector"* %0, %"class.std::vector"** %4, align 8
  call void @llvm.dbg.declare(metadata %"class.std::vector"** %4, metadata !5253, metadata !3290), !dbg !5255
  store i64 %1, i64* %5, align 8
  call void @llvm.dbg.declare(metadata i64* %5, metadata !5256, metadata !3290), !dbg !5257
  store i8* %2, i8** %6, align 8
  call void @llvm.dbg.declare(metadata i8** %6, metadata !5258, metadata !3290), !dbg !5259
  %9 = load %"class.std::vector"*, %"class.std::vector"** %4, align 8
  %10 = call i64 @_ZNKSt6vectorIPN11file_system8WorkUnitESaIS2_EE8max_sizeEv(%"class.std::vector"* %9) #3, !dbg !5260
  %11 = call i64 @_ZNKSt6vectorIPN11file_system8WorkUnitESaIS2_EE4sizeEv(%"class.std::vector"* %9) #3, !dbg !5262
  %12 = sub i64 %10, %11, !dbg !5264
  %13 = load i64, i64* %5, align 8, !dbg !5265
  %14 = icmp ult i64 %12, %13, !dbg !5266
  br i1 %14, label %15, label %17, !dbg !5267

; <label>:15:                                     ; preds = %3
  %16 = load i8*, i8** %6, align 8, !dbg !5268
  call void @_ZSt20__throw_length_errorPKc(i8* %16) #18, !dbg !5269
  unreachable, !dbg !5269

; <label>:17:                                     ; preds = %3
  call void @llvm.dbg.declare(metadata i64* %7, metadata !5270, metadata !3290), !dbg !5271
  %18 = call i64 @_ZNKSt6vectorIPN11file_system8WorkUnitESaIS2_EE4sizeEv(%"class.std::vector"* %9) #3, !dbg !5272
  %19 = call i64 @_ZNKSt6vectorIPN11file_system8WorkUnitESaIS2_EE4sizeEv(%"class.std::vector"* %9) #3, !dbg !5273
  store i64 %19, i64* %8, align 8, !dbg !5275
  %20 = call dereferenceable(8) i64* @_ZSt3maxImERKT_S2_S2_(i64* dereferenceable(8) %8, i64* dereferenceable(8) %5), !dbg !5276
  %21 = load i64, i64* %20, align 8, !dbg !5278
  %22 = add i64 %18, %21, !dbg !5279
  store i64 %22, i64* %7, align 8, !dbg !5271
  %23 = load i64, i64* %7, align 8, !dbg !5280
  %24 = call i64 @_ZNKSt6vectorIPN11file_system8WorkUnitESaIS2_EE4sizeEv(%"class.std::vector"* %9) #3, !dbg !5281
  %25 = icmp ult i64 %23, %24, !dbg !5282
  br i1 %25, label %30, label %26, !dbg !5283

; <label>:26:                                     ; preds = %17
  %27 = load i64, i64* %7, align 8, !dbg !5284
  %28 = call i64 @_ZNKSt6vectorIPN11file_system8WorkUnitESaIS2_EE8max_sizeEv(%"class.std::vector"* %9) #3, !dbg !5285
  %29 = icmp ugt i64 %27, %28, !dbg !5286
  br i1 %29, label %30, label %32, !dbg !5287

; <label>:30:                                     ; preds = %26, %17
  %31 = call i64 @_ZNKSt6vectorIPN11file_system8WorkUnitESaIS2_EE8max_sizeEv(%"class.std::vector"* %9) #3, !dbg !5288
  br label %34, !dbg !5289

; <label>:32:                                     ; preds = %26
  %33 = load i64, i64* %7, align 8, !dbg !5290
  br label %34, !dbg !5292

; <label>:34:                                     ; preds = %32, %30
  %35 = phi i64 [ %31, %30 ], [ %33, %32 ], !dbg !5293
  ret i64 %35, !dbg !5295
}

; Function Attrs: uwtable
define linkonce_odr %"class.file_system::WorkUnit"** @_ZNSt12_Vector_baseIPN11file_system8WorkUnitESaIS2_EE11_M_allocateEm(%"struct.std::_Vector_base"*, i64) #0 comdat align 2 !dbg !5296 {
  %3 = alloca %"struct.std::_Vector_base"*, align 8
  %4 = alloca i64, align 8
  store %"struct.std::_Vector_base"* %0, %"struct.std::_Vector_base"** %3, align 8
  call void @llvm.dbg.declare(metadata %"struct.std::_Vector_base"** %3, metadata !5297, metadata !3290), !dbg !5298
  store i64 %1, i64* %4, align 8
  call void @llvm.dbg.declare(metadata i64* %4, metadata !5299, metadata !3290), !dbg !5300
  %5 = load %"struct.std::_Vector_base"*, %"struct.std::_Vector_base"** %3, align 8
  %6 = load i64, i64* %4, align 8, !dbg !5301
  %7 = icmp ne i64 %6, 0, !dbg !5302
  br i1 %7, label %8, label %13, !dbg !5301

; <label>:8:                                      ; preds = %2
  %9 = getelementptr inbounds %"struct.std::_Vector_base", %"struct.std::_Vector_base"* %5, i32 0, i32 0, !dbg !5303
  %10 = bitcast %"struct.std::_Vector_base<file_system::WorkUnit *, std::allocator<file_system::WorkUnit *> >::_Vector_impl"* %9 to %"class.std::allocator"*, !dbg !5303
  %11 = load i64, i64* %4, align 8, !dbg !5305
  %12 = call %"class.file_system::WorkUnit"** @_ZNSt16allocator_traitsISaIPN11file_system8WorkUnitEEE8allocateERS3_m(%"class.std::allocator"* dereferenceable(1) %10, i64 %11), !dbg !5306
  br label %14, !dbg !5307

; <label>:13:                                     ; preds = %2
  br label %14, !dbg !5308

; <label>:14:                                     ; preds = %13, %8
  %15 = phi %"class.file_system::WorkUnit"** [ %12, %8 ], [ null, %13 ], !dbg !5310
  ret %"class.file_system::WorkUnit"** %15, !dbg !5312
}

; Function Attrs: nounwind uwtable
define linkonce_odr i64 @_ZNKSt6vectorIPN11file_system8WorkUnitESaIS2_EE4sizeEv(%"class.std::vector"*) #4 comdat align 2 !dbg !5313 {
  %2 = alloca %"class.std::vector"*, align 8
  store %"class.std::vector"* %0, %"class.std::vector"** %2, align 8
  call void @llvm.dbg.declare(metadata %"class.std::vector"** %2, metadata !5314, metadata !3290), !dbg !5315
  %3 = load %"class.std::vector"*, %"class.std::vector"** %2, align 8
  %4 = bitcast %"class.std::vector"* %3 to %"struct.std::_Vector_base"*, !dbg !5316
  %5 = getelementptr inbounds %"struct.std::_Vector_base", %"struct.std::_Vector_base"* %4, i32 0, i32 0, !dbg !5316
  %6 = getelementptr inbounds %"struct.std::_Vector_base<file_system::WorkUnit *, std::allocator<file_system::WorkUnit *> >::_Vector_impl", %"struct.std::_Vector_base<file_system::WorkUnit *, std::allocator<file_system::WorkUnit *> >::_Vector_impl"* %5, i32 0, i32 1, !dbg !5317
  %7 = load %"class.file_system::WorkUnit"**, %"class.file_system::WorkUnit"*** %6, align 8, !dbg !5317
  %8 = bitcast %"class.std::vector"* %3 to %"struct.std::_Vector_base"*, !dbg !5318
  %9 = getelementptr inbounds %"struct.std::_Vector_base", %"struct.std::_Vector_base"* %8, i32 0, i32 0, !dbg !5318
  %10 = getelementptr inbounds %"struct.std::_Vector_base<file_system::WorkUnit *, std::allocator<file_system::WorkUnit *> >::_Vector_impl", %"struct.std::_Vector_base<file_system::WorkUnit *, std::allocator<file_system::WorkUnit *> >::_Vector_impl"* %9, i32 0, i32 0, !dbg !5319
  %11 = load %"class.file_system::WorkUnit"**, %"class.file_system::WorkUnit"*** %10, align 8, !dbg !5319
  %12 = ptrtoint %"class.file_system::WorkUnit"** %7 to i64, !dbg !5320
  %13 = ptrtoint %"class.file_system::WorkUnit"** %11 to i64, !dbg !5320
  %14 = sub i64 %12, %13, !dbg !5320
  %15 = sdiv exact i64 %14, 8, !dbg !5320
  ret i64 %15, !dbg !5321
}

; Function Attrs: inlinehint uwtable
define linkonce_odr %"class.file_system::WorkUnit"** @_ZSt34__uninitialized_move_if_noexcept_aIPPN11file_system8WorkUnitES3_SaIS2_EET0_T_S6_S5_RT1_(%"class.file_system::WorkUnit"**, %"class.file_system::WorkUnit"**, %"class.file_system::WorkUnit"**, %"class.std::allocator"* dereferenceable(1)) #13 comdat !dbg !5322 {
  %5 = alloca %"class.file_system::WorkUnit"**, align 8
  %6 = alloca %"class.file_system::WorkUnit"**, align 8
  %7 = alloca %"class.file_system::WorkUnit"**, align 8
  %8 = alloca %"class.std::allocator"*, align 8
  %9 = alloca %"class.std::move_iterator", align 8
  %10 = alloca %"class.std::move_iterator", align 8
  store %"class.file_system::WorkUnit"** %0, %"class.file_system::WorkUnit"*** %5, align 8
  call void @llvm.dbg.declare(metadata %"class.file_system::WorkUnit"*** %5, metadata !5329, metadata !3290), !dbg !5330
  store %"class.file_system::WorkUnit"** %1, %"class.file_system::WorkUnit"*** %6, align 8
  call void @llvm.dbg.declare(metadata %"class.file_system::WorkUnit"*** %6, metadata !5331, metadata !3290), !dbg !5332
  store %"class.file_system::WorkUnit"** %2, %"class.file_system::WorkUnit"*** %7, align 8
  call void @llvm.dbg.declare(metadata %"class.file_system::WorkUnit"*** %7, metadata !5333, metadata !3290), !dbg !5334
  store %"class.std::allocator"* %3, %"class.std::allocator"** %8, align 8
  call void @llvm.dbg.declare(metadata %"class.std::allocator"** %8, metadata !5335, metadata !3290), !dbg !5336
  %11 = load %"class.file_system::WorkUnit"**, %"class.file_system::WorkUnit"*** %5, align 8, !dbg !5337
  %12 = call %"class.file_system::WorkUnit"** @_ZSt32__make_move_if_noexcept_iteratorIPN11file_system8WorkUnitESt13move_iteratorIPS2_EET0_PT_(%"class.file_system::WorkUnit"** %11), !dbg !5337
  %13 = getelementptr inbounds %"class.std::move_iterator", %"class.std::move_iterator"* %9, i32 0, i32 0, !dbg !5337
  store %"class.file_system::WorkUnit"** %12, %"class.file_system::WorkUnit"*** %13, align 8, !dbg !5337
  %14 = load %"class.file_system::WorkUnit"**, %"class.file_system::WorkUnit"*** %6, align 8, !dbg !5338
  %15 = call %"class.file_system::WorkUnit"** @_ZSt32__make_move_if_noexcept_iteratorIPN11file_system8WorkUnitESt13move_iteratorIPS2_EET0_PT_(%"class.file_system::WorkUnit"** %14), !dbg !5338
  %16 = getelementptr inbounds %"class.std::move_iterator", %"class.std::move_iterator"* %10, i32 0, i32 0, !dbg !5338
  store %"class.file_system::WorkUnit"** %15, %"class.file_system::WorkUnit"*** %16, align 8, !dbg !5338
  %17 = load %"class.file_system::WorkUnit"**, %"class.file_system::WorkUnit"*** %7, align 8, !dbg !5339
  %18 = load %"class.std::allocator"*, %"class.std::allocator"** %8, align 8, !dbg !5340
  %19 = getelementptr inbounds %"class.std::move_iterator", %"class.std::move_iterator"* %9, i32 0, i32 0, !dbg !5341
  %20 = load %"class.file_system::WorkUnit"**, %"class.file_system::WorkUnit"*** %19, align 8, !dbg !5341
  %21 = getelementptr inbounds %"class.std::move_iterator", %"class.std::move_iterator"* %10, i32 0, i32 0, !dbg !5341
  %22 = load %"class.file_system::WorkUnit"**, %"class.file_system::WorkUnit"*** %21, align 8, !dbg !5341
  %23 = call %"class.file_system::WorkUnit"** @_ZSt22__uninitialized_copy_aISt13move_iteratorIPPN11file_system8WorkUnitEES4_S3_ET0_T_S7_S6_RSaIT1_E(%"class.file_system::WorkUnit"** %20, %"class.file_system::WorkUnit"** %22, %"class.file_system::WorkUnit"** %17, %"class.std::allocator"* dereferenceable(1) %18), !dbg !5341
  ret %"class.file_system::WorkUnit"** %23, !dbg !5342
}

; Function Attrs: uwtable
define linkonce_odr void @_ZNSt16allocator_traitsISaIPN11file_system8WorkUnitEEE7destroyIS2_EEvRS3_PT_(%"class.std::allocator"* dereferenceable(1), %"class.file_system::WorkUnit"**) #0 comdat align 2 !dbg !5343 {
  %3 = alloca %"class.std::allocator"*, align 8
  %4 = alloca %"class.file_system::WorkUnit"**, align 8
  store %"class.std::allocator"* %0, %"class.std::allocator"** %3, align 8
  call void @llvm.dbg.declare(metadata %"class.std::allocator"** %3, metadata !5348, metadata !3290), !dbg !5349
  store %"class.file_system::WorkUnit"** %1, %"class.file_system::WorkUnit"*** %4, align 8
  call void @llvm.dbg.declare(metadata %"class.file_system::WorkUnit"*** %4, metadata !5350, metadata !3290), !dbg !5351
  %5 = load %"class.std::allocator"*, %"class.std::allocator"** %3, align 8, !dbg !5352
  %6 = bitcast %"class.std::allocator"* %5 to %"class.__gnu_cxx::new_allocator"*, !dbg !5352
  %7 = load %"class.file_system::WorkUnit"**, %"class.file_system::WorkUnit"*** %4, align 8, !dbg !5353
  call void @_ZN9__gnu_cxx13new_allocatorIPN11file_system8WorkUnitEE7destroyIS3_EEvPT_(%"class.__gnu_cxx::new_allocator"* %6, %"class.file_system::WorkUnit"** %7), !dbg !5354
  ret void, !dbg !5355
}

declare void @__cxa_rethrow()

declare void @__cxa_end_catch()

; Function Attrs: nounwind uwtable
define linkonce_odr i64 @_ZNKSt6vectorIPN11file_system8WorkUnitESaIS2_EE8max_sizeEv(%"class.std::vector"*) #4 comdat align 2 !dbg !5356 {
  %2 = alloca %"class.std::vector"*, align 8
  store %"class.std::vector"* %0, %"class.std::vector"** %2, align 8
  call void @llvm.dbg.declare(metadata %"class.std::vector"** %2, metadata !5357, metadata !3290), !dbg !5358
  %3 = load %"class.std::vector"*, %"class.std::vector"** %2, align 8
  %4 = bitcast %"class.std::vector"* %3 to %"struct.std::_Vector_base"*, !dbg !5359
  %5 = call dereferenceable(1) %"class.std::allocator"* @_ZNKSt12_Vector_baseIPN11file_system8WorkUnitESaIS2_EE19_M_get_Tp_allocatorEv(%"struct.std::_Vector_base"* %4) #3, !dbg !5359
  %6 = call i64 @_ZNSt16allocator_traitsISaIPN11file_system8WorkUnitEEE8max_sizeERKS3_(%"class.std::allocator"* dereferenceable(1) %5) #3, !dbg !5360
  ret i64 %6, !dbg !5362
}

; Function Attrs: noreturn
declare void @_ZSt20__throw_length_errorPKc(i8*) #14

; Function Attrs: inlinehint nounwind uwtable
define linkonce_odr dereferenceable(8) i64* @_ZSt3maxImERKT_S2_S2_(i64* dereferenceable(8), i64* dereferenceable(8)) #9 comdat !dbg !5363 {
  %3 = alloca i64*, align 8
  %4 = alloca i64*, align 8
  %5 = alloca i64*, align 8
  store i64* %0, i64** %4, align 8
  call void @llvm.dbg.declare(metadata i64** %4, metadata !5371, metadata !3290), !dbg !5372
  store i64* %1, i64** %5, align 8
  call void @llvm.dbg.declare(metadata i64** %5, metadata !5373, metadata !3290), !dbg !5374
  %6 = load i64*, i64** %4, align 8, !dbg !5375
  %7 = load i64, i64* %6, align 8, !dbg !5375
  %8 = load i64*, i64** %5, align 8, !dbg !5377
  %9 = load i64, i64* %8, align 8, !dbg !5377
  %10 = icmp ult i64 %7, %9, !dbg !5378
  br i1 %10, label %11, label %13, !dbg !5379

; <label>:11:                                     ; preds = %2
  %12 = load i64*, i64** %5, align 8, !dbg !5380
  store i64* %12, i64** %3, align 8, !dbg !5381
  br label %15, !dbg !5381

; <label>:13:                                     ; preds = %2
  %14 = load i64*, i64** %4, align 8, !dbg !5382
  store i64* %14, i64** %3, align 8, !dbg !5383
  br label %15, !dbg !5383

; <label>:15:                                     ; preds = %13, %11
  %16 = load i64*, i64** %3, align 8, !dbg !5384
  ret i64* %16, !dbg !5384
}

; Function Attrs: nounwind uwtable
define linkonce_odr i64 @_ZNSt16allocator_traitsISaIPN11file_system8WorkUnitEEE8max_sizeERKS3_(%"class.std::allocator"* dereferenceable(1)) #4 comdat align 2 !dbg !5385 {
  %2 = alloca %"class.std::allocator"*, align 8
  store %"class.std::allocator"* %0, %"class.std::allocator"** %2, align 8
  call void @llvm.dbg.declare(metadata %"class.std::allocator"** %2, metadata !5386, metadata !3290), !dbg !5387
  %3 = load %"class.std::allocator"*, %"class.std::allocator"** %2, align 8, !dbg !5388
  %4 = bitcast %"class.std::allocator"* %3 to %"class.__gnu_cxx::new_allocator"*, !dbg !5388
  %5 = call i64 @_ZNK9__gnu_cxx13new_allocatorIPN11file_system8WorkUnitEE8max_sizeEv(%"class.__gnu_cxx::new_allocator"* %4) #3, !dbg !5389
  ret i64 %5, !dbg !5390
}

; Function Attrs: nounwind uwtable
define linkonce_odr dereferenceable(1) %"class.std::allocator"* @_ZNKSt12_Vector_baseIPN11file_system8WorkUnitESaIS2_EE19_M_get_Tp_allocatorEv(%"struct.std::_Vector_base"*) #4 comdat align 2 !dbg !5391 {
  %2 = alloca %"struct.std::_Vector_base"*, align 8
  store %"struct.std::_Vector_base"* %0, %"struct.std::_Vector_base"** %2, align 8
  call void @llvm.dbg.declare(metadata %"struct.std::_Vector_base"** %2, metadata !5392, metadata !3290), !dbg !5394
  %3 = load %"struct.std::_Vector_base"*, %"struct.std::_Vector_base"** %2, align 8
  %4 = getelementptr inbounds %"struct.std::_Vector_base", %"struct.std::_Vector_base"* %3, i32 0, i32 0, !dbg !5395
  %5 = bitcast %"struct.std::_Vector_base<file_system::WorkUnit *, std::allocator<file_system::WorkUnit *> >::_Vector_impl"* %4 to %"class.std::allocator"*, !dbg !5396
  ret %"class.std::allocator"* %5, !dbg !5397
}

; Function Attrs: nounwind uwtable
define linkonce_odr i64 @_ZNK9__gnu_cxx13new_allocatorIPN11file_system8WorkUnitEE8max_sizeEv(%"class.__gnu_cxx::new_allocator"*) #4 comdat align 2 !dbg !5398 {
  %2 = alloca %"class.__gnu_cxx::new_allocator"*, align 8
  store %"class.__gnu_cxx::new_allocator"* %0, %"class.__gnu_cxx::new_allocator"** %2, align 8
  call void @llvm.dbg.declare(metadata %"class.__gnu_cxx::new_allocator"** %2, metadata !5399, metadata !3290), !dbg !5401
  %3 = load %"class.__gnu_cxx::new_allocator"*, %"class.__gnu_cxx::new_allocator"** %2, align 8
  ret i64 2305843009213693951, !dbg !5402
}

; Function Attrs: uwtable
