; ModuleID = '/home/sreeram/Dev/mastersthesis/userspace_implementation_thesis_ver/MemoryCheck/src/Benchmark/lamport.cpp'
source_filename = "/home/sreeram/Dev/mastersthesis/userspace_implementation_thesis_ver/MemoryCheck/src/Benchmark/lamport.cpp"
target datalayout = "e-m:e-i64:64-f80:128-n8:16:32:64-S128"
target triple = "x86_64-pc-linux-gnu"

%"class.std::ios_base::Init" = type { i8 }
%"struct.boost::none_t" = type { i8 }
%"class.boost::detail::make_property_map_from_arg_pack_gen" = type { i32 }
%"class.std::basic_ostream" = type { i32 (...)**, %"class.std::basic_ios" }
%"class.std::basic_ios" = type { %"class.std::ios_base", %"class.std::basic_ostream"*, i8, i8, %"class.std::basic_streambuf"*, %"class.std::ctype"*, %"class.std::num_put"*, %"class.std::num_get"* }
%"class.std::ios_base" = type { i32 (...)**, i64, i64, i32, i32, i32, %"struct.std::ios_base::_Callback_list"*, %"struct.std::ios_base::_Words", [8 x %"struct.std::ios_base::_Words"], i32, %"struct.std::ios_base::_Words"*, %"class.std::locale" }
%"struct.std::ios_base::_Callback_list" = type { %"struct.std::ios_base::_Callback_list"*, void (i32, %"class.std::ios_base"*, i32)*, i32, i32 }
%"struct.std::ios_base::_Words" = type { i8*, i64 }
%"class.std::locale" = type { %"class.std::locale::_Impl"* }
%"class.std::locale::_Impl" = type { i32, %"class.std::locale::facet"**, i64, %"class.std::locale::facet"**, i8** }
%"class.std::locale::facet" = type <{ i32 (...)**, i32, [4 x i8] }>
%"class.std::basic_streambuf" = type { i32 (...)**, i8*, i8*, i8*, i8*, i8*, i8*, %"class.std::locale" }
%"class.std::ctype" = type <{ %"class.std::locale::facet.base", [4 x i8], %struct.__locale_struct*, i8, [7 x i8], i32*, i32*, i16*, i8, [256 x i8], [256 x i8], i8, [6 x i8] }>
%"class.std::locale::facet.base" = type <{ i32 (...)**, i32 }>
%struct.__locale_struct = type { [13 x %struct.__locale_data*], i16*, i32*, i32*, [13 x i8*] }
%struct.__locale_data = type opaque
%"class.std::num_put" = type { %"class.std::locale::facet.base", [4 x i8] }
%"class.std::num_get" = type { %"class.std::locale::facet.base", [4 x i8] }
%"struct.boost::none_t::init_tag" = type { i8 }
%"class.lamport::Thread0" = type { %class.IrsThread }
%class.IrsThread = type <{ %"class.std::thread", i32, [4 x i8] }>
%"class.std::thread" = type { %"class.std::thread::id" }
%"class.std::thread::id" = type { i64 }
%"class.lamport::Thread1" = type { %class.IrsThread }
%"struct.std::chrono::time_point" = type { %"struct.std::chrono::duration" }
%"struct.std::chrono::duration" = type { i64 }
%"struct.std::chrono::duration.0" = type { i64 }
%"class.std::unique_ptr" = type { %"class.std::tuple" }
%"class.std::tuple" = type { %"struct.std::_Tuple_impl" }
%"struct.std::_Tuple_impl" = type { %"struct.std::_Head_base.2" }
%"struct.std::_Head_base.2" = type { %"struct.std::thread::_State"* }
%"struct.std::thread::_State" = type { i32 (...)** }
%"struct.std::_Bind_simple" = type { %"class.std::tuple.3" }
%"class.std::tuple.3" = type { %"struct.std::_Tuple_impl.4" }
%"struct.std::_Tuple_impl.4" = type { %"struct.std::_Tuple_impl.5", %"struct.std::_Head_base.7" }
%"struct.std::_Tuple_impl.5" = type { %"struct.std::_Head_base.6" }
%"struct.std::_Head_base.6" = type { %"class.lamport::Thread0"* }
%"struct.std::_Head_base.7" = type { %"struct.std::_Mem_fn" }
%"struct.std::_Mem_fn" = type { %"class.std::_Mem_fn_base" }
%"class.std::_Mem_fn_base" = type { { i64, i64 } }
%union.pthread_attr_t = type { i64, [48 x i8] }
%"struct.std::thread::_State_impl" = type { %"struct.std::thread::_State", %"struct.std::_Bind_simple" }
%"struct.std::default_delete" = type { i8 }
%"struct.std::_Index_tuple" = type { i8 }
%"struct.std::__invoke_memfun_deref" = type { i8 }
%"struct.std::_Tuple_impl.1" = type { i8 }
%"struct.std::_Head_base" = type { i8 }
%"struct.std::_Maybe_unary_or_binary_function" = type { i8 }
%"struct.std::_Bind_simple.8" = type { %"class.std::tuple.9" }
%"class.std::tuple.9" = type { %"struct.std::_Tuple_impl.10" }
%"struct.std::_Tuple_impl.10" = type { %"struct.std::_Tuple_impl.11", %"struct.std::_Head_base.13" }
%"struct.std::_Tuple_impl.11" = type { %"struct.std::_Head_base.12" }
%"struct.std::_Head_base.12" = type { %"class.lamport::Thread1"* }
%"struct.std::_Head_base.13" = type { %"struct.std::_Mem_fn.14" }
%"struct.std::_Mem_fn.14" = type { %"class.std::_Mem_fn_base.15" }
%"class.std::_Mem_fn_base.15" = type { { i64, i64 } }
%"struct.std::thread::_State_impl.18" = type { %"struct.std::thread::_State", %"struct.std::_Bind_simple.8" }
%"struct.std::_Maybe_unary_or_binary_function.16" = type { i8 }

$_ZN5boost6none_tC2ENS0_8init_tagE = comdat any

$_ZN5boost6detail35make_property_map_from_arg_pack_genINS_5graph8keywords3tag9color_mapENS_18default_color_typeEEC2ES6_ = comdat any

$_ZN7lamport7Thread011getThreadIdEv = comdat any

$_ZNK9IrsThread6getTidEv = comdat any

$_ZN7lamport7Thread111getThreadIdEv = comdat any

$_ZN7lamport7Thread0C2Ei = comdat any

$_ZN7lamport7Thread1C2Ei = comdat any

$_ZN7lamport7Thread05startEv = comdat any

$_ZN7lamport7Thread15startEv = comdat any

$_ZN7lamport7Thread04joinEv = comdat any

$_ZN7lamport7Thread14joinEv = comdat any

$_ZNSt6chrono13duration_castINS_8durationIlSt5ratioILl1ELl1000000EEEElS2_ILl1ELl1000000000EEEENSt9enable_ifIXsr13__is_durationIT_EE5valueES7_E4typeERKNS1_IT0_T1_EE = comdat any

$_ZNSt6chronomiINS_3_V212system_clockENS_8durationIlSt5ratioILl1ELl1000000000EEEES6_EENSt11common_typeIJT0_T1_EE4typeERKNS_10time_pointIT_S8_EERKNSC_ISD_S9_EE = comdat any

$_ZNKSt6chrono8durationIlSt5ratioILl1ELl1000000EEE5countEv = comdat any

$_ZN7lamport7Thread1D2Ev = comdat any

$_ZN7lamport7Thread0D2Ev = comdat any

$_ZN9IrsThreadC2Ei = comdat any

$_ZNSt6threadC2Ev = comdat any

$_ZNSt6thread2idC2Ev = comdat any

$_ZN9IrsThreadclIJMN7lamport7Thread0EFvvEPS2_EEEvDpOT_ = comdat any

$_ZN7lamport7Thread04thr0Ev = comdat any

$_ZNSt6threadaSEOS_ = comdat any

$_ZSt7forwardIMN7lamport7Thread0EFvvEEOT_RNSt16remove_referenceIS4_E4typeE = comdat any

$_ZSt7forwardIPN7lamport7Thread0EEOT_RNSt16remove_referenceIS3_E4typeE = comdat any

$_ZNSt6threadC2IMN7lamport7Thread0EFvvEJPS2_EEEOT_DpOT0_ = comdat any

$_ZNSt6threadD2Ev = comdat any

$_ZNKSt6thread8joinableEv = comdat any

$_ZNSt6thread4swapERS_ = comdat any

$_ZSteqNSt6thread2idES0_ = comdat any

$_ZSt4swapINSt6thread2idEENSt9enable_ifIXsr6__and_ISt21is_move_constructibleIT_ESt18is_move_assignableIS4_EEE5valueEvE4typeERS4_SA_ = comdat any

$_ZSt4moveIRNSt6thread2idEEONSt16remove_referenceIT_E4typeEOS4_ = comdat any

$_ZNSt6thread13_S_make_stateISt12_Bind_simpleIFSt7_Mem_fnIMN7lamport7Thread0EFvvEEPS4_EEEESt10unique_ptrINS_6_StateESt14default_deleteISC_EEOT_ = comdat any

$_ZSt13__bind_simpleIMN7lamport7Thread0EFvvEJPS1_EENSt19_Bind_simple_helperIT_JDpT0_EE6__typeEOS6_DpOS7_ = comdat any

$_ZNSt10unique_ptrINSt6thread6_StateESt14default_deleteIS1_EED2Ev = comdat any

$_ZSt7forwardISt12_Bind_simpleIFSt7_Mem_fnIMN7lamport7Thread0EFvvEEPS3_EEEOT_RNSt16remove_referenceISA_E4typeE = comdat any

$_ZNSt6thread11_State_implISt12_Bind_simpleIFSt7_Mem_fnIMN7lamport7Thread0EFvvEEPS4_EEEC2EOSA_ = comdat any

$_ZNSt10unique_ptrINSt6thread6_StateESt14default_deleteIS1_EEC2EPS1_ = comdat any

$_ZNSt6thread6_StateC2Ev = comdat any

$_ZNSt12_Bind_simpleIFSt7_Mem_fnIMN7lamport7Thread0EFvvEEPS2_EEC2EOS8_ = comdat any

$_ZNSt6thread11_State_implISt12_Bind_simpleIFSt7_Mem_fnIMN7lamport7Thread0EFvvEEPS4_EEED2Ev = comdat any

$_ZNSt6thread11_State_implISt12_Bind_simpleIFSt7_Mem_fnIMN7lamport7Thread0EFvvEEPS4_EEED0Ev = comdat any

$_ZNSt6thread11_State_implISt12_Bind_simpleIFSt7_Mem_fnIMN7lamport7Thread0EFvvEEPS4_EEE6_M_runEv = comdat any

$_ZNSt5tupleIJSt7_Mem_fnIMN7lamport7Thread0EFvvEEPS2_EEC2EOS7_ = comdat any

$_ZNSt11_Tuple_implILm0EJSt7_Mem_fnIMN7lamport7Thread0EFvvEEPS2_EEC2EOS7_ = comdat any

$_ZSt4moveIRSt11_Tuple_implILm1EJPN7lamport7Thread0EEEEONSt16remove_referenceIT_E4typeEOS7_ = comdat any

$_ZNSt11_Tuple_implILm0EJSt7_Mem_fnIMN7lamport7Thread0EFvvEEPS2_EE7_M_tailERS7_ = comdat any

$_ZNSt11_Tuple_implILm1EJPN7lamport7Thread0EEEC2EOS3_ = comdat any

$_ZSt7forwardISt7_Mem_fnIMN7lamport7Thread0EFvvEEEOT_RNSt16remove_referenceIS6_E4typeE = comdat any

$_ZNSt11_Tuple_implILm0EJSt7_Mem_fnIMN7lamport7Thread0EFvvEEPS2_EE7_M_headERS7_ = comdat any

$_ZNSt10_Head_baseILm0ESt7_Mem_fnIMN7lamport7Thread0EFvvEELb0EEC2IS5_EEOT_ = comdat any

$__clang_call_terminate = comdat any

$_ZNSt11_Tuple_implILm1EJPN7lamport7Thread0EEE7_M_headERS3_ = comdat any

$_ZNSt10_Head_baseILm1EPN7lamport7Thread0ELb0EEC2IS2_EEOT_ = comdat any

$_ZNSt10_Head_baseILm1EPN7lamport7Thread0ELb0EE7_M_headERS3_ = comdat any

$_ZNSt10_Head_baseILm0ESt7_Mem_fnIMN7lamport7Thread0EFvvEELb0EE7_M_headERS6_ = comdat any

$_ZNSt12_Bind_simpleIFSt7_Mem_fnIMN7lamport7Thread0EFvvEEPS2_EEclEv = comdat any

$_ZNSt12_Bind_simpleIFSt7_Mem_fnIMN7lamport7Thread0EFvvEEPS2_EE9_M_invokeIJLm0EEEEvSt12_Index_tupleIJXspT_EEE = comdat any

$_ZSt3getILm0EJSt7_Mem_fnIMN7lamport7Thread0EFvvEEPS2_EERNSt13tuple_elementIXT_ESt5tupleIJDpT0_EEE4typeERSB_ = comdat any

$_ZNKSt12_Mem_fn_baseIMN7lamport7Thread0EFvvELb1EEclIJPS1_EEEDTclsr3stdE8__invokedtdefpT6_M_pmfspclsr3stdE7forwardIT_Efp_EEEDpOS7_ = comdat any

$_ZSt3getILm1EJSt7_Mem_fnIMN7lamport7Thread0EFvvEEPS2_EERNSt13tuple_elementIXT_ESt5tupleIJDpT0_EEE4typeERSB_ = comdat any

$_ZSt12__get_helperILm0ESt7_Mem_fnIMN7lamport7Thread0EFvvEEJPS2_EERT0_RSt11_Tuple_implIXT_EJS7_DpT1_EE = comdat any

$_ZSt8__invokeIRKMN7lamport7Thread0EFvvEJPS1_EENSt9result_ofIFOT_DpOT0_EE4typeES9_SC_ = comdat any

$_ZSt13__invoke_implIvRKMN7lamport7Thread0EFvvEPS1_JEET_St21__invoke_memfun_derefOT0_OT1_DpOT2_ = comdat any

$_ZSt7forwardIRKMN7lamport7Thread0EFvvEEOT_RNSt16remove_referenceIS6_E4typeE = comdat any

$_ZSt12__get_helperILm1EPN7lamport7Thread0EJEERT0_RSt11_Tuple_implIXT_EJS3_DpT1_EE = comdat any

$_ZNSt5tupleIJPNSt6thread6_StateESt14default_deleteIS1_EEEC2IS2_S4_Lb1EEEv = comdat any

$_ZSt3getILm0EJPNSt6thread6_StateESt14default_deleteIS1_EEERNSt13tuple_elementIXT_ESt5tupleIJDpT0_EEE4typeERS9_ = comdat any

$_ZNSt11_Tuple_implILm0EJPNSt6thread6_StateESt14default_deleteIS1_EEEC2Ev = comdat any

$_ZNSt11_Tuple_implILm1EJSt14default_deleteINSt6thread6_StateEEEEC2Ev = comdat any

$_ZNSt10_Head_baseILm0EPNSt6thread6_StateELb0EEC2Ev = comdat any

$_ZNSt10_Head_baseILm1ESt14default_deleteINSt6thread6_StateEELb1EEC2Ev = comdat any

$_ZSt12__get_helperILm0EPNSt6thread6_StateEJSt14default_deleteIS1_EEERT0_RSt11_Tuple_implIXT_EJS5_DpT1_EE = comdat any

$_ZNSt11_Tuple_implILm0EJPNSt6thread6_StateESt14default_deleteIS1_EEE7_M_headERS5_ = comdat any

$_ZNSt10_Head_baseILm0EPNSt6thread6_StateELb0EE7_M_headERS3_ = comdat any

$_ZNSt26_Maybe_wrap_member_pointerIMN7lamport7Thread0EFvvEE9__do_wrapES3_ = comdat any

$_ZNSt12_Bind_simpleIFSt7_Mem_fnIMN7lamport7Thread0EFvvEEPS2_EEC2IS5_JS6_EEEOT_DpOT0_ = comdat any

$_ZNSt7_Mem_fnIMN7lamport7Thread0EFvvEECI2St12_Mem_fn_baseIS3_Lb1EEES3_ = comdat any

$_ZNSt12_Mem_fn_baseIMN7lamport7Thread0EFvvELb1EEC2ES3_ = comdat any

$_ZNSt5tupleIJSt7_Mem_fnIMN7lamport7Thread0EFvvEEPS2_EEC2IS5_S6_Lb1EEEOT_OT0_ = comdat any

$_ZNSt11_Tuple_implILm0EJSt7_Mem_fnIMN7lamport7Thread0EFvvEEPS2_EEC2IS5_JS6_EvEEOT_DpOT0_ = comdat any

$_ZNSt11_Tuple_implILm1EJPN7lamport7Thread0EEEC2IS2_EEOT_ = comdat any

$_ZNSt10unique_ptrINSt6thread6_StateESt14default_deleteIS1_EE11get_deleterEv = comdat any

$_ZNKSt14default_deleteINSt6thread6_StateEEclEPS1_ = comdat any

$_ZSt3getILm1EJPNSt6thread6_StateESt14default_deleteIS1_EEERNSt13tuple_elementIXT_ESt5tupleIJDpT0_EEE4typeERS9_ = comdat any

$_ZSt12__get_helperILm1ESt14default_deleteINSt6thread6_StateEEJEERT0_RSt11_Tuple_implIXT_EJS4_DpT1_EE = comdat any

$_ZNSt11_Tuple_implILm1EJSt14default_deleteINSt6thread6_StateEEEE7_M_headERS4_ = comdat any

$_ZNSt10_Head_baseILm1ESt14default_deleteINSt6thread6_StateEELb1EE7_M_headERS4_ = comdat any

$_ZN9IrsThreadclIJMN7lamport7Thread1EFvvEPS2_EEEvDpOT_ = comdat any

$_ZN7lamport7Thread14thr1Ev = comdat any

$_ZSt7forwardIMN7lamport7Thread1EFvvEEOT_RNSt16remove_referenceIS4_E4typeE = comdat any

$_ZSt7forwardIPN7lamport7Thread1EEOT_RNSt16remove_referenceIS3_E4typeE = comdat any

$_ZNSt6threadC2IMN7lamport7Thread1EFvvEJPS2_EEEOT_DpOT0_ = comdat any

$_ZNSt6thread13_S_make_stateISt12_Bind_simpleIFSt7_Mem_fnIMN7lamport7Thread1EFvvEEPS4_EEEESt10unique_ptrINS_6_StateESt14default_deleteISC_EEOT_ = comdat any

$_ZSt13__bind_simpleIMN7lamport7Thread1EFvvEJPS1_EENSt19_Bind_simple_helperIT_JDpT0_EE6__typeEOS6_DpOS7_ = comdat any

$_ZSt7forwardISt12_Bind_simpleIFSt7_Mem_fnIMN7lamport7Thread1EFvvEEPS3_EEEOT_RNSt16remove_referenceISA_E4typeE = comdat any

$_ZNSt6thread11_State_implISt12_Bind_simpleIFSt7_Mem_fnIMN7lamport7Thread1EFvvEEPS4_EEEC2EOSA_ = comdat any

$_ZNSt12_Bind_simpleIFSt7_Mem_fnIMN7lamport7Thread1EFvvEEPS2_EEC2EOS8_ = comdat any

$_ZNSt6thread11_State_implISt12_Bind_simpleIFSt7_Mem_fnIMN7lamport7Thread1EFvvEEPS4_EEED2Ev = comdat any

$_ZNSt6thread11_State_implISt12_Bind_simpleIFSt7_Mem_fnIMN7lamport7Thread1EFvvEEPS4_EEED0Ev = comdat any

$_ZNSt6thread11_State_implISt12_Bind_simpleIFSt7_Mem_fnIMN7lamport7Thread1EFvvEEPS4_EEE6_M_runEv = comdat any

$_ZNSt5tupleIJSt7_Mem_fnIMN7lamport7Thread1EFvvEEPS2_EEC2EOS7_ = comdat any

$_ZNSt11_Tuple_implILm0EJSt7_Mem_fnIMN7lamport7Thread1EFvvEEPS2_EEC2EOS7_ = comdat any

$_ZSt4moveIRSt11_Tuple_implILm1EJPN7lamport7Thread1EEEEONSt16remove_referenceIT_E4typeEOS7_ = comdat any

$_ZNSt11_Tuple_implILm0EJSt7_Mem_fnIMN7lamport7Thread1EFvvEEPS2_EE7_M_tailERS7_ = comdat any

$_ZNSt11_Tuple_implILm1EJPN7lamport7Thread1EEEC2EOS3_ = comdat any

$_ZSt7forwardISt7_Mem_fnIMN7lamport7Thread1EFvvEEEOT_RNSt16remove_referenceIS6_E4typeE = comdat any

$_ZNSt11_Tuple_implILm0EJSt7_Mem_fnIMN7lamport7Thread1EFvvEEPS2_EE7_M_headERS7_ = comdat any

$_ZNSt10_Head_baseILm0ESt7_Mem_fnIMN7lamport7Thread1EFvvEELb0EEC2IS5_EEOT_ = comdat any

$_ZNSt11_Tuple_implILm1EJPN7lamport7Thread1EEE7_M_headERS3_ = comdat any

$_ZNSt10_Head_baseILm1EPN7lamport7Thread1ELb0EEC2IS2_EEOT_ = comdat any

$_ZNSt10_Head_baseILm1EPN7lamport7Thread1ELb0EE7_M_headERS3_ = comdat any

$_ZNSt10_Head_baseILm0ESt7_Mem_fnIMN7lamport7Thread1EFvvEELb0EE7_M_headERS6_ = comdat any

$_ZNSt12_Bind_simpleIFSt7_Mem_fnIMN7lamport7Thread1EFvvEEPS2_EEclEv = comdat any

$_ZNSt12_Bind_simpleIFSt7_Mem_fnIMN7lamport7Thread1EFvvEEPS2_EE9_M_invokeIJLm0EEEEvSt12_Index_tupleIJXspT_EEE = comdat any

$_ZSt3getILm0EJSt7_Mem_fnIMN7lamport7Thread1EFvvEEPS2_EERNSt13tuple_elementIXT_ESt5tupleIJDpT0_EEE4typeERSB_ = comdat any

$_ZNKSt12_Mem_fn_baseIMN7lamport7Thread1EFvvELb1EEclIJPS1_EEEDTclsr3stdE8__invokedtdefpT6_M_pmfspclsr3stdE7forwardIT_Efp_EEEDpOS7_ = comdat any

$_ZSt3getILm1EJSt7_Mem_fnIMN7lamport7Thread1EFvvEEPS2_EERNSt13tuple_elementIXT_ESt5tupleIJDpT0_EEE4typeERSB_ = comdat any

$_ZSt12__get_helperILm0ESt7_Mem_fnIMN7lamport7Thread1EFvvEEJPS2_EERT0_RSt11_Tuple_implIXT_EJS7_DpT1_EE = comdat any

$_ZSt8__invokeIRKMN7lamport7Thread1EFvvEJPS1_EENSt9result_ofIFOT_DpOT0_EE4typeES9_SC_ = comdat any

$_ZSt13__invoke_implIvRKMN7lamport7Thread1EFvvEPS1_JEET_St21__invoke_memfun_derefOT0_OT1_DpOT2_ = comdat any

$_ZSt7forwardIRKMN7lamport7Thread1EFvvEEOT_RNSt16remove_referenceIS6_E4typeE = comdat any

$_ZSt12__get_helperILm1EPN7lamport7Thread1EJEERT0_RSt11_Tuple_implIXT_EJS3_DpT1_EE = comdat any

$_ZNSt26_Maybe_wrap_member_pointerIMN7lamport7Thread1EFvvEE9__do_wrapES3_ = comdat any

$_ZNSt12_Bind_simpleIFSt7_Mem_fnIMN7lamport7Thread1EFvvEEPS2_EEC2IS5_JS6_EEEOT_DpOT0_ = comdat any

$_ZNSt7_Mem_fnIMN7lamport7Thread1EFvvEECI2St12_Mem_fn_baseIS3_Lb1EEES3_ = comdat any

$_ZNSt12_Mem_fn_baseIMN7lamport7Thread1EFvvELb1EEC2ES3_ = comdat any

$_ZNSt5tupleIJSt7_Mem_fnIMN7lamport7Thread1EFvvEEPS2_EEC2IS5_S6_Lb1EEEOT_OT0_ = comdat any

$_ZNSt11_Tuple_implILm0EJSt7_Mem_fnIMN7lamport7Thread1EFvvEEPS2_EEC2IS5_JS6_EvEEOT_DpOT0_ = comdat any

$_ZNSt11_Tuple_implILm1EJPN7lamport7Thread1EEEC2IS2_EEOT_ = comdat any

$_ZN9IrsThread4joinEv = comdat any

$_ZNSt6chrono20__duration_cast_implINS_8durationIlSt5ratioILl1ELl1000000EEEES2_ILl1ELl1000EElLb1ELb0EE6__castIlS2_ILl1ELl1000000000EEEES4_RKNS1_IT_T0_EE = comdat any

$_ZNKSt6chrono8durationIlSt5ratioILl1ELl1000000000EEE5countEv = comdat any

$_ZNSt6chrono8durationIlSt5ratioILl1ELl1000000EEEC2IlvEERKT_ = comdat any

$_ZNSt6chronomiIlSt5ratioILl1ELl1000000000EElS2_EENSt11common_typeIJNS_8durationIT_T0_EENS4_IT1_T2_EEEE4typeERKS7_RKSA_ = comdat any

$_ZNKSt6chrono10time_pointINS_3_V212system_clockENS_8durationIlSt5ratioILl1ELl1000000000EEEEE16time_since_epochEv = comdat any

$_ZNSt6chrono8durationIlSt5ratioILl1ELl1000000000EEEC2IlvEERKT_ = comdat any

$_ZN9IrsThreadD2Ev = comdat any

$_ZTVNSt6thread11_State_implISt12_Bind_simpleIFSt7_Mem_fnIMN7lamport7Thread0EFvvEEPS4_EEEE = comdat any

$_ZTSNSt6thread11_State_implISt12_Bind_simpleIFSt7_Mem_fnIMN7lamport7Thread0EFvvEEPS4_EEEE = comdat any

$_ZTINSt6thread11_State_implISt12_Bind_simpleIFSt7_Mem_fnIMN7lamport7Thread0EFvvEEPS4_EEEE = comdat any

$_ZTVNSt6thread11_State_implISt12_Bind_simpleIFSt7_Mem_fnIMN7lamport7Thread1EFvvEEPS4_EEEE = comdat any

$_ZTSNSt6thread11_State_implISt12_Bind_simpleIFSt7_Mem_fnIMN7lamport7Thread1EFvvEEPS4_EEEE = comdat any

$_ZTINSt6thread11_State_implISt12_Bind_simpleIFSt7_Mem_fnIMN7lamport7Thread1EFvvEEPS4_EEEE = comdat any

@_ZStL8__ioinit = internal global %"class.std::ios_base::Init" zeroinitializer, align 1
@__dso_handle = external global i8
@_ZN5boostL4noneE = internal global %"struct.boost::none_t" zeroinitializer, align 1
@_ZN5boost6detailL28make_color_map_from_arg_packE = internal global %"class.boost::detail::make_property_map_from_arg_pack_gen" zeroinitializer, align 4
@.str = private unnamed_addr constant [15 x i8] c"after_callback\00", section "llvm.metadata"
@.str.3 = private unnamed_addr constant [130 x i8] c"/home/sreeram/Dev/mastersthesis/userspace_implementation_thesis_ver/MemoryCheck/src/Benchmark/../../include/Benchmark/benchmark.h\00", section "llvm.metadata"
@.str.4 = private unnamed_addr constant [16 x i8] c"before_callback\00", section "llvm.metadata"
@_ZN7lamport12THREAD_COUNTE = constant i32 2, align 4
@_ZN7lamport1xE = global i32 0, align 4
@.str.5 = private unnamed_addr constant [5 x i8] c"gvar\00", section "llvm.metadata"
@.str.6 = private unnamed_addr constant [106 x i8] c"/home/sreeram/Dev/mastersthesis/userspace_implementation_thesis_ver/MemoryCheck/src/Benchmark/lamport.cpp\00", section "llvm.metadata"
@_ZN7lamport1yE = global i32 0, align 4
@_ZN7lamport5flag0E = global i32 0, align 4
@_ZN7lamport5flag1E = global i32 0, align 4
@_ZN7lamport1XE = global i32 0, align 4
@_ZSt4cout = external global %"class.std::basic_ostream", align 8
@.str.7 = private unnamed_addr constant [5 x i8] c"ignr\00", section "llvm.metadata"
@_ZTVNSt6thread11_State_implISt12_Bind_simpleIFSt7_Mem_fnIMN7lamport7Thread0EFvvEEPS4_EEEE = linkonce_odr unnamed_addr constant [5 x i8*] [i8* null, i8* bitcast ({ i8*, i8*, i8* }* @_ZTINSt6thread11_State_implISt12_Bind_simpleIFSt7_Mem_fnIMN7lamport7Thread0EFvvEEPS4_EEEE to i8*), i8* bitcast (void (%"struct.std::thread::_State_impl"*)* @_ZNSt6thread11_State_implISt12_Bind_simpleIFSt7_Mem_fnIMN7lamport7Thread0EFvvEEPS4_EEED2Ev to i8*), i8* bitcast (void (%"struct.std::thread::_State_impl"*)* @_ZNSt6thread11_State_implISt12_Bind_simpleIFSt7_Mem_fnIMN7lamport7Thread0EFvvEEPS4_EEED0Ev to i8*), i8* bitcast (void (%"struct.std::thread::_State_impl"*)* @_ZNSt6thread11_State_implISt12_Bind_simpleIFSt7_Mem_fnIMN7lamport7Thread0EFvvEEPS4_EEE6_M_runEv to i8*)], comdat, align 8
@_ZTVN10__cxxabiv120__si_class_type_infoE = external global i8*
@_ZTSNSt6thread11_State_implISt12_Bind_simpleIFSt7_Mem_fnIMN7lamport7Thread0EFvvEEPS4_EEEE = linkonce_odr constant [86 x i8] c"NSt6thread11_State_implISt12_Bind_simpleIFSt7_Mem_fnIMN7lamport7Thread0EFvvEEPS4_EEEE\00", comdat
@_ZTINSt6thread6_StateE = external constant i8*
@_ZTINSt6thread11_State_implISt12_Bind_simpleIFSt7_Mem_fnIMN7lamport7Thread0EFvvEEPS4_EEEE = linkonce_odr constant { i8*, i8*, i8* } { i8* bitcast (i8** getelementptr inbounds (i8*, i8** @_ZTVN10__cxxabiv120__si_class_type_infoE, i64 2) to i8*), i8* getelementptr inbounds ([86 x i8], [86 x i8]* @_ZTSNSt6thread11_State_implISt12_Bind_simpleIFSt7_Mem_fnIMN7lamport7Thread0EFvvEEPS4_EEEE, i32 0, i32 0), i8* bitcast (i8** @_ZTINSt6thread6_StateE to i8*) }, comdat
@_ZTVNSt6thread6_StateE = external unnamed_addr constant [5 x i8*]
@.str.8 = private unnamed_addr constant [7 x i8] c"X <= 0\00", align 1
@.str.9 = private unnamed_addr constant [106 x i8] c"/home/sreeram/Dev/mastersthesis/userspace_implementation_thesis_ver/MemoryCheck/src/Benchmark/lamport.cpp\00", align 1
@__PRETTY_FUNCTION__._ZN7lamport7Thread04thr0Ev = private unnamed_addr constant [30 x i8] c"void lamport::Thread0::thr0()\00", align 1
@_ZTVNSt6thread11_State_implISt12_Bind_simpleIFSt7_Mem_fnIMN7lamport7Thread1EFvvEEPS4_EEEE = linkonce_odr unnamed_addr constant [5 x i8*] [i8* null, i8* bitcast ({ i8*, i8*, i8* }* @_ZTINSt6thread11_State_implISt12_Bind_simpleIFSt7_Mem_fnIMN7lamport7Thread1EFvvEEPS4_EEEE to i8*), i8* bitcast (void (%"struct.std::thread::_State_impl.18"*)* @_ZNSt6thread11_State_implISt12_Bind_simpleIFSt7_Mem_fnIMN7lamport7Thread1EFvvEEPS4_EEED2Ev to i8*), i8* bitcast (void (%"struct.std::thread::_State_impl.18"*)* @_ZNSt6thread11_State_implISt12_Bind_simpleIFSt7_Mem_fnIMN7lamport7Thread1EFvvEEPS4_EEED0Ev to i8*), i8* bitcast (void (%"struct.std::thread::_State_impl.18"*)* @_ZNSt6thread11_State_implISt12_Bind_simpleIFSt7_Mem_fnIMN7lamport7Thread1EFvvEEPS4_EEE6_M_runEv to i8*)], comdat, align 8
@_ZTSNSt6thread11_State_implISt12_Bind_simpleIFSt7_Mem_fnIMN7lamport7Thread1EFvvEEPS4_EEEE = linkonce_odr constant [86 x i8] c"NSt6thread11_State_implISt12_Bind_simpleIFSt7_Mem_fnIMN7lamport7Thread1EFvvEEPS4_EEEE\00", comdat
@_ZTINSt6thread11_State_implISt12_Bind_simpleIFSt7_Mem_fnIMN7lamport7Thread1EFvvEEPS4_EEEE = linkonce_odr constant { i8*, i8*, i8* } { i8* bitcast (i8** getelementptr inbounds (i8*, i8** @_ZTVN10__cxxabiv120__si_class_type_infoE, i64 2) to i8*), i8* getelementptr inbounds ([86 x i8], [86 x i8]* @_ZTSNSt6thread11_State_implISt12_Bind_simpleIFSt7_Mem_fnIMN7lamport7Thread1EFvvEEPS4_EEEE, i32 0, i32 0), i8* bitcast (i8** @_ZTINSt6thread6_StateE to i8*) }, comdat
@.str.10 = private unnamed_addr constant [7 x i8] c"X >= 1\00", align 1
@__PRETTY_FUNCTION__._ZN7lamport7Thread14thr1Ev = private unnamed_addr constant [30 x i8] c"void lamport::Thread1::thr1()\00", align 1
@llvm.global_ctors = appending global [1 x { i32, void ()*, i8* }] [{ i32, void ()*, i8* } { i32 65535, void ()* @_GLOBAL__sub_I_lamport.cpp, i8* null }]
@llvm.global.annotations = appending global [8 x { i8*, i8*, i8*, i32 }] [{ i8*, i8*, i8*, i32 } { i8* bitcast (void (i32)* @_Z9__afterMAi to i8*), i8* getelementptr inbounds ([15 x i8], [15 x i8]* @.str, i32 0, i32 0), i8* getelementptr inbounds ([130 x i8], [130 x i8]* @.str.3, i32 0, i32 0), i32 23 }, { i8*, i8*, i8*, i32 } { i8* bitcast (void (i32, i8*, i64, i32)* @_Z10__beforeMAiPvli to i8*), i8* getelementptr inbounds ([16 x i8], [16 x i8]* @.str.4, i32 0, i32 0), i8* getelementptr inbounds ([130 x i8], [130 x i8]* @.str.3, i32 0, i32 0), i32 26 }, { i8*, i8*, i8*, i32 } { i8* bitcast (i32* @_ZN7lamport1xE to i8*), i8* getelementptr inbounds ([5 x i8], [5 x i8]* @.str.5, i32 0, i32 0), i8* getelementptr inbounds ([106 x i8], [106 x i8]* @.str.6, i32 0, i32 0), i32 12 }, { i8*, i8*, i8*, i32 } { i8* bitcast (i32* @_ZN7lamport1yE to i8*), i8* getelementptr inbounds ([5 x i8], [5 x i8]* @.str.5, i32 0, i32 0), i8* getelementptr inbounds ([106 x i8], [106 x i8]* @.str.6, i32 0, i32 0), i32 13 }, { i8*, i8*, i8*, i32 } { i8* bitcast (i32* @_ZN7lamport5flag0E to i8*), i8* getelementptr inbounds ([5 x i8], [5 x i8]* @.str.5, i32 0, i32 0), i8* getelementptr inbounds ([106 x i8], [106 x i8]* @.str.6, i32 0, i32 0), i32 14 }, { i8*, i8*, i8*, i32 } { i8* bitcast (i32* @_ZN7lamport5flag1E to i8*), i8* getelementptr inbounds ([5 x i8], [5 x i8]* @.str.5, i32 0, i32 0), i8* getelementptr inbounds ([106 x i8], [106 x i8]* @.str.6, i32 0, i32 0), i32 15 }, { i8*, i8*, i8*, i32 } { i8* bitcast (i32* @_ZN7lamport1XE to i8*), i8* getelementptr inbounds ([5 x i8], [5 x i8]* @.str.5, i32 0, i32 0), i8* getelementptr inbounds ([106 x i8], [106 x i8]* @.str.6, i32 0, i32 0), i32 16 }, { i8*, i8*, i8*, i32 } { i8* bitcast (void ()* @_ZN7lamport13run_benchmarkEv to i8*), i8* getelementptr inbounds ([5 x i8], [5 x i8]* @.str.7, i32 0, i32 0), i8* getelementptr inbounds ([106 x i8], [106 x i8]* @.str.6, i32 0, i32 0), i32 105 }], section "llvm.metadata"
@llvm.used = appending global [2 x i8*] [i8* bitcast (i32 (%"class.lamport::Thread0"*)* @_ZN7lamport7Thread011getThreadIdEv to i8*), i8* bitcast (i32 (%"class.lamport::Thread1"*)* @_ZN7lamport7Thread111getThreadIdEv to i8*)], section "llvm.metadata"

; Function Attrs: uwtable
define internal void @__cxx_global_var_init() #0 section ".text.startup" !dbg !2765 {
  call void @_ZNSt8ios_base4InitC1Ev(%"class.std::ios_base::Init"* @_ZStL8__ioinit), !dbg !2766
  %1 = call i32 @__cxa_atexit(void (i8*)* bitcast (void (%"class.std::ios_base::Init"*)* @_ZNSt8ios_base4InitD1Ev to void (i8*)*), i8* getelementptr inbounds (%"class.std::ios_base::Init", %"class.std::ios_base::Init"* @_ZStL8__ioinit, i32 0, i32 0), i8* @__dso_handle) #3, !dbg !2767
  ret void, !dbg !2766
}

declare void @_ZNSt8ios_base4InitC1Ev(%"class.std::ios_base::Init"*) unnamed_addr #1

; Function Attrs: nounwind
declare void @_ZNSt8ios_base4InitD1Ev(%"class.std::ios_base::Init"*) unnamed_addr #2

; Function Attrs: nounwind
declare i32 @__cxa_atexit(void (i8*)*, i8*, i8*) #3

; Function Attrs: uwtable
define internal void @__cxx_global_var_init.1() #0 section ".text.startup" !dbg !2769 {
  %1 = alloca %"struct.boost::none_t::init_tag", align 1
  call void @_ZN5boost6none_tC2ENS0_8init_tagE(%"struct.boost::none_t"* @_ZN5boostL4noneE), !dbg !2770
  ret void, !dbg !2771
}

; Function Attrs: nounwind uwtable
define linkonce_odr void @_ZN5boost6none_tC2ENS0_8init_tagE(%"struct.boost::none_t"*) unnamed_addr #4 comdat align 2 !dbg !2772 {
  %2 = alloca %"struct.boost::none_t::init_tag", align 1
  %3 = alloca %"struct.boost::none_t"*, align 8
  store %"struct.boost::none_t"* %0, %"struct.boost::none_t"** %3, align 8
  call void @llvm.dbg.declare(metadata %"struct.boost::none_t"** %3, metadata !2773, metadata !2775), !dbg !2776
  call void @llvm.dbg.declare(metadata %"struct.boost::none_t::init_tag"* %2, metadata !2777, metadata !2775), !dbg !2778
  %4 = load %"struct.boost::none_t"*, %"struct.boost::none_t"** %3, align 8
  ret void, !dbg !2779
}

; Function Attrs: uwtable
define internal void @__cxx_global_var_init.2() #0 section ".text.startup" !dbg !2780 {
  call void @_ZN5boost6detail35make_property_map_from_arg_pack_genINS_5graph8keywords3tag9color_mapENS_18default_color_typeEEC2ES6_(%"class.boost::detail::make_property_map_from_arg_pack_gen"* @_ZN5boost6detailL28make_color_map_from_arg_packE, i32 0), !dbg !2781
  ret void, !dbg !2782
}

; Function Attrs: nounwind uwtable
define linkonce_odr void @_ZN5boost6detail35make_property_map_from_arg_pack_genINS_5graph8keywords3tag9color_mapENS_18default_color_typeEEC2ES6_(%"class.boost::detail::make_property_map_from_arg_pack_gen"*, i32) unnamed_addr #4 comdat align 2 !dbg !2783 {
  %3 = alloca %"class.boost::detail::make_property_map_from_arg_pack_gen"*, align 8
  %4 = alloca i32, align 4
  store %"class.boost::detail::make_property_map_from_arg_pack_gen"* %0, %"class.boost::detail::make_property_map_from_arg_pack_gen"** %3, align 8
  call void @llvm.dbg.declare(metadata %"class.boost::detail::make_property_map_from_arg_pack_gen"** %3, metadata !2784, metadata !2775), !dbg !2786
  store i32 %1, i32* %4, align 4
  call void @llvm.dbg.declare(metadata i32* %4, metadata !2787, metadata !2775), !dbg !2788
  %5 = load %"class.boost::detail::make_property_map_from_arg_pack_gen"*, %"class.boost::detail::make_property_map_from_arg_pack_gen"** %3, align 8
  %6 = getelementptr inbounds %"class.boost::detail::make_property_map_from_arg_pack_gen", %"class.boost::detail::make_property_map_from_arg_pack_gen"* %5, i32 0, i32 0, !dbg !2789
  %7 = load i32, i32* %4, align 4, !dbg !2790
  store i32 %7, i32* %6, align 4, !dbg !2789
  ret void, !dbg !2791
}

; Function Attrs: uwtable
define void @_Z9__afterMAi(i32) #0 !dbg !2792 {
  %2 = alloca i32, align 4
  store i32 %0, i32* %2, align 4
  call void @llvm.dbg.declare(metadata i32* %2, metadata !2794, metadata !2775), !dbg !2795
  %3 = load i32, i32* %2, align 4, !dbg !2796
  call void @_ZN7Runtime7afterMAEi(i32 %3), !dbg !2797
  ret void, !dbg !2798
}

; Function Attrs: nounwind readnone
declare void @llvm.dbg.declare(metadata, metadata, metadata) #5

declare void @_ZN7Runtime7afterMAEi(i32) #1

; Function Attrs: uwtable
define void @_Z10__beforeMAiPvli(i32, i8*, i64, i32) #0 !dbg !2799 {
  %5 = alloca i32, align 4
  %6 = alloca i8*, align 8
  %7 = alloca i64, align 8
  %8 = alloca i32, align 4
  store i32 %0, i32* %5, align 4
  call void @llvm.dbg.declare(metadata i32* %5, metadata !2802, metadata !2775), !dbg !2803
  store i8* %1, i8** %6, align 8
  call void @llvm.dbg.declare(metadata i8** %6, metadata !2804, metadata !2775), !dbg !2805
  store i64 %2, i64* %7, align 8
  call void @llvm.dbg.declare(metadata i64* %7, metadata !2806, metadata !2775), !dbg !2807
  store i32 %3, i32* %8, align 4
  call void @llvm.dbg.declare(metadata i32* %8, metadata !2808, metadata !2775), !dbg !2809
  %9 = load i32, i32* %5, align 4, !dbg !2810
  %10 = load i8*, i8** %6, align 8, !dbg !2811
  %11 = load i32, i32* %8, align 4, !dbg !2812
  %12 = icmp ne i32 %11, 0, !dbg !2812
  call void @_ZN7Runtime8beforeMAEiPvb(i32 %9, i8* %10, i1 zeroext %12), !dbg !2813
  ret void, !dbg !2814
}

declare void @_ZN7Runtime8beforeMAEiPvb(i32, i8*, i1 zeroext) #1

; Function Attrs: noinline uwtable
define linkonce_odr i32 @_ZN7lamport7Thread011getThreadIdEv(%"class.lamport::Thread0"*) #6 comdat align 2 !dbg !2815 {
  %2 = alloca %"class.lamport::Thread0"*, align 8
  store %"class.lamport::Thread0"* %0, %"class.lamport::Thread0"** %2, align 8
  call void @llvm.dbg.declare(metadata %"class.lamport::Thread0"** %2, metadata !2816, metadata !2775), !dbg !2817
  %3 = load %"class.lamport::Thread0"*, %"class.lamport::Thread0"** %2, align 8
  %4 = getelementptr inbounds %"class.lamport::Thread0", %"class.lamport::Thread0"* %3, i32 0, i32 0, !dbg !2818
  %5 = call i32 @_ZNK9IrsThread6getTidEv(%class.IrsThread* %4), !dbg !2819
  ret i32 %5, !dbg !2820
}

; Function Attrs: nounwind uwtable
define linkonce_odr i32 @_ZNK9IrsThread6getTidEv(%class.IrsThread*) #4 comdat align 2 !dbg !2821 {
  %2 = alloca %class.IrsThread*, align 8
  store %class.IrsThread* %0, %class.IrsThread** %2, align 8
  call void @llvm.dbg.declare(metadata %class.IrsThread** %2, metadata !2822, metadata !2775), !dbg !2824
  %3 = load %class.IrsThread*, %class.IrsThread** %2, align 8
  %4 = getelementptr inbounds %class.IrsThread, %class.IrsThread* %3, i32 0, i32 1, !dbg !2825
  %5 = load i32, i32* %4, align 8, !dbg !2825
  ret i32 %5, !dbg !2826
}

; Function Attrs: noinline uwtable
define linkonce_odr i32 @_ZN7lamport7Thread111getThreadIdEv(%"class.lamport::Thread1"*) #6 comdat align 2 !dbg !2827 {
  %2 = alloca %"class.lamport::Thread1"*, align 8
  store %"class.lamport::Thread1"* %0, %"class.lamport::Thread1"** %2, align 8
  call void @llvm.dbg.declare(metadata %"class.lamport::Thread1"** %2, metadata !2828, metadata !2775), !dbg !2829
  %3 = load %"class.lamport::Thread1"*, %"class.lamport::Thread1"** %2, align 8
  %4 = getelementptr inbounds %"class.lamport::Thread1", %"class.lamport::Thread1"* %3, i32 0, i32 0, !dbg !2830
  %5 = call i32 @_ZNK9IrsThread6getTidEv(%class.IrsThread* %4), !dbg !2831
  ret i32 %5, !dbg !2832
}

; Function Attrs: uwtable
define void @_ZN7lamport13run_benchmarkEv() #0 personality i8* bitcast (i32 (...)* @__gxx_personality_v0 to i8*) !dbg !2833 {
  %1 = alloca %"class.lamport::Thread0", align 8
  %2 = alloca %"class.lamport::Thread1", align 8
  %3 = alloca i8*
  %4 = alloca i32
  %5 = alloca %"struct.std::chrono::time_point", align 8
  %6 = alloca %"struct.std::chrono::time_point", align 8
  %7 = alloca i64, align 8
  %8 = alloca %"struct.std::chrono::duration", align 8
  %9 = alloca %"struct.std::chrono::duration.0", align 8
  call void @llvm.dbg.declare(metadata %"class.lamport::Thread0"* %1, metadata !2834, metadata !2775), !dbg !2835
  call void @_ZN7lamport7Thread0C2Ei(%"class.lamport::Thread0"* %1, i32 0), !dbg !2835
  call void @llvm.dbg.declare(metadata %"class.lamport::Thread1"* %2, metadata !2836, metadata !2775), !dbg !2837
  invoke void @_ZN7lamport7Thread1C2Ei(%"class.lamport::Thread1"* %2, i32 1)
          to label %10 unwind label %34, !dbg !2837

; <label>:10:                                     ; preds = %0
  call void @llvm.dbg.declare(metadata %"struct.std::chrono::time_point"* %5, metadata !2838, metadata !2775), !dbg !2885
  %11 = call i64 @_ZNSt6chrono3_V212system_clock3nowEv() #3, !dbg !2885
  %12 = getelementptr inbounds %"struct.std::chrono::time_point", %"struct.std::chrono::time_point"* %5, i32 0, i32 0, !dbg !2885
  %13 = getelementptr inbounds %"struct.std::chrono::duration", %"struct.std::chrono::duration"* %12, i32 0, i32 0, !dbg !2885
  store i64 %11, i64* %13, align 8, !dbg !2885
  invoke void @_ZN7lamport7Thread05startEv(%"class.lamport::Thread0"* %1)
          to label %14 unwind label %38, !dbg !2886

; <label>:14:                                     ; preds = %10
  invoke void @_ZN7lamport7Thread15startEv(%"class.lamport::Thread1"* %2)
          to label %15 unwind label %38, !dbg !2887

; <label>:15:                                     ; preds = %14
  invoke void @_ZN7lamport7Thread04joinEv(%"class.lamport::Thread0"* %1)
          to label %16 unwind label %38, !dbg !2888

; <label>:16:                                     ; preds = %15
  invoke void @_ZN7lamport7Thread14joinEv(%"class.lamport::Thread1"* %2)
          to label %17 unwind label %38, !dbg !2889

; <label>:17:                                     ; preds = %16
  call void @llvm.dbg.declare(metadata %"struct.std::chrono::time_point"* %6, metadata !2890, metadata !2775), !dbg !2891
  %18 = call i64 @_ZNSt6chrono3_V212system_clock3nowEv() #3, !dbg !2891
  %19 = getelementptr inbounds %"struct.std::chrono::time_point", %"struct.std::chrono::time_point"* %6, i32 0, i32 0, !dbg !2891
  %20 = getelementptr inbounds %"struct.std::chrono::duration", %"struct.std::chrono::duration"* %19, i32 0, i32 0, !dbg !2891
  store i64 %18, i64* %20, align 8, !dbg !2891
  call void @llvm.dbg.declare(metadata i64* %7, metadata !2892, metadata !2775), !dbg !2891
  %21 = invoke i64 @_ZNSt6chronomiINS_3_V212system_clockENS_8durationIlSt5ratioILl1ELl1000000000EEEES6_EENSt11common_typeIJT0_T1_EE4typeERKNS_10time_pointIT_S8_EERKNSC_ISD_S9_EE(%"struct.std::chrono::time_point"* dereferenceable(8) %6, %"struct.std::chrono::time_point"* dereferenceable(8) %5)
          to label %22 unwind label %38, !dbg !2891

; <label>:22:                                     ; preds = %17
  %23 = getelementptr inbounds %"struct.std::chrono::duration", %"struct.std::chrono::duration"* %8, i32 0, i32 0, !dbg !2893
  store i64 %21, i64* %23, align 8, !dbg !2893
  %24 = invoke i64 @_ZNSt6chrono13duration_castINS_8durationIlSt5ratioILl1ELl1000000EEEElS2_ILl1ELl1000000000EEEENSt9enable_ifIXsr13__is_durationIT_EE5valueES7_E4typeERKNS1_IT0_T1_EE(%"struct.std::chrono::duration"* dereferenceable(8) %8)
          to label %25 unwind label %38, !dbg !2893

; <label>:25:                                     ; preds = %22
  %26 = getelementptr inbounds %"struct.std::chrono::duration.0", %"struct.std::chrono::duration.0"* %9, i32 0, i32 0, !dbg !2895
  store i64 %24, i64* %26, align 8, !dbg !2895
  %27 = invoke i64 @_ZNKSt6chrono8durationIlSt5ratioILl1ELl1000000EEE5countEv(%"struct.std::chrono::duration.0"* %9)
          to label %28 unwind label %38, !dbg !2895

; <label>:28:                                     ; preds = %25
  store i64 %27, i64* %7, align 8, !dbg !2897
  %29 = load i64, i64* %7, align 8, !dbg !2897
  %30 = invoke dereferenceable(272) %"class.std::basic_ostream"* @_ZNSolsEl(%"class.std::basic_ostream"* @_ZSt4cout, i64 %29)
          to label %31 unwind label %38, !dbg !2897

; <label>:31:                                     ; preds = %28
  %32 = invoke dereferenceable(272) %"class.std::basic_ostream"* @_ZNSolsEPFRSoS_E(%"class.std::basic_ostream"* %30, %"class.std::basic_ostream"* (%"class.std::basic_ostream"*)* @_ZSt4endlIcSt11char_traitsIcEERSt13basic_ostreamIT_T0_ES6_)
          to label %33 unwind label %38, !dbg !2899

; <label>:33:                                     ; preds = %31
  call void @_ZN7lamport7Thread1D2Ev(%"class.lamport::Thread1"* %2) #3, !dbg !2901
  call void @_ZN7lamport7Thread0D2Ev(%"class.lamport::Thread0"* %1) #3, !dbg !2902
  ret void, !dbg !2901

; <label>:34:                                     ; preds = %0
  %35 = landingpad { i8*, i32 }
          cleanup, !dbg !2904
  %36 = extractvalue { i8*, i32 } %35, 0, !dbg !2904
  store i8* %36, i8** %3, align 8, !dbg !2904
  %37 = extractvalue { i8*, i32 } %35, 1, !dbg !2904
  store i32 %37, i32* %4, align 4, !dbg !2904
  br label %42, !dbg !2904

; <label>:38:                                     ; preds = %31, %28, %25, %22, %17, %16, %15, %14, %10
  %39 = landingpad { i8*, i32 }
          cleanup, !dbg !2905
  %40 = extractvalue { i8*, i32 } %39, 0, !dbg !2905
  store i8* %40, i8** %3, align 8, !dbg !2905
  %41 = extractvalue { i8*, i32 } %39, 1, !dbg !2905
  store i32 %41, i32* %4, align 4, !dbg !2905
  call void @_ZN7lamport7Thread1D2Ev(%"class.lamport::Thread1"* %2) #3, !dbg !2905
  br label %42, !dbg !2905

; <label>:42:                                     ; preds = %38, %34
  call void @_ZN7lamport7Thread0D2Ev(%"class.lamport::Thread0"* %1) #3, !dbg !2906
  br label %43, !dbg !2906

; <label>:43:                                     ; preds = %42
  %44 = load i8*, i8** %3, align 8, !dbg !2907
  %45 = load i32, i32* %4, align 4, !dbg !2907
  %46 = insertvalue { i8*, i32 } undef, i8* %44, 0, !dbg !2907
  %47 = insertvalue { i8*, i32 } %46, i32 %45, 1, !dbg !2907
  resume { i8*, i32 } %47, !dbg !2907
}

; Function Attrs: uwtable
define linkonce_odr void @_ZN7lamport7Thread0C2Ei(%"class.lamport::Thread0"*, i32) unnamed_addr #0 comdat align 2 !dbg !2908 {
  %3 = alloca %"class.lamport::Thread0"*, align 8
  %4 = alloca i32, align 4
  store %"class.lamport::Thread0"* %0, %"class.lamport::Thread0"** %3, align 8
  call void @llvm.dbg.declare(metadata %"class.lamport::Thread0"** %3, metadata !2909, metadata !2775), !dbg !2910
  store i32 %1, i32* %4, align 4
  call void @llvm.dbg.declare(metadata i32* %4, metadata !2911, metadata !2775), !dbg !2912
  %5 = load %"class.lamport::Thread0"*, %"class.lamport::Thread0"** %3, align 8
  %6 = getelementptr inbounds %"class.lamport::Thread0", %"class.lamport::Thread0"* %5, i32 0, i32 0, !dbg !2913
  %7 = load i32, i32* %4, align 4, !dbg !2914
  call void @_ZN9IrsThreadC2Ei(%class.IrsThread* %6, i32 %7), !dbg !2913
  ret void, !dbg !2915
}

; Function Attrs: uwtable
define linkonce_odr void @_ZN7lamport7Thread1C2Ei(%"class.lamport::Thread1"*, i32) unnamed_addr #0 comdat align 2 !dbg !2916 {
  %3 = alloca %"class.lamport::Thread1"*, align 8
  %4 = alloca i32, align 4
  store %"class.lamport::Thread1"* %0, %"class.lamport::Thread1"** %3, align 8
  call void @llvm.dbg.declare(metadata %"class.lamport::Thread1"** %3, metadata !2917, metadata !2775), !dbg !2918
  store i32 %1, i32* %4, align 4
  call void @llvm.dbg.declare(metadata i32* %4, metadata !2919, metadata !2775), !dbg !2920
  %5 = load %"class.lamport::Thread1"*, %"class.lamport::Thread1"** %3, align 8
  %6 = getelementptr inbounds %"class.lamport::Thread1", %"class.lamport::Thread1"* %5, i32 0, i32 0, !dbg !2921
  %7 = load i32, i32* %4, align 4, !dbg !2922
  call void @_ZN9IrsThreadC2Ei(%class.IrsThread* %6, i32 %7), !dbg !2921
  ret void, !dbg !2923
}

declare i32 @__gxx_personality_v0(...)

; Function Attrs: nounwind
declare i64 @_ZNSt6chrono3_V212system_clock3nowEv() #2

; Function Attrs: uwtable
define linkonce_odr void @_ZN7lamport7Thread05startEv(%"class.lamport::Thread0"*) #0 comdat align 2 !dbg !2924 {
  %2 = alloca %"class.lamport::Thread0"*, align 8
  %3 = alloca { i64, i64 }, align 8
  %4 = alloca %"class.lamport::Thread0"*, align 8
  store %"class.lamport::Thread0"* %0, %"class.lamport::Thread0"** %2, align 8
  call void @llvm.dbg.declare(metadata %"class.lamport::Thread0"** %2, metadata !2925, metadata !2775), !dbg !2926
  %5 = load %"class.lamport::Thread0"*, %"class.lamport::Thread0"** %2, align 8
  %6 = getelementptr inbounds %"class.lamport::Thread0", %"class.lamport::Thread0"* %5, i32 0, i32 0, !dbg !2927
  store { i64, i64 } { i64 ptrtoint (void (%"class.lamport::Thread0"*)* @_ZN7lamport7Thread04thr0Ev to i64), i64 0 }, { i64, i64 }* %3, align 8, !dbg !2928
  store %"class.lamport::Thread0"* %5, %"class.lamport::Thread0"** %4, align 8, !dbg !2929
  call void @_ZN9IrsThreadclIJMN7lamport7Thread0EFvvEPS2_EEEvDpOT_(%class.IrsThread* %6, { i64, i64 }* dereferenceable(16) %3, %"class.lamport::Thread0"** dereferenceable(8) %4), !dbg !2927
  ret void, !dbg !2930
}

; Function Attrs: uwtable
define linkonce_odr void @_ZN7lamport7Thread15startEv(%"class.lamport::Thread1"*) #0 comdat align 2 !dbg !2931 {
  %2 = alloca %"class.lamport::Thread1"*, align 8
  %3 = alloca { i64, i64 }, align 8
  %4 = alloca %"class.lamport::Thread1"*, align 8
  store %"class.lamport::Thread1"* %0, %"class.lamport::Thread1"** %2, align 8
  call void @llvm.dbg.declare(metadata %"class.lamport::Thread1"** %2, metadata !2932, metadata !2775), !dbg !2933
  %5 = load %"class.lamport::Thread1"*, %"class.lamport::Thread1"** %2, align 8
  %6 = getelementptr inbounds %"class.lamport::Thread1", %"class.lamport::Thread1"* %5, i32 0, i32 0, !dbg !2934
  store { i64, i64 } { i64 ptrtoint (void (%"class.lamport::Thread1"*)* @_ZN7lamport7Thread14thr1Ev to i64), i64 0 }, { i64, i64 }* %3, align 8, !dbg !2935
  store %"class.lamport::Thread1"* %5, %"class.lamport::Thread1"** %4, align 8, !dbg !2936
  call void @_ZN9IrsThreadclIJMN7lamport7Thread1EFvvEPS2_EEEvDpOT_(%class.IrsThread* %6, { i64, i64 }* dereferenceable(16) %3, %"class.lamport::Thread1"** dereferenceable(8) %4), !dbg !2934
  ret void, !dbg !2937
}

; Function Attrs: uwtable
define linkonce_odr void @_ZN7lamport7Thread04joinEv(%"class.lamport::Thread0"*) #0 comdat align 2 !dbg !2938 {
  %2 = alloca %"class.lamport::Thread0"*, align 8
  store %"class.lamport::Thread0"* %0, %"class.lamport::Thread0"** %2, align 8
  call void @llvm.dbg.declare(metadata %"class.lamport::Thread0"** %2, metadata !2939, metadata !2775), !dbg !2940
  %3 = load %"class.lamport::Thread0"*, %"class.lamport::Thread0"** %2, align 8
  %4 = getelementptr inbounds %"class.lamport::Thread0", %"class.lamport::Thread0"* %3, i32 0, i32 0, !dbg !2941
  call void @_ZN9IrsThread4joinEv(%class.IrsThread* %4), !dbg !2942
  ret void, !dbg !2943
}

; Function Attrs: uwtable
define linkonce_odr void @_ZN7lamport7Thread14joinEv(%"class.lamport::Thread1"*) #0 comdat align 2 !dbg !2944 {
  %2 = alloca %"class.lamport::Thread1"*, align 8
  store %"class.lamport::Thread1"* %0, %"class.lamport::Thread1"** %2, align 8
  call void @llvm.dbg.declare(metadata %"class.lamport::Thread1"** %2, metadata !2945, metadata !2775), !dbg !2946
  %3 = load %"class.lamport::Thread1"*, %"class.lamport::Thread1"** %2, align 8
  %4 = getelementptr inbounds %"class.lamport::Thread1", %"class.lamport::Thread1"* %3, i32 0, i32 0, !dbg !2947
  call void @_ZN9IrsThread4joinEv(%class.IrsThread* %4), !dbg !2948
  ret void, !dbg !2949
}

; Function Attrs: uwtable
define linkonce_odr i64 @_ZNSt6chrono13duration_castINS_8durationIlSt5ratioILl1ELl1000000EEEElS2_ILl1ELl1000000000EEEENSt9enable_ifIXsr13__is_durationIT_EE5valueES7_E4typeERKNS1_IT0_T1_EE(%"struct.std::chrono::duration"* dereferenceable(8)) #0 comdat !dbg !2950 {
  %2 = alloca %"struct.std::chrono::duration.0", align 8
  %3 = alloca %"struct.std::chrono::duration"*, align 8
  store %"struct.std::chrono::duration"* %0, %"struct.std::chrono::duration"** %3, align 8
  call void @llvm.dbg.declare(metadata %"struct.std::chrono::duration"** %3, metadata !2959, metadata !2775), !dbg !2960
  %4 = load %"struct.std::chrono::duration"*, %"struct.std::chrono::duration"** %3, align 8, !dbg !2961
  %5 = call i64 @_ZNSt6chrono20__duration_cast_implINS_8durationIlSt5ratioILl1ELl1000000EEEES2_ILl1ELl1000EElLb1ELb0EE6__castIlS2_ILl1ELl1000000000EEEES4_RKNS1_IT_T0_EE(%"struct.std::chrono::duration"* dereferenceable(8) %4), !dbg !2962
  %6 = getelementptr inbounds %"struct.std::chrono::duration.0", %"struct.std::chrono::duration.0"* %2, i32 0, i32 0, !dbg !2962
  store i64 %5, i64* %6, align 8, !dbg !2962
  %7 = getelementptr inbounds %"struct.std::chrono::duration.0", %"struct.std::chrono::duration.0"* %2, i32 0, i32 0, !dbg !2963
  %8 = load i64, i64* %7, align 8, !dbg !2963
  ret i64 %8, !dbg !2963
}

; Function Attrs: uwtable
define linkonce_odr i64 @_ZNSt6chronomiINS_3_V212system_clockENS_8durationIlSt5ratioILl1ELl1000000000EEEES6_EENSt11common_typeIJT0_T1_EE4typeERKNS_10time_pointIT_S8_EERKNSC_ISD_S9_EE(%"struct.std::chrono::time_point"* dereferenceable(8), %"struct.std::chrono::time_point"* dereferenceable(8)) #0 comdat !dbg !2964 {
  %3 = alloca %"struct.std::chrono::duration", align 8
  %4 = alloca %"struct.std::chrono::time_point"*, align 8
  %5 = alloca %"struct.std::chrono::time_point"*, align 8
  %6 = alloca %"struct.std::chrono::duration", align 8
  %7 = alloca %"struct.std::chrono::duration", align 8
  store %"struct.std::chrono::time_point"* %0, %"struct.std::chrono::time_point"** %4, align 8
  call void @llvm.dbg.declare(metadata %"struct.std::chrono::time_point"** %4, metadata !2971, metadata !2775), !dbg !2972
  store %"struct.std::chrono::time_point"* %1, %"struct.std::chrono::time_point"** %5, align 8
  call void @llvm.dbg.declare(metadata %"struct.std::chrono::time_point"** %5, metadata !2973, metadata !2775), !dbg !2974
  %8 = load %"struct.std::chrono::time_point"*, %"struct.std::chrono::time_point"** %4, align 8, !dbg !2975
  %9 = call i64 @_ZNKSt6chrono10time_pointINS_3_V212system_clockENS_8durationIlSt5ratioILl1ELl1000000000EEEEE16time_since_epochEv(%"struct.std::chrono::time_point"* %8), !dbg !2976
  %10 = getelementptr inbounds %"struct.std::chrono::duration", %"struct.std::chrono::duration"* %6, i32 0, i32 0, !dbg !2976
  store i64 %9, i64* %10, align 8, !dbg !2976
  %11 = load %"struct.std::chrono::time_point"*, %"struct.std::chrono::time_point"** %5, align 8, !dbg !2977
  %12 = call i64 @_ZNKSt6chrono10time_pointINS_3_V212system_clockENS_8durationIlSt5ratioILl1ELl1000000000EEEEE16time_since_epochEv(%"struct.std::chrono::time_point"* %11), !dbg !2978
  %13 = getelementptr inbounds %"struct.std::chrono::duration", %"struct.std::chrono::duration"* %7, i32 0, i32 0, !dbg !2980
  store i64 %12, i64* %13, align 8, !dbg !2980
  %14 = call i64 @_ZNSt6chronomiIlSt5ratioILl1ELl1000000000EElS2_EENSt11common_typeIJNS_8durationIT_T0_EENS4_IT1_T2_EEEE4typeERKS7_RKSA_(%"struct.std::chrono::duration"* dereferenceable(8) %6, %"struct.std::chrono::duration"* dereferenceable(8) %7), !dbg !2981
  %15 = getelementptr inbounds %"struct.std::chrono::duration", %"struct.std::chrono::duration"* %3, i32 0, i32 0, !dbg !2983
  store i64 %14, i64* %15, align 8, !dbg !2983
  %16 = getelementptr inbounds %"struct.std::chrono::duration", %"struct.std::chrono::duration"* %3, i32 0, i32 0, !dbg !2984
  %17 = load i64, i64* %16, align 8, !dbg !2984
  ret i64 %17, !dbg !2984
}

; Function Attrs: nounwind uwtable
define linkonce_odr i64 @_ZNKSt6chrono8durationIlSt5ratioILl1ELl1000000EEE5countEv(%"struct.std::chrono::duration.0"*) #4 comdat align 2 !dbg !2985 {
  %2 = alloca %"struct.std::chrono::duration.0"*, align 8
  store %"struct.std::chrono::duration.0"* %0, %"struct.std::chrono::duration.0"** %2, align 8
  call void @llvm.dbg.declare(metadata %"struct.std::chrono::duration.0"** %2, metadata !2986, metadata !2775), !dbg !2988
  %3 = load %"struct.std::chrono::duration.0"*, %"struct.std::chrono::duration.0"** %2, align 8
  %4 = getelementptr inbounds %"struct.std::chrono::duration.0", %"struct.std::chrono::duration.0"* %3, i32 0, i32 0, !dbg !2989
  %5 = load i64, i64* %4, align 8, !dbg !2989
  ret i64 %5, !dbg !2990
}

declare dereferenceable(272) %"class.std::basic_ostream"* @_ZNSolsEl(%"class.std::basic_ostream"*, i64) #1

declare dereferenceable(272) %"class.std::basic_ostream"* @_ZNSolsEPFRSoS_E(%"class.std::basic_ostream"*, %"class.std::basic_ostream"* (%"class.std::basic_ostream"*)*) #1

declare dereferenceable(272) %"class.std::basic_ostream"* @_ZSt4endlIcSt11char_traitsIcEERSt13basic_ostreamIT_T0_ES6_(%"class.std::basic_ostream"* dereferenceable(272)) #1

; Function Attrs: inlinehint nounwind uwtable
define linkonce_odr void @_ZN7lamport7Thread1D2Ev(%"class.lamport::Thread1"*) unnamed_addr #7 comdat align 2 !dbg !2991 {
  %2 = alloca %"class.lamport::Thread1"*, align 8
  store %"class.lamport::Thread1"* %0, %"class.lamport::Thread1"** %2, align 8
  call void @llvm.dbg.declare(metadata %"class.lamport::Thread1"** %2, metadata !2993, metadata !2775), !dbg !2994
  %3 = load %"class.lamport::Thread1"*, %"class.lamport::Thread1"** %2, align 8
  %4 = getelementptr inbounds %"class.lamport::Thread1", %"class.lamport::Thread1"* %3, i32 0, i32 0, !dbg !2995
  call void @_ZN9IrsThreadD2Ev(%class.IrsThread* %4) #3, !dbg !2995
  ret void, !dbg !2997
}

; Function Attrs: inlinehint nounwind uwtable
define linkonce_odr void @_ZN7lamport7Thread0D2Ev(%"class.lamport::Thread0"*) unnamed_addr #7 comdat align 2 !dbg !2998 {
  %2 = alloca %"class.lamport::Thread0"*, align 8
  store %"class.lamport::Thread0"* %0, %"class.lamport::Thread0"** %2, align 8
  call void @llvm.dbg.declare(metadata %"class.lamport::Thread0"** %2, metadata !3000, metadata !2775), !dbg !3001
  %3 = load %"class.lamport::Thread0"*, %"class.lamport::Thread0"** %2, align 8
  %4 = getelementptr inbounds %"class.lamport::Thread0", %"class.lamport::Thread0"* %3, i32 0, i32 0, !dbg !3002
  call void @_ZN9IrsThreadD2Ev(%class.IrsThread* %4) #3, !dbg !3002
  ret void, !dbg !3004
}

; Function Attrs: nounwind uwtable
define linkonce_odr void @_ZN9IrsThreadC2Ei(%class.IrsThread*, i32) unnamed_addr #4 comdat align 2 !dbg !3005 {
  %3 = alloca %class.IrsThread*, align 8
  %4 = alloca i32, align 4
  store %class.IrsThread* %0, %class.IrsThread** %3, align 8
  call void @llvm.dbg.declare(metadata %class.IrsThread** %3, metadata !3006, metadata !2775), !dbg !3008
  store i32 %1, i32* %4, align 4
  call void @llvm.dbg.declare(metadata i32* %4, metadata !3009, metadata !2775), !dbg !3010
  %5 = load %class.IrsThread*, %class.IrsThread** %3, align 8
  %6 = getelementptr inbounds %class.IrsThread, %class.IrsThread* %5, i32 0, i32 0, !dbg !3011
  call void @_ZNSt6threadC2Ev(%"class.std::thread"* %6) #3, !dbg !3011
  %7 = getelementptr inbounds %class.IrsThread, %class.IrsThread* %5, i32 0, i32 1, !dbg !3012
  %8 = load i32, i32* %4, align 4, !dbg !3013
  store i32 %8, i32* %7, align 8, !dbg !3012
  ret void, !dbg !3014
}

; Function Attrs: nounwind uwtable
define linkonce_odr void @_ZNSt6threadC2Ev(%"class.std::thread"*) unnamed_addr #4 comdat align 2 !dbg !3015 {
  %2 = alloca %"class.std::thread"*, align 8
  store %"class.std::thread"* %0, %"class.std::thread"** %2, align 8
  call void @llvm.dbg.declare(metadata %"class.std::thread"** %2, metadata !3016, metadata !2775), !dbg !3018
  %3 = load %"class.std::thread"*, %"class.std::thread"** %2, align 8
  %4 = getelementptr inbounds %"class.std::thread", %"class.std::thread"* %3, i32 0, i32 0, !dbg !3019
  call void @_ZNSt6thread2idC2Ev(%"class.std::thread::id"* %4) #3, !dbg !3019
  ret void, !dbg !3020
}

; Function Attrs: nounwind uwtable
define linkonce_odr void @_ZNSt6thread2idC2Ev(%"class.std::thread::id"*) unnamed_addr #4 comdat align 2 !dbg !3021 {
  %2 = alloca %"class.std::thread::id"*, align 8
  store %"class.std::thread::id"* %0, %"class.std::thread::id"** %2, align 8
  call void @llvm.dbg.declare(metadata %"class.std::thread::id"** %2, metadata !3022, metadata !2775), !dbg !3024
  %3 = load %"class.std::thread::id"*, %"class.std::thread::id"** %2, align 8
  %4 = getelementptr inbounds %"class.std::thread::id", %"class.std::thread::id"* %3, i32 0, i32 0, !dbg !3025
  store i64 0, i64* %4, align 8, !dbg !3025
  ret void, !dbg !3026
}

; Function Attrs: uwtable
define linkonce_odr void @_ZN9IrsThreadclIJMN7lamport7Thread0EFvvEPS2_EEEvDpOT_(%class.IrsThread*, { i64, i64 }* dereferenceable(16), %"class.lamport::Thread0"** dereferenceable(8)) #0 comdat align 2 !dbg !3027 {
  %4 = alloca %class.IrsThread*, align 8
  %5 = alloca { i64, i64 }*, align 8
  %6 = alloca %"class.lamport::Thread0"**, align 8
  %7 = alloca %"class.std::thread", align 8
  store %class.IrsThread* %0, %class.IrsThread** %4, align 8
  call void @llvm.dbg.declare(metadata %class.IrsThread** %4, metadata !3036, metadata !2775), !dbg !3037
  store { i64, i64 }* %1, { i64, i64 }** %5, align 8
  call void @llvm.dbg.declare(metadata { i64, i64 }** %5, metadata !3038, metadata !2775), !dbg !3039
  store %"class.lamport::Thread0"** %2, %"class.lamport::Thread0"*** %6, align 8
  call void @llvm.dbg.declare(metadata %"class.lamport::Thread0"*** %6, metadata !3040, metadata !2775), !dbg !3039
  %8 = load %class.IrsThread*, %class.IrsThread** %4, align 8
  %9 = getelementptr inbounds %class.IrsThread, %class.IrsThread* %8, i32 0, i32 0, !dbg !3041
  %10 = load { i64, i64 }*, { i64, i64 }** %5, align 8, !dbg !3042
  %11 = call dereferenceable(16) { i64, i64 }* @_ZSt7forwardIMN7lamport7Thread0EFvvEEOT_RNSt16remove_referenceIS4_E4typeE({ i64, i64 }* dereferenceable(16) %10) #3, !dbg !3043
  %12 = load %"class.lamport::Thread0"**, %"class.lamport::Thread0"*** %6, align 8, !dbg !3042
  %13 = call dereferenceable(8) %"class.lamport::Thread0"** @_ZSt7forwardIPN7lamport7Thread0EEOT_RNSt16remove_referenceIS3_E4typeE(%"class.lamport::Thread0"** dereferenceable(8) %12) #3, !dbg !3044
  call void @_ZNSt6threadC2IMN7lamport7Thread0EFvvEJPS2_EEEOT_DpOT0_(%"class.std::thread"* %7, { i64, i64 }* dereferenceable(16) %11, %"class.lamport::Thread0"** dereferenceable(8) %13), !dbg !3046
  %14 = call dereferenceable(8) %"class.std::thread"* @_ZNSt6threadaSEOS_(%"class.std::thread"* %9, %"class.std::thread"* dereferenceable(8) %7) #3, !dbg !3048
  call void @_ZNSt6threadD2Ev(%"class.std::thread"* %7) #3, !dbg !3050
  ret void, !dbg !3052
}

; Function Attrs: nounwind uwtable
define linkonce_odr void @_ZN7lamport7Thread04thr0Ev(%"class.lamport::Thread0"*) #4 comdat align 2 !dbg !3053 {
  %2 = alloca %"class.lamport::Thread0"*, align 8
  store %"class.lamport::Thread0"* %0, %"class.lamport::Thread0"** %2, align 8
  call void @llvm.dbg.declare(metadata %"class.lamport::Thread0"** %2, metadata !3054, metadata !2775), !dbg !3055
  %3 = load %"class.lamport::Thread0"*, %"class.lamport::Thread0"** %2, align 8
  br label %4, !dbg !3056

; <label>:4:                                      ; preds = %1, %12, %29
  store i32 1, i32* @_ZN7lamport5flag0E, align 4, !dbg !3057
  store i32 1, i32* @_ZN7lamport1xE, align 4, !dbg !3059
  %5 = load i32, i32* @_ZN7lamport1yE, align 4, !dbg !3060
  %6 = icmp ne i32 %5, 0, !dbg !3062
  br i1 %6, label %7, label %13, !dbg !3063

; <label>:7:                                      ; preds = %4
  store i32 0, i32* @_ZN7lamport5flag0E, align 4, !dbg !3064
  br label %8, !dbg !3066

; <label>:8:                                      ; preds = %11, %7
  %9 = load i32, i32* @_ZN7lamport1yE, align 4, !dbg !3067
  %10 = icmp ne i32 %9, 0, !dbg !3069
  br i1 %10, label %11, label %12, !dbg !3070

; <label>:11:                                     ; preds = %8
  br label %8, !dbg !3071, !llvm.loop !3073

; <label>:12:                                     ; preds = %8
  br label %4, !dbg !3074, !llvm.loop !3075

; <label>:13:                                     ; preds = %4
  store i32 1, i32* @_ZN7lamport1yE, align 4, !dbg !3076
  %14 = load i32, i32* @_ZN7lamport1xE, align 4, !dbg !3077
  %15 = icmp ne i32 %14, 1, !dbg !3079
  br i1 %15, label %16, label %31, !dbg !3080

; <label>:16:                                     ; preds = %13
  store i32 0, i32* @_ZN7lamport5flag0E, align 4, !dbg !3081
  br label %17, !dbg !3083

; <label>:17:                                     ; preds = %20, %16
  %18 = load i32, i32* @_ZN7lamport5flag1E, align 4, !dbg !3084
  %19 = icmp sge i32 %18, 1, !dbg !3086
  br i1 %19, label %20, label %21, !dbg !3087

; <label>:20:                                     ; preds = %17
  br label %17, !dbg !3088, !llvm.loop !3090

; <label>:21:                                     ; preds = %17
  %22 = load i32, i32* @_ZN7lamport1yE, align 4, !dbg !3091
  %23 = icmp ne i32 %22, 1, !dbg !3093
  br i1 %23, label %24, label %30, !dbg !3094

; <label>:24:                                     ; preds = %21
  br label %25, !dbg !3095

; <label>:25:                                     ; preds = %28, %24
  %26 = load i32, i32* @_ZN7lamport1yE, align 4, !dbg !3097
  %27 = icmp ne i32 %26, 0, !dbg !3099
  br i1 %27, label %28, label %29, !dbg !3100

; <label>:28:                                     ; preds = %25
  br label %25, !dbg !3101, !llvm.loop !3103

; <label>:29:                                     ; preds = %25
  br label %4, !dbg !3104, !llvm.loop !3075

; <label>:30:                                     ; preds = %21
  br label %31, !dbg !3105

; <label>:31:                                     ; preds = %30, %13
  br label %32, !dbg !3106

; <label>:32:                                     ; preds = %31
  store i32 0, i32* @_ZN7lamport1XE, align 4, !dbg !3107
  %33 = load i32, i32* @_ZN7lamport1XE, align 4, !dbg !3108
  %34 = icmp sle i32 %33, 0, !dbg !3108
  br i1 %34, label %35, label %36, !dbg !3108

; <label>:35:                                     ; preds = %32
  br label %38, !dbg !3109

; <label>:36:                                     ; preds = %32
  call void @__assert_fail(i8* getelementptr inbounds ([7 x i8], [7 x i8]* @.str.8, i32 0, i32 0), i8* getelementptr inbounds ([106 x i8], [106 x i8]* @.str.9, i32 0, i32 0), i32 51, i8* getelementptr inbounds ([30 x i8], [30 x i8]* @__PRETTY_FUNCTION__._ZN7lamport7Thread04thr0Ev, i32 0, i32 0)) #14, !dbg !3111
  unreachable, !dbg !3111
                                                  ; No predecessors!
  br label %38, !dbg !3113

; <label>:38:                                     ; preds = %37, %35
  store i32 0, i32* @_ZN7lamport1yE, align 4, !dbg !3115
  store i32 0, i32* @_ZN7lamport5flag0E, align 4, !dbg !3116
  ret void, !dbg !3117
}

; Function Attrs: nounwind uwtable
define linkonce_odr dereferenceable(8) %"class.std::thread"* @_ZNSt6threadaSEOS_(%"class.std::thread"*, %"class.std::thread"* dereferenceable(8)) #4 comdat align 2 !dbg !3118 {
  %3 = alloca %"class.std::thread"*, align 8
  %4 = alloca %"class.std::thread"*, align 8
  store %"class.std::thread"* %0, %"class.std::thread"** %3, align 8
  call void @llvm.dbg.declare(metadata %"class.std::thread"** %3, metadata !3119, metadata !2775), !dbg !3120
  store %"class.std::thread"* %1, %"class.std::thread"** %4, align 8
  call void @llvm.dbg.declare(metadata %"class.std::thread"** %4, metadata !3121, metadata !2775), !dbg !3122
  %5 = load %"class.std::thread"*, %"class.std::thread"** %3, align 8
  %6 = call zeroext i1 @_ZNKSt6thread8joinableEv(%"class.std::thread"* %5) #3, !dbg !3123
  br i1 %6, label %7, label %8, !dbg !3125

; <label>:7:                                      ; preds = %2
  call void @_ZSt9terminatev() #14, !dbg !3126
  unreachable, !dbg !3126

; <label>:8:                                      ; preds = %2
  %9 = load %"class.std::thread"*, %"class.std::thread"** %4, align 8, !dbg !3127
  call void @_ZNSt6thread4swapERS_(%"class.std::thread"* %5, %"class.std::thread"* dereferenceable(8) %9) #3, !dbg !3128
  ret %"class.std::thread"* %5, !dbg !3129
}

; Function Attrs: nounwind uwtable
define linkonce_odr dereferenceable(16) { i64, i64 }* @_ZSt7forwardIMN7lamport7Thread0EFvvEEOT_RNSt16remove_referenceIS4_E4typeE({ i64, i64 }* dereferenceable(16)) #4 comdat !dbg !3130 {
  %2 = alloca { i64, i64 }*, align 8
  store { i64, i64 }* %0, { i64, i64 }** %2, align 8
  call void @llvm.dbg.declare(metadata { i64, i64 }** %2, metadata !3137, metadata !2775), !dbg !3138
  %3 = load { i64, i64 }*, { i64, i64 }** %2, align 8, !dbg !3139
  ret { i64, i64 }* %3, !dbg !3140
}

; Function Attrs: nounwind uwtable
define linkonce_odr dereferenceable(8) %"class.lamport::Thread0"** @_ZSt7forwardIPN7lamport7Thread0EEOT_RNSt16remove_referenceIS3_E4typeE(%"class.lamport::Thread0"** dereferenceable(8)) #4 comdat !dbg !3141 {
  %2 = alloca %"class.lamport::Thread0"**, align 8
  store %"class.lamport::Thread0"** %0, %"class.lamport::Thread0"*** %2, align 8
  call void @llvm.dbg.declare(metadata %"class.lamport::Thread0"*** %2, metadata !3149, metadata !2775), !dbg !3150
  %3 = load %"class.lamport::Thread0"**, %"class.lamport::Thread0"*** %2, align 8, !dbg !3151
  ret %"class.lamport::Thread0"** %3, !dbg !3152
}

; Function Attrs: uwtable
define linkonce_odr void @_ZNSt6threadC2IMN7lamport7Thread0EFvvEJPS2_EEEOT_DpOT0_(%"class.std::thread"*, { i64, i64 }* dereferenceable(16), %"class.lamport::Thread0"** dereferenceable(8)) unnamed_addr #0 comdat align 2 personality i8* bitcast (i32 (...)* @__gxx_personality_v0 to i8*) !dbg !3153 {
  %4 = alloca %"class.std::thread"*, align 8
  %5 = alloca { i64, i64 }*, align 8
  %6 = alloca %"class.lamport::Thread0"**, align 8
  %7 = alloca void ()*, align 8
  %8 = alloca %"class.std::unique_ptr", align 8
  %9 = alloca %"struct.std::_Bind_simple", align 8
  %10 = alloca i8*
  %11 = alloca i32
  store %"class.std::thread"* %0, %"class.std::thread"** %4, align 8
  call void @llvm.dbg.declare(metadata %"class.std::thread"** %4, metadata !3159, metadata !2775), !dbg !3160
  store { i64, i64 }* %1, { i64, i64 }** %5, align 8
  call void @llvm.dbg.declare(metadata { i64, i64 }** %5, metadata !3161, metadata !2775), !dbg !3162
  store %"class.lamport::Thread0"** %2, %"class.lamport::Thread0"*** %6, align 8
  call void @llvm.dbg.declare(metadata %"class.lamport::Thread0"*** %6, metadata !3163, metadata !2775), !dbg !3164
  %12 = load %"class.std::thread"*, %"class.std::thread"** %4, align 8
  %13 = getelementptr inbounds %"class.std::thread", %"class.std::thread"* %12, i32 0, i32 0, !dbg !3165
  call void @_ZNSt6thread2idC2Ev(%"class.std::thread::id"* %13) #3, !dbg !3165
  call void @llvm.dbg.declare(metadata void ()** %7, metadata !3166, metadata !2775), !dbg !3168
  store void ()* bitcast (i32 (i64*, %union.pthread_attr_t*, i8* (i8*)*, i8*)* @pthread_create to void ()*), void ()** %7, align 8, !dbg !3168
  %14 = load { i64, i64 }*, { i64, i64 }** %5, align 8, !dbg !3169
  %15 = call dereferenceable(16) { i64, i64 }* @_ZSt7forwardIMN7lamport7Thread0EFvvEEOT_RNSt16remove_referenceIS4_E4typeE({ i64, i64 }* dereferenceable(16) %14) #3, !dbg !3170
  %16 = load %"class.lamport::Thread0"**, %"class.lamport::Thread0"*** %6, align 8, !dbg !3171
  %17 = call dereferenceable(8) %"class.lamport::Thread0"** @_ZSt7forwardIPN7lamport7Thread0EEOT_RNSt16remove_referenceIS3_E4typeE(%"class.lamport::Thread0"** dereferenceable(8) %16) #3, !dbg !3172
  call void @_ZSt13__bind_simpleIMN7lamport7Thread0EFvvEJPS1_EENSt19_Bind_simple_helperIT_JDpT0_EE6__typeEOS6_DpOS7_(%"struct.std::_Bind_simple"* sret %9, { i64, i64 }* dereferenceable(16) %15, %"class.lamport::Thread0"** dereferenceable(8) %17), !dbg !3173
  call void @_ZNSt6thread13_S_make_stateISt12_Bind_simpleIFSt7_Mem_fnIMN7lamport7Thread0EFvvEEPS4_EEEESt10unique_ptrINS_6_StateESt14default_deleteISC_EEOT_(%"class.std::unique_ptr"* sret %8, %"struct.std::_Bind_simple"* dereferenceable(24) %9), !dbg !3175
  %18 = load void ()*, void ()** %7, align 8, !dbg !3176
  invoke void @_ZNSt6thread15_M_start_threadESt10unique_ptrINS_6_StateESt14default_deleteIS1_EEPFvvE(%"class.std::thread"* %12, %"class.std::unique_ptr"* %8, void ()* %18)
          to label %19 unwind label %20, !dbg !3177

; <label>:19:                                     ; preds = %3
  call void @_ZNSt10unique_ptrINSt6thread6_StateESt14default_deleteIS1_EED2Ev(%"class.std::unique_ptr"* %8) #3, !dbg !3178
  ret void, !dbg !3179

; <label>:20:                                     ; preds = %3
  %21 = landingpad { i8*, i32 }
          cleanup, !dbg !3180
  %22 = extractvalue { i8*, i32 } %21, 0, !dbg !3180
  store i8* %22, i8** %10, align 8, !dbg !3180
  %23 = extractvalue { i8*, i32 } %21, 1, !dbg !3180
  store i32 %23, i32* %11, align 4, !dbg !3180
  call void @_ZNSt10unique_ptrINSt6thread6_StateESt14default_deleteIS1_EED2Ev(%"class.std::unique_ptr"* %8) #3, !dbg !3181
  br label %24, !dbg !3181

; <label>:24:                                     ; preds = %20
  %25 = load i8*, i8** %10, align 8, !dbg !3183
  %26 = load i32, i32* %11, align 4, !dbg !3183
  %27 = insertvalue { i8*, i32 } undef, i8* %25, 0, !dbg !3183
  %28 = insertvalue { i8*, i32 } %27, i32 %26, 1, !dbg !3183
  resume { i8*, i32 } %28, !dbg !3183
}

; Function Attrs: nounwind uwtable
define linkonce_odr void @_ZNSt6threadD2Ev(%"class.std::thread"*) unnamed_addr #4 comdat align 2 !dbg !3185 {
  %2 = alloca %"class.std::thread"*, align 8
  store %"class.std::thread"* %0, %"class.std::thread"** %2, align 8
  call void @llvm.dbg.declare(metadata %"class.std::thread"** %2, metadata !3186, metadata !2775), !dbg !3187
  %3 = load %"class.std::thread"*, %"class.std::thread"** %2, align 8
  %4 = call zeroext i1 @_ZNKSt6thread8joinableEv(%"class.std::thread"* %3) #3, !dbg !3188
  br i1 %4, label %5, label %6, !dbg !3191

; <label>:5:                                      ; preds = %1
  call void @_ZSt9terminatev() #14, !dbg !3192
  unreachable, !dbg !3192

; <label>:6:                                      ; preds = %1
  ret void, !dbg !3193
}

; Function Attrs: nounwind uwtable
define linkonce_odr zeroext i1 @_ZNKSt6thread8joinableEv(%"class.std::thread"*) #4 comdat align 2 !dbg !3194 {
  %2 = alloca %"class.std::thread"*, align 8
  %3 = alloca %"class.std::thread::id", align 8
  %4 = alloca %"class.std::thread::id", align 8
  store %"class.std::thread"* %0, %"class.std::thread"** %2, align 8
  call void @llvm.dbg.declare(metadata %"class.std::thread"** %2, metadata !3195, metadata !2775), !dbg !3197
  %5 = load %"class.std::thread"*, %"class.std::thread"** %2, align 8
  %6 = getelementptr inbounds %"class.std::thread", %"class.std::thread"* %5, i32 0, i32 0, !dbg !3198
  %7 = bitcast %"class.std::thread::id"* %3 to i8*, !dbg !3198
  %8 = bitcast %"class.std::thread::id"* %6 to i8*, !dbg !3198
  call void @llvm.memcpy.p0i8.p0i8.i64(i8* %7, i8* %8, i64 8, i32 8, i1 false), !dbg !3198
  call void @_ZNSt6thread2idC2Ev(%"class.std::thread::id"* %4) #3, !dbg !3199
  %9 = getelementptr inbounds %"class.std::thread::id", %"class.std::thread::id"* %3, i32 0, i32 0, !dbg !3201
  %10 = load i64, i64* %9, align 8, !dbg !3201
  %11 = getelementptr inbounds %"class.std::thread::id", %"class.std::thread::id"* %4, i32 0, i32 0, !dbg !3201
  %12 = load i64, i64* %11, align 8, !dbg !3201
  %13 = call zeroext i1 @_ZSteqNSt6thread2idES0_(i64 %10, i64 %12) #3, !dbg !3202
  %14 = xor i1 %13, true, !dbg !3204
  ret i1 %14, !dbg !3205
}

; Function Attrs: noreturn nounwind
declare void @_ZSt9terminatev() #8

; Function Attrs: nounwind uwtable
define linkonce_odr void @_ZNSt6thread4swapERS_(%"class.std::thread"*, %"class.std::thread"* dereferenceable(8)) #4 comdat align 2 !dbg !3206 {
  %3 = alloca %"class.std::thread"*, align 8
  %4 = alloca %"class.std::thread"*, align 8
  store %"class.std::thread"* %0, %"class.std::thread"** %3, align 8
  call void @llvm.dbg.declare(metadata %"class.std::thread"** %3, metadata !3207, metadata !2775), !dbg !3208
  store %"class.std::thread"* %1, %"class.std::thread"** %4, align 8
  call void @llvm.dbg.declare(metadata %"class.std::thread"** %4, metadata !3209, metadata !2775), !dbg !3210
  %5 = load %"class.std::thread"*, %"class.std::thread"** %3, align 8
  %6 = getelementptr inbounds %"class.std::thread", %"class.std::thread"* %5, i32 0, i32 0, !dbg !3211
  %7 = load %"class.std::thread"*, %"class.std::thread"** %4, align 8, !dbg !3212
  %8 = getelementptr inbounds %"class.std::thread", %"class.std::thread"* %7, i32 0, i32 0, !dbg !3213
  call void @_ZSt4swapINSt6thread2idEENSt9enable_ifIXsr6__and_ISt21is_move_constructibleIT_ESt18is_move_assignableIS4_EEE5valueEvE4typeERS4_SA_(%"class.std::thread::id"* dereferenceable(8) %6, %"class.std::thread::id"* dereferenceable(8) %8) #3, !dbg !3214
  ret void, !dbg !3215
}

; Function Attrs: nounwind uwtable
define linkonce_odr zeroext i1 @_ZSteqNSt6thread2idES0_(i64, i64) #4 comdat !dbg !3216 {
  %3 = alloca %"class.std::thread::id", align 8
  %4 = alloca %"class.std::thread::id", align 8
  %5 = getelementptr inbounds %"class.std::thread::id", %"class.std::thread::id"* %3, i32 0, i32 0
  store i64 %0, i64* %5, align 8
  %6 = getelementptr inbounds %"class.std::thread::id", %"class.std::thread::id"* %4, i32 0, i32 0
  store i64 %1, i64* %6, align 8
  call void @llvm.dbg.declare(metadata %"class.std::thread::id"* %3, metadata !3219, metadata !2775), !dbg !3220
  call void @llvm.dbg.declare(metadata %"class.std::thread::id"* %4, metadata !3221, metadata !2775), !dbg !3222
  %7 = getelementptr inbounds %"class.std::thread::id", %"class.std::thread::id"* %3, i32 0, i32 0, !dbg !3223
  %8 = load i64, i64* %7, align 8, !dbg !3223
  %9 = getelementptr inbounds %"class.std::thread::id", %"class.std::thread::id"* %4, i32 0, i32 0, !dbg !3224
  %10 = load i64, i64* %9, align 8, !dbg !3224
  %11 = icmp eq i64 %8, %10, !dbg !3225
  ret i1 %11, !dbg !3226
}

; Function Attrs: argmemonly nounwind
declare void @llvm.memcpy.p0i8.p0i8.i64(i8* nocapture writeonly, i8* nocapture readonly, i64, i32, i1) #9

; Function Attrs: inlinehint nounwind uwtable
define linkonce_odr void @_ZSt4swapINSt6thread2idEENSt9enable_ifIXsr6__and_ISt21is_move_constructibleIT_ESt18is_move_assignableIS4_EEE5valueEvE4typeERS4_SA_(%"class.std::thread::id"* dereferenceable(8), %"class.std::thread::id"* dereferenceable(8)) #7 comdat !dbg !3227 {
  %3 = alloca %"class.std::thread::id"*, align 8
  %4 = alloca %"class.std::thread::id"*, align 8
  %5 = alloca %"class.std::thread::id", align 8
  store %"class.std::thread::id"* %0, %"class.std::thread::id"** %3, align 8
  call void @llvm.dbg.declare(metadata %"class.std::thread::id"** %3, metadata !3236, metadata !2775), !dbg !3237
  store %"class.std::thread::id"* %1, %"class.std::thread::id"** %4, align 8
  call void @llvm.dbg.declare(metadata %"class.std::thread::id"** %4, metadata !3238, metadata !2775), !dbg !3239
  call void @llvm.dbg.declare(metadata %"class.std::thread::id"* %5, metadata !3240, metadata !2775), !dbg !3241
  %6 = load %"class.std::thread::id"*, %"class.std::thread::id"** %3, align 8, !dbg !3242
  %7 = call dereferenceable(8) %"class.std::thread::id"* @_ZSt4moveIRNSt6thread2idEEONSt16remove_referenceIT_E4typeEOS4_(%"class.std::thread::id"* dereferenceable(8) %6) #3, !dbg !3242
  %8 = bitcast %"class.std::thread::id"* %5 to i8*, !dbg !3242
  %9 = bitcast %"class.std::thread::id"* %7 to i8*, !dbg !3242
  call void @llvm.memcpy.p0i8.p0i8.i64(i8* %8, i8* %9, i64 8, i32 8, i1 false), !dbg !3243
  %10 = load %"class.std::thread::id"*, %"class.std::thread::id"** %3, align 8, !dbg !3245
  %11 = load %"class.std::thread::id"*, %"class.std::thread::id"** %4, align 8, !dbg !3246
  %12 = call dereferenceable(8) %"class.std::thread::id"* @_ZSt4moveIRNSt6thread2idEEONSt16remove_referenceIT_E4typeEOS4_(%"class.std::thread::id"* dereferenceable(8) %11) #3, !dbg !3246
  %13 = bitcast %"class.std::thread::id"* %10 to i8*, !dbg !3247
  %14 = bitcast %"class.std::thread::id"* %12 to i8*, !dbg !3247
  call void @llvm.memcpy.p0i8.p0i8.i64(i8* %13, i8* %14, i64 8, i32 8, i1 false), !dbg !3248
  %15 = load %"class.std::thread::id"*, %"class.std::thread::id"** %4, align 8, !dbg !3249
  %16 = call dereferenceable(8) %"class.std::thread::id"* @_ZSt4moveIRNSt6thread2idEEONSt16remove_referenceIT_E4typeEOS4_(%"class.std::thread::id"* dereferenceable(8) %5) #3, !dbg !3250
  %17 = bitcast %"class.std::thread::id"* %15 to i8*, !dbg !3251
  %18 = bitcast %"class.std::thread::id"* %16 to i8*, !dbg !3251
  call void @llvm.memcpy.p0i8.p0i8.i64(i8* %17, i8* %18, i64 8, i32 8, i1 false), !dbg !3252
  ret void, !dbg !3253
}

; Function Attrs: nounwind uwtable
define linkonce_odr dereferenceable(8) %"class.std::thread::id"* @_ZSt4moveIRNSt6thread2idEEONSt16remove_referenceIT_E4typeEOS4_(%"class.std::thread::id"* dereferenceable(8)) #4 comdat !dbg !3254 {
  %2 = alloca %"class.std::thread::id"*, align 8
  store %"class.std::thread::id"* %0, %"class.std::thread::id"** %2, align 8
  call void @llvm.dbg.declare(metadata %"class.std::thread::id"** %2, metadata !3262, metadata !2775), !dbg !3263
  %3 = load %"class.std::thread::id"*, %"class.std::thread::id"** %2, align 8, !dbg !3264
  ret %"class.std::thread::id"* %3, !dbg !3265
}

; Function Attrs: nounwind
declare i32 @pthread_create(i64*, %union.pthread_attr_t*, i8* (i8*)*, i8*) #2

declare void @_ZNSt6thread15_M_start_threadESt10unique_ptrINS_6_StateESt14default_deleteIS1_EEPFvvE(%"class.std::thread"*, %"class.std::unique_ptr"*, void ()*) #1

; Function Attrs: uwtable
define linkonce_odr void @_ZNSt6thread13_S_make_stateISt12_Bind_simpleIFSt7_Mem_fnIMN7lamport7Thread0EFvvEEPS4_EEEESt10unique_ptrINS_6_StateESt14default_deleteISC_EEOT_(%"class.std::unique_ptr"* noalias sret, %"struct.std::_Bind_simple"* dereferenceable(24)) #0 comdat align 2 personality i8* bitcast (i32 (...)* @__gxx_personality_v0 to i8*) !dbg !3266 {
  %3 = alloca %"struct.std::_Bind_simple"*, align 8
  %4 = alloca i8*
  %5 = alloca i32
  store %"struct.std::_Bind_simple"* %1, %"struct.std::_Bind_simple"** %3, align 8
  call void @llvm.dbg.declare(metadata %"struct.std::_Bind_simple"** %3, metadata !3472, metadata !2775), !dbg !3473
  %6 = call i8* @_Znwm(i64 32) #15, !dbg !3474
  %7 = bitcast i8* %6 to %"struct.std::thread::_State_impl"*, !dbg !3474
  %8 = load %"struct.std::_Bind_simple"*, %"struct.std::_Bind_simple"** %3, align 8, !dbg !3475
  %9 = call dereferenceable(24) %"struct.std::_Bind_simple"* @_ZSt7forwardISt12_Bind_simpleIFSt7_Mem_fnIMN7lamport7Thread0EFvvEEPS3_EEEOT_RNSt16remove_referenceISA_E4typeE(%"struct.std::_Bind_simple"* dereferenceable(24) %8) #3, !dbg !3476
  invoke void @_ZNSt6thread11_State_implISt12_Bind_simpleIFSt7_Mem_fnIMN7lamport7Thread0EFvvEEPS4_EEEC2EOSA_(%"struct.std::thread::_State_impl"* %7, %"struct.std::_Bind_simple"* dereferenceable(24) %9)
          to label %10 unwind label %12, !dbg !3478

; <label>:10:                                     ; preds = %2
  %11 = bitcast %"struct.std::thread::_State_impl"* %7 to %"struct.std::thread::_State"*, !dbg !3479
  call void @_ZNSt10unique_ptrINSt6thread6_StateESt14default_deleteIS1_EEC2EPS1_(%"class.std::unique_ptr"* %0, %"struct.std::thread::_State"* %11) #3, !dbg !3481
  ret void, !dbg !3482

; <label>:12:                                     ; preds = %2
  %13 = landingpad { i8*, i32 }
          cleanup, !dbg !3483
  %14 = extractvalue { i8*, i32 } %13, 0, !dbg !3483
  store i8* %14, i8** %4, align 8, !dbg !3483
  %15 = extractvalue { i8*, i32 } %13, 1, !dbg !3483
  store i32 %15, i32* %5, align 4, !dbg !3483
  call void @_ZdlPv(i8* %6) #16, !dbg !3484
  br label %16, !dbg !3484

; <label>:16:                                     ; preds = %12
  %17 = load i8*, i8** %4, align 8, !dbg !3486
  %18 = load i32, i32* %5, align 4, !dbg !3486
  %19 = insertvalue { i8*, i32 } undef, i8* %17, 0, !dbg !3486
  %20 = insertvalue { i8*, i32 } %19, i32 %18, 1, !dbg !3486
  resume { i8*, i32 } %20, !dbg !3486
}

; Function Attrs: uwtable
define linkonce_odr void @_ZSt13__bind_simpleIMN7lamport7Thread0EFvvEJPS1_EENSt19_Bind_simple_helperIT_JDpT0_EE6__typeEOS6_DpOS7_(%"struct.std::_Bind_simple"* noalias sret, { i64, i64 }* dereferenceable(16), %"class.lamport::Thread0"** dereferenceable(8)) #0 comdat !dbg !3488 {
  %4 = alloca { i64, i64 }*, align 8
  %5 = alloca %"class.lamport::Thread0"**, align 8
  %6 = alloca %"struct.std::_Mem_fn", align 8
  %7 = alloca { i64, i64 }, align 8
  store { i64, i64 }* %1, { i64, i64 }** %4, align 8
  call void @llvm.dbg.declare(metadata { i64, i64 }** %4, metadata !3499, metadata !2775), !dbg !3500
  store %"class.lamport::Thread0"** %2, %"class.lamport::Thread0"*** %5, align 8
  call void @llvm.dbg.declare(metadata %"class.lamport::Thread0"*** %5, metadata !3501, metadata !2775), !dbg !3502
  %8 = load { i64, i64 }*, { i64, i64 }** %4, align 8, !dbg !3503
  %9 = call dereferenceable(16) { i64, i64 }* @_ZSt7forwardIMN7lamport7Thread0EFvvEEOT_RNSt16remove_referenceIS4_E4typeE({ i64, i64 }* dereferenceable(16) %8) #3, !dbg !3504
  %10 = load { i64, i64 }, { i64, i64 }* %9, align 8, !dbg !3504
  store { i64, i64 } %10, { i64, i64 }* %7, align 8, !dbg !3505
  %11 = getelementptr inbounds { i64, i64 }, { i64, i64 }* %7, i32 0, i32 0, !dbg !3505
  %12 = load i64, i64* %11, align 8, !dbg !3505
  %13 = getelementptr inbounds { i64, i64 }, { i64, i64 }* %7, i32 0, i32 1, !dbg !3505
  %14 = load i64, i64* %13, align 8, !dbg !3505
  %15 = call { i64, i64 } @_ZNSt26_Maybe_wrap_member_pointerIMN7lamport7Thread0EFvvEE9__do_wrapES3_(i64 %12, i64 %14), !dbg !3506
  %16 = getelementptr inbounds %"struct.std::_Mem_fn", %"struct.std::_Mem_fn"* %6, i32 0, i32 0, !dbg !3505
  %17 = getelementptr inbounds %"class.std::_Mem_fn_base", %"class.std::_Mem_fn_base"* %16, i32 0, i32 0, !dbg !3505
  %18 = getelementptr inbounds { i64, i64 }, { i64, i64 }* %17, i32 0, i32 0, !dbg !3505
  %19 = extractvalue { i64, i64 } %15, 0, !dbg !3505
  store i64 %19, i64* %18, align 8, !dbg !3505
  %20 = getelementptr inbounds { i64, i64 }, { i64, i64 }* %17, i32 0, i32 1, !dbg !3505
  %21 = extractvalue { i64, i64 } %15, 1, !dbg !3505
  store i64 %21, i64* %20, align 8, !dbg !3505
  %22 = load %"class.lamport::Thread0"**, %"class.lamport::Thread0"*** %5, align 8, !dbg !3508
  %23 = call dereferenceable(8) %"class.lamport::Thread0"** @_ZSt7forwardIPN7lamport7Thread0EEOT_RNSt16remove_referenceIS3_E4typeE(%"class.lamport::Thread0"** dereferenceable(8) %22) #3, !dbg !3509
  call void @_ZNSt12_Bind_simpleIFSt7_Mem_fnIMN7lamport7Thread0EFvvEEPS2_EEC2IS5_JS6_EEEOT_DpOT0_(%"struct.std::_Bind_simple"* %0, %"struct.std::_Mem_fn"* dereferenceable(16) %6, %"class.lamport::Thread0"** dereferenceable(8) %23), !dbg !3510
  ret void, !dbg !3511
}

; Function Attrs: nounwind uwtable
define linkonce_odr void @_ZNSt10unique_ptrINSt6thread6_StateESt14default_deleteIS1_EED2Ev(%"class.std::unique_ptr"*) unnamed_addr #4 comdat align 2 personality i8* bitcast (i32 (...)* @__gxx_personality_v0 to i8*) !dbg !3512 {
  %2 = alloca %"class.std::unique_ptr"*, align 8
  %3 = alloca %"struct.std::thread::_State"**, align 8
  store %"class.std::unique_ptr"* %0, %"class.std::unique_ptr"** %2, align 8
  call void @llvm.dbg.declare(metadata %"class.std::unique_ptr"** %2, metadata !3513, metadata !2775), !dbg !3515
  %4 = load %"class.std::unique_ptr"*, %"class.std::unique_ptr"** %2, align 8
  call void @llvm.dbg.declare(metadata %"struct.std::thread::_State"*** %3, metadata !3516, metadata !2775), !dbg !3518
  %5 = getelementptr inbounds %"class.std::unique_ptr", %"class.std::unique_ptr"* %4, i32 0, i32 0, !dbg !3519
  %6 = call dereferenceable(8) %"struct.std::thread::_State"** @_ZSt3getILm0EJPNSt6thread6_StateESt14default_deleteIS1_EEERNSt13tuple_elementIXT_ESt5tupleIJDpT0_EEE4typeERS9_(%"class.std::tuple"* dereferenceable(8) %5) #3, !dbg !3520
  store %"struct.std::thread::_State"** %6, %"struct.std::thread::_State"*** %3, align 8, !dbg !3518
  %7 = load %"struct.std::thread::_State"**, %"struct.std::thread::_State"*** %3, align 8, !dbg !3521
  %8 = load %"struct.std::thread::_State"*, %"struct.std::thread::_State"** %7, align 8, !dbg !3521
  %9 = icmp ne %"struct.std::thread::_State"* %8, null, !dbg !3523
  br i1 %9, label %10, label %15, !dbg !3524

; <label>:10:                                     ; preds = %1
  %11 = call dereferenceable(1) %"struct.std::default_delete"* @_ZNSt10unique_ptrINSt6thread6_StateESt14default_deleteIS1_EE11get_deleterEv(%"class.std::unique_ptr"* %4) #3, !dbg !3525
  %12 = load %"struct.std::thread::_State"**, %"struct.std::thread::_State"*** %3, align 8, !dbg !3526
  %13 = load %"struct.std::thread::_State"*, %"struct.std::thread::_State"** %12, align 8, !dbg !3526
  invoke void @_ZNKSt14default_deleteINSt6thread6_StateEEclEPS1_(%"struct.std::default_delete"* %11, %"struct.std::thread::_State"* %13)
          to label %14 unwind label %17, !dbg !3525

; <label>:14:                                     ; preds = %10
  br label %15, !dbg !3527

; <label>:15:                                     ; preds = %14, %1
  %16 = load %"struct.std::thread::_State"**, %"struct.std::thread::_State"*** %3, align 8, !dbg !3529
  store %"struct.std::thread::_State"* null, %"struct.std::thread::_State"** %16, align 8, !dbg !3530
  ret void, !dbg !3531

; <label>:17:                                     ; preds = %10
  %18 = landingpad { i8*, i32 }
          catch i8* null, !dbg !3532
  %19 = extractvalue { i8*, i32 } %18, 0, !dbg !3532
  call void @__clang_call_terminate(i8* %19) #14, !dbg !3532
  unreachable, !dbg !3532
}

; Function Attrs: nobuiltin
declare noalias i8* @_Znwm(i64) #10

; Function Attrs: nounwind uwtable
define linkonce_odr dereferenceable(24) %"struct.std::_Bind_simple"* @_ZSt7forwardISt12_Bind_simpleIFSt7_Mem_fnIMN7lamport7Thread0EFvvEEPS3_EEEOT_RNSt16remove_referenceISA_E4typeE(%"struct.std::_Bind_simple"* dereferenceable(24)) #4 comdat !dbg !3534 {
  %2 = alloca %"struct.std::_Bind_simple"*, align 8
  store %"struct.std::_Bind_simple"* %0, %"struct.std::_Bind_simple"** %2, align 8
  call void @llvm.dbg.declare(metadata %"struct.std::_Bind_simple"** %2, metadata !3542, metadata !2775), !dbg !3543
  %3 = load %"struct.std::_Bind_simple"*, %"struct.std::_Bind_simple"** %2, align 8, !dbg !3544
  ret %"struct.std::_Bind_simple"* %3, !dbg !3545
}

; Function Attrs: nounwind uwtable
define linkonce_odr void @_ZNSt6thread11_State_implISt12_Bind_simpleIFSt7_Mem_fnIMN7lamport7Thread0EFvvEEPS4_EEEC2EOSA_(%"struct.std::thread::_State_impl"*, %"struct.std::_Bind_simple"* dereferenceable(24)) unnamed_addr #4 comdat align 2 !dbg !3546 {
  %3 = alloca %"struct.std::thread::_State_impl"*, align 8
  %4 = alloca %"struct.std::_Bind_simple"*, align 8
  store %"struct.std::thread::_State_impl"* %0, %"struct.std::thread::_State_impl"** %3, align 8
  call void @llvm.dbg.declare(metadata %"struct.std::thread::_State_impl"** %3, metadata !3558, metadata !2775), !dbg !3560
  store %"struct.std::_Bind_simple"* %1, %"struct.std::_Bind_simple"** %4, align 8
  call void @llvm.dbg.declare(metadata %"struct.std::_Bind_simple"** %4, metadata !3561, metadata !2775), !dbg !3562
  %5 = load %"struct.std::thread::_State_impl"*, %"struct.std::thread::_State_impl"** %3, align 8
  %6 = bitcast %"struct.std::thread::_State_impl"* %5 to %"struct.std::thread::_State"*, !dbg !3563
  call void @_ZNSt6thread6_StateC2Ev(%"struct.std::thread::_State"* %6) #3, !dbg !3564
  %7 = bitcast %"struct.std::thread::_State_impl"* %5 to i32 (...)***, !dbg !3563
  store i32 (...)** bitcast (i8** getelementptr inbounds ([5 x i8*], [5 x i8*]* @_ZTVNSt6thread11_State_implISt12_Bind_simpleIFSt7_Mem_fnIMN7lamport7Thread0EFvvEEPS4_EEEE, i32 0, i32 2) to i32 (...)**), i32 (...)*** %7, align 8, !dbg !3563
  %8 = getelementptr inbounds %"struct.std::thread::_State_impl", %"struct.std::thread::_State_impl"* %5, i32 0, i32 1, !dbg !3565
  %9 = load %"struct.std::_Bind_simple"*, %"struct.std::_Bind_simple"** %4, align 8, !dbg !3566
  %10 = call dereferenceable(24) %"struct.std::_Bind_simple"* @_ZSt7forwardISt12_Bind_simpleIFSt7_Mem_fnIMN7lamport7Thread0EFvvEEPS3_EEEOT_RNSt16remove_referenceISA_E4typeE(%"struct.std::_Bind_simple"* dereferenceable(24) %9) #3, !dbg !3567
  call void @_ZNSt12_Bind_simpleIFSt7_Mem_fnIMN7lamport7Thread0EFvvEEPS2_EEC2EOS8_(%"struct.std::_Bind_simple"* %8, %"struct.std::_Bind_simple"* dereferenceable(24) %10) #3, !dbg !3569
  ret void, !dbg !3571
}

; Function Attrs: nobuiltin nounwind
declare void @_ZdlPv(i8*) #11

; Function Attrs: nounwind uwtable
define linkonce_odr void @_ZNSt10unique_ptrINSt6thread6_StateESt14default_deleteIS1_EEC2EPS1_(%"class.std::unique_ptr"*, %"struct.std::thread::_State"*) unnamed_addr #4 comdat align 2 personality i8* bitcast (i32 (...)* @__gxx_personality_v0 to i8*) !dbg !3572 {
  %3 = alloca %"class.std::unique_ptr"*, align 8
  %4 = alloca %"struct.std::thread::_State"*, align 8
  store %"class.std::unique_ptr"* %0, %"class.std::unique_ptr"** %3, align 8
  call void @llvm.dbg.declare(metadata %"class.std::unique_ptr"** %3, metadata !3573, metadata !2775), !dbg !3574
  store %"struct.std::thread::_State"* %1, %"struct.std::thread::_State"** %4, align 8
  call void @llvm.dbg.declare(metadata %"struct.std::thread::_State"** %4, metadata !3575, metadata !2775), !dbg !3576
  %5 = load %"class.std::unique_ptr"*, %"class.std::unique_ptr"** %3, align 8
  %6 = getelementptr inbounds %"class.std::unique_ptr", %"class.std::unique_ptr"* %5, i32 0, i32 0, !dbg !3577
  invoke void @_ZNSt5tupleIJPNSt6thread6_StateESt14default_deleteIS1_EEEC2IS2_S4_Lb1EEEv(%"class.std::tuple"* %6)
          to label %7 unwind label %11, !dbg !3577

; <label>:7:                                      ; preds = %2
  %8 = load %"struct.std::thread::_State"*, %"struct.std::thread::_State"** %4, align 8, !dbg !3578
  %9 = getelementptr inbounds %"class.std::unique_ptr", %"class.std::unique_ptr"* %5, i32 0, i32 0, !dbg !3580
  %10 = call dereferenceable(8) %"struct.std::thread::_State"** @_ZSt3getILm0EJPNSt6thread6_StateESt14default_deleteIS1_EEERNSt13tuple_elementIXT_ESt5tupleIJDpT0_EEE4typeERS9_(%"class.std::tuple"* dereferenceable(8) %9) #3, !dbg !3581
  store %"struct.std::thread::_State"* %8, %"struct.std::thread::_State"** %10, align 8, !dbg !3582
  ret void, !dbg !3583

; <label>:11:                                     ; preds = %2
  %12 = landingpad { i8*, i32 }
          catch i8* null, !dbg !3584
  %13 = extractvalue { i8*, i32 } %12, 0, !dbg !3584
  call void @__clang_call_terminate(i8* %13) #14, !dbg !3584
  unreachable, !dbg !3584
}

; Function Attrs: inlinehint nounwind uwtable
define linkonce_odr void @_ZNSt6thread6_StateC2Ev(%"struct.std::thread::_State"*) unnamed_addr #7 comdat align 2 !dbg !3586 {
  %2 = alloca %"struct.std::thread::_State"*, align 8
  store %"struct.std::thread::_State"* %0, %"struct.std::thread::_State"** %2, align 8
  call void @llvm.dbg.declare(metadata %"struct.std::thread::_State"** %2, metadata !3591, metadata !2775), !dbg !3592
  %3 = load %"struct.std::thread::_State"*, %"struct.std::thread::_State"** %2, align 8
  %4 = bitcast %"struct.std::thread::_State"* %3 to i32 (...)***, !dbg !3593
  store i32 (...)** bitcast (i8** getelementptr inbounds ([5 x i8*], [5 x i8*]* @_ZTVNSt6thread6_StateE, i32 0, i32 2) to i32 (...)**), i32 (...)*** %4, align 8, !dbg !3593
  ret void, !dbg !3593
}

; Function Attrs: nounwind uwtable
define linkonce_odr void @_ZNSt12_Bind_simpleIFSt7_Mem_fnIMN7lamport7Thread0EFvvEEPS2_EEC2EOS8_(%"struct.std::_Bind_simple"*, %"struct.std::_Bind_simple"* dereferenceable(24)) unnamed_addr #4 comdat align 2 !dbg !3594 {
  %3 = alloca %"struct.std::_Bind_simple"*, align 8
  %4 = alloca %"struct.std::_Bind_simple"*, align 8
  store %"struct.std::_Bind_simple"* %0, %"struct.std::_Bind_simple"** %3, align 8
  call void @llvm.dbg.declare(metadata %"struct.std::_Bind_simple"** %3, metadata !3595, metadata !2775), !dbg !3597
  store %"struct.std::_Bind_simple"* %1, %"struct.std::_Bind_simple"** %4, align 8
  call void @llvm.dbg.declare(metadata %"struct.std::_Bind_simple"** %4, metadata !3598, metadata !2775), !dbg !3599
  %5 = load %"struct.std::_Bind_simple"*, %"struct.std::_Bind_simple"** %3, align 8
  %6 = getelementptr inbounds %"struct.std::_Bind_simple", %"struct.std::_Bind_simple"* %5, i32 0, i32 0, !dbg !3600
  %7 = load %"struct.std::_Bind_simple"*, %"struct.std::_Bind_simple"** %4, align 8, !dbg !3600
  %8 = getelementptr inbounds %"struct.std::_Bind_simple", %"struct.std::_Bind_simple"* %7, i32 0, i32 0, !dbg !3600
  call void @_ZNSt5tupleIJSt7_Mem_fnIMN7lamport7Thread0EFvvEEPS2_EEC2EOS7_(%"class.std::tuple.3"* %6, %"class.std::tuple.3"* dereferenceable(24) %8) #3, !dbg !3600
  ret void, !dbg !3600
}

; Function Attrs: inlinehint nounwind uwtable
define linkonce_odr void @_ZNSt6thread11_State_implISt12_Bind_simpleIFSt7_Mem_fnIMN7lamport7Thread0EFvvEEPS4_EEED2Ev(%"struct.std::thread::_State_impl"*) unnamed_addr #7 comdat align 2 !dbg !3601 {
  %2 = alloca %"struct.std::thread::_State_impl"*, align 8
  store %"struct.std::thread::_State_impl"* %0, %"struct.std::thread::_State_impl"** %2, align 8
  call void @llvm.dbg.declare(metadata %"struct.std::thread::_State_impl"** %2, metadata !3603, metadata !2775), !dbg !3604
  %3 = load %"struct.std::thread::_State_impl"*, %"struct.std::thread::_State_impl"** %2, align 8
  %4 = bitcast %"struct.std::thread::_State_impl"* %3 to %"struct.std::thread::_State"*, !dbg !3605
  call void @_ZNSt6thread6_StateD2Ev(%"struct.std::thread::_State"* %4) #3, !dbg !3605
  ret void, !dbg !3607
}

; Function Attrs: inlinehint nounwind uwtable
define linkonce_odr void @_ZNSt6thread11_State_implISt12_Bind_simpleIFSt7_Mem_fnIMN7lamport7Thread0EFvvEEPS4_EEED0Ev(%"struct.std::thread::_State_impl"*) unnamed_addr #7 comdat align 2 !dbg !3608 {
  %2 = alloca %"struct.std::thread::_State_impl"*, align 8
  store %"struct.std::thread::_State_impl"* %0, %"struct.std::thread::_State_impl"** %2, align 8
  call void @llvm.dbg.declare(metadata %"struct.std::thread::_State_impl"** %2, metadata !3609, metadata !2775), !dbg !3610
  %3 = load %"struct.std::thread::_State_impl"*, %"struct.std::thread::_State_impl"** %2, align 8
  call void @_ZNSt6thread11_State_implISt12_Bind_simpleIFSt7_Mem_fnIMN7lamport7Thread0EFvvEEPS4_EEED2Ev(%"struct.std::thread::_State_impl"* %3) #3, !dbg !3611
  %4 = bitcast %"struct.std::thread::_State_impl"* %3 to i8*, !dbg !3611
  call void @_ZdlPv(i8* %4) #16, !dbg !3612
  ret void, !dbg !3611
}

; Function Attrs: uwtable
define linkonce_odr void @_ZNSt6thread11_State_implISt12_Bind_simpleIFSt7_Mem_fnIMN7lamport7Thread0EFvvEEPS4_EEE6_M_runEv(%"struct.std::thread::_State_impl"*) unnamed_addr #0 comdat align 2 !dbg !3614 {
  %2 = alloca %"struct.std::thread::_State_impl"*, align 8
  store %"struct.std::thread::_State_impl"* %0, %"struct.std::thread::_State_impl"** %2, align 8
  call void @llvm.dbg.declare(metadata %"struct.std::thread::_State_impl"** %2, metadata !3615, metadata !2775), !dbg !3616
  %3 = load %"struct.std::thread::_State_impl"*, %"struct.std::thread::_State_impl"** %2, align 8
  %4 = getelementptr inbounds %"struct.std::thread::_State_impl", %"struct.std::thread::_State_impl"* %3, i32 0, i32 1, !dbg !3617
  call void @_ZNSt12_Bind_simpleIFSt7_Mem_fnIMN7lamport7Thread0EFvvEEPS2_EEclEv(%"struct.std::_Bind_simple"* %4), !dbg !3617
  ret void, !dbg !3618
}

; Function Attrs: nounwind uwtable
define linkonce_odr void @_ZNSt5tupleIJSt7_Mem_fnIMN7lamport7Thread0EFvvEEPS2_EEC2EOS7_(%"class.std::tuple.3"*, %"class.std::tuple.3"* dereferenceable(24)) unnamed_addr #4 comdat align 2 !dbg !3619 {
  %3 = alloca %"class.std::tuple.3"*, align 8
  %4 = alloca %"class.std::tuple.3"*, align 8
  store %"class.std::tuple.3"* %0, %"class.std::tuple.3"** %3, align 8
  call void @llvm.dbg.declare(metadata %"class.std::tuple.3"** %3, metadata !3620, metadata !2775), !dbg !3622
  store %"class.std::tuple.3"* %1, %"class.std::tuple.3"** %4, align 8
  call void @llvm.dbg.declare(metadata %"class.std::tuple.3"** %4, metadata !3623, metadata !2775), !dbg !3624
  %5 = load %"class.std::tuple.3"*, %"class.std::tuple.3"** %3, align 8
  %6 = bitcast %"class.std::tuple.3"* %5 to %"struct.std::_Tuple_impl.4"*, !dbg !3625
  %7 = load %"class.std::tuple.3"*, %"class.std::tuple.3"** %4, align 8, !dbg !3625
  %8 = bitcast %"class.std::tuple.3"* %7 to %"struct.std::_Tuple_impl.4"*, !dbg !3625
  call void @_ZNSt11_Tuple_implILm0EJSt7_Mem_fnIMN7lamport7Thread0EFvvEEPS2_EEC2EOS7_(%"struct.std::_Tuple_impl.4"* %6, %"struct.std::_Tuple_impl.4"* dereferenceable(24) %8) #3, !dbg !3625
  ret void, !dbg !3625
}

; Function Attrs: nounwind uwtable
define linkonce_odr void @_ZNSt11_Tuple_implILm0EJSt7_Mem_fnIMN7lamport7Thread0EFvvEEPS2_EEC2EOS7_(%"struct.std::_Tuple_impl.4"*, %"struct.std::_Tuple_impl.4"* dereferenceable(24)) unnamed_addr #4 comdat align 2 personality i8* bitcast (i32 (...)* @__gxx_personality_v0 to i8*) !dbg !3626 {
  %3 = alloca %"struct.std::_Tuple_impl.4"*, align 8
  %4 = alloca %"struct.std::_Tuple_impl.4"*, align 8
  store %"struct.std::_Tuple_impl.4"* %0, %"struct.std::_Tuple_impl.4"** %3, align 8
  call void @llvm.dbg.declare(metadata %"struct.std::_Tuple_impl.4"** %3, metadata !3627, metadata !2775), !dbg !3629
  store %"struct.std::_Tuple_impl.4"* %1, %"struct.std::_Tuple_impl.4"** %4, align 8
  call void @llvm.dbg.declare(metadata %"struct.std::_Tuple_impl.4"** %4, metadata !3630, metadata !2775), !dbg !3631
  %5 = load %"struct.std::_Tuple_impl.4"*, %"struct.std::_Tuple_impl.4"** %3, align 8
  %6 = bitcast %"struct.std::_Tuple_impl.4"* %5 to %"struct.std::_Tuple_impl.5"*, !dbg !3632
  %7 = load %"struct.std::_Tuple_impl.4"*, %"struct.std::_Tuple_impl.4"** %4, align 8, !dbg !3633
  %8 = call dereferenceable(8) %"struct.std::_Tuple_impl.5"* @_ZNSt11_Tuple_implILm0EJSt7_Mem_fnIMN7lamport7Thread0EFvvEEPS2_EE7_M_tailERS7_(%"struct.std::_Tuple_impl.4"* dereferenceable(24) %7) #3, !dbg !3634
  %9 = call dereferenceable(8) %"struct.std::_Tuple_impl.5"* @_ZSt4moveIRSt11_Tuple_implILm1EJPN7lamport7Thread0EEEEONSt16remove_referenceIT_E4typeEOS7_(%"struct.std::_Tuple_impl.5"* dereferenceable(8) %8) #3, !dbg !3635
  call void @_ZNSt11_Tuple_implILm1EJPN7lamport7Thread0EEEC2EOS3_(%"struct.std::_Tuple_impl.5"* %6, %"struct.std::_Tuple_impl.5"* dereferenceable(8) %9) #3, !dbg !3637
  %10 = bitcast %"struct.std::_Tuple_impl.4"* %5 to i8*, !dbg !3632
  %11 = getelementptr inbounds i8, i8* %10, i64 8, !dbg !3632
  %12 = bitcast i8* %11 to %"struct.std::_Head_base.7"*, !dbg !3632
  %13 = load %"struct.std::_Tuple_impl.4"*, %"struct.std::_Tuple_impl.4"** %4, align 8, !dbg !3639
  %14 = call dereferenceable(16) %"struct.std::_Mem_fn"* @_ZNSt11_Tuple_implILm0EJSt7_Mem_fnIMN7lamport7Thread0EFvvEEPS2_EE7_M_headERS7_(%"struct.std::_Tuple_impl.4"* dereferenceable(24) %13) #3, !dbg !3640
  %15 = call dereferenceable(16) %"struct.std::_Mem_fn"* @_ZSt7forwardISt7_Mem_fnIMN7lamport7Thread0EFvvEEEOT_RNSt16remove_referenceIS6_E4typeE(%"struct.std::_Mem_fn"* dereferenceable(16) %14) #3, !dbg !3641
  invoke void @_ZNSt10_Head_baseILm0ESt7_Mem_fnIMN7lamport7Thread0EFvvEELb0EEC2IS5_EEOT_(%"struct.std::_Head_base.7"* %12, %"struct.std::_Mem_fn"* dereferenceable(16) %15)
          to label %16 unwind label %17, !dbg !3643

; <label>:16:                                     ; preds = %2
  ret void, !dbg !3644

; <label>:17:                                     ; preds = %2
  %18 = landingpad { i8*, i32 }
          catch i8* null, !dbg !3645
  %19 = extractvalue { i8*, i32 } %18, 0, !dbg !3645
  call void @__clang_call_terminate(i8* %19) #14, !dbg !3645
  unreachable, !dbg !3645
}

; Function Attrs: nounwind uwtable
define linkonce_odr dereferenceable(8) %"struct.std::_Tuple_impl.5"* @_ZSt4moveIRSt11_Tuple_implILm1EJPN7lamport7Thread0EEEEONSt16remove_referenceIT_E4typeEOS7_(%"struct.std::_Tuple_impl.5"* dereferenceable(8)) #4 comdat !dbg !3646 {
  %2 = alloca %"struct.std::_Tuple_impl.5"*, align 8
  store %"struct.std::_Tuple_impl.5"* %0, %"struct.std::_Tuple_impl.5"** %2, align 8
  call void @llvm.dbg.declare(metadata %"struct.std::_Tuple_impl.5"** %2, metadata !3654, metadata !2775), !dbg !3655
  %3 = load %"struct.std::_Tuple_impl.5"*, %"struct.std::_Tuple_impl.5"** %2, align 8, !dbg !3656
  ret %"struct.std::_Tuple_impl.5"* %3, !dbg !3657
}

; Function Attrs: nounwind uwtable
define linkonce_odr dereferenceable(8) %"struct.std::_Tuple_impl.5"* @_ZNSt11_Tuple_implILm0EJSt7_Mem_fnIMN7lamport7Thread0EFvvEEPS2_EE7_M_tailERS7_(%"struct.std::_Tuple_impl.4"* dereferenceable(24)) #4 comdat align 2 !dbg !3658 {
  %2 = alloca %"struct.std::_Tuple_impl.4"*, align 8
  store %"struct.std::_Tuple_impl.4"* %0, %"struct.std::_Tuple_impl.4"** %2, align 8
  call void @llvm.dbg.declare(metadata %"struct.std::_Tuple_impl.4"** %2, metadata !3659, metadata !2775), !dbg !3660
  %3 = load %"struct.std::_Tuple_impl.4"*, %"struct.std::_Tuple_impl.4"** %2, align 8, !dbg !3661
  %4 = bitcast %"struct.std::_Tuple_impl.4"* %3 to %"struct.std::_Tuple_impl.5"*, !dbg !3661
  ret %"struct.std::_Tuple_impl.5"* %4, !dbg !3662
}

; Function Attrs: nounwind uwtable
define linkonce_odr void @_ZNSt11_Tuple_implILm1EJPN7lamport7Thread0EEEC2EOS3_(%"struct.std::_Tuple_impl.5"*, %"struct.std::_Tuple_impl.5"* dereferenceable(8)) unnamed_addr #4 comdat align 2 personality i8* bitcast (i32 (...)* @__gxx_personality_v0 to i8*) !dbg !3663 {
  %3 = alloca %"struct.std::_Tuple_impl.5"*, align 8
  %4 = alloca %"struct.std::_Tuple_impl.5"*, align 8
  store %"struct.std::_Tuple_impl.5"* %0, %"struct.std::_Tuple_impl.5"** %3, align 8
  call void @llvm.dbg.declare(metadata %"struct.std::_Tuple_impl.5"** %3, metadata !3664, metadata !2775), !dbg !3666
  store %"struct.std::_Tuple_impl.5"* %1, %"struct.std::_Tuple_impl.5"** %4, align 8
  call void @llvm.dbg.declare(metadata %"struct.std::_Tuple_impl.5"** %4, metadata !3667, metadata !2775), !dbg !3668
  %5 = load %"struct.std::_Tuple_impl.5"*, %"struct.std::_Tuple_impl.5"** %3, align 8
  %6 = bitcast %"struct.std::_Tuple_impl.5"* %5 to %"struct.std::_Head_base.6"*, !dbg !3669
  %7 = load %"struct.std::_Tuple_impl.5"*, %"struct.std::_Tuple_impl.5"** %4, align 8, !dbg !3670
  %8 = call dereferenceable(8) %"class.lamport::Thread0"** @_ZNSt11_Tuple_implILm1EJPN7lamport7Thread0EEE7_M_headERS3_(%"struct.std::_Tuple_impl.5"* dereferenceable(8) %7) #3, !dbg !3671
  %9 = call dereferenceable(8) %"class.lamport::Thread0"** @_ZSt7forwardIPN7lamport7Thread0EEOT_RNSt16remove_referenceIS3_E4typeE(%"class.lamport::Thread0"** dereferenceable(8) %8) #3, !dbg !3672
  invoke void @_ZNSt10_Head_baseILm1EPN7lamport7Thread0ELb0EEC2IS2_EEOT_(%"struct.std::_Head_base.6"* %6, %"class.lamport::Thread0"** dereferenceable(8) %9)
          to label %10 unwind label %11, !dbg !3674

; <label>:10:                                     ; preds = %2
  ret void, !dbg !3675

; <label>:11:                                     ; preds = %2
  %12 = landingpad { i8*, i32 }
          catch i8* null, !dbg !3677
  %13 = extractvalue { i8*, i32 } %12, 0, !dbg !3677
  call void @__clang_call_terminate(i8* %13) #14, !dbg !3677
  unreachable, !dbg !3677
}

; Function Attrs: nounwind uwtable
define linkonce_odr dereferenceable(16) %"struct.std::_Mem_fn"* @_ZSt7forwardISt7_Mem_fnIMN7lamport7Thread0EFvvEEEOT_RNSt16remove_referenceIS6_E4typeE(%"struct.std::_Mem_fn"* dereferenceable(16)) #4 comdat !dbg !3679 {
  %2 = alloca %"struct.std::_Mem_fn"*, align 8
  store %"struct.std::_Mem_fn"* %0, %"struct.std::_Mem_fn"** %2, align 8
  call void @llvm.dbg.declare(metadata %"struct.std::_Mem_fn"** %2, metadata !3688, metadata !2775), !dbg !3689
  %3 = load %"struct.std::_Mem_fn"*, %"struct.std::_Mem_fn"** %2, align 8, !dbg !3690
  ret %"struct.std::_Mem_fn"* %3, !dbg !3691
}

; Function Attrs: nounwind uwtable
define linkonce_odr dereferenceable(16) %"struct.std::_Mem_fn"* @_ZNSt11_Tuple_implILm0EJSt7_Mem_fnIMN7lamport7Thread0EFvvEEPS2_EE7_M_headERS7_(%"struct.std::_Tuple_impl.4"* dereferenceable(24)) #4 comdat align 2 !dbg !3692 {
  %2 = alloca %"struct.std::_Tuple_impl.4"*, align 8
  store %"struct.std::_Tuple_impl.4"* %0, %"struct.std::_Tuple_impl.4"** %2, align 8
  call void @llvm.dbg.declare(metadata %"struct.std::_Tuple_impl.4"** %2, metadata !3693, metadata !2775), !dbg !3694
  %3 = load %"struct.std::_Tuple_impl.4"*, %"struct.std::_Tuple_impl.4"** %2, align 8, !dbg !3695
  %4 = bitcast %"struct.std::_Tuple_impl.4"* %3 to i8*, !dbg !3695
  %5 = getelementptr inbounds i8, i8* %4, i64 8, !dbg !3695
  %6 = bitcast i8* %5 to %"struct.std::_Head_base.7"*, !dbg !3695
  %7 = call dereferenceable(16) %"struct.std::_Mem_fn"* @_ZNSt10_Head_baseILm0ESt7_Mem_fnIMN7lamport7Thread0EFvvEELb0EE7_M_headERS6_(%"struct.std::_Head_base.7"* dereferenceable(16) %6) #3, !dbg !3696
  ret %"struct.std::_Mem_fn"* %7, !dbg !3697
}

; Function Attrs: nounwind uwtable
define linkonce_odr void @_ZNSt10_Head_baseILm0ESt7_Mem_fnIMN7lamport7Thread0EFvvEELb0EEC2IS5_EEOT_(%"struct.std::_Head_base.7"*, %"struct.std::_Mem_fn"* dereferenceable(16)) unnamed_addr #4 comdat align 2 !dbg !3698 {
  %3 = alloca %"struct.std::_Head_base.7"*, align 8
  %4 = alloca %"struct.std::_Mem_fn"*, align 8
  store %"struct.std::_Head_base.7"* %0, %"struct.std::_Head_base.7"** %3, align 8
  call void @llvm.dbg.declare(metadata %"struct.std::_Head_base.7"** %3, metadata !3704, metadata !2775), !dbg !3706
  store %"struct.std::_Mem_fn"* %1, %"struct.std::_Mem_fn"** %4, align 8
  call void @llvm.dbg.declare(metadata %"struct.std::_Mem_fn"** %4, metadata !3707, metadata !2775), !dbg !3708
  %5 = load %"struct.std::_Head_base.7"*, %"struct.std::_Head_base.7"** %3, align 8
  %6 = getelementptr inbounds %"struct.std::_Head_base.7", %"struct.std::_Head_base.7"* %5, i32 0, i32 0, !dbg !3709
  %7 = load %"struct.std::_Mem_fn"*, %"struct.std::_Mem_fn"** %4, align 8, !dbg !3710
  %8 = call dereferenceable(16) %"struct.std::_Mem_fn"* @_ZSt7forwardISt7_Mem_fnIMN7lamport7Thread0EFvvEEEOT_RNSt16remove_referenceIS6_E4typeE(%"struct.std::_Mem_fn"* dereferenceable(16) %7) #3, !dbg !3711
  %9 = bitcast %"struct.std::_Mem_fn"* %6 to i8*, !dbg !3709
  %10 = bitcast %"struct.std::_Mem_fn"* %8 to i8*, !dbg !3709
  call void @llvm.memcpy.p0i8.p0i8.i64(i8* %9, i8* %10, i64 16, i32 8, i1 false), !dbg !3712
  ret void, !dbg !3714
}

; Function Attrs: noinline noreturn nounwind
define linkonce_odr hidden void @__clang_call_terminate(i8*) #12 comdat {
  %2 = call i8* @__cxa_begin_catch(i8* %0) #3
  call void @_ZSt9terminatev() #14
  unreachable
}

declare i8* @__cxa_begin_catch(i8*)

; Function Attrs: nounwind uwtable
define linkonce_odr dereferenceable(8) %"class.lamport::Thread0"** @_ZNSt11_Tuple_implILm1EJPN7lamport7Thread0EEE7_M_headERS3_(%"struct.std::_Tuple_impl.5"* dereferenceable(8)) #4 comdat align 2 !dbg !3715 {
  %2 = alloca %"struct.std::_Tuple_impl.5"*, align 8
  store %"struct.std::_Tuple_impl.5"* %0, %"struct.std::_Tuple_impl.5"** %2, align 8
  call void @llvm.dbg.declare(metadata %"struct.std::_Tuple_impl.5"** %2, metadata !3716, metadata !2775), !dbg !3717
  %3 = load %"struct.std::_Tuple_impl.5"*, %"struct.std::_Tuple_impl.5"** %2, align 8, !dbg !3718
  %4 = bitcast %"struct.std::_Tuple_impl.5"* %3 to %"struct.std::_Head_base.6"*, !dbg !3718
  %5 = call dereferenceable(8) %"class.lamport::Thread0"** @_ZNSt10_Head_baseILm1EPN7lamport7Thread0ELb0EE7_M_headERS3_(%"struct.std::_Head_base.6"* dereferenceable(8) %4) #3, !dbg !3719
  ret %"class.lamport::Thread0"** %5, !dbg !3720
}

; Function Attrs: nounwind uwtable
define linkonce_odr void @_ZNSt10_Head_baseILm1EPN7lamport7Thread0ELb0EEC2IS2_EEOT_(%"struct.std::_Head_base.6"*, %"class.lamport::Thread0"** dereferenceable(8)) unnamed_addr #4 comdat align 2 !dbg !3721 {
  %3 = alloca %"struct.std::_Head_base.6"*, align 8
  %4 = alloca %"class.lamport::Thread0"**, align 8
  store %"struct.std::_Head_base.6"* %0, %"struct.std::_Head_base.6"** %3, align 8
  call void @llvm.dbg.declare(metadata %"struct.std::_Head_base.6"** %3, metadata !3727, metadata !2775), !dbg !3729
  store %"class.lamport::Thread0"** %1, %"class.lamport::Thread0"*** %4, align 8
  call void @llvm.dbg.declare(metadata %"class.lamport::Thread0"*** %4, metadata !3730, metadata !2775), !dbg !3731
  %5 = load %"struct.std::_Head_base.6"*, %"struct.std::_Head_base.6"** %3, align 8
  %6 = getelementptr inbounds %"struct.std::_Head_base.6", %"struct.std::_Head_base.6"* %5, i32 0, i32 0, !dbg !3732
  %7 = load %"class.lamport::Thread0"**, %"class.lamport::Thread0"*** %4, align 8, !dbg !3733
  %8 = call dereferenceable(8) %"class.lamport::Thread0"** @_ZSt7forwardIPN7lamport7Thread0EEOT_RNSt16remove_referenceIS3_E4typeE(%"class.lamport::Thread0"** dereferenceable(8) %7) #3, !dbg !3734
  %9 = load %"class.lamport::Thread0"*, %"class.lamport::Thread0"** %8, align 8, !dbg !3734
  store %"class.lamport::Thread0"* %9, %"class.lamport::Thread0"** %6, align 8, !dbg !3732
  ret void, !dbg !3735
}

; Function Attrs: nounwind uwtable
define linkonce_odr dereferenceable(8) %"class.lamport::Thread0"** @_ZNSt10_Head_baseILm1EPN7lamport7Thread0ELb0EE7_M_headERS3_(%"struct.std::_Head_base.6"* dereferenceable(8)) #4 comdat align 2 !dbg !3736 {
  %2 = alloca %"struct.std::_Head_base.6"*, align 8
  store %"struct.std::_Head_base.6"* %0, %"struct.std::_Head_base.6"** %2, align 8
  call void @llvm.dbg.declare(metadata %"struct.std::_Head_base.6"** %2, metadata !3737, metadata !2775), !dbg !3738
  %3 = load %"struct.std::_Head_base.6"*, %"struct.std::_Head_base.6"** %2, align 8, !dbg !3739
  %4 = getelementptr inbounds %"struct.std::_Head_base.6", %"struct.std::_Head_base.6"* %3, i32 0, i32 0, !dbg !3740
  ret %"class.lamport::Thread0"** %4, !dbg !3741
}

; Function Attrs: nounwind uwtable
define linkonce_odr dereferenceable(16) %"struct.std::_Mem_fn"* @_ZNSt10_Head_baseILm0ESt7_Mem_fnIMN7lamport7Thread0EFvvEELb0EE7_M_headERS6_(%"struct.std::_Head_base.7"* dereferenceable(16)) #4 comdat align 2 !dbg !3742 {
  %2 = alloca %"struct.std::_Head_base.7"*, align 8
  store %"struct.std::_Head_base.7"* %0, %"struct.std::_Head_base.7"** %2, align 8
  call void @llvm.dbg.declare(metadata %"struct.std::_Head_base.7"** %2, metadata !3743, metadata !2775), !dbg !3744
  %3 = load %"struct.std::_Head_base.7"*, %"struct.std::_Head_base.7"** %2, align 8, !dbg !3745
  %4 = getelementptr inbounds %"struct.std::_Head_base.7", %"struct.std::_Head_base.7"* %3, i32 0, i32 0, !dbg !3746
  ret %"struct.std::_Mem_fn"* %4, !dbg !3747
}

; Function Attrs: nounwind
declare void @_ZNSt6thread6_StateD2Ev(%"struct.std::thread::_State"*) unnamed_addr #2

; Function Attrs: uwtable
define linkonce_odr void @_ZNSt12_Bind_simpleIFSt7_Mem_fnIMN7lamport7Thread0EFvvEEPS2_EEclEv(%"struct.std::_Bind_simple"*) #0 comdat align 2 !dbg !3748 {
  %2 = alloca %"struct.std::_Bind_simple"*, align 8
  %3 = alloca %"struct.std::_Index_tuple", align 1
  store %"struct.std::_Bind_simple"* %0, %"struct.std::_Bind_simple"** %2, align 8
  call void @llvm.dbg.declare(metadata %"struct.std::_Bind_simple"** %2, metadata !3749, metadata !2775), !dbg !3750
  %4 = load %"struct.std::_Bind_simple"*, %"struct.std::_Bind_simple"** %2, align 8
  call void @_ZNSt12_Bind_simpleIFSt7_Mem_fnIMN7lamport7Thread0EFvvEEPS2_EE9_M_invokeIJLm0EEEEvSt12_Index_tupleIJXspT_EEE(%"struct.std::_Bind_simple"* %4), !dbg !3751
  ret void, !dbg !3752
}

; Function Attrs: uwtable
define linkonce_odr void @_ZNSt12_Bind_simpleIFSt7_Mem_fnIMN7lamport7Thread0EFvvEEPS2_EE9_M_invokeIJLm0EEEEvSt12_Index_tupleIJXspT_EEE(%"struct.std::_Bind_simple"*) #0 comdat align 2 !dbg !3753 {
  %2 = alloca %"struct.std::_Index_tuple", align 1
  %3 = alloca %"struct.std::_Bind_simple"*, align 8
  store %"struct.std::_Bind_simple"* %0, %"struct.std::_Bind_simple"** %3, align 8
  call void @llvm.dbg.declare(metadata %"struct.std::_Bind_simple"** %3, metadata !3765, metadata !2775), !dbg !3766
  call void @llvm.dbg.declare(metadata %"struct.std::_Index_tuple"* %2, metadata !3767, metadata !2775), !dbg !3768
  %4 = load %"struct.std::_Bind_simple"*, %"struct.std::_Bind_simple"** %3, align 8
  %5 = getelementptr inbounds %"struct.std::_Bind_simple", %"struct.std::_Bind_simple"* %4, i32 0, i32 0, !dbg !3769
  %6 = call dereferenceable(16) %"struct.std::_Mem_fn"* @_ZSt3getILm0EJSt7_Mem_fnIMN7lamport7Thread0EFvvEEPS2_EERNSt13tuple_elementIXT_ESt5tupleIJDpT0_EEE4typeERSB_(%"class.std::tuple.3"* dereferenceable(24) %5) #3, !dbg !3770
  %7 = call dereferenceable(16) %"struct.std::_Mem_fn"* @_ZSt7forwardISt7_Mem_fnIMN7lamport7Thread0EFvvEEEOT_RNSt16remove_referenceIS6_E4typeE(%"struct.std::_Mem_fn"* dereferenceable(16) %6) #3, !dbg !3771
  %8 = bitcast %"struct.std::_Mem_fn"* %7 to %"class.std::_Mem_fn_base"*, !dbg !3773
  %9 = getelementptr inbounds %"struct.std::_Bind_simple", %"struct.std::_Bind_simple"* %4, i32 0, i32 0, !dbg !3774
  %10 = call dereferenceable(8) %"class.lamport::Thread0"** @_ZSt3getILm1EJSt7_Mem_fnIMN7lamport7Thread0EFvvEEPS2_EERNSt13tuple_elementIXT_ESt5tupleIJDpT0_EEE4typeERSB_(%"class.std::tuple.3"* dereferenceable(24) %9) #3, !dbg !3775
  %11 = call dereferenceable(8) %"class.lamport::Thread0"** @_ZSt7forwardIPN7lamport7Thread0EEOT_RNSt16remove_referenceIS3_E4typeE(%"class.lamport::Thread0"** dereferenceable(8) %10) #3, !dbg !3776
  call void @_ZNKSt12_Mem_fn_baseIMN7lamport7Thread0EFvvELb1EEclIJPS1_EEEDTclsr3stdE8__invokedtdefpT6_M_pmfspclsr3stdE7forwardIT_Efp_EEEDpOS7_(%"class.std::_Mem_fn_base"* %8, %"class.lamport::Thread0"** dereferenceable(8) %11), !dbg !3777
  ret void, !dbg !3779
}

; Function Attrs: nounwind uwtable
define linkonce_odr dereferenceable(16) %"struct.std::_Mem_fn"* @_ZSt3getILm0EJSt7_Mem_fnIMN7lamport7Thread0EFvvEEPS2_EERNSt13tuple_elementIXT_ESt5tupleIJDpT0_EEE4typeERSB_(%"class.std::tuple.3"* dereferenceable(24)) #4 comdat !dbg !3780 {
  %2 = alloca %"class.std::tuple.3"*, align 8
  store %"class.std::tuple.3"* %0, %"class.std::tuple.3"** %2, align 8
  call void @llvm.dbg.declare(metadata %"class.std::tuple.3"** %2, metadata !3792, metadata !2775), !dbg !3793
  %3 = load %"class.std::tuple.3"*, %"class.std::tuple.3"** %2, align 8, !dbg !3794
  %4 = bitcast %"class.std::tuple.3"* %3 to %"struct.std::_Tuple_impl.4"*, !dbg !3794
  %5 = call dereferenceable(16) %"struct.std::_Mem_fn"* @_ZSt12__get_helperILm0ESt7_Mem_fnIMN7lamport7Thread0EFvvEEJPS2_EERT0_RSt11_Tuple_implIXT_EJS7_DpT1_EE(%"struct.std::_Tuple_impl.4"* dereferenceable(24) %4) #3, !dbg !3795
  ret %"struct.std::_Mem_fn"* %5, !dbg !3796
}

; Function Attrs: uwtable
define linkonce_odr void @_ZNKSt12_Mem_fn_baseIMN7lamport7Thread0EFvvELb1EEclIJPS1_EEEDTclsr3stdE8__invokedtdefpT6_M_pmfspclsr3stdE7forwardIT_Efp_EEEDpOS7_(%"class.std::_Mem_fn_base"*, %"class.lamport::Thread0"** dereferenceable(8)) #0 comdat align 2 !dbg !3797 {
  %3 = alloca %"class.std::_Mem_fn_base"*, align 8
  %4 = alloca %"class.lamport::Thread0"**, align 8
  store %"class.std::_Mem_fn_base"* %0, %"class.std::_Mem_fn_base"** %3, align 8
  call void @llvm.dbg.declare(metadata %"class.std::_Mem_fn_base"** %3, metadata !3804, metadata !2775), !dbg !3806
  store %"class.lamport::Thread0"** %1, %"class.lamport::Thread0"*** %4, align 8
  call void @llvm.dbg.declare(metadata %"class.lamport::Thread0"*** %4, metadata !3807, metadata !2775), !dbg !3808
  %5 = load %"class.std::_Mem_fn_base"*, %"class.std::_Mem_fn_base"** %3, align 8
  %6 = getelementptr inbounds %"class.std::_Mem_fn_base", %"class.std::_Mem_fn_base"* %5, i32 0, i32 0, !dbg !3809
  %7 = load %"class.lamport::Thread0"**, %"class.lamport::Thread0"*** %4, align 8, !dbg !3810
  %8 = call dereferenceable(8) %"class.lamport::Thread0"** @_ZSt7forwardIPN7lamport7Thread0EEOT_RNSt16remove_referenceIS3_E4typeE(%"class.lamport::Thread0"** dereferenceable(8) %7) #3, !dbg !3811
  call void @_ZSt8__invokeIRKMN7lamport7Thread0EFvvEJPS1_EENSt9result_ofIFOT_DpOT0_EE4typeES9_SC_({ i64, i64 }* dereferenceable(16) %6, %"class.lamport::Thread0"** dereferenceable(8) %8), !dbg !3812
  ret void, !dbg !3814
}

; Function Attrs: nounwind uwtable
define linkonce_odr dereferenceable(8) %"class.lamport::Thread0"** @_ZSt3getILm1EJSt7_Mem_fnIMN7lamport7Thread0EFvvEEPS2_EERNSt13tuple_elementIXT_ESt5tupleIJDpT0_EEE4typeERSB_(%"class.std::tuple.3"* dereferenceable(24)) #4 comdat !dbg !3815 {
  %2 = alloca %"class.std::tuple.3"*, align 8
  store %"class.std::tuple.3"* %0, %"class.std::tuple.3"** %2, align 8
  call void @llvm.dbg.declare(metadata %"class.std::tuple.3"** %2, metadata !3827, metadata !2775), !dbg !3828
  %3 = load %"class.std::tuple.3"*, %"class.std::tuple.3"** %2, align 8, !dbg !3829
  %4 = bitcast %"class.std::tuple.3"* %3 to %"struct.std::_Tuple_impl.5"*, !dbg !3829
  %5 = call dereferenceable(8) %"class.lamport::Thread0"** @_ZSt12__get_helperILm1EPN7lamport7Thread0EJEERT0_RSt11_Tuple_implIXT_EJS3_DpT1_EE(%"struct.std::_Tuple_impl.5"* dereferenceable(8) %4) #3, !dbg !3830
  ret %"class.lamport::Thread0"** %5, !dbg !3831
}

; Function Attrs: nounwind uwtable
define linkonce_odr dereferenceable(16) %"struct.std::_Mem_fn"* @_ZSt12__get_helperILm0ESt7_Mem_fnIMN7lamport7Thread0EFvvEEJPS2_EERT0_RSt11_Tuple_implIXT_EJS7_DpT1_EE(%"struct.std::_Tuple_impl.4"* dereferenceable(24)) #4 comdat !dbg !3832 {
  %2 = alloca %"struct.std::_Tuple_impl.4"*, align 8
  store %"struct.std::_Tuple_impl.4"* %0, %"struct.std::_Tuple_impl.4"** %2, align 8
  call void @llvm.dbg.declare(metadata %"struct.std::_Tuple_impl.4"** %2, metadata !3835, metadata !2775), !dbg !3836
  %3 = load %"struct.std::_Tuple_impl.4"*, %"struct.std::_Tuple_impl.4"** %2, align 8, !dbg !3837
  %4 = call dereferenceable(16) %"struct.std::_Mem_fn"* @_ZNSt11_Tuple_implILm0EJSt7_Mem_fnIMN7lamport7Thread0EFvvEEPS2_EE7_M_headERS7_(%"struct.std::_Tuple_impl.4"* dereferenceable(24) %3) #3, !dbg !3838
  ret %"struct.std::_Mem_fn"* %4, !dbg !3839
}

; Function Attrs: inlinehint uwtable
define linkonce_odr void @_ZSt8__invokeIRKMN7lamport7Thread0EFvvEJPS1_EENSt9result_ofIFOT_DpOT0_EE4typeES9_SC_({ i64, i64 }* dereferenceable(16), %"class.lamport::Thread0"** dereferenceable(8)) #13 comdat !dbg !42 {
  %3 = alloca { i64, i64 }*, align 8
  %4 = alloca %"class.lamport::Thread0"**, align 8
  %5 = alloca %"struct.std::__invoke_memfun_deref", align 1
  store { i64, i64 }* %0, { i64, i64 }** %3, align 8
  call void @llvm.dbg.declare(metadata { i64, i64 }** %3, metadata !3840, metadata !2775), !dbg !3841
  store %"class.lamport::Thread0"** %1, %"class.lamport::Thread0"*** %4, align 8
  call void @llvm.dbg.declare(metadata %"class.lamport::Thread0"*** %4, metadata !3842, metadata !2775), !dbg !3843
  %6 = load { i64, i64 }*, { i64, i64 }** %3, align 8, !dbg !3844
  %7 = call dereferenceable(16) { i64, i64 }* @_ZSt7forwardIRKMN7lamport7Thread0EFvvEEOT_RNSt16remove_referenceIS6_E4typeE({ i64, i64 }* dereferenceable(16) %6) #3, !dbg !3845
  %8 = load %"class.lamport::Thread0"**, %"class.lamport::Thread0"*** %4, align 8, !dbg !3846
  %9 = call dereferenceable(8) %"class.lamport::Thread0"** @_ZSt7forwardIPN7lamport7Thread0EEOT_RNSt16remove_referenceIS3_E4typeE(%"class.lamport::Thread0"** dereferenceable(8) %8) #3, !dbg !3847
  call void @_ZSt13__invoke_implIvRKMN7lamport7Thread0EFvvEPS1_JEET_St21__invoke_memfun_derefOT0_OT1_DpOT2_({ i64, i64 }* dereferenceable(16) %7, %"class.lamport::Thread0"** dereferenceable(8) %9), !dbg !3848
  ret void, !dbg !3850
}

; Function Attrs: inlinehint uwtable
define linkonce_odr void @_ZSt13__invoke_implIvRKMN7lamport7Thread0EFvvEPS1_JEET_St21__invoke_memfun_derefOT0_OT1_DpOT2_({ i64, i64 }* dereferenceable(16), %"class.lamport::Thread0"** dereferenceable(8)) #13 comdat !dbg !3851 {
  %3 = alloca %"struct.std::__invoke_memfun_deref", align 1
  %4 = alloca { i64, i64 }*, align 8
  %5 = alloca %"class.lamport::Thread0"**, align 8
  call void @llvm.dbg.declare(metadata %"struct.std::__invoke_memfun_deref"* %3, metadata !3857, metadata !2775), !dbg !3858
  store { i64, i64 }* %0, { i64, i64 }** %4, align 8
  call void @llvm.dbg.declare(metadata { i64, i64 }** %4, metadata !3859, metadata !2775), !dbg !3860
  store %"class.lamport::Thread0"** %1, %"class.lamport::Thread0"*** %5, align 8
  call void @llvm.dbg.declare(metadata %"class.lamport::Thread0"*** %5, metadata !3861, metadata !2775), !dbg !3862
  %6 = load { i64, i64 }*, { i64, i64 }** %4, align 8, !dbg !3863
  %7 = load { i64, i64 }, { i64, i64 }* %6, align 8, !dbg !3863
  %8 = load %"class.lamport::Thread0"**, %"class.lamport::Thread0"*** %5, align 8, !dbg !3864
  %9 = call dereferenceable(8) %"class.lamport::Thread0"** @_ZSt7forwardIPN7lamport7Thread0EEOT_RNSt16remove_referenceIS3_E4typeE(%"class.lamport::Thread0"** dereferenceable(8) %8) #3, !dbg !3865
  %10 = load %"class.lamport::Thread0"*, %"class.lamport::Thread0"** %9, align 8, !dbg !3865
  %11 = extractvalue { i64, i64 } %7, 1, !dbg !3866
  %12 = bitcast %"class.lamport::Thread0"* %10 to i8*, !dbg !3866
  %13 = getelementptr inbounds i8, i8* %12, i64 %11, !dbg !3866
  %14 = bitcast i8* %13 to %"class.lamport::Thread0"*, !dbg !3866
  %15 = extractvalue { i64, i64 } %7, 0, !dbg !3866
  %16 = and i64 %15, 1, !dbg !3866
  %17 = icmp ne i64 %16, 0, !dbg !3866
  br i1 %17, label %18, label %25, !dbg !3866

; <label>:18:                                     ; preds = %2
  %19 = bitcast %"class.lamport::Thread0"* %14 to i8**, !dbg !3867
  %20 = load i8*, i8** %19, align 8, !dbg !3867
  %21 = sub i64 %15, 1, !dbg !3867
  %22 = getelementptr i8, i8* %20, i64 %21, !dbg !3867
  %23 = bitcast i8* %22 to void (%"class.lamport::Thread0"*)**, !dbg !3867
  %24 = load void (%"class.lamport::Thread0"*)*, void (%"class.lamport::Thread0"*)** %23, align 8, !dbg !3867
  br label %27, !dbg !3867

; <label>:25:                                     ; preds = %2
  %26 = inttoptr i64 %15 to void (%"class.lamport::Thread0"*)*, !dbg !3869
  br label %27, !dbg !3869

; <label>:27:                                     ; preds = %25, %18
  %28 = phi void (%"class.lamport::Thread0"*)* [ %24, %18 ], [ %26, %25 ], !dbg !3871
  call void %28(%"class.lamport::Thread0"* %14), !dbg !3871
  ret void, !dbg !3873
}

; Function Attrs: nounwind uwtable
define linkonce_odr dereferenceable(16) { i64, i64 }* @_ZSt7forwardIRKMN7lamport7Thread0EFvvEEOT_RNSt16remove_referenceIS6_E4typeE({ i64, i64 }* dereferenceable(16)) #4 comdat !dbg !3874 {
  %2 = alloca { i64, i64 }*, align 8
  store { i64, i64 }* %0, { i64, i64 }** %2, align 8
  call void @llvm.dbg.declare(metadata { i64, i64 }** %2, metadata !3882, metadata !2775), !dbg !3883
  %3 = load { i64, i64 }*, { i64, i64 }** %2, align 8, !dbg !3884
  ret { i64, i64 }* %3, !dbg !3885
}

; Function Attrs: nounwind uwtable
define linkonce_odr dereferenceable(8) %"class.lamport::Thread0"** @_ZSt12__get_helperILm1EPN7lamport7Thread0EJEERT0_RSt11_Tuple_implIXT_EJS3_DpT1_EE(%"struct.std::_Tuple_impl.5"* dereferenceable(8)) #4 comdat !dbg !3886 {
  %2 = alloca %"struct.std::_Tuple_impl.5"*, align 8
  store %"struct.std::_Tuple_impl.5"* %0, %"struct.std::_Tuple_impl.5"** %2, align 8
  call void @llvm.dbg.declare(metadata %"struct.std::_Tuple_impl.5"** %2, metadata !3889, metadata !2775), !dbg !3890
  %3 = load %"struct.std::_Tuple_impl.5"*, %"struct.std::_Tuple_impl.5"** %2, align 8, !dbg !3891
  %4 = call dereferenceable(8) %"class.lamport::Thread0"** @_ZNSt11_Tuple_implILm1EJPN7lamport7Thread0EEE7_M_headERS3_(%"struct.std::_Tuple_impl.5"* dereferenceable(8) %3) #3, !dbg !3892
  ret %"class.lamport::Thread0"** %4, !dbg !3893
}

; Function Attrs: uwtable
define linkonce_odr void @_ZNSt5tupleIJPNSt6thread6_StateESt14default_deleteIS1_EEEC2IS2_S4_Lb1EEEv(%"class.std::tuple"*) unnamed_addr #0 comdat align 2 !dbg !3894 {
  %2 = alloca %"class.std::tuple"*, align 8
  store %"class.std::tuple"* %0, %"class.std::tuple"** %2, align 8
  call void @llvm.dbg.declare(metadata %"class.std::tuple"** %2, metadata !3901, metadata !2775), !dbg !3903
  %3 = load %"class.std::tuple"*, %"class.std::tuple"** %2, align 8
  %4 = bitcast %"class.std::tuple"* %3 to %"struct.std::_Tuple_impl"*, !dbg !3904
  call void @_ZNSt11_Tuple_implILm0EJPNSt6thread6_StateESt14default_deleteIS1_EEEC2Ev(%"struct.std::_Tuple_impl"* %4), !dbg !3905
  ret void, !dbg !3906
}

; Function Attrs: nounwind uwtable
define linkonce_odr dereferenceable(8) %"struct.std::thread::_State"** @_ZSt3getILm0EJPNSt6thread6_StateESt14default_deleteIS1_EEERNSt13tuple_elementIXT_ESt5tupleIJDpT0_EEE4typeERS9_(%"class.std::tuple"* dereferenceable(8)) #4 comdat !dbg !3907 {
  %2 = alloca %"class.std::tuple"*, align 8
  store %"class.std::tuple"* %0, %"class.std::tuple"** %2, align 8
  call void @llvm.dbg.declare(metadata %"class.std::tuple"** %2, metadata !3917, metadata !2775), !dbg !3918
  %3 = load %"class.std::tuple"*, %"class.std::tuple"** %2, align 8, !dbg !3919
  %4 = bitcast %"class.std::tuple"* %3 to %"struct.std::_Tuple_impl"*, !dbg !3919
  %5 = call dereferenceable(8) %"struct.std::thread::_State"** @_ZSt12__get_helperILm0EPNSt6thread6_StateEJSt14default_deleteIS1_EEERT0_RSt11_Tuple_implIXT_EJS5_DpT1_EE(%"struct.std::_Tuple_impl"* dereferenceable(8) %4) #3, !dbg !3920
  ret %"struct.std::thread::_State"** %5, !dbg !3921
}

; Function Attrs: uwtable
define linkonce_odr void @_ZNSt11_Tuple_implILm0EJPNSt6thread6_StateESt14default_deleteIS1_EEEC2Ev(%"struct.std::_Tuple_impl"*) unnamed_addr #0 comdat align 2 !dbg !3922 {
  %2 = alloca %"struct.std::_Tuple_impl"*, align 8
  store %"struct.std::_Tuple_impl"* %0, %"struct.std::_Tuple_impl"** %2, align 8
  call void @llvm.dbg.declare(metadata %"struct.std::_Tuple_impl"** %2, metadata !3923, metadata !2775), !dbg !3925
  %3 = load %"struct.std::_Tuple_impl"*, %"struct.std::_Tuple_impl"** %2, align 8
  %4 = bitcast %"struct.std::_Tuple_impl"* %3 to %"struct.std::_Tuple_impl.1"*, !dbg !3926
  call void @_ZNSt11_Tuple_implILm1EJSt14default_deleteINSt6thread6_StateEEEEC2Ev(%"struct.std::_Tuple_impl.1"* %4), !dbg !3927
  %5 = bitcast %"struct.std::_Tuple_impl"* %3 to %"struct.std::_Head_base.2"*, !dbg !3926
  call void @_ZNSt10_Head_baseILm0EPNSt6thread6_StateELb0EEC2Ev(%"struct.std::_Head_base.2"* %5), !dbg !3928
  ret void, !dbg !3930
}

; Function Attrs: uwtable
define linkonce_odr void @_ZNSt11_Tuple_implILm1EJSt14default_deleteINSt6thread6_StateEEEEC2Ev(%"struct.std::_Tuple_impl.1"*) unnamed_addr #0 comdat align 2 !dbg !3931 {
  %2 = alloca %"struct.std::_Tuple_impl.1"*, align 8
  store %"struct.std::_Tuple_impl.1"* %0, %"struct.std::_Tuple_impl.1"** %2, align 8
  call void @llvm.dbg.declare(metadata %"struct.std::_Tuple_impl.1"** %2, metadata !3932, metadata !2775), !dbg !3934
  %3 = load %"struct.std::_Tuple_impl.1"*, %"struct.std::_Tuple_impl.1"** %2, align 8
  %4 = bitcast %"struct.std::_Tuple_impl.1"* %3 to %"struct.std::_Head_base"*, !dbg !3935
  call void @_ZNSt10_Head_baseILm1ESt14default_deleteINSt6thread6_StateEELb1EEC2Ev(%"struct.std::_Head_base"* %4), !dbg !3936
  ret void, !dbg !3937
}

; Function Attrs: nounwind uwtable
define linkonce_odr void @_ZNSt10_Head_baseILm0EPNSt6thread6_StateELb0EEC2Ev(%"struct.std::_Head_base.2"*) unnamed_addr #4 comdat align 2 !dbg !3938 {
  %2 = alloca %"struct.std::_Head_base.2"*, align 8
  store %"struct.std::_Head_base.2"* %0, %"struct.std::_Head_base.2"** %2, align 8
  call void @llvm.dbg.declare(metadata %"struct.std::_Head_base.2"** %2, metadata !3939, metadata !2775), !dbg !3941
  %3 = load %"struct.std::_Head_base.2"*, %"struct.std::_Head_base.2"** %2, align 8
  %4 = getelementptr inbounds %"struct.std::_Head_base.2", %"struct.std::_Head_base.2"* %3, i32 0, i32 0, !dbg !3942
  store %"struct.std::thread::_State"* null, %"struct.std::thread::_State"** %4, align 8, !dbg !3942
  ret void, !dbg !3943
}

; Function Attrs: nounwind uwtable
define linkonce_odr void @_ZNSt10_Head_baseILm1ESt14default_deleteINSt6thread6_StateEELb1EEC2Ev(%"struct.std::_Head_base"*) unnamed_addr #4 comdat align 2 !dbg !3944 {
  %2 = alloca %"struct.std::_Head_base"*, align 8
  store %"struct.std::_Head_base"* %0, %"struct.std::_Head_base"** %2, align 8
  call void @llvm.dbg.declare(metadata %"struct.std::_Head_base"** %2, metadata !3945, metadata !2775), !dbg !3947
  %3 = load %"struct.std::_Head_base"*, %"struct.std::_Head_base"** %2, align 8
  %4 = bitcast %"struct.std::_Head_base"* %3 to %"struct.std::default_delete"*, !dbg !3948
  ret void, !dbg !3949
}

; Function Attrs: nounwind uwtable
define linkonce_odr dereferenceable(8) %"struct.std::thread::_State"** @_ZSt12__get_helperILm0EPNSt6thread6_StateEJSt14default_deleteIS1_EEERT0_RSt11_Tuple_implIXT_EJS5_DpT1_EE(%"struct.std::_Tuple_impl"* dereferenceable(8)) #4 comdat !dbg !3950 {
  %2 = alloca %"struct.std::_Tuple_impl"*, align 8
  store %"struct.std::_Tuple_impl"* %0, %"struct.std::_Tuple_impl"** %2, align 8
  call void @llvm.dbg.declare(metadata %"struct.std::_Tuple_impl"** %2, metadata !3953, metadata !2775), !dbg !3954
  %3 = load %"struct.std::_Tuple_impl"*, %"struct.std::_Tuple_impl"** %2, align 8, !dbg !3955
  %4 = call dereferenceable(8) %"struct.std::thread::_State"** @_ZNSt11_Tuple_implILm0EJPNSt6thread6_StateESt14default_deleteIS1_EEE7_M_headERS5_(%"struct.std::_Tuple_impl"* dereferenceable(8) %3) #3, !dbg !3956
  ret %"struct.std::thread::_State"** %4, !dbg !3957
}

; Function Attrs: nounwind uwtable
define linkonce_odr dereferenceable(8) %"struct.std::thread::_State"** @_ZNSt11_Tuple_implILm0EJPNSt6thread6_StateESt14default_deleteIS1_EEE7_M_headERS5_(%"struct.std::_Tuple_impl"* dereferenceable(8)) #4 comdat align 2 !dbg !3958 {
  %2 = alloca %"struct.std::_Tuple_impl"*, align 8
  store %"struct.std::_Tuple_impl"* %0, %"struct.std::_Tuple_impl"** %2, align 8
  call void @llvm.dbg.declare(metadata %"struct.std::_Tuple_impl"** %2, metadata !3959, metadata !2775), !dbg !3960
  %3 = load %"struct.std::_Tuple_impl"*, %"struct.std::_Tuple_impl"** %2, align 8, !dbg !3961
  %4 = bitcast %"struct.std::_Tuple_impl"* %3 to %"struct.std::_Head_base.2"*, !dbg !3961
  %5 = call dereferenceable(8) %"struct.std::thread::_State"** @_ZNSt10_Head_baseILm0EPNSt6thread6_StateELb0EE7_M_headERS3_(%"struct.std::_Head_base.2"* dereferenceable(8) %4) #3, !dbg !3962
  ret %"struct.std::thread::_State"** %5, !dbg !3963
}

; Function Attrs: nounwind uwtable
define linkonce_odr dereferenceable(8) %"struct.std::thread::_State"** @_ZNSt10_Head_baseILm0EPNSt6thread6_StateELb0EE7_M_headERS3_(%"struct.std::_Head_base.2"* dereferenceable(8)) #4 comdat align 2 !dbg !3964 {
  %2 = alloca %"struct.std::_Head_base.2"*, align 8
  store %"struct.std::_Head_base.2"* %0, %"struct.std::_Head_base.2"** %2, align 8
  call void @llvm.dbg.declare(metadata %"struct.std::_Head_base.2"** %2, metadata !3965, metadata !2775), !dbg !3966
  %3 = load %"struct.std::_Head_base.2"*, %"struct.std::_Head_base.2"** %2, align 8, !dbg !3967
  %4 = getelementptr inbounds %"struct.std::_Head_base.2", %"struct.std::_Head_base.2"* %3, i32 0, i32 0, !dbg !3968
  ret %"struct.std::thread::_State"** %4, !dbg !3969
}

; Function Attrs: nounwind uwtable
define linkonce_odr { i64, i64 } @_ZNSt26_Maybe_wrap_member_pointerIMN7lamport7Thread0EFvvEE9__do_wrapES3_(i64, i64) #4 comdat align 2 !dbg !3970 {
  %3 = alloca %"struct.std::_Mem_fn", align 8
  %4 = alloca { i64, i64 }, align 8
  %5 = alloca { i64, i64 }, align 8
  %6 = alloca { i64, i64 }, align 8
  %7 = getelementptr inbounds { i64, i64 }, { i64, i64 }* %4, i32 0, i32 0
  store i64 %0, i64* %7, align 8
  %8 = getelementptr inbounds { i64, i64 }, { i64, i64 }* %4, i32 0, i32 1
  store i64 %1, i64* %8, align 8
  %9 = load { i64, i64 }, { i64, i64 }* %4, align 8
  store { i64, i64 } %9, { i64, i64 }* %5, align 8
  call void @llvm.dbg.declare(metadata { i64, i64 }* %5, metadata !3971, metadata !2775), !dbg !3972
  %10 = load { i64, i64 }, { i64, i64 }* %5, align 8, !dbg !3973
  store { i64, i64 } %10, { i64, i64 }* %6, align 8, !dbg !3974
  %11 = getelementptr inbounds { i64, i64 }, { i64, i64 }* %6, i32 0, i32 0, !dbg !3974
  %12 = load i64, i64* %11, align 8, !dbg !3974
  %13 = getelementptr inbounds { i64, i64 }, { i64, i64 }* %6, i32 0, i32 1, !dbg !3974
  %14 = load i64, i64* %13, align 8, !dbg !3974
  call void @_ZNSt7_Mem_fnIMN7lamport7Thread0EFvvEECI2St12_Mem_fn_baseIS3_Lb1EEES3_(%"struct.std::_Mem_fn"* %3, i64 %12, i64 %14) #3, !dbg !3974
  %15 = getelementptr inbounds %"struct.std::_Mem_fn", %"struct.std::_Mem_fn"* %3, i32 0, i32 0, !dbg !3975
  %16 = getelementptr inbounds %"class.std::_Mem_fn_base", %"class.std::_Mem_fn_base"* %15, i32 0, i32 0, !dbg !3975
  %17 = load { i64, i64 }, { i64, i64 }* %16, align 8, !dbg !3975
  ret { i64, i64 } %17, !dbg !3975
}

; Function Attrs: uwtable
define linkonce_odr void @_ZNSt12_Bind_simpleIFSt7_Mem_fnIMN7lamport7Thread0EFvvEEPS2_EEC2IS5_JS6_EEEOT_DpOT0_(%"struct.std::_Bind_simple"*, %"struct.std::_Mem_fn"* dereferenceable(16), %"class.lamport::Thread0"** dereferenceable(8)) unnamed_addr #0 comdat align 2 !dbg !3976 {
  %4 = alloca %"struct.std::_Bind_simple"*, align 8
  %5 = alloca %"struct.std::_Mem_fn"*, align 8
  %6 = alloca %"class.lamport::Thread0"**, align 8
  store %"struct.std::_Bind_simple"* %0, %"struct.std::_Bind_simple"** %4, align 8
  call void @llvm.dbg.declare(metadata %"struct.std::_Bind_simple"** %4, metadata !3982, metadata !2775), !dbg !3983
  store %"struct.std::_Mem_fn"* %1, %"struct.std::_Mem_fn"** %5, align 8
  call void @llvm.dbg.declare(metadata %"struct.std::_Mem_fn"** %5, metadata !3984, metadata !2775), !dbg !3985
  store %"class.lamport::Thread0"** %2, %"class.lamport::Thread0"*** %6, align 8
  call void @llvm.dbg.declare(metadata %"class.lamport::Thread0"*** %6, metadata !3986, metadata !2775), !dbg !3987
  %7 = load %"struct.std::_Bind_simple"*, %"struct.std::_Bind_simple"** %4, align 8
  %8 = getelementptr inbounds %"struct.std::_Bind_simple", %"struct.std::_Bind_simple"* %7, i32 0, i32 0, !dbg !3988
  %9 = load %"struct.std::_Mem_fn"*, %"struct.std::_Mem_fn"** %5, align 8, !dbg !3989
  %10 = call dereferenceable(16) %"struct.std::_Mem_fn"* @_ZSt7forwardISt7_Mem_fnIMN7lamport7Thread0EFvvEEEOT_RNSt16remove_referenceIS6_E4typeE(%"struct.std::_Mem_fn"* dereferenceable(16) %9) #3, !dbg !3990
  %11 = load %"class.lamport::Thread0"**, %"class.lamport::Thread0"*** %6, align 8, !dbg !3991
  %12 = call dereferenceable(8) %"class.lamport::Thread0"** @_ZSt7forwardIPN7lamport7Thread0EEOT_RNSt16remove_referenceIS3_E4typeE(%"class.lamport::Thread0"** dereferenceable(8) %11) #3, !dbg !3992
  call void @_ZNSt5tupleIJSt7_Mem_fnIMN7lamport7Thread0EFvvEEPS2_EEC2IS5_S6_Lb1EEEOT_OT0_(%"class.std::tuple.3"* %8, %"struct.std::_Mem_fn"* dereferenceable(16) %10, %"class.lamport::Thread0"** dereferenceable(8) %12), !dbg !3994
  ret void, !dbg !3996
}

; Function Attrs: inlinehint nounwind uwtable
define linkonce_odr void @_ZNSt7_Mem_fnIMN7lamport7Thread0EFvvEECI2St12_Mem_fn_baseIS3_Lb1EEES3_(%"struct.std::_Mem_fn"*, i64, i64) unnamed_addr #7 comdat align 2 !dbg !3997 {
  %4 = alloca { i64, i64 }, align 8
  %5 = alloca %"struct.std::_Mem_fn"*, align 8
  %6 = alloca { i64, i64 }, align 8
  %7 = alloca { i64, i64 }, align 8
  %8 = getelementptr inbounds { i64, i64 }, { i64, i64 }* %4, i32 0, i32 0
  store i64 %1, i64* %8, align 8
  %9 = getelementptr inbounds { i64, i64 }, { i64, i64 }* %4, i32 0, i32 1
  store i64 %2, i64* %9, align 8
  %10 = load { i64, i64 }, { i64, i64 }* %4, align 8
  store %"struct.std::_Mem_fn"* %0, %"struct.std::_Mem_fn"** %5, align 8
  call void @llvm.dbg.declare(metadata %"struct.std::_Mem_fn"** %5, metadata !4002, metadata !2775), !dbg !4004
  store { i64, i64 } %10, { i64, i64 }* %6, align 8
  call void @llvm.dbg.declare(metadata { i64, i64 }* %6, metadata !4005, metadata !2775), !dbg !4004
  %11 = load %"struct.std::_Mem_fn"*, %"struct.std::_Mem_fn"** %5, align 8
  %12 = bitcast %"struct.std::_Mem_fn"* %11 to %"class.std::_Mem_fn_base"*, !dbg !4006
  %13 = load { i64, i64 }, { i64, i64 }* %6, align 8, !dbg !4006
  store { i64, i64 } %13, { i64, i64 }* %7, align 8, !dbg !4006
  %14 = getelementptr inbounds { i64, i64 }, { i64, i64 }* %7, i32 0, i32 0, !dbg !4006
  %15 = load i64, i64* %14, align 8, !dbg !4006
  %16 = getelementptr inbounds { i64, i64 }, { i64, i64 }* %7, i32 0, i32 1, !dbg !4006
  %17 = load i64, i64* %16, align 8, !dbg !4006
  call void @_ZNSt12_Mem_fn_baseIMN7lamport7Thread0EFvvELb1EEC2ES3_(%"class.std::_Mem_fn_base"* %12, i64 %15, i64 %17) #3, !dbg !4006
  ret void, !dbg !4006
}

; Function Attrs: nounwind uwtable
define linkonce_odr void @_ZNSt12_Mem_fn_baseIMN7lamport7Thread0EFvvELb1EEC2ES3_(%"class.std::_Mem_fn_base"*, i64, i64) unnamed_addr #4 comdat align 2 !dbg !4007 {
  %4 = alloca { i64, i64 }, align 8
  %5 = alloca %"class.std::_Mem_fn_base"*, align 8
  %6 = alloca { i64, i64 }, align 8
  %7 = getelementptr inbounds { i64, i64 }, { i64, i64 }* %4, i32 0, i32 0
  store i64 %1, i64* %7, align 8
  %8 = getelementptr inbounds { i64, i64 }, { i64, i64 }* %4, i32 0, i32 1
  store i64 %2, i64* %8, align 8
  %9 = load { i64, i64 }, { i64, i64 }* %4, align 8
  store %"class.std::_Mem_fn_base"* %0, %"class.std::_Mem_fn_base"** %5, align 8
  call void @llvm.dbg.declare(metadata %"class.std::_Mem_fn_base"** %5, metadata !4008, metadata !2775), !dbg !4010
  store { i64, i64 } %9, { i64, i64 }* %6, align 8
  call void @llvm.dbg.declare(metadata { i64, i64 }* %6, metadata !4011, metadata !2775), !dbg !4012
  %10 = load %"class.std::_Mem_fn_base"*, %"class.std::_Mem_fn_base"** %5, align 8
  %11 = bitcast %"class.std::_Mem_fn_base"* %10 to %"struct.std::_Maybe_unary_or_binary_function"*, !dbg !4013
  %12 = getelementptr inbounds %"class.std::_Mem_fn_base", %"class.std::_Mem_fn_base"* %10, i32 0, i32 0, !dbg !4014
  %13 = load { i64, i64 }, { i64, i64 }* %6, align 8, !dbg !4015
  store { i64, i64 } %13, { i64, i64 }* %12, align 8, !dbg !4014
  ret void, !dbg !4016
}

; Function Attrs: uwtable
define linkonce_odr void @_ZNSt5tupleIJSt7_Mem_fnIMN7lamport7Thread0EFvvEEPS2_EEC2IS5_S6_Lb1EEEOT_OT0_(%"class.std::tuple.3"*, %"struct.std::_Mem_fn"* dereferenceable(16), %"class.lamport::Thread0"** dereferenceable(8)) unnamed_addr #0 comdat align 2 !dbg !4017 {
  %4 = alloca %"class.std::tuple.3"*, align 8
  %5 = alloca %"struct.std::_Mem_fn"*, align 8
  %6 = alloca %"class.lamport::Thread0"**, align 8
  store %"class.std::tuple.3"* %0, %"class.std::tuple.3"** %4, align 8
  call void @llvm.dbg.declare(metadata %"class.std::tuple.3"** %4, metadata !4024, metadata !2775), !dbg !4025
  store %"struct.std::_Mem_fn"* %1, %"struct.std::_Mem_fn"** %5, align 8
  call void @llvm.dbg.declare(metadata %"struct.std::_Mem_fn"** %5, metadata !4026, metadata !2775), !dbg !4027
  store %"class.lamport::Thread0"** %2, %"class.lamport::Thread0"*** %6, align 8
  call void @llvm.dbg.declare(metadata %"class.lamport::Thread0"*** %6, metadata !4028, metadata !2775), !dbg !4029
  %7 = load %"class.std::tuple.3"*, %"class.std::tuple.3"** %4, align 8
  %8 = bitcast %"class.std::tuple.3"* %7 to %"struct.std::_Tuple_impl.4"*, !dbg !4030
  %9 = load %"struct.std::_Mem_fn"*, %"struct.std::_Mem_fn"** %5, align 8, !dbg !4031
  %10 = call dereferenceable(16) %"struct.std::_Mem_fn"* @_ZSt7forwardISt7_Mem_fnIMN7lamport7Thread0EFvvEEEOT_RNSt16remove_referenceIS6_E4typeE(%"struct.std::_Mem_fn"* dereferenceable(16) %9) #3, !dbg !4032
  %11 = load %"class.lamport::Thread0"**, %"class.lamport::Thread0"*** %6, align 8, !dbg !4033
  %12 = call dereferenceable(8) %"class.lamport::Thread0"** @_ZSt7forwardIPN7lamport7Thread0EEOT_RNSt16remove_referenceIS3_E4typeE(%"class.lamport::Thread0"** dereferenceable(8) %11) #3, !dbg !4034
  call void @_ZNSt11_Tuple_implILm0EJSt7_Mem_fnIMN7lamport7Thread0EFvvEEPS2_EEC2IS5_JS6_EvEEOT_DpOT0_(%"struct.std::_Tuple_impl.4"* %8, %"struct.std::_Mem_fn"* dereferenceable(16) %10, %"class.lamport::Thread0"** dereferenceable(8) %12), !dbg !4036
  ret void, !dbg !4038
}

; Function Attrs: uwtable
define linkonce_odr void @_ZNSt11_Tuple_implILm0EJSt7_Mem_fnIMN7lamport7Thread0EFvvEEPS2_EEC2IS5_JS6_EvEEOT_DpOT0_(%"struct.std::_Tuple_impl.4"*, %"struct.std::_Mem_fn"* dereferenceable(16), %"class.lamport::Thread0"** dereferenceable(8)) unnamed_addr #0 comdat align 2 !dbg !4039 {
  %4 = alloca %"struct.std::_Tuple_impl.4"*, align 8
  %5 = alloca %"struct.std::_Mem_fn"*, align 8
  %6 = alloca %"class.lamport::Thread0"**, align 8
  store %"struct.std::_Tuple_impl.4"* %0, %"struct.std::_Tuple_impl.4"** %4, align 8
  call void @llvm.dbg.declare(metadata %"struct.std::_Tuple_impl.4"** %4, metadata !4046, metadata !2775), !dbg !4047
  store %"struct.std::_Mem_fn"* %1, %"struct.std::_Mem_fn"** %5, align 8
  call void @llvm.dbg.declare(metadata %"struct.std::_Mem_fn"** %5, metadata !4048, metadata !2775), !dbg !4049
  store %"class.lamport::Thread0"** %2, %"class.lamport::Thread0"*** %6, align 8
  call void @llvm.dbg.declare(metadata %"class.lamport::Thread0"*** %6, metadata !4050, metadata !2775), !dbg !4051
  %7 = load %"struct.std::_Tuple_impl.4"*, %"struct.std::_Tuple_impl.4"** %4, align 8
  %8 = bitcast %"struct.std::_Tuple_impl.4"* %7 to %"struct.std::_Tuple_impl.5"*, !dbg !4052
  %9 = load %"class.lamport::Thread0"**, %"class.lamport::Thread0"*** %6, align 8, !dbg !4053
  %10 = call dereferenceable(8) %"class.lamport::Thread0"** @_ZSt7forwardIPN7lamport7Thread0EEOT_RNSt16remove_referenceIS3_E4typeE(%"class.lamport::Thread0"** dereferenceable(8) %9) #3, !dbg !4054
  call void @_ZNSt11_Tuple_implILm1EJPN7lamport7Thread0EEEC2IS2_EEOT_(%"struct.std::_Tuple_impl.5"* %8, %"class.lamport::Thread0"** dereferenceable(8) %10), !dbg !4055
  %11 = bitcast %"struct.std::_Tuple_impl.4"* %7 to i8*, !dbg !4052
  %12 = getelementptr inbounds i8, i8* %11, i64 8, !dbg !4052
  %13 = bitcast i8* %12 to %"struct.std::_Head_base.7"*, !dbg !4052
  %14 = load %"struct.std::_Mem_fn"*, %"struct.std::_Mem_fn"** %5, align 8, !dbg !4057
  %15 = call dereferenceable(16) %"struct.std::_Mem_fn"* @_ZSt7forwardISt7_Mem_fnIMN7lamport7Thread0EFvvEEEOT_RNSt16remove_referenceIS6_E4typeE(%"struct.std::_Mem_fn"* dereferenceable(16) %14) #3, !dbg !4058
  call void @_ZNSt10_Head_baseILm0ESt7_Mem_fnIMN7lamport7Thread0EFvvEELb0EEC2IS5_EEOT_(%"struct.std::_Head_base.7"* %13, %"struct.std::_Mem_fn"* dereferenceable(16) %15), !dbg !4059
  ret void, !dbg !4060
}

; Function Attrs: nounwind uwtable
define linkonce_odr void @_ZNSt11_Tuple_implILm1EJPN7lamport7Thread0EEEC2IS2_EEOT_(%"struct.std::_Tuple_impl.5"*, %"class.lamport::Thread0"** dereferenceable(8)) unnamed_addr #4 comdat align 2 !dbg !4061 {
  %3 = alloca %"struct.std::_Tuple_impl.5"*, align 8
  %4 = alloca %"class.lamport::Thread0"**, align 8
  store %"struct.std::_Tuple_impl.5"* %0, %"struct.std::_Tuple_impl.5"** %3, align 8
  call void @llvm.dbg.declare(metadata %"struct.std::_Tuple_impl.5"** %3, metadata !4065, metadata !2775), !dbg !4066
  store %"class.lamport::Thread0"** %1, %"class.lamport::Thread0"*** %4, align 8
  call void @llvm.dbg.declare(metadata %"class.lamport::Thread0"*** %4, metadata !4067, metadata !2775), !dbg !4068
  %5 = load %"struct.std::_Tuple_impl.5"*, %"struct.std::_Tuple_impl.5"** %3, align 8
  %6 = bitcast %"struct.std::_Tuple_impl.5"* %5 to %"struct.std::_Head_base.6"*, !dbg !4069
  %7 = load %"class.lamport::Thread0"**, %"class.lamport::Thread0"*** %4, align 8, !dbg !4070
  %8 = call dereferenceable(8) %"class.lamport::Thread0"** @_ZSt7forwardIPN7lamport7Thread0EEOT_RNSt16remove_referenceIS3_E4typeE(%"class.lamport::Thread0"** dereferenceable(8) %7) #3, !dbg !4071
  call void @_ZNSt10_Head_baseILm1EPN7lamport7Thread0ELb0EEC2IS2_EEOT_(%"struct.std::_Head_base.6"* %6, %"class.lamport::Thread0"** dereferenceable(8) %8), !dbg !4072
  ret void, !dbg !4074
}

; Function Attrs: nounwind uwtable
define linkonce_odr dereferenceable(1) %"struct.std::default_delete"* @_ZNSt10unique_ptrINSt6thread6_StateESt14default_deleteIS1_EE11get_deleterEv(%"class.std::unique_ptr"*) #4 comdat align 2 !dbg !4075 {
  %2 = alloca %"class.std::unique_ptr"*, align 8
  store %"class.std::unique_ptr"* %0, %"class.std::unique_ptr"** %2, align 8
  call void @llvm.dbg.declare(metadata %"class.std::unique_ptr"** %2, metadata !4076, metadata !2775), !dbg !4077
  %3 = load %"class.std::unique_ptr"*, %"class.std::unique_ptr"** %2, align 8
  %4 = getelementptr inbounds %"class.std::unique_ptr", %"class.std::unique_ptr"* %3, i32 0, i32 0, !dbg !4078
  %5 = call dereferenceable(1) %"struct.std::default_delete"* @_ZSt3getILm1EJPNSt6thread6_StateESt14default_deleteIS1_EEERNSt13tuple_elementIXT_ESt5tupleIJDpT0_EEE4typeERS9_(%"class.std::tuple"* dereferenceable(8) %4) #3, !dbg !4079
  ret %"struct.std::default_delete"* %5, !dbg !4080
}

; Function Attrs: nounwind uwtable
define linkonce_odr void @_ZNKSt14default_deleteINSt6thread6_StateEEclEPS1_(%"struct.std::default_delete"*, %"struct.std::thread::_State"*) #4 comdat align 2 !dbg !4081 {
  %3 = alloca %"struct.std::default_delete"*, align 8
  %4 = alloca %"struct.std::thread::_State"*, align 8
  store %"struct.std::default_delete"* %0, %"struct.std::default_delete"** %3, align 8
  call void @llvm.dbg.declare(metadata %"struct.std::default_delete"** %3, metadata !4082, metadata !2775), !dbg !4084
  store %"struct.std::thread::_State"* %1, %"struct.std::thread::_State"** %4, align 8
  call void @llvm.dbg.declare(metadata %"struct.std::thread::_State"** %4, metadata !4085, metadata !2775), !dbg !4086
  %5 = load %"struct.std::default_delete"*, %"struct.std::default_delete"** %3, align 8
  %6 = load %"struct.std::thread::_State"*, %"struct.std::thread::_State"** %4, align 8, !dbg !4087
  %7 = icmp eq %"struct.std::thread::_State"* %6, null, !dbg !4088
  br i1 %7, label %13, label %8, !dbg !4088

; <label>:8:                                      ; preds = %2
  %9 = bitcast %"struct.std::thread::_State"* %6 to void (%"struct.std::thread::_State"*)***, !dbg !4089
  %10 = load void (%"struct.std::thread::_State"*)**, void (%"struct.std::thread::_State"*)*** %9, align 8, !dbg !4089
  %11 = getelementptr inbounds void (%"struct.std::thread::_State"*)*, void (%"struct.std::thread::_State"*)** %10, i64 1, !dbg !4089
  %12 = load void (%"struct.std::thread::_State"*)*, void (%"struct.std::thread::_State"*)** %11, align 8, !dbg !4089
  call void %12(%"struct.std::thread::_State"* %6) #3, !dbg !4089
  br label %13, !dbg !4089

; <label>:13:                                     ; preds = %8, %2
  ret void, !dbg !4091
}

; Function Attrs: nounwind uwtable
define linkonce_odr dereferenceable(1) %"struct.std::default_delete"* @_ZSt3getILm1EJPNSt6thread6_StateESt14default_deleteIS1_EEERNSt13tuple_elementIXT_ESt5tupleIJDpT0_EEE4typeERS9_(%"class.std::tuple"* dereferenceable(8)) #4 comdat !dbg !4092 {
  %2 = alloca %"class.std::tuple"*, align 8
  store %"class.std::tuple"* %0, %"class.std::tuple"** %2, align 8
  call void @llvm.dbg.declare(metadata %"class.std::tuple"** %2, metadata !4103, metadata !2775), !dbg !4104
  %3 = load %"class.std::tuple"*, %"class.std::tuple"** %2, align 8, !dbg !4105
  %4 = bitcast %"class.std::tuple"* %3 to %"struct.std::_Tuple_impl.1"*, !dbg !4105
  %5 = call dereferenceable(1) %"struct.std::default_delete"* @_ZSt12__get_helperILm1ESt14default_deleteINSt6thread6_StateEEJEERT0_RSt11_Tuple_implIXT_EJS4_DpT1_EE(%"struct.std::_Tuple_impl.1"* dereferenceable(1) %4) #3, !dbg !4106
  ret %"struct.std::default_delete"* %5, !dbg !4107
}

; Function Attrs: nounwind uwtable
define linkonce_odr dereferenceable(1) %"struct.std::default_delete"* @_ZSt12__get_helperILm1ESt14default_deleteINSt6thread6_StateEEJEERT0_RSt11_Tuple_implIXT_EJS4_DpT1_EE(%"struct.std::_Tuple_impl.1"* dereferenceable(1)) #4 comdat !dbg !4108 {
  %2 = alloca %"struct.std::_Tuple_impl.1"*, align 8
  store %"struct.std::_Tuple_impl.1"* %0, %"struct.std::_Tuple_impl.1"** %2, align 8
  call void @llvm.dbg.declare(metadata %"struct.std::_Tuple_impl.1"** %2, metadata !4110, metadata !2775), !dbg !4111
  %3 = load %"struct.std::_Tuple_impl.1"*, %"struct.std::_Tuple_impl.1"** %2, align 8, !dbg !4112
  %4 = call dereferenceable(1) %"struct.std::default_delete"* @_ZNSt11_Tuple_implILm1EJSt14default_deleteINSt6thread6_StateEEEE7_M_headERS4_(%"struct.std::_Tuple_impl.1"* dereferenceable(1) %3) #3, !dbg !4113
  ret %"struct.std::default_delete"* %4, !dbg !4114
}

; Function Attrs: nounwind uwtable
define linkonce_odr dereferenceable(1) %"struct.std::default_delete"* @_ZNSt11_Tuple_implILm1EJSt14default_deleteINSt6thread6_StateEEEE7_M_headERS4_(%"struct.std::_Tuple_impl.1"* dereferenceable(1)) #4 comdat align 2 !dbg !4115 {
  %2 = alloca %"struct.std::_Tuple_impl.1"*, align 8
  store %"struct.std::_Tuple_impl.1"* %0, %"struct.std::_Tuple_impl.1"** %2, align 8
  call void @llvm.dbg.declare(metadata %"struct.std::_Tuple_impl.1"** %2, metadata !4116, metadata !2775), !dbg !4117
  %3 = load %"struct.std::_Tuple_impl.1"*, %"struct.std::_Tuple_impl.1"** %2, align 8, !dbg !4118
  %4 = bitcast %"struct.std::_Tuple_impl.1"* %3 to %"struct.std::_Head_base"*, !dbg !4118
  %5 = call dereferenceable(1) %"struct.std::default_delete"* @_ZNSt10_Head_baseILm1ESt14default_deleteINSt6thread6_StateEELb1EE7_M_headERS4_(%"struct.std::_Head_base"* dereferenceable(1) %4) #3, !dbg !4119
  ret %"struct.std::default_delete"* %5, !dbg !4120
}

; Function Attrs: nounwind uwtable
define linkonce_odr dereferenceable(1) %"struct.std::default_delete"* @_ZNSt10_Head_baseILm1ESt14default_deleteINSt6thread6_StateEELb1EE7_M_headERS4_(%"struct.std::_Head_base"* dereferenceable(1)) #4 comdat align 2 !dbg !4121 {
  %2 = alloca %"struct.std::_Head_base"*, align 8
  store %"struct.std::_Head_base"* %0, %"struct.std::_Head_base"** %2, align 8
  call void @llvm.dbg.declare(metadata %"struct.std::_Head_base"** %2, metadata !4122, metadata !2775), !dbg !4123
  %3 = load %"struct.std::_Head_base"*, %"struct.std::_Head_base"** %2, align 8, !dbg !4124
  %4 = bitcast %"struct.std::_Head_base"* %3 to %"struct.std::default_delete"*, !dbg !4124
  ret %"struct.std::default_delete"* %4, !dbg !4125
}

; Function Attrs: noreturn nounwind
declare void @__assert_fail(i8*, i8*, i32, i8*) #8

; Function Attrs: uwtable
define linkonce_odr void @_ZN9IrsThreadclIJMN7lamport7Thread1EFvvEPS2_EEEvDpOT_(%class.IrsThread*, { i64, i64 }* dereferenceable(16), %"class.lamport::Thread1"** dereferenceable(8)) #0 comdat align 2 !dbg !4126 {
  %4 = alloca %class.IrsThread*, align 8
  %5 = alloca { i64, i64 }*, align 8
  %6 = alloca %"class.lamport::Thread1"**, align 8
  %7 = alloca %"class.std::thread", align 8
  store %class.IrsThread* %0, %class.IrsThread** %4, align 8
  call void @llvm.dbg.declare(metadata %class.IrsThread** %4, metadata !4135, metadata !2775), !dbg !4136
  store { i64, i64 }* %1, { i64, i64 }** %5, align 8
  call void @llvm.dbg.declare(metadata { i64, i64 }** %5, metadata !4137, metadata !2775), !dbg !4138
  store %"class.lamport::Thread1"** %2, %"class.lamport::Thread1"*** %6, align 8
  call void @llvm.dbg.declare(metadata %"class.lamport::Thread1"*** %6, metadata !4139, metadata !2775), !dbg !4138
  %8 = load %class.IrsThread*, %class.IrsThread** %4, align 8
  %9 = getelementptr inbounds %class.IrsThread, %class.IrsThread* %8, i32 0, i32 0, !dbg !4140
  %10 = load { i64, i64 }*, { i64, i64 }** %5, align 8, !dbg !4141
  %11 = call dereferenceable(16) { i64, i64 }* @_ZSt7forwardIMN7lamport7Thread1EFvvEEOT_RNSt16remove_referenceIS4_E4typeE({ i64, i64 }* dereferenceable(16) %10) #3, !dbg !4142
  %12 = load %"class.lamport::Thread1"**, %"class.lamport::Thread1"*** %6, align 8, !dbg !4141
  %13 = call dereferenceable(8) %"class.lamport::Thread1"** @_ZSt7forwardIPN7lamport7Thread1EEOT_RNSt16remove_referenceIS3_E4typeE(%"class.lamport::Thread1"** dereferenceable(8) %12) #3, !dbg !4143
  call void @_ZNSt6threadC2IMN7lamport7Thread1EFvvEJPS2_EEEOT_DpOT0_(%"class.std::thread"* %7, { i64, i64 }* dereferenceable(16) %11, %"class.lamport::Thread1"** dereferenceable(8) %13), !dbg !4145
  %14 = call dereferenceable(8) %"class.std::thread"* @_ZNSt6threadaSEOS_(%"class.std::thread"* %9, %"class.std::thread"* dereferenceable(8) %7) #3, !dbg !4147
  call void @_ZNSt6threadD2Ev(%"class.std::thread"* %7) #3, !dbg !4149
  ret void, !dbg !4151
}

; Function Attrs: nounwind uwtable
define linkonce_odr void @_ZN7lamport7Thread14thr1Ev(%"class.lamport::Thread1"*) #4 comdat align 2 !dbg !4152 {
  %2 = alloca %"class.lamport::Thread1"*, align 8
  store %"class.lamport::Thread1"* %0, %"class.lamport::Thread1"** %2, align 8
  call void @llvm.dbg.declare(metadata %"class.lamport::Thread1"** %2, metadata !4153, metadata !2775), !dbg !4154
  %3 = load %"class.lamport::Thread1"*, %"class.lamport::Thread1"** %2, align 8
  br label %4, !dbg !4155

; <label>:4:                                      ; preds = %1, %12, %29
  store i32 1, i32* @_ZN7lamport5flag1E, align 4, !dbg !4156
  store i32 2, i32* @_ZN7lamport1xE, align 4, !dbg !4158
  %5 = load i32, i32* @_ZN7lamport1yE, align 4, !dbg !4159
  %6 = icmp ne i32 %5, 0, !dbg !4161
  br i1 %6, label %7, label %13, !dbg !4162

; <label>:7:                                      ; preds = %4
  store i32 0, i32* @_ZN7lamport5flag1E, align 4, !dbg !4163
  br label %8, !dbg !4165

; <label>:8:                                      ; preds = %11, %7
  %9 = load i32, i32* @_ZN7lamport1yE, align 4, !dbg !4166
  %10 = icmp ne i32 %9, 0, !dbg !4168
  br i1 %10, label %11, label %12, !dbg !4169

; <label>:11:                                     ; preds = %8
  br label %8, !dbg !4170, !llvm.loop !4172

; <label>:12:                                     ; preds = %8
  br label %4, !dbg !4173, !llvm.loop !4174

; <label>:13:                                     ; preds = %4
  store i32 2, i32* @_ZN7lamport1yE, align 4, !dbg !4175
  %14 = load i32, i32* @_ZN7lamport1xE, align 4, !dbg !4176
  %15 = icmp ne i32 %14, 2, !dbg !4178
  br i1 %15, label %16, label %31, !dbg !4179

; <label>:16:                                     ; preds = %13
  store i32 0, i32* @_ZN7lamport5flag1E, align 4, !dbg !4180
  br label %17, !dbg !4182

; <label>:17:                                     ; preds = %20, %16
  %18 = load i32, i32* @_ZN7lamport5flag0E, align 4, !dbg !4183
  %19 = icmp sge i32 %18, 1, !dbg !4185
  br i1 %19, label %20, label %21, !dbg !4186

; <label>:20:                                     ; preds = %17
  br label %17, !dbg !4187, !llvm.loop !4189

; <label>:21:                                     ; preds = %17
  %22 = load i32, i32* @_ZN7lamport1yE, align 4, !dbg !4190
  %23 = icmp ne i32 %22, 2, !dbg !4192
  br i1 %23, label %24, label %30, !dbg !4193

; <label>:24:                                     ; preds = %21
  br label %25, !dbg !4194

; <label>:25:                                     ; preds = %28, %24
  %26 = load i32, i32* @_ZN7lamport1yE, align 4, !dbg !4196
  %27 = icmp ne i32 %26, 0, !dbg !4198
  br i1 %27, label %28, label %29, !dbg !4199

; <label>:28:                                     ; preds = %25
  br label %25, !dbg !4200, !llvm.loop !4202

; <label>:29:                                     ; preds = %25
  br label %4, !dbg !4203, !llvm.loop !4174

; <label>:30:                                     ; preds = %21
  br label %31, !dbg !4204

; <label>:31:                                     ; preds = %30, %13
  br label %32, !dbg !4205

; <label>:32:                                     ; preds = %31
  store i32 1, i32* @_ZN7lamport1XE, align 4, !dbg !4206
  %33 = load i32, i32* @_ZN7lamport1XE, align 4, !dbg !4207
  %34 = icmp sge i32 %33, 1, !dbg !4207
  br i1 %34, label %35, label %36, !dbg !4207

; <label>:35:                                     ; preds = %32
  br label %38, !dbg !4208

; <label>:36:                                     ; preds = %32
  call void @__assert_fail(i8* getelementptr inbounds ([7 x i8], [7 x i8]* @.str.10, i32 0, i32 0), i8* getelementptr inbounds ([106 x i8], [106 x i8]* @.str.9, i32 0, i32 0), i32 94, i8* getelementptr inbounds ([30 x i8], [30 x i8]* @__PRETTY_FUNCTION__._ZN7lamport7Thread14thr1Ev, i32 0, i32 0)) #14, !dbg !4210
  unreachable, !dbg !4210
                                                  ; No predecessors!
  br label %38, !dbg !4212

; <label>:38:                                     ; preds = %37, %35
  store i32 0, i32* @_ZN7lamport1yE, align 4, !dbg !4214
  store i32 0, i32* @_ZN7lamport5flag1E, align 4, !dbg !4215
  ret void, !dbg !4216
}

; Function Attrs: nounwind uwtable
define linkonce_odr dereferenceable(16) { i64, i64 }* @_ZSt7forwardIMN7lamport7Thread1EFvvEEOT_RNSt16remove_referenceIS4_E4typeE({ i64, i64 }* dereferenceable(16)) #4 comdat !dbg !4217 {
  %2 = alloca { i64, i64 }*, align 8
  store { i64, i64 }* %0, { i64, i64 }** %2, align 8
  call void @llvm.dbg.declare(metadata { i64, i64 }** %2, metadata !4223, metadata !2775), !dbg !4224
  %3 = load { i64, i64 }*, { i64, i64 }** %2, align 8, !dbg !4225
  ret { i64, i64 }* %3, !dbg !4226
}

; Function Attrs: nounwind uwtable
define linkonce_odr dereferenceable(8) %"class.lamport::Thread1"** @_ZSt7forwardIPN7lamport7Thread1EEOT_RNSt16remove_referenceIS3_E4typeE(%"class.lamport::Thread1"** dereferenceable(8)) #4 comdat !dbg !4227 {
  %2 = alloca %"class.lamport::Thread1"**, align 8
  store %"class.lamport::Thread1"** %0, %"class.lamport::Thread1"*** %2, align 8
  call void @llvm.dbg.declare(metadata %"class.lamport::Thread1"*** %2, metadata !4235, metadata !2775), !dbg !4236
  %3 = load %"class.lamport::Thread1"**, %"class.lamport::Thread1"*** %2, align 8, !dbg !4237
  ret %"class.lamport::Thread1"** %3, !dbg !4238
}

; Function Attrs: uwtable
define linkonce_odr void @_ZNSt6threadC2IMN7lamport7Thread1EFvvEJPS2_EEEOT_DpOT0_(%"class.std::thread"*, { i64, i64 }* dereferenceable(16), %"class.lamport::Thread1"** dereferenceable(8)) unnamed_addr #0 comdat align 2 personality i8* bitcast (i32 (...)* @__gxx_personality_v0 to i8*) !dbg !4239 {
  %4 = alloca %"class.std::thread"*, align 8
  %5 = alloca { i64, i64 }*, align 8
  %6 = alloca %"class.lamport::Thread1"**, align 8
  %7 = alloca void ()*, align 8
  %8 = alloca %"class.std::unique_ptr", align 8
  %9 = alloca %"struct.std::_Bind_simple.8", align 8
  %10 = alloca i8*
  %11 = alloca i32
  store %"class.std::thread"* %0, %"class.std::thread"** %4, align 8
  call void @llvm.dbg.declare(metadata %"class.std::thread"** %4, metadata !4245, metadata !2775), !dbg !4246
  store { i64, i64 }* %1, { i64, i64 }** %5, align 8
  call void @llvm.dbg.declare(metadata { i64, i64 }** %5, metadata !4247, metadata !2775), !dbg !4248
  store %"class.lamport::Thread1"** %2, %"class.lamport::Thread1"*** %6, align 8
  call void @llvm.dbg.declare(metadata %"class.lamport::Thread1"*** %6, metadata !4249, metadata !2775), !dbg !4250
  %12 = load %"class.std::thread"*, %"class.std::thread"** %4, align 8
  %13 = getelementptr inbounds %"class.std::thread", %"class.std::thread"* %12, i32 0, i32 0, !dbg !4251
  call void @_ZNSt6thread2idC2Ev(%"class.std::thread::id"* %13) #3, !dbg !4251
  call void @llvm.dbg.declare(metadata void ()** %7, metadata !4252, metadata !2775), !dbg !4254
  store void ()* bitcast (i32 (i64*, %union.pthread_attr_t*, i8* (i8*)*, i8*)* @pthread_create to void ()*), void ()** %7, align 8, !dbg !4254
  %14 = load { i64, i64 }*, { i64, i64 }** %5, align 8, !dbg !4255
  %15 = call dereferenceable(16) { i64, i64 }* @_ZSt7forwardIMN7lamport7Thread1EFvvEEOT_RNSt16remove_referenceIS4_E4typeE({ i64, i64 }* dereferenceable(16) %14) #3, !dbg !4256
  %16 = load %"class.lamport::Thread1"**, %"class.lamport::Thread1"*** %6, align 8, !dbg !4257
  %17 = call dereferenceable(8) %"class.lamport::Thread1"** @_ZSt7forwardIPN7lamport7Thread1EEOT_RNSt16remove_referenceIS3_E4typeE(%"class.lamport::Thread1"** dereferenceable(8) %16) #3, !dbg !4258
  call void @_ZSt13__bind_simpleIMN7lamport7Thread1EFvvEJPS1_EENSt19_Bind_simple_helperIT_JDpT0_EE6__typeEOS6_DpOS7_(%"struct.std::_Bind_simple.8"* sret %9, { i64, i64 }* dereferenceable(16) %15, %"class.lamport::Thread1"** dereferenceable(8) %17), !dbg !4259
  call void @_ZNSt6thread13_S_make_stateISt12_Bind_simpleIFSt7_Mem_fnIMN7lamport7Thread1EFvvEEPS4_EEEESt10unique_ptrINS_6_StateESt14default_deleteISC_EEOT_(%"class.std::unique_ptr"* sret %8, %"struct.std::_Bind_simple.8"* dereferenceable(24) %9), !dbg !4261
  %18 = load void ()*, void ()** %7, align 8, !dbg !4262
  invoke void @_ZNSt6thread15_M_start_threadESt10unique_ptrINS_6_StateESt14default_deleteIS1_EEPFvvE(%"class.std::thread"* %12, %"class.std::unique_ptr"* %8, void ()* %18)
          to label %19 unwind label %20, !dbg !4263

; <label>:19:                                     ; preds = %3
  call void @_ZNSt10unique_ptrINSt6thread6_StateESt14default_deleteIS1_EED2Ev(%"class.std::unique_ptr"* %8) #3, !dbg !4264
  ret void, !dbg !4265

; <label>:20:                                     ; preds = %3
  %21 = landingpad { i8*, i32 }
          cleanup, !dbg !4266
  %22 = extractvalue { i8*, i32 } %21, 0, !dbg !4266
  store i8* %22, i8** %10, align 8, !dbg !4266
  %23 = extractvalue { i8*, i32 } %21, 1, !dbg !4266
  store i32 %23, i32* %11, align 4, !dbg !4266
  call void @_ZNSt10unique_ptrINSt6thread6_StateESt14default_deleteIS1_EED2Ev(%"class.std::unique_ptr"* %8) #3, !dbg !4267
  br label %24, !dbg !4267

; <label>:24:                                     ; preds = %20
  %25 = load i8*, i8** %10, align 8, !dbg !4269
  %26 = load i32, i32* %11, align 4, !dbg !4269
  %27 = insertvalue { i8*, i32 } undef, i8* %25, 0, !dbg !4269
  %28 = insertvalue { i8*, i32 } %27, i32 %26, 1, !dbg !4269
  resume { i8*, i32 } %28, !dbg !4269
}

; Function Attrs: uwtable
define linkonce_odr void @_ZNSt6thread13_S_make_stateISt12_Bind_simpleIFSt7_Mem_fnIMN7lamport7Thread1EFvvEEPS4_EEEESt10unique_ptrINS_6_StateESt14default_deleteISC_EEOT_(%"class.std::unique_ptr"* noalias sret, %"struct.std::_Bind_simple.8"* dereferenceable(24)) #0 comdat align 2 personality i8* bitcast (i32 (...)* @__gxx_personality_v0 to i8*) !dbg !4271 {
  %3 = alloca %"struct.std::_Bind_simple.8"*, align 8
  %4 = alloca i8*
  %5 = alloca i32
  store %"struct.std::_Bind_simple.8"* %1, %"struct.std::_Bind_simple.8"** %3, align 8
  call void @llvm.dbg.declare(metadata %"struct.std::_Bind_simple.8"** %3, metadata !4477, metadata !2775), !dbg !4478
  %6 = call i8* @_Znwm(i64 32) #15, !dbg !4479
  %7 = bitcast i8* %6 to %"struct.std::thread::_State_impl.18"*, !dbg !4479
  %8 = load %"struct.std::_Bind_simple.8"*, %"struct.std::_Bind_simple.8"** %3, align 8, !dbg !4480
  %9 = call dereferenceable(24) %"struct.std::_Bind_simple.8"* @_ZSt7forwardISt12_Bind_simpleIFSt7_Mem_fnIMN7lamport7Thread1EFvvEEPS3_EEEOT_RNSt16remove_referenceISA_E4typeE(%"struct.std::_Bind_simple.8"* dereferenceable(24) %8) #3, !dbg !4481
  invoke void @_ZNSt6thread11_State_implISt12_Bind_simpleIFSt7_Mem_fnIMN7lamport7Thread1EFvvEEPS4_EEEC2EOSA_(%"struct.std::thread::_State_impl.18"* %7, %"struct.std::_Bind_simple.8"* dereferenceable(24) %9)
          to label %10 unwind label %12, !dbg !4483

; <label>:10:                                     ; preds = %2
  %11 = bitcast %"struct.std::thread::_State_impl.18"* %7 to %"struct.std::thread::_State"*, !dbg !4484
  call void @_ZNSt10unique_ptrINSt6thread6_StateESt14default_deleteIS1_EEC2EPS1_(%"class.std::unique_ptr"* %0, %"struct.std::thread::_State"* %11) #3, !dbg !4486
  ret void, !dbg !4487

; <label>:12:                                     ; preds = %2
  %13 = landingpad { i8*, i32 }
          cleanup, !dbg !4488
  %14 = extractvalue { i8*, i32 } %13, 0, !dbg !4488
  store i8* %14, i8** %4, align 8, !dbg !4488
  %15 = extractvalue { i8*, i32 } %13, 1, !dbg !4488
  store i32 %15, i32* %5, align 4, !dbg !4488
  call void @_ZdlPv(i8* %6) #16, !dbg !4489
  br label %16, !dbg !4489

; <label>:16:                                     ; preds = %12
  %17 = load i8*, i8** %4, align 8, !dbg !4491
  %18 = load i32, i32* %5, align 4, !dbg !4491
  %19 = insertvalue { i8*, i32 } undef, i8* %17, 0, !dbg !4491
  %20 = insertvalue { i8*, i32 } %19, i32 %18, 1, !dbg !4491
  resume { i8*, i32 } %20, !dbg !4491
}

; Function Attrs: uwtable
define linkonce_odr void @_ZSt13__bind_simpleIMN7lamport7Thread1EFvvEJPS1_EENSt19_Bind_simple_helperIT_JDpT0_EE6__typeEOS6_DpOS7_(%"struct.std::_Bind_simple.8"* noalias sret, { i64, i64 }* dereferenceable(16), %"class.lamport::Thread1"** dereferenceable(8)) #0 comdat !dbg !4493 {
  %4 = alloca { i64, i64 }*, align 8
  %5 = alloca %"class.lamport::Thread1"**, align 8
  %6 = alloca %"struct.std::_Mem_fn.14", align 8
  %7 = alloca { i64, i64 }, align 8
  store { i64, i64 }* %1, { i64, i64 }** %4, align 8
  call void @llvm.dbg.declare(metadata { i64, i64 }** %4, metadata !4504, metadata !2775), !dbg !4505
  store %"class.lamport::Thread1"** %2, %"class.lamport::Thread1"*** %5, align 8
  call void @llvm.dbg.declare(metadata %"class.lamport::Thread1"*** %5, metadata !4506, metadata !2775), !dbg !4507
  %8 = load { i64, i64 }*, { i64, i64 }** %4, align 8, !dbg !4508
  %9 = call dereferenceable(16) { i64, i64 }* @_ZSt7forwardIMN7lamport7Thread1EFvvEEOT_RNSt16remove_referenceIS4_E4typeE({ i64, i64 }* dereferenceable(16) %8) #3, !dbg !4509
  %10 = load { i64, i64 }, { i64, i64 }* %9, align 8, !dbg !4509
  store { i64, i64 } %10, { i64, i64 }* %7, align 8, !dbg !4510
  %11 = getelementptr inbounds { i64, i64 }, { i64, i64 }* %7, i32 0, i32 0, !dbg !4510
  %12 = load i64, i64* %11, align 8, !dbg !4510
  %13 = getelementptr inbounds { i64, i64 }, { i64, i64 }* %7, i32 0, i32 1, !dbg !4510
  %14 = load i64, i64* %13, align 8, !dbg !4510
  %15 = call { i64, i64 } @_ZNSt26_Maybe_wrap_member_pointerIMN7lamport7Thread1EFvvEE9__do_wrapES3_(i64 %12, i64 %14), !dbg !4511
  %16 = getelementptr inbounds %"struct.std::_Mem_fn.14", %"struct.std::_Mem_fn.14"* %6, i32 0, i32 0, !dbg !4510
  %17 = getelementptr inbounds %"class.std::_Mem_fn_base.15", %"class.std::_Mem_fn_base.15"* %16, i32 0, i32 0, !dbg !4510
  %18 = getelementptr inbounds { i64, i64 }, { i64, i64 }* %17, i32 0, i32 0, !dbg !4510
  %19 = extractvalue { i64, i64 } %15, 0, !dbg !4510
  store i64 %19, i64* %18, align 8, !dbg !4510
  %20 = getelementptr inbounds { i64, i64 }, { i64, i64 }* %17, i32 0, i32 1, !dbg !4510
  %21 = extractvalue { i64, i64 } %15, 1, !dbg !4510
  store i64 %21, i64* %20, align 8, !dbg !4510
  %22 = load %"class.lamport::Thread1"**, %"class.lamport::Thread1"*** %5, align 8, !dbg !4513
  %23 = call dereferenceable(8) %"class.lamport::Thread1"** @_ZSt7forwardIPN7lamport7Thread1EEOT_RNSt16remove_referenceIS3_E4typeE(%"class.lamport::Thread1"** dereferenceable(8) %22) #3, !dbg !4514
  call void @_ZNSt12_Bind_simpleIFSt7_Mem_fnIMN7lamport7Thread1EFvvEEPS2_EEC2IS5_JS6_EEEOT_DpOT0_(%"struct.std::_Bind_simple.8"* %0, %"struct.std::_Mem_fn.14"* dereferenceable(16) %6, %"class.lamport::Thread1"** dereferenceable(8) %23), !dbg !4515
  ret void, !dbg !4516
}

; Function Attrs: nounwind uwtable
define linkonce_odr dereferenceable(24) %"struct.std::_Bind_simple.8"* @_ZSt7forwardISt12_Bind_simpleIFSt7_Mem_fnIMN7lamport7Thread1EFvvEEPS3_EEEOT_RNSt16remove_referenceISA_E4typeE(%"struct.std::_Bind_simple.8"* dereferenceable(24)) #4 comdat !dbg !4517 {
  %2 = alloca %"struct.std::_Bind_simple.8"*, align 8
  store %"struct.std::_Bind_simple.8"* %0, %"struct.std::_Bind_simple.8"** %2, align 8
  call void @llvm.dbg.declare(metadata %"struct.std::_Bind_simple.8"** %2, metadata !4525, metadata !2775), !dbg !4526
  %3 = load %"struct.std::_Bind_simple.8"*, %"struct.std::_Bind_simple.8"** %2, align 8, !dbg !4527
  ret %"struct.std::_Bind_simple.8"* %3, !dbg !4528
}

; Function Attrs: nounwind uwtable
define linkonce_odr void @_ZNSt6thread11_State_implISt12_Bind_simpleIFSt7_Mem_fnIMN7lamport7Thread1EFvvEEPS4_EEEC2EOSA_(%"struct.std::thread::_State_impl.18"*, %"struct.std::_Bind_simple.8"* dereferenceable(24)) unnamed_addr #4 comdat align 2 !dbg !4529 {
  %3 = alloca %"struct.std::thread::_State_impl.18"*, align 8
  %4 = alloca %"struct.std::_Bind_simple.8"*, align 8
  store %"struct.std::thread::_State_impl.18"* %0, %"struct.std::thread::_State_impl.18"** %3, align 8
  call void @llvm.dbg.declare(metadata %"struct.std::thread::_State_impl.18"** %3, metadata !4541, metadata !2775), !dbg !4543
  store %"struct.std::_Bind_simple.8"* %1, %"struct.std::_Bind_simple.8"** %4, align 8
  call void @llvm.dbg.declare(metadata %"struct.std::_Bind_simple.8"** %4, metadata !4544, metadata !2775), !dbg !4545
  %5 = load %"struct.std::thread::_State_impl.18"*, %"struct.std::thread::_State_impl.18"** %3, align 8
  %6 = bitcast %"struct.std::thread::_State_impl.18"* %5 to %"struct.std::thread::_State"*, !dbg !4546
  call void @_ZNSt6thread6_StateC2Ev(%"struct.std::thread::_State"* %6) #3, !dbg !4547
  %7 = bitcast %"struct.std::thread::_State_impl.18"* %5 to i32 (...)***, !dbg !4546
  store i32 (...)** bitcast (i8** getelementptr inbounds ([5 x i8*], [5 x i8*]* @_ZTVNSt6thread11_State_implISt12_Bind_simpleIFSt7_Mem_fnIMN7lamport7Thread1EFvvEEPS4_EEEE, i32 0, i32 2) to i32 (...)**), i32 (...)*** %7, align 8, !dbg !4546
  %8 = getelementptr inbounds %"struct.std::thread::_State_impl.18", %"struct.std::thread::_State_impl.18"* %5, i32 0, i32 1, !dbg !4548
  %9 = load %"struct.std::_Bind_simple.8"*, %"struct.std::_Bind_simple.8"** %4, align 8, !dbg !4549
  %10 = call dereferenceable(24) %"struct.std::_Bind_simple.8"* @_ZSt7forwardISt12_Bind_simpleIFSt7_Mem_fnIMN7lamport7Thread1EFvvEEPS3_EEEOT_RNSt16remove_referenceISA_E4typeE(%"struct.std::_Bind_simple.8"* dereferenceable(24) %9) #3, !dbg !4550
  call void @_ZNSt12_Bind_simpleIFSt7_Mem_fnIMN7lamport7Thread1EFvvEEPS2_EEC2EOS8_(%"struct.std::_Bind_simple.8"* %8, %"struct.std::_Bind_simple.8"* dereferenceable(24) %10) #3, !dbg !4552
  ret void, !dbg !4554
}

; Function Attrs: nounwind uwtable
define linkonce_odr void @_ZNSt12_Bind_simpleIFSt7_Mem_fnIMN7lamport7Thread1EFvvEEPS2_EEC2EOS8_(%"struct.std::_Bind_simple.8"*, %"struct.std::_Bind_simple.8"* dereferenceable(24)) unnamed_addr #4 comdat align 2 !dbg !4555 {
  %3 = alloca %"struct.std::_Bind_simple.8"*, align 8
  %4 = alloca %"struct.std::_Bind_simple.8"*, align 8
  store %"struct.std::_Bind_simple.8"* %0, %"struct.std::_Bind_simple.8"** %3, align 8
  call void @llvm.dbg.declare(metadata %"struct.std::_Bind_simple.8"** %3, metadata !4556, metadata !2775), !dbg !4558
  store %"struct.std::_Bind_simple.8"* %1, %"struct.std::_Bind_simple.8"** %4, align 8
  call void @llvm.dbg.declare(metadata %"struct.std::_Bind_simple.8"** %4, metadata !4559, metadata !2775), !dbg !4560
  %5 = load %"struct.std::_Bind_simple.8"*, %"struct.std::_Bind_simple.8"** %3, align 8
  %6 = getelementptr inbounds %"struct.std::_Bind_simple.8", %"struct.std::_Bind_simple.8"* %5, i32 0, i32 0, !dbg !4561
  %7 = load %"struct.std::_Bind_simple.8"*, %"struct.std::_Bind_simple.8"** %4, align 8, !dbg !4561
  %8 = getelementptr inbounds %"struct.std::_Bind_simple.8", %"struct.std::_Bind_simple.8"* %7, i32 0, i32 0, !dbg !4561
  call void @_ZNSt5tupleIJSt7_Mem_fnIMN7lamport7Thread1EFvvEEPS2_EEC2EOS7_(%"class.std::tuple.9"* %6, %"class.std::tuple.9"* dereferenceable(24) %8) #3, !dbg !4561
  ret void, !dbg !4561
}

; Function Attrs: inlinehint nounwind uwtable
define linkonce_odr void @_ZNSt6thread11_State_implISt12_Bind_simpleIFSt7_Mem_fnIMN7lamport7Thread1EFvvEEPS4_EEED2Ev(%"struct.std::thread::_State_impl.18"*) unnamed_addr #7 comdat align 2 !dbg !4562 {
  %2 = alloca %"struct.std::thread::_State_impl.18"*, align 8
  store %"struct.std::thread::_State_impl.18"* %0, %"struct.std::thread::_State_impl.18"** %2, align 8
  call void @llvm.dbg.declare(metadata %"struct.std::thread::_State_impl.18"** %2, metadata !4564, metadata !2775), !dbg !4565
  %3 = load %"struct.std::thread::_State_impl.18"*, %"struct.std::thread::_State_impl.18"** %2, align 8
  %4 = bitcast %"struct.std::thread::_State_impl.18"* %3 to %"struct.std::thread::_State"*, !dbg !4566
  call void @_ZNSt6thread6_StateD2Ev(%"struct.std::thread::_State"* %4) #3, !dbg !4566
  ret void, !dbg !4568
}

; Function Attrs: inlinehint nounwind uwtable
define linkonce_odr void @_ZNSt6thread11_State_implISt12_Bind_simpleIFSt7_Mem_fnIMN7lamport7Thread1EFvvEEPS4_EEED0Ev(%"struct.std::thread::_State_impl.18"*) unnamed_addr #7 comdat align 2 !dbg !4569 {
  %2 = alloca %"struct.std::thread::_State_impl.18"*, align 8
  store %"struct.std::thread::_State_impl.18"* %0, %"struct.std::thread::_State_impl.18"** %2, align 8
  call void @llvm.dbg.declare(metadata %"struct.std::thread::_State_impl.18"** %2, metadata !4570, metadata !2775), !dbg !4571
  %3 = load %"struct.std::thread::_State_impl.18"*, %"struct.std::thread::_State_impl.18"** %2, align 8
  call void @_ZNSt6thread11_State_implISt12_Bind_simpleIFSt7_Mem_fnIMN7lamport7Thread1EFvvEEPS4_EEED2Ev(%"struct.std::thread::_State_impl.18"* %3) #3, !dbg !4572
  %4 = bitcast %"struct.std::thread::_State_impl.18"* %3 to i8*, !dbg !4572
  call void @_ZdlPv(i8* %4) #16, !dbg !4573
  ret void, !dbg !4572
}

; Function Attrs: uwtable
define linkonce_odr void @_ZNSt6thread11_State_implISt12_Bind_simpleIFSt7_Mem_fnIMN7lamport7Thread1EFvvEEPS4_EEE6_M_runEv(%"struct.std::thread::_State_impl.18"*) unnamed_addr #0 comdat align 2 !dbg !4575 {
  %2 = alloca %"struct.std::thread::_State_impl.18"*, align 8
  store %"struct.std::thread::_State_impl.18"* %0, %"struct.std::thread::_State_impl.18"** %2, align 8
  call void @llvm.dbg.declare(metadata %"struct.std::thread::_State_impl.18"** %2, metadata !4576, metadata !2775), !dbg !4577
  %3 = load %"struct.std::thread::_State_impl.18"*, %"struct.std::thread::_State_impl.18"** %2, align 8
  %4 = getelementptr inbounds %"struct.std::thread::_State_impl.18", %"struct.std::thread::_State_impl.18"* %3, i32 0, i32 1, !dbg !4578
  call void @_ZNSt12_Bind_simpleIFSt7_Mem_fnIMN7lamport7Thread1EFvvEEPS2_EEclEv(%"struct.std::_Bind_simple.8"* %4), !dbg !4578
  ret void, !dbg !4579
}

; Function Attrs: nounwind uwtable
define linkonce_odr void @_ZNSt5tupleIJSt7_Mem_fnIMN7lamport7Thread1EFvvEEPS2_EEC2EOS7_(%"class.std::tuple.9"*, %"class.std::tuple.9"* dereferenceable(24)) unnamed_addr #4 comdat align 2 !dbg !4580 {
  %3 = alloca %"class.std::tuple.9"*, align 8
  %4 = alloca %"class.std::tuple.9"*, align 8
  store %"class.std::tuple.9"* %0, %"class.std::tuple.9"** %3, align 8
  call void @llvm.dbg.declare(metadata %"class.std::tuple.9"** %3, metadata !4581, metadata !2775), !dbg !4583
  store %"class.std::tuple.9"* %1, %"class.std::tuple.9"** %4, align 8
  call void @llvm.dbg.declare(metadata %"class.std::tuple.9"** %4, metadata !4584, metadata !2775), !dbg !4585
  %5 = load %"class.std::tuple.9"*, %"class.std::tuple.9"** %3, align 8
  %6 = bitcast %"class.std::tuple.9"* %5 to %"struct.std::_Tuple_impl.10"*, !dbg !4586
  %7 = load %"class.std::tuple.9"*, %"class.std::tuple.9"** %4, align 8, !dbg !4586
  %8 = bitcast %"class.std::tuple.9"* %7 to %"struct.std::_Tuple_impl.10"*, !dbg !4586
  call void @_ZNSt11_Tuple_implILm0EJSt7_Mem_fnIMN7lamport7Thread1EFvvEEPS2_EEC2EOS7_(%"struct.std::_Tuple_impl.10"* %6, %"struct.std::_Tuple_impl.10"* dereferenceable(24) %8) #3, !dbg !4586
  ret void, !dbg !4586
}

; Function Attrs: nounwind uwtable
define linkonce_odr void @_ZNSt11_Tuple_implILm0EJSt7_Mem_fnIMN7lamport7Thread1EFvvEEPS2_EEC2EOS7_(%"struct.std::_Tuple_impl.10"*, %"struct.std::_Tuple_impl.10"* dereferenceable(24)) unnamed_addr #4 comdat align 2 personality i8* bitcast (i32 (...)* @__gxx_personality_v0 to i8*) !dbg !4587 {
  %3 = alloca %"struct.std::_Tuple_impl.10"*, align 8
  %4 = alloca %"struct.std::_Tuple_impl.10"*, align 8
  store %"struct.std::_Tuple_impl.10"* %0, %"struct.std::_Tuple_impl.10"** %3, align 8
  call void @llvm.dbg.declare(metadata %"struct.std::_Tuple_impl.10"** %3, metadata !4588, metadata !2775), !dbg !4590
  store %"struct.std::_Tuple_impl.10"* %1, %"struct.std::_Tuple_impl.10"** %4, align 8
  call void @llvm.dbg.declare(metadata %"struct.std::_Tuple_impl.10"** %4, metadata !4591, metadata !2775), !dbg !4592
  %5 = load %"struct.std::_Tuple_impl.10"*, %"struct.std::_Tuple_impl.10"** %3, align 8
  %6 = bitcast %"struct.std::_Tuple_impl.10"* %5 to %"struct.std::_Tuple_impl.11"*, !dbg !4593
  %7 = load %"struct.std::_Tuple_impl.10"*, %"struct.std::_Tuple_impl.10"** %4, align 8, !dbg !4594
  %8 = call dereferenceable(8) %"struct.std::_Tuple_impl.11"* @_ZNSt11_Tuple_implILm0EJSt7_Mem_fnIMN7lamport7Thread1EFvvEEPS2_EE7_M_tailERS7_(%"struct.std::_Tuple_impl.10"* dereferenceable(24) %7) #3, !dbg !4595
  %9 = call dereferenceable(8) %"struct.std::_Tuple_impl.11"* @_ZSt4moveIRSt11_Tuple_implILm1EJPN7lamport7Thread1EEEEONSt16remove_referenceIT_E4typeEOS7_(%"struct.std::_Tuple_impl.11"* dereferenceable(8) %8) #3, !dbg !4596
  call void @_ZNSt11_Tuple_implILm1EJPN7lamport7Thread1EEEC2EOS3_(%"struct.std::_Tuple_impl.11"* %6, %"struct.std::_Tuple_impl.11"* dereferenceable(8) %9) #3, !dbg !4598
  %10 = bitcast %"struct.std::_Tuple_impl.10"* %5 to i8*, !dbg !4593
  %11 = getelementptr inbounds i8, i8* %10, i64 8, !dbg !4593
  %12 = bitcast i8* %11 to %"struct.std::_Head_base.13"*, !dbg !4593
  %13 = load %"struct.std::_Tuple_impl.10"*, %"struct.std::_Tuple_impl.10"** %4, align 8, !dbg !4600
  %14 = call dereferenceable(16) %"struct.std::_Mem_fn.14"* @_ZNSt11_Tuple_implILm0EJSt7_Mem_fnIMN7lamport7Thread1EFvvEEPS2_EE7_M_headERS7_(%"struct.std::_Tuple_impl.10"* dereferenceable(24) %13) #3, !dbg !4601
  %15 = call dereferenceable(16) %"struct.std::_Mem_fn.14"* @_ZSt7forwardISt7_Mem_fnIMN7lamport7Thread1EFvvEEEOT_RNSt16remove_referenceIS6_E4typeE(%"struct.std::_Mem_fn.14"* dereferenceable(16) %14) #3, !dbg !4602
  invoke void @_ZNSt10_Head_baseILm0ESt7_Mem_fnIMN7lamport7Thread1EFvvEELb0EEC2IS5_EEOT_(%"struct.std::_Head_base.13"* %12, %"struct.std::_Mem_fn.14"* dereferenceable(16) %15)
          to label %16 unwind label %17, !dbg !4604

; <label>:16:                                     ; preds = %2
  ret void, !dbg !4605

; <label>:17:                                     ; preds = %2
  %18 = landingpad { i8*, i32 }
          catch i8* null, !dbg !4606
  %19 = extractvalue { i8*, i32 } %18, 0, !dbg !4606
  call void @__clang_call_terminate(i8* %19) #14, !dbg !4606
  unreachable, !dbg !4606
}

; Function Attrs: nounwind uwtable
define linkonce_odr dereferenceable(8) %"struct.std::_Tuple_impl.11"* @_ZSt4moveIRSt11_Tuple_implILm1EJPN7lamport7Thread1EEEEONSt16remove_referenceIT_E4typeEOS7_(%"struct.std::_Tuple_impl.11"* dereferenceable(8)) #4 comdat !dbg !4607 {
  %2 = alloca %"struct.std::_Tuple_impl.11"*, align 8
  store %"struct.std::_Tuple_impl.11"* %0, %"struct.std::_Tuple_impl.11"** %2, align 8
  call void @llvm.dbg.declare(metadata %"struct.std::_Tuple_impl.11"** %2, metadata !4615, metadata !2775), !dbg !4616
  %3 = load %"struct.std::_Tuple_impl.11"*, %"struct.std::_Tuple_impl.11"** %2, align 8, !dbg !4617
  ret %"struct.std::_Tuple_impl.11"* %3, !dbg !4618
}

; Function Attrs: nounwind uwtable
define linkonce_odr dereferenceable(8) %"struct.std::_Tuple_impl.11"* @_ZNSt11_Tuple_implILm0EJSt7_Mem_fnIMN7lamport7Thread1EFvvEEPS2_EE7_M_tailERS7_(%"struct.std::_Tuple_impl.10"* dereferenceable(24)) #4 comdat align 2 !dbg !4619 {
  %2 = alloca %"struct.std::_Tuple_impl.10"*, align 8
  store %"struct.std::_Tuple_impl.10"* %0, %"struct.std::_Tuple_impl.10"** %2, align 8
  call void @llvm.dbg.declare(metadata %"struct.std::_Tuple_impl.10"** %2, metadata !4620, metadata !2775), !dbg !4621
  %3 = load %"struct.std::_Tuple_impl.10"*, %"struct.std::_Tuple_impl.10"** %2, align 8, !dbg !4622
  %4 = bitcast %"struct.std::_Tuple_impl.10"* %3 to %"struct.std::_Tuple_impl.11"*, !dbg !4622
  ret %"struct.std::_Tuple_impl.11"* %4, !dbg !4623
}

; Function Attrs: nounwind uwtable
define linkonce_odr void @_ZNSt11_Tuple_implILm1EJPN7lamport7Thread1EEEC2EOS3_(%"struct.std::_Tuple_impl.11"*, %"struct.std::_Tuple_impl.11"* dereferenceable(8)) unnamed_addr #4 comdat align 2 personality i8* bitcast (i32 (...)* @__gxx_personality_v0 to i8*) !dbg !4624 {
  %3 = alloca %"struct.std::_Tuple_impl.11"*, align 8
  %4 = alloca %"struct.std::_Tuple_impl.11"*, align 8
  store %"struct.std::_Tuple_impl.11"* %0, %"struct.std::_Tuple_impl.11"** %3, align 8
  call void @llvm.dbg.declare(metadata %"struct.std::_Tuple_impl.11"** %3, metadata !4625, metadata !2775), !dbg !4627
  store %"struct.std::_Tuple_impl.11"* %1, %"struct.std::_Tuple_impl.11"** %4, align 8
  call void @llvm.dbg.declare(metadata %"struct.std::_Tuple_impl.11"** %4, metadata !4628, metadata !2775), !dbg !4629
  %5 = load %"struct.std::_Tuple_impl.11"*, %"struct.std::_Tuple_impl.11"** %3, align 8
  %6 = bitcast %"struct.std::_Tuple_impl.11"* %5 to %"struct.std::_Head_base.12"*, !dbg !4630
  %7 = load %"struct.std::_Tuple_impl.11"*, %"struct.std::_Tuple_impl.11"** %4, align 8, !dbg !4631
  %8 = call dereferenceable(8) %"class.lamport::Thread1"** @_ZNSt11_Tuple_implILm1EJPN7lamport7Thread1EEE7_M_headERS3_(%"struct.std::_Tuple_impl.11"* dereferenceable(8) %7) #3, !dbg !4632
  %9 = call dereferenceable(8) %"class.lamport::Thread1"** @_ZSt7forwardIPN7lamport7Thread1EEOT_RNSt16remove_referenceIS3_E4typeE(%"class.lamport::Thread1"** dereferenceable(8) %8) #3, !dbg !4633
  invoke void @_ZNSt10_Head_baseILm1EPN7lamport7Thread1ELb0EEC2IS2_EEOT_(%"struct.std::_Head_base.12"* %6, %"class.lamport::Thread1"** dereferenceable(8) %9)
          to label %10 unwind label %11, !dbg !4635

; <label>:10:                                     ; preds = %2
  ret void, !dbg !4636

; <label>:11:                                     ; preds = %2
  %12 = landingpad { i8*, i32 }
          catch i8* null, !dbg !4638
  %13 = extractvalue { i8*, i32 } %12, 0, !dbg !4638
  call void @__clang_call_terminate(i8* %13) #14, !dbg !4638
  unreachable, !dbg !4638
}

; Function Attrs: nounwind uwtable
define linkonce_odr dereferenceable(16) %"struct.std::_Mem_fn.14"* @_ZSt7forwardISt7_Mem_fnIMN7lamport7Thread1EFvvEEEOT_RNSt16remove_referenceIS6_E4typeE(%"struct.std::_Mem_fn.14"* dereferenceable(16)) #4 comdat !dbg !4640 {
  %2 = alloca %"struct.std::_Mem_fn.14"*, align 8
  store %"struct.std::_Mem_fn.14"* %0, %"struct.std::_Mem_fn.14"** %2, align 8
  call void @llvm.dbg.declare(metadata %"struct.std::_Mem_fn.14"** %2, metadata !4649, metadata !2775), !dbg !4650
  %3 = load %"struct.std::_Mem_fn.14"*, %"struct.std::_Mem_fn.14"** %2, align 8, !dbg !4651
  ret %"struct.std::_Mem_fn.14"* %3, !dbg !4652
}

; Function Attrs: nounwind uwtable
define linkonce_odr dereferenceable(16) %"struct.std::_Mem_fn.14"* @_ZNSt11_Tuple_implILm0EJSt7_Mem_fnIMN7lamport7Thread1EFvvEEPS2_EE7_M_headERS7_(%"struct.std::_Tuple_impl.10"* dereferenceable(24)) #4 comdat align 2 !dbg !4653 {
  %2 = alloca %"struct.std::_Tuple_impl.10"*, align 8
  store %"struct.std::_Tuple_impl.10"* %0, %"struct.std::_Tuple_impl.10"** %2, align 8
  call void @llvm.dbg.declare(metadata %"struct.std::_Tuple_impl.10"** %2, metadata !4654, metadata !2775), !dbg !4655
  %3 = load %"struct.std::_Tuple_impl.10"*, %"struct.std::_Tuple_impl.10"** %2, align 8, !dbg !4656
  %4 = bitcast %"struct.std::_Tuple_impl.10"* %3 to i8*, !dbg !4656
  %5 = getelementptr inbounds i8, i8* %4, i64 8, !dbg !4656
  %6 = bitcast i8* %5 to %"struct.std::_Head_base.13"*, !dbg !4656
  %7 = call dereferenceable(16) %"struct.std::_Mem_fn.14"* @_ZNSt10_Head_baseILm0ESt7_Mem_fnIMN7lamport7Thread1EFvvEELb0EE7_M_headERS6_(%"struct.std::_Head_base.13"* dereferenceable(16) %6) #3, !dbg !4657
  ret %"struct.std::_Mem_fn.14"* %7, !dbg !4658
}

; Function Attrs: nounwind uwtable
define linkonce_odr void @_ZNSt10_Head_baseILm0ESt7_Mem_fnIMN7lamport7Thread1EFvvEELb0EEC2IS5_EEOT_(%"struct.std::_Head_base.13"*, %"struct.std::_Mem_fn.14"* dereferenceable(16)) unnamed_addr #4 comdat align 2 !dbg !4659 {
  %3 = alloca %"struct.std::_Head_base.13"*, align 8
  %4 = alloca %"struct.std::_Mem_fn.14"*, align 8
  store %"struct.std::_Head_base.13"* %0, %"struct.std::_Head_base.13"** %3, align 8
  call void @llvm.dbg.declare(metadata %"struct.std::_Head_base.13"** %3, metadata !4665, metadata !2775), !dbg !4667
  store %"struct.std::_Mem_fn.14"* %1, %"struct.std::_Mem_fn.14"** %4, align 8
  call void @llvm.dbg.declare(metadata %"struct.std::_Mem_fn.14"** %4, metadata !4668, metadata !2775), !dbg !4669
  %5 = load %"struct.std::_Head_base.13"*, %"struct.std::_Head_base.13"** %3, align 8
  %6 = getelementptr inbounds %"struct.std::_Head_base.13", %"struct.std::_Head_base.13"* %5, i32 0, i32 0, !dbg !4670
  %7 = load %"struct.std::_Mem_fn.14"*, %"struct.std::_Mem_fn.14"** %4, align 8, !dbg !4671
  %8 = call dereferenceable(16) %"struct.std::_Mem_fn.14"* @_ZSt7forwardISt7_Mem_fnIMN7lamport7Thread1EFvvEEEOT_RNSt16remove_referenceIS6_E4typeE(%"struct.std::_Mem_fn.14"* dereferenceable(16) %7) #3, !dbg !4672
  %9 = bitcast %"struct.std::_Mem_fn.14"* %6 to i8*, !dbg !4670
  %10 = bitcast %"struct.std::_Mem_fn.14"* %8 to i8*, !dbg !4670
  call void @llvm.memcpy.p0i8.p0i8.i64(i8* %9, i8* %10, i64 16, i32 8, i1 false), !dbg !4673
  ret void, !dbg !4675
}

; Function Attrs: nounwind uwtable
define linkonce_odr dereferenceable(8) %"class.lamport::Thread1"** @_ZNSt11_Tuple_implILm1EJPN7lamport7Thread1EEE7_M_headERS3_(%"struct.std::_Tuple_impl.11"* dereferenceable(8)) #4 comdat align 2 !dbg !4676 {
  %2 = alloca %"struct.std::_Tuple_impl.11"*, align 8
  store %"struct.std::_Tuple_impl.11"* %0, %"struct.std::_Tuple_impl.11"** %2, align 8
  call void @llvm.dbg.declare(metadata %"struct.std::_Tuple_impl.11"** %2, metadata !4677, metadata !2775), !dbg !4678
  %3 = load %"struct.std::_Tuple_impl.11"*, %"struct.std::_Tuple_impl.11"** %2, align 8, !dbg !4679
  %4 = bitcast %"struct.std::_Tuple_impl.11"* %3 to %"struct.std::_Head_base.12"*, !dbg !4679
  %5 = call dereferenceable(8) %"class.lamport::Thread1"** @_ZNSt10_Head_baseILm1EPN7lamport7Thread1ELb0EE7_M_headERS3_(%"struct.std::_Head_base.12"* dereferenceable(8) %4) #3, !dbg !4680
  ret %"class.lamport::Thread1"** %5, !dbg !4681
}

; Function Attrs: nounwind uwtable
define linkonce_odr void @_ZNSt10_Head_baseILm1EPN7lamport7Thread1ELb0EEC2IS2_EEOT_(%"struct.std::_Head_base.12"*, %"class.lamport::Thread1"** dereferenceable(8)) unnamed_addr #4 comdat align 2 !dbg !4682 {
  %3 = alloca %"struct.std::_Head_base.12"*, align 8
  %4 = alloca %"class.lamport::Thread1"**, align 8
  store %"struct.std::_Head_base.12"* %0, %"struct.std::_Head_base.12"** %3, align 8
  call void @llvm.dbg.declare(metadata %"struct.std::_Head_base.12"** %3, metadata !4688, metadata !2775), !dbg !4690
  store %"class.lamport::Thread1"** %1, %"class.lamport::Thread1"*** %4, align 8
  call void @llvm.dbg.declare(metadata %"class.lamport::Thread1"*** %4, metadata !4691, metadata !2775), !dbg !4692
  %5 = load %"struct.std::_Head_base.12"*, %"struct.std::_Head_base.12"** %3, align 8
  %6 = getelementptr inbounds %"struct.std::_Head_base.12", %"struct.std::_Head_base.12"* %5, i32 0, i32 0, !dbg !4693
  %7 = load %"class.lamport::Thread1"**, %"class.lamport::Thread1"*** %4, align 8, !dbg !4694
  %8 = call dereferenceable(8) %"class.lamport::Thread1"** @_ZSt7forwardIPN7lamport7Thread1EEOT_RNSt16remove_referenceIS3_E4typeE(%"class.lamport::Thread1"** dereferenceable(8) %7) #3, !dbg !4695
  %9 = load %"class.lamport::Thread1"*, %"class.lamport::Thread1"** %8, align 8, !dbg !4695
  store %"class.lamport::Thread1"* %9, %"class.lamport::Thread1"** %6, align 8, !dbg !4693
  ret void, !dbg !4696
}

; Function Attrs: nounwind uwtable
define linkonce_odr dereferenceable(8) %"class.lamport::Thread1"** @_ZNSt10_Head_baseILm1EPN7lamport7Thread1ELb0EE7_M_headERS3_(%"struct.std::_Head_base.12"* dereferenceable(8)) #4 comdat align 2 !dbg !4697 {
  %2 = alloca %"struct.std::_Head_base.12"*, align 8
  store %"struct.std::_Head_base.12"* %0, %"struct.std::_Head_base.12"** %2, align 8
  call void @llvm.dbg.declare(metadata %"struct.std::_Head_base.12"** %2, metadata !4698, metadata !2775), !dbg !4699
  %3 = load %"struct.std::_Head_base.12"*, %"struct.std::_Head_base.12"** %2, align 8, !dbg !4700
  %4 = getelementptr inbounds %"struct.std::_Head_base.12", %"struct.std::_Head_base.12"* %3, i32 0, i32 0, !dbg !4701
  ret %"class.lamport::Thread1"** %4, !dbg !4702
}

; Function Attrs: nounwind uwtable
define linkonce_odr dereferenceable(16) %"struct.std::_Mem_fn.14"* @_ZNSt10_Head_baseILm0ESt7_Mem_fnIMN7lamport7Thread1EFvvEELb0EE7_M_headERS6_(%"struct.std::_Head_base.13"* dereferenceable(16)) #4 comdat align 2 !dbg !4703 {
  %2 = alloca %"struct.std::_Head_base.13"*, align 8
  store %"struct.std::_Head_base.13"* %0, %"struct.std::_Head_base.13"** %2, align 8
  call void @llvm.dbg.declare(metadata %"struct.std::_Head_base.13"** %2, metadata !4704, metadata !2775), !dbg !4705
  %3 = load %"struct.std::_Head_base.13"*, %"struct.std::_Head_base.13"** %2, align 8, !dbg !4706
  %4 = getelementptr inbounds %"struct.std::_Head_base.13", %"struct.std::_Head_base.13"* %3, i32 0, i32 0, !dbg !4707
  ret %"struct.std::_Mem_fn.14"* %4, !dbg !4708
}

; Function Attrs: uwtable
define linkonce_odr void @_ZNSt12_Bind_simpleIFSt7_Mem_fnIMN7lamport7Thread1EFvvEEPS2_EEclEv(%"struct.std::_Bind_simple.8"*) #0 comdat align 2 !dbg !4709 {
  %2 = alloca %"struct.std::_Bind_simple.8"*, align 8
  %3 = alloca %"struct.std::_Index_tuple", align 1
  store %"struct.std::_Bind_simple.8"* %0, %"struct.std::_Bind_simple.8"** %2, align 8
  call void @llvm.dbg.declare(metadata %"struct.std::_Bind_simple.8"** %2, metadata !4710, metadata !2775), !dbg !4711
  %4 = load %"struct.std::_Bind_simple.8"*, %"struct.std::_Bind_simple.8"** %2, align 8
  call void @_ZNSt12_Bind_simpleIFSt7_Mem_fnIMN7lamport7Thread1EFvvEEPS2_EE9_M_invokeIJLm0EEEEvSt12_Index_tupleIJXspT_EEE(%"struct.std::_Bind_simple.8"* %4), !dbg !4712
  ret void, !dbg !4713
}

; Function Attrs: uwtable
define linkonce_odr void @_ZNSt12_Bind_simpleIFSt7_Mem_fnIMN7lamport7Thread1EFvvEEPS2_EE9_M_invokeIJLm0EEEEvSt12_Index_tupleIJXspT_EEE(%"struct.std::_Bind_simple.8"*) #0 comdat align 2 !dbg !4714 {
  %2 = alloca %"struct.std::_Index_tuple", align 1
  %3 = alloca %"struct.std::_Bind_simple.8"*, align 8
  store %"struct.std::_Bind_simple.8"* %0, %"struct.std::_Bind_simple.8"** %3, align 8
  call void @llvm.dbg.declare(metadata %"struct.std::_Bind_simple.8"** %3, metadata !4718, metadata !2775), !dbg !4719
  call void @llvm.dbg.declare(metadata %"struct.std::_Index_tuple"* %2, metadata !4720, metadata !2775), !dbg !4721
  %4 = load %"struct.std::_Bind_simple.8"*, %"struct.std::_Bind_simple.8"** %3, align 8
  %5 = getelementptr inbounds %"struct.std::_Bind_simple.8", %"struct.std::_Bind_simple.8"* %4, i32 0, i32 0, !dbg !4722
  %6 = call dereferenceable(16) %"struct.std::_Mem_fn.14"* @_ZSt3getILm0EJSt7_Mem_fnIMN7lamport7Thread1EFvvEEPS2_EERNSt13tuple_elementIXT_ESt5tupleIJDpT0_EEE4typeERSB_(%"class.std::tuple.9"* dereferenceable(24) %5) #3, !dbg !4723
  %7 = call dereferenceable(16) %"struct.std::_Mem_fn.14"* @_ZSt7forwardISt7_Mem_fnIMN7lamport7Thread1EFvvEEEOT_RNSt16remove_referenceIS6_E4typeE(%"struct.std::_Mem_fn.14"* dereferenceable(16) %6) #3, !dbg !4724
  %8 = bitcast %"struct.std::_Mem_fn.14"* %7 to %"class.std::_Mem_fn_base.15"*, !dbg !4726
  %9 = getelementptr inbounds %"struct.std::_Bind_simple.8", %"struct.std::_Bind_simple.8"* %4, i32 0, i32 0, !dbg !4727
  %10 = call dereferenceable(8) %"class.lamport::Thread1"** @_ZSt3getILm1EJSt7_Mem_fnIMN7lamport7Thread1EFvvEEPS2_EERNSt13tuple_elementIXT_ESt5tupleIJDpT0_EEE4typeERSB_(%"class.std::tuple.9"* dereferenceable(24) %9) #3, !dbg !4728
  %11 = call dereferenceable(8) %"class.lamport::Thread1"** @_ZSt7forwardIPN7lamport7Thread1EEOT_RNSt16remove_referenceIS3_E4typeE(%"class.lamport::Thread1"** dereferenceable(8) %10) #3, !dbg !4729
  call void @_ZNKSt12_Mem_fn_baseIMN7lamport7Thread1EFvvELb1EEclIJPS1_EEEDTclsr3stdE8__invokedtdefpT6_M_pmfspclsr3stdE7forwardIT_Efp_EEEDpOS7_(%"class.std::_Mem_fn_base.15"* %8, %"class.lamport::Thread1"** dereferenceable(8) %11), !dbg !4730
  ret void, !dbg !4732
}

; Function Attrs: nounwind uwtable
define linkonce_odr dereferenceable(16) %"struct.std::_Mem_fn.14"* @_ZSt3getILm0EJSt7_Mem_fnIMN7lamport7Thread1EFvvEEPS2_EERNSt13tuple_elementIXT_ESt5tupleIJDpT0_EEE4typeERSB_(%"class.std::tuple.9"* dereferenceable(24)) #4 comdat !dbg !4733 {
  %2 = alloca %"class.std::tuple.9"*, align 8
  store %"class.std::tuple.9"* %0, %"class.std::tuple.9"** %2, align 8
  call void @llvm.dbg.declare(metadata %"class.std::tuple.9"** %2, metadata !4743, metadata !2775), !dbg !4744
  %3 = load %"class.std::tuple.9"*, %"class.std::tuple.9"** %2, align 8, !dbg !4745
  %4 = bitcast %"class.std::tuple.9"* %3 to %"struct.std::_Tuple_impl.10"*, !dbg !4745
  %5 = call dereferenceable(16) %"struct.std::_Mem_fn.14"* @_ZSt12__get_helperILm0ESt7_Mem_fnIMN7lamport7Thread1EFvvEEJPS2_EERT0_RSt11_Tuple_implIXT_EJS7_DpT1_EE(%"struct.std::_Tuple_impl.10"* dereferenceable(24) %4) #3, !dbg !4746
  ret %"struct.std::_Mem_fn.14"* %5, !dbg !4747
}

; Function Attrs: uwtable
define linkonce_odr void @_ZNKSt12_Mem_fn_baseIMN7lamport7Thread1EFvvELb1EEclIJPS1_EEEDTclsr3stdE8__invokedtdefpT6_M_pmfspclsr3stdE7forwardIT_Efp_EEEDpOS7_(%"class.std::_Mem_fn_base.15"*, %"class.lamport::Thread1"** dereferenceable(8)) #0 comdat align 2 !dbg !4748 {
  %3 = alloca %"class.std::_Mem_fn_base.15"*, align 8
  %4 = alloca %"class.lamport::Thread1"**, align 8
  store %"class.std::_Mem_fn_base.15"* %0, %"class.std::_Mem_fn_base.15"** %3, align 8
  call void @llvm.dbg.declare(metadata %"class.std::_Mem_fn_base.15"** %3, metadata !4755, metadata !2775), !dbg !4757
  store %"class.lamport::Thread1"** %1, %"class.lamport::Thread1"*** %4, align 8
  call void @llvm.dbg.declare(metadata %"class.lamport::Thread1"*** %4, metadata !4758, metadata !2775), !dbg !4759
  %5 = load %"class.std::_Mem_fn_base.15"*, %"class.std::_Mem_fn_base.15"** %3, align 8
  %6 = getelementptr inbounds %"class.std::_Mem_fn_base.15", %"class.std::_Mem_fn_base.15"* %5, i32 0, i32 0, !dbg !4760
  %7 = load %"class.lamport::Thread1"**, %"class.lamport::Thread1"*** %4, align 8, !dbg !4761
  %8 = call dereferenceable(8) %"class.lamport::Thread1"** @_ZSt7forwardIPN7lamport7Thread1EEOT_RNSt16remove_referenceIS3_E4typeE(%"class.lamport::Thread1"** dereferenceable(8) %7) #3, !dbg !4762
  call void @_ZSt8__invokeIRKMN7lamport7Thread1EFvvEJPS1_EENSt9result_ofIFOT_DpOT0_EE4typeES9_SC_({ i64, i64 }* dereferenceable(16) %6, %"class.lamport::Thread1"** dereferenceable(8) %8), !dbg !4763
  ret void, !dbg !4765
}

; Function Attrs: nounwind uwtable
define linkonce_odr dereferenceable(8) %"class.lamport::Thread1"** @_ZSt3getILm1EJSt7_Mem_fnIMN7lamport7Thread1EFvvEEPS2_EERNSt13tuple_elementIXT_ESt5tupleIJDpT0_EEE4typeERSB_(%"class.std::tuple.9"* dereferenceable(24)) #4 comdat !dbg !4766 {
  %2 = alloca %"class.std::tuple.9"*, align 8
  store %"class.std::tuple.9"* %0, %"class.std::tuple.9"** %2, align 8
  call void @llvm.dbg.declare(metadata %"class.std::tuple.9"** %2, metadata !4777, metadata !2775), !dbg !4778
  %3 = load %"class.std::tuple.9"*, %"class.std::tuple.9"** %2, align 8, !dbg !4779
  %4 = bitcast %"class.std::tuple.9"* %3 to %"struct.std::_Tuple_impl.11"*, !dbg !4779
  %5 = call dereferenceable(8) %"class.lamport::Thread1"** @_ZSt12__get_helperILm1EPN7lamport7Thread1EJEERT0_RSt11_Tuple_implIXT_EJS3_DpT1_EE(%"struct.std::_Tuple_impl.11"* dereferenceable(8) %4) #3, !dbg !4780
  ret %"class.lamport::Thread1"** %5, !dbg !4781
}

; Function Attrs: nounwind uwtable
define linkonce_odr dereferenceable(16) %"struct.std::_Mem_fn.14"* @_ZSt12__get_helperILm0ESt7_Mem_fnIMN7lamport7Thread1EFvvEEJPS2_EERT0_RSt11_Tuple_implIXT_EJS7_DpT1_EE(%"struct.std::_Tuple_impl.10"* dereferenceable(24)) #4 comdat !dbg !4782 {
  %2 = alloca %"struct.std::_Tuple_impl.10"*, align 8
  store %"struct.std::_Tuple_impl.10"* %0, %"struct.std::_Tuple_impl.10"** %2, align 8
  call void @llvm.dbg.declare(metadata %"struct.std::_Tuple_impl.10"** %2, metadata !4785, metadata !2775), !dbg !4786
  %3 = load %"struct.std::_Tuple_impl.10"*, %"struct.std::_Tuple_impl.10"** %2, align 8, !dbg !4787
  %4 = call dereferenceable(16) %"struct.std::_Mem_fn.14"* @_ZNSt11_Tuple_implILm0EJSt7_Mem_fnIMN7lamport7Thread1EFvvEEPS2_EE7_M_headERS7_(%"struct.std::_Tuple_impl.10"* dereferenceable(24) %3) #3, !dbg !4788
  ret %"struct.std::_Mem_fn.14"* %4, !dbg !4789
}

; Function Attrs: inlinehint uwtable
define linkonce_odr void @_ZSt8__invokeIRKMN7lamport7Thread1EFvvEJPS1_EENSt9result_ofIFOT_DpOT0_EE4typeES9_SC_({ i64, i64 }* dereferenceable(16), %"class.lamport::Thread1"** dereferenceable(8)) #13 comdat !dbg !538 {
  %3 = alloca { i64, i64 }*, align 8
  %4 = alloca %"class.lamport::Thread1"**, align 8
  %5 = alloca %"struct.std::__invoke_memfun_deref", align 1
  store { i64, i64 }* %0, { i64, i64 }** %3, align 8
  call void @llvm.dbg.declare(metadata { i64, i64 }** %3, metadata !4790, metadata !2775), !dbg !4791
  store %"class.lamport::Thread1"** %1, %"class.lamport::Thread1"*** %4, align 8
  call void @llvm.dbg.declare(metadata %"class.lamport::Thread1"*** %4, metadata !4792, metadata !2775), !dbg !4793
  %6 = load { i64, i64 }*, { i64, i64 }** %3, align 8, !dbg !4794
  %7 = call dereferenceable(16) { i64, i64 }* @_ZSt7forwardIRKMN7lamport7Thread1EFvvEEOT_RNSt16remove_referenceIS6_E4typeE({ i64, i64 }* dereferenceable(16) %6) #3, !dbg !4795
  %8 = load %"class.lamport::Thread1"**, %"class.lamport::Thread1"*** %4, align 8, !dbg !4796
  %9 = call dereferenceable(8) %"class.lamport::Thread1"** @_ZSt7forwardIPN7lamport7Thread1EEOT_RNSt16remove_referenceIS3_E4typeE(%"class.lamport::Thread1"** dereferenceable(8) %8) #3, !dbg !4797
  call void @_ZSt13__invoke_implIvRKMN7lamport7Thread1EFvvEPS1_JEET_St21__invoke_memfun_derefOT0_OT1_DpOT2_({ i64, i64 }* dereferenceable(16) %7, %"class.lamport::Thread1"** dereferenceable(8) %9), !dbg !4798
  ret void, !dbg !4800
}

; Function Attrs: inlinehint uwtable
define linkonce_odr void @_ZSt13__invoke_implIvRKMN7lamport7Thread1EFvvEPS1_JEET_St21__invoke_memfun_derefOT0_OT1_DpOT2_({ i64, i64 }* dereferenceable(16), %"class.lamport::Thread1"** dereferenceable(8)) #13 comdat !dbg !4801 {
  %3 = alloca %"struct.std::__invoke_memfun_deref", align 1
  %4 = alloca { i64, i64 }*, align 8
  %5 = alloca %"class.lamport::Thread1"**, align 8
  call void @llvm.dbg.declare(metadata %"struct.std::__invoke_memfun_deref"* %3, metadata !4806, metadata !2775), !dbg !4807
  store { i64, i64 }* %0, { i64, i64 }** %4, align 8
  call void @llvm.dbg.declare(metadata { i64, i64 }** %4, metadata !4808, metadata !2775), !dbg !4809
  store %"class.lamport::Thread1"** %1, %"class.lamport::Thread1"*** %5, align 8
  call void @llvm.dbg.declare(metadata %"class.lamport::Thread1"*** %5, metadata !4810, metadata !2775), !dbg !4811
  %6 = load { i64, i64 }*, { i64, i64 }** %4, align 8, !dbg !4812
  %7 = load { i64, i64 }, { i64, i64 }* %6, align 8, !dbg !4812
  %8 = load %"class.lamport::Thread1"**, %"class.lamport::Thread1"*** %5, align 8, !dbg !4813
  %9 = call dereferenceable(8) %"class.lamport::Thread1"** @_ZSt7forwardIPN7lamport7Thread1EEOT_RNSt16remove_referenceIS3_E4typeE(%"class.lamport::Thread1"** dereferenceable(8) %8) #3, !dbg !4814
  %10 = load %"class.lamport::Thread1"*, %"class.lamport::Thread1"** %9, align 8, !dbg !4814
  %11 = extractvalue { i64, i64 } %7, 1, !dbg !4815
  %12 = bitcast %"class.lamport::Thread1"* %10 to i8*, !dbg !4815
  %13 = getelementptr inbounds i8, i8* %12, i64 %11, !dbg !4815
  %14 = bitcast i8* %13 to %"class.lamport::Thread1"*, !dbg !4815
  %15 = extractvalue { i64, i64 } %7, 0, !dbg !4815
  %16 = and i64 %15, 1, !dbg !4815
  %17 = icmp ne i64 %16, 0, !dbg !4815
  br i1 %17, label %18, label %25, !dbg !4815

; <label>:18:                                     ; preds = %2
  %19 = bitcast %"class.lamport::Thread1"* %14 to i8**, !dbg !4816
  %20 = load i8*, i8** %19, align 8, !dbg !4816
  %21 = sub i64 %15, 1, !dbg !4816
  %22 = getelementptr i8, i8* %20, i64 %21, !dbg !4816
  %23 = bitcast i8* %22 to void (%"class.lamport::Thread1"*)**, !dbg !4816
  %24 = load void (%"class.lamport::Thread1"*)*, void (%"class.lamport::Thread1"*)** %23, align 8, !dbg !4816
  br label %27, !dbg !4816

; <label>:25:                                     ; preds = %2
  %26 = inttoptr i64 %15 to void (%"class.lamport::Thread1"*)*, !dbg !4818
  br label %27, !dbg !4818

; <label>:27:                                     ; preds = %25, %18
  %28 = phi void (%"class.lamport::Thread1"*)* [ %24, %18 ], [ %26, %25 ], !dbg !4820
  call void %28(%"class.lamport::Thread1"* %14), !dbg !4820
  ret void, !dbg !4822
}

; Function Attrs: nounwind uwtable
define linkonce_odr dereferenceable(16) { i64, i64 }* @_ZSt7forwardIRKMN7lamport7Thread1EFvvEEOT_RNSt16remove_referenceIS6_E4typeE({ i64, i64 }* dereferenceable(16)) #4 comdat !dbg !4823 {
  %2 = alloca { i64, i64 }*, align 8
  store { i64, i64 }* %0, { i64, i64 }** %2, align 8
  call void @llvm.dbg.declare(metadata { i64, i64 }** %2, metadata !4831, metadata !2775), !dbg !4832
  %3 = load { i64, i64 }*, { i64, i64 }** %2, align 8, !dbg !4833
  ret { i64, i64 }* %3, !dbg !4834
}

; Function Attrs: nounwind uwtable
define linkonce_odr dereferenceable(8) %"class.lamport::Thread1"** @_ZSt12__get_helperILm1EPN7lamport7Thread1EJEERT0_RSt11_Tuple_implIXT_EJS3_DpT1_EE(%"struct.std::_Tuple_impl.11"* dereferenceable(8)) #4 comdat !dbg !4835 {
  %2 = alloca %"struct.std::_Tuple_impl.11"*, align 8
  store %"struct.std::_Tuple_impl.11"* %0, %"struct.std::_Tuple_impl.11"** %2, align 8
  call void @llvm.dbg.declare(metadata %"struct.std::_Tuple_impl.11"** %2, metadata !4837, metadata !2775), !dbg !4838
  %3 = load %"struct.std::_Tuple_impl.11"*, %"struct.std::_Tuple_impl.11"** %2, align 8, !dbg !4839
  %4 = call dereferenceable(8) %"class.lamport::Thread1"** @_ZNSt11_Tuple_implILm1EJPN7lamport7Thread1EEE7_M_headERS3_(%"struct.std::_Tuple_impl.11"* dereferenceable(8) %3) #3, !dbg !4840
  ret %"class.lamport::Thread1"** %4, !dbg !4841
}

; Function Attrs: nounwind uwtable
define linkonce_odr { i64, i64 } @_ZNSt26_Maybe_wrap_member_pointerIMN7lamport7Thread1EFvvEE9__do_wrapES3_(i64, i64) #4 comdat align 2 !dbg !4842 {
  %3 = alloca %"struct.std::_Mem_fn.14", align 8
  %4 = alloca { i64, i64 }, align 8
  %5 = alloca { i64, i64 }, align 8
  %6 = alloca { i64, i64 }, align 8
  %7 = getelementptr inbounds { i64, i64 }, { i64, i64 }* %4, i32 0, i32 0
  store i64 %0, i64* %7, align 8
  %8 = getelementptr inbounds { i64, i64 }, { i64, i64 }* %4, i32 0, i32 1
  store i64 %1, i64* %8, align 8
  %9 = load { i64, i64 }, { i64, i64 }* %4, align 8
  store { i64, i64 } %9, { i64, i64 }* %5, align 8
  call void @llvm.dbg.declare(metadata { i64, i64 }* %5, metadata !4843, metadata !2775), !dbg !4844
  %10 = load { i64, i64 }, { i64, i64 }* %5, align 8, !dbg !4845
  store { i64, i64 } %10, { i64, i64 }* %6, align 8, !dbg !4846
  %11 = getelementptr inbounds { i64, i64 }, { i64, i64 }* %6, i32 0, i32 0, !dbg !4846
  %12 = load i64, i64* %11, align 8, !dbg !4846
  %13 = getelementptr inbounds { i64, i64 }, { i64, i64 }* %6, i32 0, i32 1, !dbg !4846
  %14 = load i64, i64* %13, align 8, !dbg !4846
  call void @_ZNSt7_Mem_fnIMN7lamport7Thread1EFvvEECI2St12_Mem_fn_baseIS3_Lb1EEES3_(%"struct.std::_Mem_fn.14"* %3, i64 %12, i64 %14) #3, !dbg !4846
  %15 = getelementptr inbounds %"struct.std::_Mem_fn.14", %"struct.std::_Mem_fn.14"* %3, i32 0, i32 0, !dbg !4847
  %16 = getelementptr inbounds %"class.std::_Mem_fn_base.15", %"class.std::_Mem_fn_base.15"* %15, i32 0, i32 0, !dbg !4847
  %17 = load { i64, i64 }, { i64, i64 }* %16, align 8, !dbg !4847
  ret { i64, i64 } %17, !dbg !4847
}

; Function Attrs: uwtable
define linkonce_odr void @_ZNSt12_Bind_simpleIFSt7_Mem_fnIMN7lamport7Thread1EFvvEEPS2_EEC2IS5_JS6_EEEOT_DpOT0_(%"struct.std::_Bind_simple.8"*, %"struct.std::_Mem_fn.14"* dereferenceable(16), %"class.lamport::Thread1"** dereferenceable(8)) unnamed_addr #0 comdat align 2 !dbg !4848 {
  %4 = alloca %"struct.std::_Bind_simple.8"*, align 8
  %5 = alloca %"struct.std::_Mem_fn.14"*, align 8
  %6 = alloca %"class.lamport::Thread1"**, align 8
  store %"struct.std::_Bind_simple.8"* %0, %"struct.std::_Bind_simple.8"** %4, align 8
  call void @llvm.dbg.declare(metadata %"struct.std::_Bind_simple.8"** %4, metadata !4854, metadata !2775), !dbg !4855
  store %"struct.std::_Mem_fn.14"* %1, %"struct.std::_Mem_fn.14"** %5, align 8
  call void @llvm.dbg.declare(metadata %"struct.std::_Mem_fn.14"** %5, metadata !4856, metadata !2775), !dbg !4857
  store %"class.lamport::Thread1"** %2, %"class.lamport::Thread1"*** %6, align 8
  call void @llvm.dbg.declare(metadata %"class.lamport::Thread1"*** %6, metadata !4858, metadata !2775), !dbg !4859
  %7 = load %"struct.std::_Bind_simple.8"*, %"struct.std::_Bind_simple.8"** %4, align 8
  %8 = getelementptr inbounds %"struct.std::_Bind_simple.8", %"struct.std::_Bind_simple.8"* %7, i32 0, i32 0, !dbg !4860
  %9 = load %"struct.std::_Mem_fn.14"*, %"struct.std::_Mem_fn.14"** %5, align 8, !dbg !4861
  %10 = call dereferenceable(16) %"struct.std::_Mem_fn.14"* @_ZSt7forwardISt7_Mem_fnIMN7lamport7Thread1EFvvEEEOT_RNSt16remove_referenceIS6_E4typeE(%"struct.std::_Mem_fn.14"* dereferenceable(16) %9) #3, !dbg !4862
  %11 = load %"class.lamport::Thread1"**, %"class.lamport::Thread1"*** %6, align 8, !dbg !4863
  %12 = call dereferenceable(8) %"class.lamport::Thread1"** @_ZSt7forwardIPN7lamport7Thread1EEOT_RNSt16remove_referenceIS3_E4typeE(%"class.lamport::Thread1"** dereferenceable(8) %11) #3, !dbg !4864
  call void @_ZNSt5tupleIJSt7_Mem_fnIMN7lamport7Thread1EFvvEEPS2_EEC2IS5_S6_Lb1EEEOT_OT0_(%"class.std::tuple.9"* %8, %"struct.std::_Mem_fn.14"* dereferenceable(16) %10, %"class.lamport::Thread1"** dereferenceable(8) %12), !dbg !4866
  ret void, !dbg !4868
}

; Function Attrs: inlinehint nounwind uwtable
define linkonce_odr void @_ZNSt7_Mem_fnIMN7lamport7Thread1EFvvEECI2St12_Mem_fn_baseIS3_Lb1EEES3_(%"struct.std::_Mem_fn.14"*, i64, i64) unnamed_addr #7 comdat align 2 !dbg !4869 {
  %4 = alloca { i64, i64 }, align 8
  %5 = alloca %"struct.std::_Mem_fn.14"*, align 8
  %6 = alloca { i64, i64 }, align 8
  %7 = alloca { i64, i64 }, align 8
  %8 = getelementptr inbounds { i64, i64 }, { i64, i64 }* %4, i32 0, i32 0
  store i64 %1, i64* %8, align 8
  %9 = getelementptr inbounds { i64, i64 }, { i64, i64 }* %4, i32 0, i32 1
  store i64 %2, i64* %9, align 8
  %10 = load { i64, i64 }, { i64, i64 }* %4, align 8
  store %"struct.std::_Mem_fn.14"* %0, %"struct.std::_Mem_fn.14"** %5, align 8
  call void @llvm.dbg.declare(metadata %"struct.std::_Mem_fn.14"** %5, metadata !4874, metadata !2775), !dbg !4876
  store { i64, i64 } %10, { i64, i64 }* %6, align 8
  call void @llvm.dbg.declare(metadata { i64, i64 }* %6, metadata !4877, metadata !2775), !dbg !4876
  %11 = load %"struct.std::_Mem_fn.14"*, %"struct.std::_Mem_fn.14"** %5, align 8
  %12 = bitcast %"struct.std::_Mem_fn.14"* %11 to %"class.std::_Mem_fn_base.15"*, !dbg !4878
  %13 = load { i64, i64 }, { i64, i64 }* %6, align 8, !dbg !4878
  store { i64, i64 } %13, { i64, i64 }* %7, align 8, !dbg !4878
  %14 = getelementptr inbounds { i64, i64 }, { i64, i64 }* %7, i32 0, i32 0, !dbg !4878
  %15 = load i64, i64* %14, align 8, !dbg !4878
  %16 = getelementptr inbounds { i64, i64 }, { i64, i64 }* %7, i32 0, i32 1, !dbg !4878
  %17 = load i64, i64* %16, align 8, !dbg !4878
  call void @_ZNSt12_Mem_fn_baseIMN7lamport7Thread1EFvvELb1EEC2ES3_(%"class.std::_Mem_fn_base.15"* %12, i64 %15, i64 %17) #3, !dbg !4878
  ret void, !dbg !4878
}

; Function Attrs: nounwind uwtable
define linkonce_odr void @_ZNSt12_Mem_fn_baseIMN7lamport7Thread1EFvvELb1EEC2ES3_(%"class.std::_Mem_fn_base.15"*, i64, i64) unnamed_addr #4 comdat align 2 !dbg !4879 {
  %4 = alloca { i64, i64 }, align 8
  %5 = alloca %"class.std::_Mem_fn_base.15"*, align 8
  %6 = alloca { i64, i64 }, align 8
  %7 = getelementptr inbounds { i64, i64 }, { i64, i64 }* %4, i32 0, i32 0
  store i64 %1, i64* %7, align 8
  %8 = getelementptr inbounds { i64, i64 }, { i64, i64 }* %4, i32 0, i32 1
  store i64 %2, i64* %8, align 8
  %9 = load { i64, i64 }, { i64, i64 }* %4, align 8
  store %"class.std::_Mem_fn_base.15"* %0, %"class.std::_Mem_fn_base.15"** %5, align 8
  call void @llvm.dbg.declare(metadata %"class.std::_Mem_fn_base.15"** %5, metadata !4880, metadata !2775), !dbg !4882
  store { i64, i64 } %9, { i64, i64 }* %6, align 8
  call void @llvm.dbg.declare(metadata { i64, i64 }* %6, metadata !4883, metadata !2775), !dbg !4884
  %10 = load %"class.std::_Mem_fn_base.15"*, %"class.std::_Mem_fn_base.15"** %5, align 8
  %11 = bitcast %"class.std::_Mem_fn_base.15"* %10 to %"struct.std::_Maybe_unary_or_binary_function.16"*, !dbg !4885
  %12 = getelementptr inbounds %"class.std::_Mem_fn_base.15", %"class.std::_Mem_fn_base.15"* %10, i32 0, i32 0, !dbg !4886
  %13 = load { i64, i64 }, { i64, i64 }* %6, align 8, !dbg !4887
  store { i64, i64 } %13, { i64, i64 }* %12, align 8, !dbg !4886
  ret void, !dbg !4888
}

; Function Attrs: uwtable
define linkonce_odr void @_ZNSt5tupleIJSt7_Mem_fnIMN7lamport7Thread1EFvvEEPS2_EEC2IS5_S6_Lb1EEEOT_OT0_(%"class.std::tuple.9"*, %"struct.std::_Mem_fn.14"* dereferenceable(16), %"class.lamport::Thread1"** dereferenceable(8)) unnamed_addr #0 comdat align 2 !dbg !4889 {
  %4 = alloca %"class.std::tuple.9"*, align 8
  %5 = alloca %"struct.std::_Mem_fn.14"*, align 8
  %6 = alloca %"class.lamport::Thread1"**, align 8
  store %"class.std::tuple.9"* %0, %"class.std::tuple.9"** %4, align 8
  call void @llvm.dbg.declare(metadata %"class.std::tuple.9"** %4, metadata !4896, metadata !2775), !dbg !4897
  store %"struct.std::_Mem_fn.14"* %1, %"struct.std::_Mem_fn.14"** %5, align 8
  call void @llvm.dbg.declare(metadata %"struct.std::_Mem_fn.14"** %5, metadata !4898, metadata !2775), !dbg !4899
  store %"class.lamport::Thread1"** %2, %"class.lamport::Thread1"*** %6, align 8
  call void @llvm.dbg.declare(metadata %"class.lamport::Thread1"*** %6, metadata !4900, metadata !2775), !dbg !4901
  %7 = load %"class.std::tuple.9"*, %"class.std::tuple.9"** %4, align 8
  %8 = bitcast %"class.std::tuple.9"* %7 to %"struct.std::_Tuple_impl.10"*, !dbg !4902
  %9 = load %"struct.std::_Mem_fn.14"*, %"struct.std::_Mem_fn.14"** %5, align 8, !dbg !4903
  %10 = call dereferenceable(16) %"struct.std::_Mem_fn.14"* @_ZSt7forwardISt7_Mem_fnIMN7lamport7Thread1EFvvEEEOT_RNSt16remove_referenceIS6_E4typeE(%"struct.std::_Mem_fn.14"* dereferenceable(16) %9) #3, !dbg !4904
  %11 = load %"class.lamport::Thread1"**, %"class.lamport::Thread1"*** %6, align 8, !dbg !4905
  %12 = call dereferenceable(8) %"class.lamport::Thread1"** @_ZSt7forwardIPN7lamport7Thread1EEOT_RNSt16remove_referenceIS3_E4typeE(%"class.lamport::Thread1"** dereferenceable(8) %11) #3, !dbg !4906
  call void @_ZNSt11_Tuple_implILm0EJSt7_Mem_fnIMN7lamport7Thread1EFvvEEPS2_EEC2IS5_JS6_EvEEOT_DpOT0_(%"struct.std::_Tuple_impl.10"* %8, %"struct.std::_Mem_fn.14"* dereferenceable(16) %10, %"class.lamport::Thread1"** dereferenceable(8) %12), !dbg !4908
  ret void, !dbg !4910
}

; Function Attrs: uwtable
define linkonce_odr void @_ZNSt11_Tuple_implILm0EJSt7_Mem_fnIMN7lamport7Thread1EFvvEEPS2_EEC2IS5_JS6_EvEEOT_DpOT0_(%"struct.std::_Tuple_impl.10"*, %"struct.std::_Mem_fn.14"* dereferenceable(16), %"class.lamport::Thread1"** dereferenceable(8)) unnamed_addr #0 comdat align 2 !dbg !4911 {
  %4 = alloca %"struct.std::_Tuple_impl.10"*, align 8
  %5 = alloca %"struct.std::_Mem_fn.14"*, align 8
  %6 = alloca %"class.lamport::Thread1"**, align 8
  store %"struct.std::_Tuple_impl.10"* %0, %"struct.std::_Tuple_impl.10"** %4, align 8
  call void @llvm.dbg.declare(metadata %"struct.std::_Tuple_impl.10"** %4, metadata !4917, metadata !2775), !dbg !4918
  store %"struct.std::_Mem_fn.14"* %1, %"struct.std::_Mem_fn.14"** %5, align 8
  call void @llvm.dbg.declare(metadata %"struct.std::_Mem_fn.14"** %5, metadata !4919, metadata !2775), !dbg !4920
  store %"class.lamport::Thread1"** %2, %"class.lamport::Thread1"*** %6, align 8
  call void @llvm.dbg.declare(metadata %"class.lamport::Thread1"*** %6, metadata !4921, metadata !2775), !dbg !4922
  %7 = load %"struct.std::_Tuple_impl.10"*, %"struct.std::_Tuple_impl.10"** %4, align 8
  %8 = bitcast %"struct.std::_Tuple_impl.10"* %7 to %"struct.std::_Tuple_impl.11"*, !dbg !4923
  %9 = load %"class.lamport::Thread1"**, %"class.lamport::Thread1"*** %6, align 8, !dbg !4924
  %10 = call dereferenceable(8) %"class.lamport::Thread1"** @_ZSt7forwardIPN7lamport7Thread1EEOT_RNSt16remove_referenceIS3_E4typeE(%"class.lamport::Thread1"** dereferenceable(8) %9) #3, !dbg !4925
  call void @_ZNSt11_Tuple_implILm1EJPN7lamport7Thread1EEEC2IS2_EEOT_(%"struct.std::_Tuple_impl.11"* %8, %"class.lamport::Thread1"** dereferenceable(8) %10), !dbg !4926
  %11 = bitcast %"struct.std::_Tuple_impl.10"* %7 to i8*, !dbg !4923
  %12 = getelementptr inbounds i8, i8* %11, i64 8, !dbg !4923
  %13 = bitcast i8* %12 to %"struct.std::_Head_base.13"*, !dbg !4923
  %14 = load %"struct.std::_Mem_fn.14"*, %"struct.std::_Mem_fn.14"** %5, align 8, !dbg !4928
  %15 = call dereferenceable(16) %"struct.std::_Mem_fn.14"* @_ZSt7forwardISt7_Mem_fnIMN7lamport7Thread1EFvvEEEOT_RNSt16remove_referenceIS6_E4typeE(%"struct.std::_Mem_fn.14"* dereferenceable(16) %14) #3, !dbg !4929
  call void @_ZNSt10_Head_baseILm0ESt7_Mem_fnIMN7lamport7Thread1EFvvEELb0EEC2IS5_EEOT_(%"struct.std::_Head_base.13"* %13, %"struct.std::_Mem_fn.14"* dereferenceable(16) %15), !dbg !4930
  ret void, !dbg !4931
}

; Function Attrs: nounwind uwtable
define linkonce_odr void @_ZNSt11_Tuple_implILm1EJPN7lamport7Thread1EEEC2IS2_EEOT_(%"struct.std::_Tuple_impl.11"*, %"class.lamport::Thread1"** dereferenceable(8)) unnamed_addr #4 comdat align 2 !dbg !4932 {
  %3 = alloca %"struct.std::_Tuple_impl.11"*, align 8
  %4 = alloca %"class.lamport::Thread1"**, align 8
  store %"struct.std::_Tuple_impl.11"* %0, %"struct.std::_Tuple_impl.11"** %3, align 8
  call void @llvm.dbg.declare(metadata %"struct.std::_Tuple_impl.11"** %3, metadata !4936, metadata !2775), !dbg !4937
  store %"class.lamport::Thread1"** %1, %"class.lamport::Thread1"*** %4, align 8
  call void @llvm.dbg.declare(metadata %"class.lamport::Thread1"*** %4, metadata !4938, metadata !2775), !dbg !4939
  %5 = load %"struct.std::_Tuple_impl.11"*, %"struct.std::_Tuple_impl.11"** %3, align 8
  %6 = bitcast %"struct.std::_Tuple_impl.11"* %5 to %"struct.std::_Head_base.12"*, !dbg !4940
  %7 = load %"class.lamport::Thread1"**, %"class.lamport::Thread1"*** %4, align 8, !dbg !4941
  %8 = call dereferenceable(8) %"class.lamport::Thread1"** @_ZSt7forwardIPN7lamport7Thread1EEOT_RNSt16remove_referenceIS3_E4typeE(%"class.lamport::Thread1"** dereferenceable(8) %7) #3, !dbg !4942
  call void @_ZNSt10_Head_baseILm1EPN7lamport7Thread1ELb0EEC2IS2_EEOT_(%"struct.std::_Head_base.12"* %6, %"class.lamport::Thread1"** dereferenceable(8) %8), !dbg !4943
  ret void, !dbg !4945
}

; Function Attrs: uwtable
define linkonce_odr void @_ZN9IrsThread4joinEv(%class.IrsThread*) #0 comdat align 2 !dbg !4946 {
  %2 = alloca %class.IrsThread*, align 8
  store %class.IrsThread* %0, %class.IrsThread** %2, align 8
  call void @llvm.dbg.declare(metadata %class.IrsThread** %2, metadata !4947, metadata !2775), !dbg !4948
  %3 = load %class.IrsThread*, %class.IrsThread** %2, align 8
  %4 = getelementptr inbounds %class.IrsThread, %class.IrsThread* %3, i32 0, i32 0, !dbg !4949
  %5 = call zeroext i1 @_ZNKSt6thread8joinableEv(%"class.std::thread"* %4) #3, !dbg !4951
  br i1 %5, label %6, label %8, !dbg !4952

; <label>:6:                                      ; preds = %1
  %7 = getelementptr inbounds %class.IrsThread, %class.IrsThread* %3, i32 0, i32 0, !dbg !4953
  call void @_ZNSt6thread4joinEv(%"class.std::thread"* %7), !dbg !4954
  br label %8, !dbg !4953

; <label>:8:                                      ; preds = %6, %1
  ret void, !dbg !4955
}

declare void @_ZNSt6thread4joinEv(%"class.std::thread"*) #1

; Function Attrs: uwtable
define linkonce_odr i64 @_ZNSt6chrono20__duration_cast_implINS_8durationIlSt5ratioILl1ELl1000000EEEES2_ILl1ELl1000EElLb1ELb0EE6__castIlS2_ILl1ELl1000000000EEEES4_RKNS1_IT_T0_EE(%"struct.std::chrono::duration"* dereferenceable(8)) #0 comdat align 2 !dbg !4956 {
  %2 = alloca %"struct.std::chrono::duration.0", align 8
  %3 = alloca %"struct.std::chrono::duration"*, align 8
  %4 = alloca i64, align 8
  store %"struct.std::chrono::duration"* %0, %"struct.std::chrono::duration"** %3, align 8
  call void @llvm.dbg.declare(metadata %"struct.std::chrono::duration"** %3, metadata !4966, metadata !2775), !dbg !4967
  %5 = load %"struct.std::chrono::duration"*, %"struct.std::chrono::duration"** %3, align 8, !dbg !4968
  %6 = call i64 @_ZNKSt6chrono8durationIlSt5ratioILl1ELl1000000000EEE5countEv(%"struct.std::chrono::duration"* %5), !dbg !4969
  %7 = sdiv i64 %6, 1000, !dbg !4970
  store i64 %7, i64* %4, align 8, !dbg !4971
  call void @_ZNSt6chrono8durationIlSt5ratioILl1ELl1000000EEEC2IlvEERKT_(%"struct.std::chrono::duration.0"* %2, i64* dereferenceable(8) %4), !dbg !4972
  %8 = getelementptr inbounds %"struct.std::chrono::duration.0", %"struct.std::chrono::duration.0"* %2, i32 0, i32 0, !dbg !4973
  %9 = load i64, i64* %8, align 8, !dbg !4973
  ret i64 %9, !dbg !4973
}

; Function Attrs: nounwind uwtable
define linkonce_odr i64 @_ZNKSt6chrono8durationIlSt5ratioILl1ELl1000000000EEE5countEv(%"struct.std::chrono::duration"*) #4 comdat align 2 !dbg !4974 {
  %2 = alloca %"struct.std::chrono::duration"*, align 8
  store %"struct.std::chrono::duration"* %0, %"struct.std::chrono::duration"** %2, align 8
  call void @llvm.dbg.declare(metadata %"struct.std::chrono::duration"** %2, metadata !4975, metadata !2775), !dbg !4977
  %3 = load %"struct.std::chrono::duration"*, %"struct.std::chrono::duration"** %2, align 8
  %4 = getelementptr inbounds %"struct.std::chrono::duration", %"struct.std::chrono::duration"* %3, i32 0, i32 0, !dbg !4978
  %5 = load i64, i64* %4, align 8, !dbg !4978
  ret i64 %5, !dbg !4979
}

; Function Attrs: nounwind uwtable
define linkonce_odr void @_ZNSt6chrono8durationIlSt5ratioILl1ELl1000000EEEC2IlvEERKT_(%"struct.std::chrono::duration.0"*, i64* dereferenceable(8)) unnamed_addr #4 comdat align 2 !dbg !4980 {
  %3 = alloca %"struct.std::chrono::duration.0"*, align 8
  %4 = alloca i64*, align 8
  store %"struct.std::chrono::duration.0"* %0, %"struct.std::chrono::duration.0"** %3, align 8
  call void @llvm.dbg.declare(metadata %"struct.std::chrono::duration.0"** %3, metadata !4987, metadata !2775), !dbg !4989
  store i64* %1, i64** %4, align 8
  call void @llvm.dbg.declare(metadata i64** %4, metadata !4990, metadata !2775), !dbg !4991
  %5 = load %"struct.std::chrono::duration.0"*, %"struct.std::chrono::duration.0"** %3, align 8
  %6 = getelementptr inbounds %"struct.std::chrono::duration.0", %"struct.std::chrono::duration.0"* %5, i32 0, i32 0, !dbg !4992
  %7 = load i64*, i64** %4, align 8, !dbg !4993
  %8 = load i64, i64* %7, align 8, !dbg !4993
  store i64 %8, i64* %6, align 8, !dbg !4992
  ret void, !dbg !4994
}

; Function Attrs: uwtable
define linkonce_odr i64 @_ZNSt6chronomiIlSt5ratioILl1ELl1000000000EElS2_EENSt11common_typeIJNS_8durationIT_T0_EENS4_IT1_T2_EEEE4typeERKS7_RKSA_(%"struct.std::chrono::duration"* dereferenceable(8), %"struct.std::chrono::duration"* dereferenceable(8)) #0 comdat !dbg !666 {
  %3 = alloca %"struct.std::chrono::duration", align 8
  %4 = alloca %"struct.std::chrono::duration"*, align 8
  %5 = alloca %"struct.std::chrono::duration"*, align 8
  %6 = alloca i64, align 8
  %7 = alloca %"struct.std::chrono::duration", align 8
  %8 = alloca %"struct.std::chrono::duration", align 8
  store %"struct.std::chrono::duration"* %0, %"struct.std::chrono::duration"** %4, align 8
  call void @llvm.dbg.declare(metadata %"struct.std::chrono::duration"** %4, metadata !4995, metadata !2775), !dbg !4996
  store %"struct.std::chrono::duration"* %1, %"struct.std::chrono::duration"** %5, align 8
  call void @llvm.dbg.declare(metadata %"struct.std::chrono::duration"** %5, metadata !4997, metadata !2775), !dbg !4998
  %9 = load %"struct.std::chrono::duration"*, %"struct.std::chrono::duration"** %4, align 8, !dbg !4999
  %10 = bitcast %"struct.std::chrono::duration"* %7 to i8*, !dbg !5000
  %11 = bitcast %"struct.std::chrono::duration"* %9 to i8*, !dbg !5000
  call void @llvm.memcpy.p0i8.p0i8.i64(i8* %10, i8* %11, i64 8, i32 8, i1 false), !dbg !5000
  %12 = call i64 @_ZNKSt6chrono8durationIlSt5ratioILl1ELl1000000000EEE5countEv(%"struct.std::chrono::duration"* %7), !dbg !5001
  %13 = load %"struct.std::chrono::duration"*, %"struct.std::chrono::duration"** %5, align 8, !dbg !5003
  %14 = bitcast %"struct.std::chrono::duration"* %8 to i8*, !dbg !5004
  %15 = bitcast %"struct.std::chrono::duration"* %13 to i8*, !dbg !5004
  call void @llvm.memcpy.p0i8.p0i8.i64(i8* %14, i8* %15, i64 8, i32 8, i1 false), !dbg !5005
  %16 = call i64 @_ZNKSt6chrono8durationIlSt5ratioILl1ELl1000000000EEE5countEv(%"struct.std::chrono::duration"* %8), !dbg !5007
  %17 = sub nsw i64 %12, %16, !dbg !5009
  store i64 %17, i64* %6, align 8, !dbg !5000
  call void @_ZNSt6chrono8durationIlSt5ratioILl1ELl1000000000EEEC2IlvEERKT_(%"struct.std::chrono::duration"* %3, i64* dereferenceable(8) %6), !dbg !5010
  %18 = getelementptr inbounds %"struct.std::chrono::duration", %"struct.std::chrono::duration"* %3, i32 0, i32 0, !dbg !5012
  %19 = load i64, i64* %18, align 8, !dbg !5012
  ret i64 %19, !dbg !5012
}

; Function Attrs: nounwind uwtable
define linkonce_odr i64 @_ZNKSt6chrono10time_pointINS_3_V212system_clockENS_8durationIlSt5ratioILl1ELl1000000000EEEEE16time_since_epochEv(%"struct.std::chrono::time_point"*) #4 comdat align 2 !dbg !5013 {
  %2 = alloca %"struct.std::chrono::duration", align 8
  %3 = alloca %"struct.std::chrono::time_point"*, align 8
  store %"struct.std::chrono::time_point"* %0, %"struct.std::chrono::time_point"** %3, align 8
  call void @llvm.dbg.declare(metadata %"struct.std::chrono::time_point"** %3, metadata !5014, metadata !2775), !dbg !5016
  %4 = load %"struct.std::chrono::time_point"*, %"struct.std::chrono::time_point"** %3, align 8
  %5 = getelementptr inbounds %"struct.std::chrono::time_point", %"struct.std::chrono::time_point"* %4, i32 0, i32 0, !dbg !5017
  %6 = bitcast %"struct.std::chrono::duration"* %2 to i8*, !dbg !5017
  %7 = bitcast %"struct.std::chrono::duration"* %5 to i8*, !dbg !5017
  call void @llvm.memcpy.p0i8.p0i8.i64(i8* %6, i8* %7, i64 8, i32 8, i1 false), !dbg !5017
  %8 = getelementptr inbounds %"struct.std::chrono::duration", %"struct.std::chrono::duration"* %2, i32 0, i32 0, !dbg !5018
  %9 = load i64, i64* %8, align 8, !dbg !5018
  ret i64 %9, !dbg !5018
}

; Function Attrs: nounwind uwtable
define linkonce_odr void @_ZNSt6chrono8durationIlSt5ratioILl1ELl1000000000EEEC2IlvEERKT_(%"struct.std::chrono::duration"*, i64* dereferenceable(8)) unnamed_addr #4 comdat align 2 !dbg !5019 {
  %3 = alloca %"struct.std::chrono::duration"*, align 8
  %4 = alloca i64*, align 8
  store %"struct.std::chrono::duration"* %0, %"struct.std::chrono::duration"** %3, align 8
  call void @llvm.dbg.declare(metadata %"struct.std::chrono::duration"** %3, metadata !5023, metadata !2775), !dbg !5025
  store i64* %1, i64** %4, align 8
  call void @llvm.dbg.declare(metadata i64** %4, metadata !5026, metadata !2775), !dbg !5027
  %5 = load %"struct.std::chrono::duration"*, %"struct.std::chrono::duration"** %3, align 8
  %6 = getelementptr inbounds %"struct.std::chrono::duration", %"struct.std::chrono::duration"* %5, i32 0, i32 0, !dbg !5028
  %7 = load i64*, i64** %4, align 8, !dbg !5029
  %8 = load i64, i64* %7, align 8, !dbg !5029
  store i64 %8, i64* %6, align 8, !dbg !5028
  ret void, !dbg !5030
}

; Function Attrs: inlinehint nounwind uwtable
define linkonce_odr void @_ZN9IrsThreadD2Ev(%class.IrsThread*) unnamed_addr #7 comdat align 2 !dbg !5031 {
  %2 = alloca %class.IrsThread*, align 8
  store %class.IrsThread* %0, %class.IrsThread** %2, align 8
  call void @llvm.dbg.declare(metadata %class.IrsThread** %2, metadata !5033, metadata !2775), !dbg !5034
  %3 = load %class.IrsThread*, %class.IrsThread** %2, align 8
  %4 = getelementptr inbounds %class.IrsThread, %class.IrsThread* %3, i32 0, i32 0, !dbg !5035
  call void @_ZNSt6threadD2Ev(%"class.std::thread"* %4) #3, !dbg !5035
  ret void, !dbg !5037
}

; Function Attrs: uwtable
define internal void @_GLOBAL__sub_I_lamport.cpp() #0 section ".text.startup" !dbg !5038 {
  call void @__cxx_global_var_init(), !dbg !5040
  call void @__cxx_global_var_init.1(), !dbg !5041
  call void @__cxx_global_var_init.2(), !dbg !5043
  ret void
}

attributes #0 = { uwtable "disable-tail-calls"="false" "less-precise-fpmad"="false" "no-frame-pointer-elim"="true" "no-frame-pointer-elim-non-leaf" "no-infs-fp-math"="false" "no-jump-tables"="false" "no-nans-fp-math"="false" "no-signed-zeros-fp-math"="false" "stack-protector-buffer-size"="8" "target-cpu"="x86-64" "target-features"="+fxsr,+mmx,+sse,+sse2,+x87" "unsafe-fp-math"="false" "use-soft-float"="false" }
attributes #1 = { "disable-tail-calls"="false" "less-precise-fpmad"="false" "no-frame-pointer-elim"="true" "no-frame-pointer-elim-non-leaf" "no-infs-fp-math"="false" "no-nans-fp-math"="false" "no-signed-zeros-fp-math"="false" "stack-protector-buffer-size"="8" "target-cpu"="x86-64" "target-features"="+fxsr,+mmx,+sse,+sse2,+x87" "unsafe-fp-math"="false" "use-soft-float"="false" }
attributes #2 = { nounwind "disable-tail-calls"="false" "less-precise-fpmad"="false" "no-frame-pointer-elim"="true" "no-frame-pointer-elim-non-leaf" "no-infs-fp-math"="false" "no-nans-fp-math"="false" "no-signed-zeros-fp-math"="false" "stack-protector-buffer-size"="8" "target-cpu"="x86-64" "target-features"="+fxsr,+mmx,+sse,+sse2,+x87" "unsafe-fp-math"="false" "use-soft-float"="false" }
attributes #3 = { nounwind }
attributes #4 = { nounwind uwtable "disable-tail-calls"="false" "less-precise-fpmad"="false" "no-frame-pointer-elim"="true" "no-frame-pointer-elim-non-leaf" "no-infs-fp-math"="false" "no-jump-tables"="false" "no-nans-fp-math"="false" "no-signed-zeros-fp-math"="false" "stack-protector-buffer-size"="8" "target-cpu"="x86-64" "target-features"="+fxsr,+mmx,+sse,+sse2,+x87" "unsafe-fp-math"="false" "use-soft-float"="false" }
attributes #5 = { nounwind readnone }
attributes #6 = { noinline uwtable "disable-tail-calls"="false" "less-precise-fpmad"="false" "no-frame-pointer-elim"="true" "no-frame-pointer-elim-non-leaf" "no-infs-fp-math"="false" "no-jump-tables"="false" "no-nans-fp-math"="false" "no-signed-zeros-fp-math"="false" "stack-protector-buffer-size"="8" "target-cpu"="x86-64" "target-features"="+fxsr,+mmx,+sse,+sse2,+x87" "unsafe-fp-math"="false" "use-soft-float"="false" }
attributes #7 = { inlinehint nounwind uwtable "disable-tail-calls"="false" "less-precise-fpmad"="false" "no-frame-pointer-elim"="true" "no-frame-pointer-elim-non-leaf" "no-infs-fp-math"="false" "no-jump-tables"="false" "no-nans-fp-math"="false" "no-signed-zeros-fp-math"="false" "stack-protector-buffer-size"="8" "target-cpu"="x86-64" "target-features"="+fxsr,+mmx,+sse,+sse2,+x87" "unsafe-fp-math"="false" "use-soft-float"="false" }
attributes #8 = { noreturn nounwind "disable-tail-calls"="false" "less-precise-fpmad"="false" "no-frame-pointer-elim"="true" "no-frame-pointer-elim-non-leaf" "no-infs-fp-math"="false" "no-nans-fp-math"="false" "no-signed-zeros-fp-math"="false" "stack-protector-buffer-size"="8" "target-cpu"="x86-64" "target-features"="+fxsr,+mmx,+sse,+sse2,+x87" "unsafe-fp-math"="false" "use-soft-float"="false" }
attributes #9 = { argmemonly nounwind }
attributes #10 = { nobuiltin "disable-tail-calls"="false" "less-precise-fpmad"="false" "no-frame-pointer-elim"="true" "no-frame-pointer-elim-non-leaf" "no-infs-fp-math"="false" "no-nans-fp-math"="false" "no-signed-zeros-fp-math"="false" "stack-protector-buffer-size"="8" "target-cpu"="x86-64" "target-features"="+fxsr,+mmx,+sse,+sse2,+x87" "unsafe-fp-math"="false" "use-soft-float"="false" }
attributes #11 = { nobuiltin nounwind "disable-tail-calls"="false" "less-precise-fpmad"="false" "no-frame-pointer-elim"="true" "no-frame-pointer-elim-non-leaf" "no-infs-fp-math"="false" "no-nans-fp-math"="false" "no-signed-zeros-fp-math"="false" "stack-protector-buffer-size"="8" "target-cpu"="x86-64" "target-features"="+fxsr,+mmx,+sse,+sse2,+x87" "unsafe-fp-math"="false" "use-soft-float"="false" }
attributes #12 = { noinline noreturn nounwind }
attributes #13 = { inlinehint uwtable "disable-tail-calls"="false" "less-precise-fpmad"="false" "no-frame-pointer-elim"="true" "no-frame-pointer-elim-non-leaf" "no-infs-fp-math"="false" "no-jump-tables"="false" "no-nans-fp-math"="false" "no-signed-zeros-fp-math"="false" "stack-protector-buffer-size"="8" "target-cpu"="x86-64" "target-features"="+fxsr,+mmx,+sse,+sse2,+x87" "unsafe-fp-math"="false" "use-soft-float"="false" }
attributes #14 = { noreturn nounwind }
attributes #15 = { builtin }
attributes #16 = { builtin nounwind }

!llvm.dbg.cu = !{!0}
!llvm.module.flags = !{!2762, !2763}
!llvm.ident = !{!2764}

!0 = distinct !DICompileUnit(language: DW_LANG_C_plus_plus, file: !1, producer: "clang version 3.9.1-5ubuntu1.1 (tags/RELEASE_391/rc2)", isOptimized: false, runtimeVersion: 0, emissionKind: FullDebug, enums: !2, retainedTypes: !36, globals: !739, imports: !793)
!1 = !DIFile(filename: "/home/sreeram/Dev/mastersthesis/userspace_implementation_thesis_ver/MemoryCheck/src/Benchmark/lamport.cpp", directory: "/home/sreeram/Dev/mastersthesis/userspace_implementation_thesis_ver/MemoryCheck/build/src/Benchmark")
!2 = !{!3, !11, !21}
!3 = !DICompositeType(tag: DW_TAG_enumeration_type, name: "_Lock_policy", scope: !5, file: !4, line: 49, size: 32, align: 32, elements: !7, identifier: "_ZTSN9__gnu_cxx12_Lock_policyE")
!4 = !DIFile(filename: "/usr/bin/../lib/gcc/x86_64-linux-gnu/6.3.0/../../../../include/c++/6.3.0/ext/concurrence.h", directory: "/home/sreeram/Dev/mastersthesis/userspace_implementation_thesis_ver/MemoryCheck/build/src/Benchmark")
!5 = !DINamespace(name: "__gnu_cxx", scope: null, file: !6, line: 225)
!6 = !DIFile(filename: "/usr/bin/../lib/gcc/x86_64-linux-gnu/6.3.0/../../../../include/x86_64-linux-gnu/c++/6.3.0/bits/c++config.h", directory: "/home/sreeram/Dev/mastersthesis/userspace_implementation_thesis_ver/MemoryCheck/build/src/Benchmark")
!7 = !{!8, !9, !10}
!8 = !DIEnumerator(name: "_S_single", value: 0)
!9 = !DIEnumerator(name: "_S_mutex", value: 1)
!10 = !DIEnumerator(name: "_S_atomic", value: 2)
!11 = !DICompositeType(tag: DW_TAG_enumeration_type, name: "default_color_type", scope: !13, file: !12, line: 32, size: 32, align: 32, elements: !15, identifier: "_ZTSN5boost18default_color_typeE")
!12 = !DIFile(filename: "/usr/include/boost/graph/properties.hpp", directory: "/home/sreeram/Dev/mastersthesis/userspace_implementation_thesis_ver/MemoryCheck/build/src/Benchmark")
!13 = !DINamespace(name: "boost", scope: null, file: !14, line: 484)
!14 = !DIFile(filename: "/usr/include/boost/config/suffix.hpp", directory: "/home/sreeram/Dev/mastersthesis/userspace_implementation_thesis_ver/MemoryCheck/build/src/Benchmark")
!15 = !{!16, !17, !18, !19, !20}
!16 = !DIEnumerator(name: "white_color", value: 0)
!17 = !DIEnumerator(name: "gray_color", value: 1)
!18 = !DIEnumerator(name: "green_color", value: 2)
!19 = !DIEnumerator(name: "red_color", value: 3)
!20 = !DIEnumerator(name: "black_color", value: 4)
!21 = !DICompositeType(tag: DW_TAG_enumeration_type, name: "syntax_option_type", scope: !23, file: !22, line: 29, size: 32, align: 32, elements: !26, identifier: "_ZTSN5boost9xpressive15regex_constants18syntax_option_typeE")
!22 = !DIFile(filename: "/usr/include/boost/xpressive/regex_constants.hpp", directory: "/home/sreeram/Dev/mastersthesis/userspace_implementation_thesis_ver/MemoryCheck/build/src/Benchmark")
!23 = !DINamespace(name: "regex_constants", scope: !24, file: !22, line: 24)
!24 = !DINamespace(name: "xpressive", scope: !13, file: !25, line: 52)
!25 = !DIFile(filename: "/usr/include/boost/xpressive/xpressive_fwd.hpp", directory: "/home/sreeram/Dev/mastersthesis/userspace_implementation_thesis_ver/MemoryCheck/build/src/Benchmark")
!26 = !{!27, !28, !29, !30, !31, !32, !33, !34, !35}
!27 = !DIEnumerator(name: "ECMAScript", value: 0)
!28 = !DIEnumerator(name: "icase_", value: 2)
!29 = !DIEnumerator(name: "nosubs", value: 4)
!30 = !DIEnumerator(name: "optimize", value: 8)
!31 = !DIEnumerator(name: "collate", value: 16)
!32 = !DIEnumerator(name: "single_line", value: 1024)
!33 = !DIEnumerator(name: "not_dot_null", value: 2048)
!34 = !DIEnumerator(name: "not_dot_newline", value: 4096)
!35 = !DIEnumerator(name: "ignore_white_space", value: 8192)
!36 = !{!37, !40, !497, !537, !566, !601, !607, !606, !665, !676, !733}
!37 = !DIDerivedType(tag: DW_TAG_pointer_type, baseType: !38, size: 64, align: 64)
!38 = !DISubroutineType(types: !39)
!39 = !{null}
!40 = !DIDerivedType(tag: DW_TAG_typedef, name: "__tag", scope: !42, file: !41, line: 249, baseType: !490)
!41 = !DIFile(filename: "/usr/bin/../lib/gcc/x86_64-linux-gnu/6.3.0/../../../../include/c++/6.3.0/functional", directory: "/home/sreeram/Dev/mastersthesis/userspace_implementation_thesis_ver/MemoryCheck/build/src/Benchmark")
!42 = distinct !DISubprogram(name: "__invoke<void (lamport::Thread0::*const &)(), lamport::Thread0 *>", linkageName: "_ZSt8__invokeIRKMN7lamport7Thread0EFvvEJPS1_EENSt9result_ofIFOT_DpOT0_EE4typeES9_SC_", scope: !43, file: !41, line: 245, type: !44, isLocal: false, isDefinition: true, scopeLine: 246, flags: DIFlagPrototyped, isOptimized: false, unit: !0, templateParams: !485, variables: !49)
!43 = !DINamespace(name: "std", scope: null, file: !6, line: 199)
!44 = !DISubroutineType(types: !45)
!45 = !{!46, !52, !483}
!46 = !DIDerivedType(tag: DW_TAG_typedef, name: "type", scope: !48, file: !47, line: 191, baseType: null)
!47 = !DIFile(filename: "/usr/bin/../lib/gcc/x86_64-linux-gnu/6.3.0/../../../../include/c++/6.3.0/type_traits", directory: "/home/sreeram/Dev/mastersthesis/userspace_implementation_thesis_ver/MemoryCheck/build/src/Benchmark")
!48 = distinct !DICompositeType(tag: DW_TAG_structure_type, name: "__success_type<void>", scope: !43, file: !47, line: 190, size: 8, align: 8, elements: !49, templateParams: !50, identifier: "_ZTSSt14__success_typeIvE")
!49 = !{}
!50 = !{!51}
!51 = !DITemplateTypeParameter(name: "_Tp", type: null)
!52 = !DIDerivedType(tag: DW_TAG_reference_type, baseType: !53, size: 64, align: 64)
!53 = !DIDerivedType(tag: DW_TAG_const_type, baseType: !54)
!54 = !DIDerivedType(tag: DW_TAG_ptr_to_member_type, baseType: !55, size: 128, extraData: !58)
!55 = !DISubroutineType(types: !56)
!56 = !{null, !57}
!57 = !DIDerivedType(tag: DW_TAG_pointer_type, baseType: !58, size: 64, align: 64, flags: DIFlagArtificial | DIFlagObjectPointer)
!58 = distinct !DICompositeType(tag: DW_TAG_class_type, name: "Thread0", scope: !59, file: !1, line: 18, size: 128, align: 64, elements: !61, identifier: "_ZTSN7lamport7Thread0E")
!59 = !DINamespace(name: "lamport", scope: null, file: !60, line: 4)
!60 = !DIFile(filename: "/home/sreeram/Dev/mastersthesis/userspace_implementation_thesis_ver/MemoryCheck/src/Benchmark/../../include/Benchmark/lamport.h", directory: "/home/sreeram/Dev/mastersthesis/userspace_implementation_thesis_ver/MemoryCheck/build/src/Benchmark")
!61 = !{!62, !474, !477, !480, !481, !482}
!62 = !DIDerivedType(tag: DW_TAG_member, name: "m_thread", scope: !58, file: !1, line: 58, baseType: !63, size: 128, align: 64)
!63 = distinct !DICompositeType(tag: DW_TAG_class_type, name: "IrsThread", file: !64, line: 10, size: 128, align: 64, elements: !65, identifier: "_ZTS9IrsThread")
!64 = !DIFile(filename: "/home/sreeram/Dev/mastersthesis/userspace_implementation_thesis_ver/MemoryCheck/src/Benchmark/../../include/Benchmark/IrsThread.h", directory: "/home/sreeram/Dev/mastersthesis/userspace_implementation_thesis_ver/MemoryCheck/build/src/Benchmark")
!65 = !{!66, !449, !451, !455, !460, !463, !466, !470}
!66 = !DIDerivedType(tag: DW_TAG_member, name: "m_thread", scope: !63, file: !64, line: 30, baseType: !67, size: 64, align: 64)
!67 = distinct !DICompositeType(tag: DW_TAG_class_type, name: "thread", scope: !43, file: !68, line: 61, size: 64, align: 64, elements: !69, identifier: "_ZTSSt6thread")
!68 = !DIFile(filename: "/usr/bin/../lib/gcc/x86_64-linux-gnu/6.3.0/../../../../include/c++/6.3.0/thread", directory: "/home/sreeram/Dev/mastersthesis/userspace_implementation_thesis_ver/MemoryCheck/build/src/Benchmark")
!69 = !{!70, !87, !91, !95, !100, !104, !108, !109, !112, !115, !116, !121, !122, !123, !126, !129, !133}
!70 = !DIDerivedType(tag: DW_TAG_member, name: "_M_id", scope: !67, file: !68, line: 114, baseType: !71, size: 64, align: 64)
!71 = distinct !DICompositeType(tag: DW_TAG_class_type, name: "id", scope: !67, file: !68, line: 76, size: 64, align: 64, elements: !72, identifier: "_ZTSNSt6thread2idE")
!72 = !{!73, !80, !84}
!73 = !DIDerivedType(tag: DW_TAG_member, name: "_M_thread", scope: !71, file: !68, line: 78, baseType: !74, size: 64, align: 64)
!74 = !DIDerivedType(tag: DW_TAG_typedef, name: "native_handle_type", scope: !67, file: !68, line: 73, baseType: !75)
!75 = !DIDerivedType(tag: DW_TAG_typedef, name: "__gthread_t", file: !76, line: 47, baseType: !77)
!76 = !DIFile(filename: "/usr/bin/../lib/gcc/x86_64-linux-gnu/6.3.0/../../../../include/x86_64-linux-gnu/c++/6.3.0/bits/gthr-default.h", directory: "/home/sreeram/Dev/mastersthesis/userspace_implementation_thesis_ver/MemoryCheck/build/src/Benchmark")
!77 = !DIDerivedType(tag: DW_TAG_typedef, name: "pthread_t", file: !78, line: 60, baseType: !79)
!78 = !DIFile(filename: "/usr/include/x86_64-linux-gnu/bits/pthreadtypes.h", directory: "/home/sreeram/Dev/mastersthesis/userspace_implementation_thesis_ver/MemoryCheck/build/src/Benchmark")
!79 = !DIBasicType(name: "long unsigned int", size: 64, align: 64, encoding: DW_ATE_unsigned)
!80 = !DISubprogram(name: "id", scope: !71, file: !68, line: 81, type: !81, isLocal: false, isDefinition: false, scopeLine: 81, flags: DIFlagPublic | DIFlagPrototyped, isOptimized: false)
!81 = !DISubroutineType(types: !82)
!82 = !{null, !83}
!83 = !DIDerivedType(tag: DW_TAG_pointer_type, baseType: !71, size: 64, align: 64, flags: DIFlagArtificial | DIFlagObjectPointer)
!84 = !DISubprogram(name: "id", scope: !71, file: !68, line: 84, type: !85, isLocal: false, isDefinition: false, scopeLine: 84, flags: DIFlagPublic | DIFlagExplicit | DIFlagPrototyped, isOptimized: false)
!85 = !DISubroutineType(types: !86)
!86 = !{null, !83, !74}
!87 = !DISubprogram(name: "thread", scope: !67, file: !68, line: 117, type: !88, isLocal: false, isDefinition: false, scopeLine: 117, flags: DIFlagPublic | DIFlagPrototyped, isOptimized: false)
!88 = !DISubroutineType(types: !89)
!89 = !{null, !90}
!90 = !DIDerivedType(tag: DW_TAG_pointer_type, baseType: !67, size: 64, align: 64, flags: DIFlagArtificial | DIFlagObjectPointer)
!91 = !DISubprogram(name: "thread", scope: !67, file: !68, line: 120, type: !92, isLocal: false, isDefinition: false, scopeLine: 120, flags: DIFlagPublic | DIFlagPrototyped, isOptimized: false)
!92 = !DISubroutineType(types: !93)
!93 = !{null, !90, !94}
!94 = !DIDerivedType(tag: DW_TAG_reference_type, baseType: !67, size: 64, align: 64)
!95 = !DISubprogram(name: "thread", scope: !67, file: !68, line: 121, type: !96, isLocal: false, isDefinition: false, scopeLine: 121, flags: DIFlagPublic | DIFlagPrototyped, isOptimized: false)
!96 = !DISubroutineType(types: !97)
!97 = !{null, !90, !98}
!98 = !DIDerivedType(tag: DW_TAG_reference_type, baseType: !99, size: 64, align: 64)
!99 = !DIDerivedType(tag: DW_TAG_const_type, baseType: !67)
!100 = !DISubprogram(name: "thread", scope: !67, file: !68, line: 122, type: !101, isLocal: false, isDefinition: false, scopeLine: 122, flags: DIFlagPublic | DIFlagPrototyped, isOptimized: false)
!101 = !DISubroutineType(types: !102)
!102 = !{null, !90, !103}
!103 = !DIDerivedType(tag: DW_TAG_rvalue_reference_type, baseType: !99, size: 64, align: 64)
!104 = !DISubprogram(name: "thread", scope: !67, file: !68, line: 124, type: !105, isLocal: false, isDefinition: false, scopeLine: 124, flags: DIFlagPublic | DIFlagPrototyped, isOptimized: false)
!105 = !DISubroutineType(types: !106)
!106 = !{null, !90, !107}
!107 = !DIDerivedType(tag: DW_TAG_rvalue_reference_type, baseType: !67, size: 64, align: 64)
!108 = !DISubprogram(name: "~thread", scope: !67, file: !68, line: 143, type: !88, isLocal: false, isDefinition: false, scopeLine: 143, flags: DIFlagPublic | DIFlagPrototyped, isOptimized: false)
!109 = !DISubprogram(name: "operator=", linkageName: "_ZNSt6threadaSERKS_", scope: !67, file: !68, line: 149, type: !110, isLocal: false, isDefinition: false, scopeLine: 149, flags: DIFlagPublic | DIFlagPrototyped, isOptimized: false)
!110 = !DISubroutineType(types: !111)
!111 = !{!94, !90, !98}
!112 = !DISubprogram(name: "operator=", linkageName: "_ZNSt6threadaSEOS_", scope: !67, file: !68, line: 151, type: !113, isLocal: false, isDefinition: false, scopeLine: 151, flags: DIFlagPublic | DIFlagPrototyped, isOptimized: false)
!113 = !DISubroutineType(types: !114)
!114 = !{!94, !90, !107}
!115 = !DISubprogram(name: "swap", linkageName: "_ZNSt6thread4swapERS_", scope: !67, file: !68, line: 160, type: !92, isLocal: false, isDefinition: false, scopeLine: 160, flags: DIFlagPublic | DIFlagPrototyped, isOptimized: false)
!116 = !DISubprogram(name: "joinable", linkageName: "_ZNKSt6thread8joinableEv", scope: !67, file: !68, line: 164, type: !117, isLocal: false, isDefinition: false, scopeLine: 164, flags: DIFlagPublic | DIFlagPrototyped, isOptimized: false)
!117 = !DISubroutineType(types: !118)
!118 = !{!119, !120}
!119 = !DIBasicType(name: "bool", size: 8, align: 8, encoding: DW_ATE_boolean)
!120 = !DIDerivedType(tag: DW_TAG_pointer_type, baseType: !99, size: 64, align: 64, flags: DIFlagArtificial | DIFlagObjectPointer)
!121 = !DISubprogram(name: "join", linkageName: "_ZNSt6thread4joinEv", scope: !67, file: !68, line: 168, type: !88, isLocal: false, isDefinition: false, scopeLine: 168, flags: DIFlagPublic | DIFlagPrototyped, isOptimized: false)
!122 = !DISubprogram(name: "detach", linkageName: "_ZNSt6thread6detachEv", scope: !67, file: !68, line: 171, type: !88, isLocal: false, isDefinition: false, scopeLine: 171, flags: DIFlagPublic | DIFlagPrototyped, isOptimized: false)
!123 = !DISubprogram(name: "get_id", linkageName: "_ZNKSt6thread6get_idEv", scope: !67, file: !68, line: 174, type: !124, isLocal: false, isDefinition: false, scopeLine: 174, flags: DIFlagPublic | DIFlagPrototyped, isOptimized: false)
!124 = !DISubroutineType(types: !125)
!125 = !{!71, !120}
!126 = !DISubprogram(name: "native_handle", linkageName: "_ZNSt6thread13native_handleEv", scope: !67, file: !68, line: 180, type: !127, isLocal: false, isDefinition: false, scopeLine: 180, flags: DIFlagPublic | DIFlagPrototyped, isOptimized: false)
!127 = !DISubroutineType(types: !128)
!128 = !{!74, !90}
!129 = !DISubprogram(name: "hardware_concurrency", linkageName: "_ZNSt6thread20hardware_concurrencyEv", scope: !67, file: !68, line: 185, type: !130, isLocal: false, isDefinition: false, scopeLine: 185, flags: DIFlagPublic | DIFlagPrototyped, isOptimized: false)
!130 = !DISubroutineType(types: !131)
!131 = !{!132}
!132 = !DIBasicType(name: "unsigned int", size: 32, align: 32, encoding: DW_ATE_unsigned)
!133 = !DISubprogram(name: "_M_start_thread", linkageName: "_ZNSt6thread15_M_start_threadESt10unique_ptrINS_6_StateESt14default_deleteIS1_EEPFvvE", scope: !67, file: !68, line: 201, type: !134, isLocal: false, isDefinition: false, scopeLine: 201, flags: DIFlagPrototyped, isOptimized: false)
!134 = !DISubroutineType(types: !135)
!135 = !{null, !90, !136, !37}
!136 = !DIDerivedType(tag: DW_TAG_typedef, name: "_State_ptr", scope: !67, file: !68, line: 71, baseType: !137)
!137 = distinct !DICompositeType(tag: DW_TAG_class_type, name: "unique_ptr<std::thread::_State, std::default_delete<std::thread::_State> >", scope: !43, file: !138, line: 116, size: 64, align: 64, elements: !139, templateParams: !447, identifier: "_ZTSSt10unique_ptrINSt6thread6_StateESt14default_deleteIS1_EE")
!138 = !DIFile(filename: "/usr/bin/../lib/gcc/x86_64-linux-gnu/6.3.0/../../../../include/c++/6.3.0/bits/unique_ptr.h", directory: "/home/sreeram/Dev/mastersthesis/userspace_implementation_thesis_ver/MemoryCheck/build/src/Benchmark")
!139 = !{!140, !362, !366, !372, !381, !389, !394, !398, !399, !403, !406, !416, !419, !420, !425, !430, !433, !436, !437, !440, !444}
!140 = !DIDerivedType(tag: DW_TAG_member, name: "_M_t", scope: !137, file: !138, line: 134, baseType: !141, size: 64, align: 64)
!141 = !DIDerivedType(tag: DW_TAG_typedef, name: "__tuple_type", scope: !137, file: !138, line: 133, baseType: !142)
!142 = distinct !DICompositeType(tag: DW_TAG_class_type, name: "tuple<std::thread::_State *, std::default_delete<std::thread::_State> >", scope: !43, file: !143, line: 866, size: 64, align: 64, elements: !144, templateParams: !361, identifier: "_ZTSSt5tupleIJPNSt6thread6_StateESt14default_deleteIS1_EEE")
!143 = !DIFile(filename: "/usr/bin/../lib/gcc/x86_64-linux-gnu/6.3.0/../../../../include/c++/6.3.0/tuple", directory: "/home/sreeram/Dev/mastersthesis/userspace_implementation_thesis_ver/MemoryCheck/build/src/Benchmark")
!144 = !{!145, !341, !347, !351, !355, !358}
!145 = !DIDerivedType(tag: DW_TAG_inheritance, scope: !142, baseType: !146, flags: DIFlagPublic)
!146 = distinct !DICompositeType(tag: DW_TAG_structure_type, name: "_Tuple_impl<0, std::thread::_State *, std::default_delete<std::thread::_State> >", scope: !43, file: !143, line: 180, size: 64, align: 64, elements: !147, templateParams: !337, identifier: "_ZTSSt11_Tuple_implILm0EJPNSt6thread6_StateESt14default_deleteIS1_EEE")
!147 = !{!148, !258, !295, !299, !304, !309, !314, !318, !321, !324, !328, !331, !334}
!148 = !DIDerivedType(tag: DW_TAG_inheritance, scope: !146, baseType: !149)
!149 = distinct !DICompositeType(tag: DW_TAG_structure_type, name: "_Tuple_impl<1, std::default_delete<std::thread::_State> >", scope: !43, file: !143, line: 338, size: 8, align: 8, elements: !150, templateParams: !254, identifier: "_ZTSSt11_Tuple_implILm1EJSt14default_deleteINSt6thread6_StateEEEE")
!150 = !{!151, !222, !226, !231, !235, !238, !241, !245, !248, !251}
!151 = !DIDerivedType(tag: DW_TAG_inheritance, scope: !149, baseType: !152, flags: DIFlagPrivate)
!152 = distinct !DICompositeType(tag: DW_TAG_structure_type, name: "_Head_base<1, std::default_delete<std::thread::_State>, true>", scope: !43, file: !143, line: 55, size: 8, align: 8, elements: !153, templateParams: !218, identifier: "_ZTSSt10_Head_baseILm1ESt14default_deleteINSt6thread6_StateEELb1EE")
!153 = !{!154, !170, !174, !178, !183, !187, !210, !215}
!154 = !DIDerivedType(tag: DW_TAG_inheritance, scope: !152, baseType: !155)
!155 = distinct !DICompositeType(tag: DW_TAG_structure_type, name: "default_delete<std::thread::_State>", scope: !43, file: !138, line: 54, size: 8, align: 8, elements: !156, templateParams: !168, identifier: "_ZTSSt14default_deleteINSt6thread6_StateEE")
!156 = !{!157, !161}
!157 = !DISubprogram(name: "default_delete", scope: !155, file: !138, line: 57, type: !158, isLocal: false, isDefinition: false, scopeLine: 57, flags: DIFlagPrototyped, isOptimized: false)
!158 = !DISubroutineType(types: !159)
!159 = !{null, !160}
!160 = !DIDerivedType(tag: DW_TAG_pointer_type, baseType: !155, size: 64, align: 64, flags: DIFlagArtificial | DIFlagObjectPointer)
!161 = !DISubprogram(name: "operator()", linkageName: "_ZNKSt14default_deleteINSt6thread6_StateEEclEPS1_", scope: !155, file: !138, line: 70, type: !162, isLocal: false, isDefinition: false, scopeLine: 70, flags: DIFlagPrototyped, isOptimized: false)
!162 = !DISubroutineType(types: !163)
!163 = !{null, !164, !166}
!164 = !DIDerivedType(tag: DW_TAG_pointer_type, baseType: !165, size: 64, align: 64, flags: DIFlagArtificial | DIFlagObjectPointer)
!165 = !DIDerivedType(tag: DW_TAG_const_type, baseType: !155)
!166 = !DIDerivedType(tag: DW_TAG_pointer_type, baseType: !167, size: 64, align: 64)
!167 = !DICompositeType(tag: DW_TAG_structure_type, name: "_State", scope: !67, file: !68, line: 66, size: 64, align: 64, flags: DIFlagFwdDecl, identifier: "_ZTSNSt6thread6_StateE")
!168 = !{!169}
!169 = !DITemplateTypeParameter(name: "_Tp", type: !167)
!170 = !DISubprogram(name: "_Head_base", scope: !152, file: !143, line: 58, type: !171, isLocal: false, isDefinition: false, scopeLine: 58, flags: DIFlagPrototyped, isOptimized: false)
!171 = !DISubroutineType(types: !172)
!172 = !{null, !173}
!173 = !DIDerivedType(tag: DW_TAG_pointer_type, baseType: !152, size: 64, align: 64, flags: DIFlagArtificial | DIFlagObjectPointer)
!174 = !DISubprogram(name: "_Head_base", scope: !152, file: !143, line: 61, type: !175, isLocal: false, isDefinition: false, scopeLine: 61, flags: DIFlagPrototyped, isOptimized: false)
!175 = !DISubroutineType(types: !176)
!176 = !{null, !173, !177}
!177 = !DIDerivedType(tag: DW_TAG_reference_type, baseType: !165, size: 64, align: 64)
!178 = !DISubprogram(name: "_Head_base", scope: !152, file: !143, line: 64, type: !179, isLocal: false, isDefinition: false, scopeLine: 64, flags: DIFlagPrototyped, isOptimized: false)
!179 = !DISubroutineType(types: !180)
!180 = !{null, !173, !181}
!181 = !DIDerivedType(tag: DW_TAG_reference_type, baseType: !182, size: 64, align: 64)
!182 = !DIDerivedType(tag: DW_TAG_const_type, baseType: !152)
!183 = !DISubprogram(name: "_Head_base", scope: !152, file: !143, line: 65, type: !184, isLocal: false, isDefinition: false, scopeLine: 65, flags: DIFlagPrototyped, isOptimized: false)
!184 = !DISubroutineType(types: !185)
!185 = !{null, !173, !186}
!186 = !DIDerivedType(tag: DW_TAG_rvalue_reference_type, baseType: !152, size: 64, align: 64)
!187 = !DISubprogram(name: "_Head_base", scope: !152, file: !143, line: 71, type: !188, isLocal: false, isDefinition: false, scopeLine: 71, flags: DIFlagPrototyped, isOptimized: false)
!188 = !DISubroutineType(types: !189)
!189 = !{null, !173, !190, !197}
!190 = distinct !DICompositeType(tag: DW_TAG_structure_type, name: "allocator_arg_t", scope: !43, file: !191, line: 46, size: 8, align: 8, elements: !192, identifier: "_ZTSSt15allocator_arg_t")
!191 = !DIFile(filename: "/usr/bin/../lib/gcc/x86_64-linux-gnu/6.3.0/../../../../include/c++/6.3.0/bits/uses_allocator.h", directory: "/home/sreeram/Dev/mastersthesis/userspace_implementation_thesis_ver/MemoryCheck/build/src/Benchmark")
!192 = !{!193}
!193 = !DISubprogram(name: "allocator_arg_t", scope: !190, file: !191, line: 46, type: !194, isLocal: false, isDefinition: false, scopeLine: 46, flags: DIFlagExplicit | DIFlagPrototyped, isOptimized: false)
!194 = !DISubroutineType(types: !195)
!195 = !{null, !196}
!196 = !DIDerivedType(tag: DW_TAG_pointer_type, baseType: !190, size: 64, align: 64, flags: DIFlagArtificial | DIFlagObjectPointer)
!197 = distinct !DICompositeType(tag: DW_TAG_structure_type, name: "__uses_alloc0", scope: !43, file: !191, line: 68, size: 8, align: 8, elements: !198, identifier: "_ZTSSt13__uses_alloc0")
!198 = !{!199, !201}
!199 = !DIDerivedType(tag: DW_TAG_inheritance, scope: !197, baseType: !200)
!200 = distinct !DICompositeType(tag: DW_TAG_structure_type, name: "__uses_alloc_base", scope: !43, file: !191, line: 66, size: 8, align: 8, elements: !49, identifier: "_ZTSSt17__uses_alloc_base")
!201 = !DIDerivedType(tag: DW_TAG_member, name: "_M_a", scope: !197, file: !191, line: 70, baseType: !202, size: 8, align: 8)
!202 = distinct !DICompositeType(tag: DW_TAG_structure_type, name: "_Sink", scope: !197, file: !191, line: 70, size: 8, align: 8, elements: !203, identifier: "_ZTSNSt13__uses_alloc05_SinkE")
!203 = !{!204}
!204 = !DISubprogram(name: "operator=", linkageName: "_ZNSt13__uses_alloc05_SinkaSEPKv", scope: !202, file: !191, line: 70, type: !205, isLocal: false, isDefinition: false, scopeLine: 70, flags: DIFlagPrototyped, isOptimized: false)
!205 = !DISubroutineType(types: !206)
!206 = !{null, !207, !208}
!207 = !DIDerivedType(tag: DW_TAG_pointer_type, baseType: !202, size: 64, align: 64, flags: DIFlagArtificial | DIFlagObjectPointer)
!208 = !DIDerivedType(tag: DW_TAG_pointer_type, baseType: !209, size: 64, align: 64)
!209 = !DIDerivedType(tag: DW_TAG_const_type, baseType: null)
!210 = !DISubprogram(name: "_M_head", linkageName: "_ZNSt10_Head_baseILm1ESt14default_deleteINSt6thread6_StateEELb1EE7_M_headERS4_", scope: !152, file: !143, line: 95, type: !211, isLocal: false, isDefinition: false, scopeLine: 95, flags: DIFlagPrototyped, isOptimized: false)
!211 = !DISubroutineType(types: !212)
!212 = !{!213, !214}
!213 = !DIDerivedType(tag: DW_TAG_reference_type, baseType: !155, size: 64, align: 64)
!214 = !DIDerivedType(tag: DW_TAG_reference_type, baseType: !152, size: 64, align: 64)
!215 = !DISubprogram(name: "_M_head", linkageName: "_ZNSt10_Head_baseILm1ESt14default_deleteINSt6thread6_StateEELb1EE7_M_headERKS4_", scope: !152, file: !143, line: 98, type: !216, isLocal: false, isDefinition: false, scopeLine: 98, flags: DIFlagPrototyped, isOptimized: false)
!216 = !DISubroutineType(types: !217)
!217 = !{!177, !181}
!218 = !{!219, !220, !221}
!219 = !DITemplateValueParameter(name: "_Idx", type: !79, value: i64 1)
!220 = !DITemplateTypeParameter(name: "_Head", type: !155)
!221 = !DITemplateValueParameter(name: "_IsEmptyNotFinal", type: !119, value: i8 1)
!222 = !DISubprogram(name: "_M_head", linkageName: "_ZNSt11_Tuple_implILm1EJSt14default_deleteINSt6thread6_StateEEEE7_M_headERS4_", scope: !149, file: !143, line: 346, type: !223, isLocal: false, isDefinition: false, scopeLine: 346, flags: DIFlagPrototyped, isOptimized: false)
!223 = !DISubroutineType(types: !224)
!224 = !{!213, !225}
!225 = !DIDerivedType(tag: DW_TAG_reference_type, baseType: !149, size: 64, align: 64)
!226 = !DISubprogram(name: "_M_head", linkageName: "_ZNSt11_Tuple_implILm1EJSt14default_deleteINSt6thread6_StateEEEE7_M_headERKS4_", scope: !149, file: !143, line: 349, type: !227, isLocal: false, isDefinition: false, scopeLine: 349, flags: DIFlagPrototyped, isOptimized: false)
!227 = !DISubroutineType(types: !228)
!228 = !{!177, !229}
!229 = !DIDerivedType(tag: DW_TAG_reference_type, baseType: !230, size: 64, align: 64)
!230 = !DIDerivedType(tag: DW_TAG_const_type, baseType: !149)
!231 = !DISubprogram(name: "_Tuple_impl", scope: !149, file: !143, line: 351, type: !232, isLocal: false, isDefinition: false, scopeLine: 351, flags: DIFlagPrototyped, isOptimized: false)
!232 = !DISubroutineType(types: !233)
!233 = !{null, !234}
!234 = !DIDerivedType(tag: DW_TAG_pointer_type, baseType: !149, size: 64, align: 64, flags: DIFlagArtificial | DIFlagObjectPointer)
!235 = !DISubprogram(name: "_Tuple_impl", scope: !149, file: !143, line: 355, type: !236, isLocal: false, isDefinition: false, scopeLine: 355, flags: DIFlagExplicit | DIFlagPrototyped, isOptimized: false)
!236 = !DISubroutineType(types: !237)
