; ModuleID = '/home/sreeram/Dev/mastersthesis/userspace_implementation/MemoryCheck/src/Benchmark/prod_cons.cpp'
source_filename = "/home/sreeram/Dev/mastersthesis/userspace_implementation/MemoryCheck/src/Benchmark/prod_cons.cpp"
target datalayout = "e-m:e-i64:64-f80:128-n8:16:32:64-S128"
target triple = "x86_64-pc-linux-gnu"

%"class.std::ios_base::Init" = type { i8 }
%"struct.boost::none_t" = type { i8 }
%"class.boost::detail::make_property_map_from_arg_pack_gen" = type { i32 }
%"class.std::basic_ostream" = type { i32 (...)**, %"class.std::basic_ios" }
%"class.std::basic_ios" = type { %"class.std::ios_base", %"class.std::basic_ostream"*, i8, i8, %"class.std::basic_streambuf"*, %"class.std::ctype"*, %"class.std::num_put"*, %"class.std::num_get"* }
%"class.std::ios_base" = type { i32 (...)**, i64, i64, i32, i32, i32, %"struct.std::ios_base::_Callback_list"*, %"struct.std::ios_base::_Words", [8 x %"struct.std::ios_base::_Words"], i32, %"struct.std::ios_base::_Words"*, %"class.std::locale" }
%"struct.std::ios_base::_Callback_list" = type { %"struct.std::ios_base::_Callback_list"*, void (i32, %"class.std::ios_base"*, i32)*, i32, i32 }
%"struct.std::ios_base::_Words" = type { i8*, i64 }
%"class.std::locale" = type { %"class.std::locale::_Impl"* }
%"class.std::locale::_Impl" = type { i32, %"class.std::locale::facet"**, i64, %"class.std::locale::facet"**, i8** }
%"class.std::locale::facet" = type <{ i32 (...)**, i32, [4 x i8] }>
%"class.std::basic_streambuf" = type { i32 (...)**, i8*, i8*, i8*, i8*, i8*, i8*, %"class.std::locale" }
%"class.std::ctype" = type <{ %"class.std::locale::facet.base", [4 x i8], %struct.__locale_struct*, i8, [7 x i8], i32*, i32*, i16*, i8, [256 x i8], [256 x i8], i8, [6 x i8] }>
%"class.std::locale::facet.base" = type <{ i32 (...)**, i32 }>
%struct.__locale_struct = type { [13 x %struct.__locale_data*], i16*, i32*, i32*, [13 x i8*] }
%struct.__locale_data = type opaque
%"class.std::num_put" = type { %"class.std::locale::facet.base", [4 x i8] }
%"class.std::num_get" = type { %"class.std::locale::facet.base", [4 x i8] }
%"struct.boost::none_t::init_tag" = type { i8 }
%"class.prod_cons::Producer" = type { %class.IrsThread }
%class.IrsThread = type <{ %"class.std::thread", i32, [4 x i8] }>
%"class.std::thread" = type { %"class.std::thread::id" }
%"class.std::thread::id" = type { i64 }
%"class.prod_cons::Consumer" = type { %class.IrsThread }
%"struct.std::chrono::time_point" = type { %"struct.std::chrono::duration" }
%"struct.std::chrono::duration" = type { i64 }
%"class.std::vector" = type { %"struct.std::_Vector_base" }
%"struct.std::_Vector_base" = type { %"struct.std::_Vector_base<prod_cons::Producer *, std::allocator<prod_cons::Producer *> >::_Vector_impl" }
%"struct.std::_Vector_base<prod_cons::Producer *, std::allocator<prod_cons::Producer *> >::_Vector_impl" = type { %"class.prod_cons::Producer"**, %"class.prod_cons::Producer"**, %"class.prod_cons::Producer"** }
%"class.std::vector.0" = type { %"struct.std::_Vector_base.1" }
%"struct.std::_Vector_base.1" = type { %"struct.std::_Vector_base<prod_cons::Consumer *, std::allocator<prod_cons::Consumer *> >::_Vector_impl" }
%"struct.std::_Vector_base<prod_cons::Consumer *, std::allocator<prod_cons::Consumer *> >::_Vector_impl" = type { %"class.prod_cons::Consumer"**, %"class.prod_cons::Consumer"**, %"class.prod_cons::Consumer"** }
%"class.__gnu_cxx::__normal_iterator" = type { %"class.prod_cons::Producer"** }
%"class.__gnu_cxx::__normal_iterator.5" = type { %"class.prod_cons::Consumer"** }
%"struct.std::chrono::duration.6" = type { i64 }
%"class.std::allocator.2" = type { i8 }
%"class.std::allocator" = type { i8 }
%"class.std::unique_ptr" = type { %"class.std::tuple" }
%"class.std::tuple" = type { %"struct.std::_Tuple_impl" }
%"struct.std::_Tuple_impl" = type { %"struct.std::_Head_base.8" }
%"struct.std::_Head_base.8" = type { %"struct.std::thread::_State"* }
%"struct.std::thread::_State" = type { i32 (...)** }
%"struct.std::_Bind_simple" = type { %"class.std::tuple.9" }
%"class.std::tuple.9" = type { %"struct.std::_Tuple_impl.10" }
%"struct.std::_Tuple_impl.10" = type { %"struct.std::_Tuple_impl.11", %"struct.std::_Head_base.13" }
%"struct.std::_Tuple_impl.11" = type { %"struct.std::_Head_base.12" }
%"struct.std::_Head_base.12" = type { %"class.prod_cons::Producer"* }
%"struct.std::_Head_base.13" = type { %"struct.std::_Mem_fn" }
%"struct.std::_Mem_fn" = type { %"class.std::_Mem_fn_base" }
%"class.std::_Mem_fn_base" = type { { i64, i64 } }
%union.pthread_attr_t = type { i64, [48 x i8] }
%"struct.std::thread::_State_impl" = type { %"struct.std::thread::_State", %"struct.std::_Bind_simple" }
%"struct.std::default_delete" = type { i8 }
%"struct.std::_Index_tuple" = type { i8 }
%"struct.std::__invoke_memfun_deref" = type { i8 }
%"struct.std::_Tuple_impl.7" = type { i8 }
%"struct.std::_Head_base" = type { i8 }
%"struct.std::_Maybe_unary_or_binary_function" = type { i8 }
%"struct.std::_Bind_simple.14" = type { %"class.std::tuple.15" }
%"class.std::tuple.15" = type { %"struct.std::_Tuple_impl.16" }
%"struct.std::_Tuple_impl.16" = type { %"struct.std::_Tuple_impl.17", %"struct.std::_Head_base.19" }
%"struct.std::_Tuple_impl.17" = type { %"struct.std::_Head_base.18" }
%"struct.std::_Head_base.18" = type { %"class.prod_cons::Consumer"* }
%"struct.std::_Head_base.19" = type { %"struct.std::_Mem_fn.20" }
%"struct.std::_Mem_fn.20" = type { %"class.std::_Mem_fn_base.21" }
%"class.std::_Mem_fn_base.21" = type { { i64, i64 } }
%"struct.std::thread::_State_impl.24" = type { %"struct.std::thread::_State", %"struct.std::_Bind_simple.14" }
%"struct.std::_Maybe_unary_or_binary_function.22" = type { i8 }
%"class.__gnu_cxx::new_allocator" = type { i8 }
%"class.__gnu_cxx::new_allocator.3" = type { i8 }
%"class.std::move_iterator" = type { %"class.prod_cons::Consumer"** }
%"class.std::move_iterator.25" = type { %"class.prod_cons::Producer"** }

$_ZN5boost6none_tC2ENS0_8init_tagE = comdat any

$_ZN5boost6detail35make_property_map_from_arg_pack_genINS_5graph8keywords3tag9color_mapENS_18default_color_typeEEC2ES6_ = comdat any

$_ZN9prod_cons8Producer11getThreadIdEv = comdat any

$_ZNK9IrsThread6getTidEv = comdat any

$_ZN9prod_cons8Consumer11getThreadIdEv = comdat any

$_ZNSt6vectorIPN9prod_cons8ProducerESaIS2_EEC2Ev = comdat any

$_ZNSt6vectorIPN9prod_cons8ConsumerESaIS2_EEC2Ev = comdat any

$_ZNSt6vectorIPN9prod_cons8ConsumerESaIS2_EE12emplace_backIJS2_EEEvDpOT_ = comdat any

$_ZN9prod_cons8ConsumerC2Ei = comdat any

$_ZNSt6vectorIPN9prod_cons8ProducerESaIS2_EE12emplace_backIJS2_EEEvDpOT_ = comdat any

$_ZN9prod_cons8ProducerC2Ei = comdat any

$_ZNSt6vectorIPN9prod_cons8ProducerESaIS2_EE5beginEv = comdat any

$_ZNSt6vectorIPN9prod_cons8ProducerESaIS2_EE3endEv = comdat any

$_ZN9__gnu_cxxneIPPN9prod_cons8ProducerESt6vectorIS3_SaIS3_EEEEbRKNS_17__normal_iteratorIT_T0_EESD_ = comdat any

$_ZNK9__gnu_cxx17__normal_iteratorIPPN9prod_cons8ProducerESt6vectorIS3_SaIS3_EEEdeEv = comdat any

$_ZN9prod_cons8Producer5startEv = comdat any

$_ZN9__gnu_cxx17__normal_iteratorIPPN9prod_cons8ProducerESt6vectorIS3_SaIS3_EEEppEv = comdat any

$_ZNSt6vectorIPN9prod_cons8ConsumerESaIS2_EE5beginEv = comdat any

$_ZNSt6vectorIPN9prod_cons8ConsumerESaIS2_EE3endEv = comdat any

$_ZN9__gnu_cxxneIPPN9prod_cons8ConsumerESt6vectorIS3_SaIS3_EEEEbRKNS_17__normal_iteratorIT_T0_EESD_ = comdat any

$_ZNK9__gnu_cxx17__normal_iteratorIPPN9prod_cons8ConsumerESt6vectorIS3_SaIS3_EEEdeEv = comdat any

$_ZN9prod_cons8Consumer5startEv = comdat any

$_ZN9__gnu_cxx17__normal_iteratorIPPN9prod_cons8ConsumerESt6vectorIS3_SaIS3_EEEppEv = comdat any

$_ZN9prod_cons8Producer4joinEv = comdat any

$_ZN9prod_cons8Consumer4joinEv = comdat any

$_ZNSt6chrono13duration_castINS_8durationIlSt5ratioILl1ELl1000000EEEElS2_ILl1ELl1000000000EEEENSt9enable_ifIXsr13__is_durationIT_EE5valueES7_E4typeERKNS1_IT0_T1_EE = comdat any

$_ZNSt6chronomiINS_3_V212system_clockENS_8durationIlSt5ratioILl1ELl1000000000EEEES6_EENSt11common_typeIJT0_T1_EE4typeERKNS_10time_pointIT_S8_EERKNSC_ISD_S9_EE = comdat any

$_ZNKSt6chrono8durationIlSt5ratioILl1ELl1000000EEE5countEv = comdat any

$_ZN9prod_cons8ProducerD2Ev = comdat any

$_ZN9prod_cons8ConsumerD2Ev = comdat any

$_ZNSt6vectorIPN9prod_cons8ConsumerESaIS2_EED2Ev = comdat any

$_ZNSt6vectorIPN9prod_cons8ProducerESaIS2_EED2Ev = comdat any

$_ZN9IrsThreadC2Ei = comdat any

$_ZNSt6threadC2Ev = comdat any

$_ZNSt6thread2idC2Ev = comdat any

$_ZN9IrsThreadclIJMN9prod_cons8ProducerEFvvEPS2_EEEvDpOT_ = comdat any

$_ZN9prod_cons8Producer4execEv = comdat any

$_ZNSt6threadaSEOS_ = comdat any

$_ZSt7forwardIMN9prod_cons8ProducerEFvvEEOT_RNSt16remove_referenceIS4_E4typeE = comdat any

$_ZSt7forwardIPN9prod_cons8ProducerEEOT_RNSt16remove_referenceIS3_E4typeE = comdat any

$_ZNSt6threadC2IMN9prod_cons8ProducerEFvvEJPS2_EEEOT_DpOT0_ = comdat any

$_ZNSt6threadD2Ev = comdat any

$_ZNKSt6thread8joinableEv = comdat any

$_ZNSt6thread4swapERS_ = comdat any

$_ZSteqNSt6thread2idES0_ = comdat any

$_ZSt4swapINSt6thread2idEENSt9enable_ifIXsr6__and_ISt21is_move_constructibleIT_ESt18is_move_assignableIS4_EEE5valueEvE4typeERS4_SA_ = comdat any

$_ZSt4moveIRNSt6thread2idEEONSt16remove_referenceIT_E4typeEOS4_ = comdat any

$_ZNSt6thread13_S_make_stateISt12_Bind_simpleIFSt7_Mem_fnIMN9prod_cons8ProducerEFvvEEPS4_EEEESt10unique_ptrINS_6_StateESt14default_deleteISC_EEOT_ = comdat any

$_ZSt13__bind_simpleIMN9prod_cons8ProducerEFvvEJPS1_EENSt19_Bind_simple_helperIT_JDpT0_EE6__typeEOS6_DpOS7_ = comdat any

$_ZNSt10unique_ptrINSt6thread6_StateESt14default_deleteIS1_EED2Ev = comdat any

$_ZSt7forwardISt12_Bind_simpleIFSt7_Mem_fnIMN9prod_cons8ProducerEFvvEEPS3_EEEOT_RNSt16remove_referenceISA_E4typeE = comdat any

$_ZNSt6thread11_State_implISt12_Bind_simpleIFSt7_Mem_fnIMN9prod_cons8ProducerEFvvEEPS4_EEEC2EOSA_ = comdat any

$_ZNSt10unique_ptrINSt6thread6_StateESt14default_deleteIS1_EEC2EPS1_ = comdat any

$_ZNSt6thread6_StateC2Ev = comdat any

$_ZNSt12_Bind_simpleIFSt7_Mem_fnIMN9prod_cons8ProducerEFvvEEPS2_EEC2EOS8_ = comdat any

$_ZNSt6thread11_State_implISt12_Bind_simpleIFSt7_Mem_fnIMN9prod_cons8ProducerEFvvEEPS4_EEED2Ev = comdat any

$_ZNSt6thread11_State_implISt12_Bind_simpleIFSt7_Mem_fnIMN9prod_cons8ProducerEFvvEEPS4_EEED0Ev = comdat any

$_ZNSt6thread11_State_implISt12_Bind_simpleIFSt7_Mem_fnIMN9prod_cons8ProducerEFvvEEPS4_EEE6_M_runEv = comdat any

$_ZNSt5tupleIJSt7_Mem_fnIMN9prod_cons8ProducerEFvvEEPS2_EEC2EOS7_ = comdat any

$_ZNSt11_Tuple_implILm0EJSt7_Mem_fnIMN9prod_cons8ProducerEFvvEEPS2_EEC2EOS7_ = comdat any

$_ZSt4moveIRSt11_Tuple_implILm1EJPN9prod_cons8ProducerEEEEONSt16remove_referenceIT_E4typeEOS7_ = comdat any

$_ZNSt11_Tuple_implILm0EJSt7_Mem_fnIMN9prod_cons8ProducerEFvvEEPS2_EE7_M_tailERS7_ = comdat any

$_ZNSt11_Tuple_implILm1EJPN9prod_cons8ProducerEEEC2EOS3_ = comdat any

$_ZSt7forwardISt7_Mem_fnIMN9prod_cons8ProducerEFvvEEEOT_RNSt16remove_referenceIS6_E4typeE = comdat any

$_ZNSt11_Tuple_implILm0EJSt7_Mem_fnIMN9prod_cons8ProducerEFvvEEPS2_EE7_M_headERS7_ = comdat any

$_ZNSt10_Head_baseILm0ESt7_Mem_fnIMN9prod_cons8ProducerEFvvEELb0EEC2IS5_EEOT_ = comdat any

$__clang_call_terminate = comdat any

$_ZNSt11_Tuple_implILm1EJPN9prod_cons8ProducerEEE7_M_headERS3_ = comdat any

$_ZNSt10_Head_baseILm1EPN9prod_cons8ProducerELb0EEC2IS2_EEOT_ = comdat any

$_ZNSt10_Head_baseILm1EPN9prod_cons8ProducerELb0EE7_M_headERS3_ = comdat any

$_ZNSt10_Head_baseILm0ESt7_Mem_fnIMN9prod_cons8ProducerEFvvEELb0EE7_M_headERS6_ = comdat any

$_ZNSt12_Bind_simpleIFSt7_Mem_fnIMN9prod_cons8ProducerEFvvEEPS2_EEclEv = comdat any

$_ZNSt12_Bind_simpleIFSt7_Mem_fnIMN9prod_cons8ProducerEFvvEEPS2_EE9_M_invokeIJLm0EEEEvSt12_Index_tupleIJXspT_EEE = comdat any

$_ZSt3getILm0EJSt7_Mem_fnIMN9prod_cons8ProducerEFvvEEPS2_EERNSt13tuple_elementIXT_ESt5tupleIJDpT0_EEE4typeERSB_ = comdat any

$_ZNKSt12_Mem_fn_baseIMN9prod_cons8ProducerEFvvELb1EEclIJPS1_EEEDTclsr3stdE8__invokedtdefpT6_M_pmfspclsr3stdE7forwardIT_Efp_EEEDpOS7_ = comdat any

$_ZSt3getILm1EJSt7_Mem_fnIMN9prod_cons8ProducerEFvvEEPS2_EERNSt13tuple_elementIXT_ESt5tupleIJDpT0_EEE4typeERSB_ = comdat any

$_ZSt12__get_helperILm0ESt7_Mem_fnIMN9prod_cons8ProducerEFvvEEJPS2_EERT0_RSt11_Tuple_implIXT_EJS7_DpT1_EE = comdat any

$_ZSt8__invokeIRKMN9prod_cons8ProducerEFvvEJPS1_EENSt9result_ofIFOT_DpOT0_EE4typeES9_SC_ = comdat any

$_ZSt13__invoke_implIvRKMN9prod_cons8ProducerEFvvEPS1_JEET_St21__invoke_memfun_derefOT0_OT1_DpOT2_ = comdat any

$_ZSt7forwardIRKMN9prod_cons8ProducerEFvvEEOT_RNSt16remove_referenceIS6_E4typeE = comdat any

$_ZSt12__get_helperILm1EPN9prod_cons8ProducerEJEERT0_RSt11_Tuple_implIXT_EJS3_DpT1_EE = comdat any

$_ZNSt5tupleIJPNSt6thread6_StateESt14default_deleteIS1_EEEC2IRS2_S4_Lb1EEEOT_OT0_ = comdat any

$_ZSt7forwardIRPNSt6thread6_StateEEOT_RNSt16remove_referenceIS4_E4typeE = comdat any

$_ZSt7forwardISt14default_deleteINSt6thread6_StateEEEOT_RNSt16remove_referenceIS4_E4typeE = comdat any

$_ZNSt11_Tuple_implILm0EJPNSt6thread6_StateESt14default_deleteIS1_EEEC2IRS2_JS4_EvEEOT_DpOT0_ = comdat any

$_ZNSt11_Tuple_implILm1EJSt14default_deleteINSt6thread6_StateEEEEC2IS3_EEOT_ = comdat any

$_ZNSt10_Head_baseILm0EPNSt6thread6_StateELb0EEC2IRS2_EEOT_ = comdat any

$_ZNSt10_Head_baseILm1ESt14default_deleteINSt6thread6_StateEELb1EEC2IS3_EEOT_ = comdat any

$_ZNSt26_Maybe_wrap_member_pointerIMN9prod_cons8ProducerEFvvEE9__do_wrapES3_ = comdat any

$_ZNSt12_Bind_simpleIFSt7_Mem_fnIMN9prod_cons8ProducerEFvvEEPS2_EEC2IS5_JS6_EEEOT_DpOT0_ = comdat any

$_ZNSt7_Mem_fnIMN9prod_cons8ProducerEFvvEECI2St12_Mem_fn_baseIS3_Lb1EEES3_ = comdat any

$_ZNSt12_Mem_fn_baseIMN9prod_cons8ProducerEFvvELb1EEC2ES3_ = comdat any

$_ZNSt5tupleIJSt7_Mem_fnIMN9prod_cons8ProducerEFvvEEPS2_EEC2IS5_S6_Lb1EEEOT_OT0_ = comdat any

$_ZNSt11_Tuple_implILm0EJSt7_Mem_fnIMN9prod_cons8ProducerEFvvEEPS2_EEC2IS5_JS6_EvEEOT_DpOT0_ = comdat any

$_ZNSt11_Tuple_implILm1EJPN9prod_cons8ProducerEEEC2IS2_EEOT_ = comdat any

$_ZSt3getILm0EJPNSt6thread6_StateESt14default_deleteIS1_EEERNSt13tuple_elementIXT_ESt5tupleIJDpT0_EEE4typeERS9_ = comdat any

$_ZNSt10unique_ptrINSt6thread6_StateESt14default_deleteIS1_EE11get_deleterEv = comdat any

$_ZNKSt14default_deleteINSt6thread6_StateEEclEPS1_ = comdat any

$_ZSt12__get_helperILm0EPNSt6thread6_StateEJSt14default_deleteIS1_EEERT0_RSt11_Tuple_implIXT_EJS5_DpT1_EE = comdat any

$_ZNSt11_Tuple_implILm0EJPNSt6thread6_StateESt14default_deleteIS1_EEE7_M_headERS5_ = comdat any

$_ZNSt10_Head_baseILm0EPNSt6thread6_StateELb0EE7_M_headERS3_ = comdat any

$_ZSt3getILm1EJPNSt6thread6_StateESt14default_deleteIS1_EEERNSt13tuple_elementIXT_ESt5tupleIJDpT0_EEE4typeERS9_ = comdat any

$_ZSt12__get_helperILm1ESt14default_deleteINSt6thread6_StateEEJEERT0_RSt11_Tuple_implIXT_EJS4_DpT1_EE = comdat any

$_ZNSt11_Tuple_implILm1EJSt14default_deleteINSt6thread6_StateEEEE7_M_headERS4_ = comdat any

$_ZNSt10_Head_baseILm1ESt14default_deleteINSt6thread6_StateEELb1EE7_M_headERS4_ = comdat any

$_ZN9IrsThreadclIJMN9prod_cons8ConsumerEFvvEPS2_EEEvDpOT_ = comdat any

$_ZN9prod_cons8Consumer4execEv = comdat any

$_ZSt7forwardIMN9prod_cons8ConsumerEFvvEEOT_RNSt16remove_referenceIS4_E4typeE = comdat any

$_ZSt7forwardIPN9prod_cons8ConsumerEEOT_RNSt16remove_referenceIS3_E4typeE = comdat any

$_ZNSt6threadC2IMN9prod_cons8ConsumerEFvvEJPS2_EEEOT_DpOT0_ = comdat any

$_ZNSt6thread13_S_make_stateISt12_Bind_simpleIFSt7_Mem_fnIMN9prod_cons8ConsumerEFvvEEPS4_EEEESt10unique_ptrINS_6_StateESt14default_deleteISC_EEOT_ = comdat any

$_ZSt13__bind_simpleIMN9prod_cons8ConsumerEFvvEJPS1_EENSt19_Bind_simple_helperIT_JDpT0_EE6__typeEOS6_DpOS7_ = comdat any

$_ZSt7forwardISt12_Bind_simpleIFSt7_Mem_fnIMN9prod_cons8ConsumerEFvvEEPS3_EEEOT_RNSt16remove_referenceISA_E4typeE = comdat any

$_ZNSt6thread11_State_implISt12_Bind_simpleIFSt7_Mem_fnIMN9prod_cons8ConsumerEFvvEEPS4_EEEC2EOSA_ = comdat any

$_ZNSt12_Bind_simpleIFSt7_Mem_fnIMN9prod_cons8ConsumerEFvvEEPS2_EEC2EOS8_ = comdat any

$_ZNSt6thread11_State_implISt12_Bind_simpleIFSt7_Mem_fnIMN9prod_cons8ConsumerEFvvEEPS4_EEED2Ev = comdat any

$_ZNSt6thread11_State_implISt12_Bind_simpleIFSt7_Mem_fnIMN9prod_cons8ConsumerEFvvEEPS4_EEED0Ev = comdat any

$_ZNSt6thread11_State_implISt12_Bind_simpleIFSt7_Mem_fnIMN9prod_cons8ConsumerEFvvEEPS4_EEE6_M_runEv = comdat any

$_ZNSt5tupleIJSt7_Mem_fnIMN9prod_cons8ConsumerEFvvEEPS2_EEC2EOS7_ = comdat any

$_ZNSt11_Tuple_implILm0EJSt7_Mem_fnIMN9prod_cons8ConsumerEFvvEEPS2_EEC2EOS7_ = comdat any

$_ZSt4moveIRSt11_Tuple_implILm1EJPN9prod_cons8ConsumerEEEEONSt16remove_referenceIT_E4typeEOS7_ = comdat any

$_ZNSt11_Tuple_implILm0EJSt7_Mem_fnIMN9prod_cons8ConsumerEFvvEEPS2_EE7_M_tailERS7_ = comdat any

$_ZNSt11_Tuple_implILm1EJPN9prod_cons8ConsumerEEEC2EOS3_ = comdat any

$_ZSt7forwardISt7_Mem_fnIMN9prod_cons8ConsumerEFvvEEEOT_RNSt16remove_referenceIS6_E4typeE = comdat any

$_ZNSt11_Tuple_implILm0EJSt7_Mem_fnIMN9prod_cons8ConsumerEFvvEEPS2_EE7_M_headERS7_ = comdat any

$_ZNSt10_Head_baseILm0ESt7_Mem_fnIMN9prod_cons8ConsumerEFvvEELb0EEC2IS5_EEOT_ = comdat any

$_ZNSt11_Tuple_implILm1EJPN9prod_cons8ConsumerEEE7_M_headERS3_ = comdat any

$_ZNSt10_Head_baseILm1EPN9prod_cons8ConsumerELb0EEC2IS2_EEOT_ = comdat any

$_ZNSt10_Head_baseILm1EPN9prod_cons8ConsumerELb0EE7_M_headERS3_ = comdat any

$_ZNSt10_Head_baseILm0ESt7_Mem_fnIMN9prod_cons8ConsumerEFvvEELb0EE7_M_headERS6_ = comdat any

$_ZNSt12_Bind_simpleIFSt7_Mem_fnIMN9prod_cons8ConsumerEFvvEEPS2_EEclEv = comdat any

$_ZNSt12_Bind_simpleIFSt7_Mem_fnIMN9prod_cons8ConsumerEFvvEEPS2_EE9_M_invokeIJLm0EEEEvSt12_Index_tupleIJXspT_EEE = comdat any

$_ZSt3getILm0EJSt7_Mem_fnIMN9prod_cons8ConsumerEFvvEEPS2_EERNSt13tuple_elementIXT_ESt5tupleIJDpT0_EEE4typeERSB_ = comdat any

$_ZNKSt12_Mem_fn_baseIMN9prod_cons8ConsumerEFvvELb1EEclIJPS1_EEEDTclsr3stdE8__invokedtdefpT6_M_pmfspclsr3stdE7forwardIT_Efp_EEEDpOS7_ = comdat any

$_ZSt3getILm1EJSt7_Mem_fnIMN9prod_cons8ConsumerEFvvEEPS2_EERNSt13tuple_elementIXT_ESt5tupleIJDpT0_EEE4typeERSB_ = comdat any

$_ZSt12__get_helperILm0ESt7_Mem_fnIMN9prod_cons8ConsumerEFvvEEJPS2_EERT0_RSt11_Tuple_implIXT_EJS7_DpT1_EE = comdat any

$_ZSt8__invokeIRKMN9prod_cons8ConsumerEFvvEJPS1_EENSt9result_ofIFOT_DpOT0_EE4typeES9_SC_ = comdat any

$_ZSt13__invoke_implIvRKMN9prod_cons8ConsumerEFvvEPS1_JEET_St21__invoke_memfun_derefOT0_OT1_DpOT2_ = comdat any

$_ZSt7forwardIRKMN9prod_cons8ConsumerEFvvEEOT_RNSt16remove_referenceIS6_E4typeE = comdat any

$_ZSt12__get_helperILm1EPN9prod_cons8ConsumerEJEERT0_RSt11_Tuple_implIXT_EJS3_DpT1_EE = comdat any

$_ZNSt26_Maybe_wrap_member_pointerIMN9prod_cons8ConsumerEFvvEE9__do_wrapES3_ = comdat any

$_ZNSt12_Bind_simpleIFSt7_Mem_fnIMN9prod_cons8ConsumerEFvvEEPS2_EEC2IS5_JS6_EEEOT_DpOT0_ = comdat any

$_ZNSt7_Mem_fnIMN9prod_cons8ConsumerEFvvEECI2St12_Mem_fn_baseIS3_Lb1EEES3_ = comdat any

$_ZNSt12_Mem_fn_baseIMN9prod_cons8ConsumerEFvvELb1EEC2ES3_ = comdat any

$_ZNSt5tupleIJSt7_Mem_fnIMN9prod_cons8ConsumerEFvvEEPS2_EEC2IS5_S6_Lb1EEEOT_OT0_ = comdat any

$_ZNSt11_Tuple_implILm0EJSt7_Mem_fnIMN9prod_cons8ConsumerEFvvEEPS2_EEC2IS5_JS6_EvEEOT_DpOT0_ = comdat any

$_ZNSt11_Tuple_implILm1EJPN9prod_cons8ConsumerEEEC2IS2_EEOT_ = comdat any

$_ZN9IrsThread4joinEv = comdat any

$_ZNSt6chrono20__duration_cast_implINS_8durationIlSt5ratioILl1ELl1000000EEEES2_ILl1ELl1000EElLb1ELb0EE6__castIlS2_ILl1ELl1000000000EEEES4_RKNS1_IT_T0_EE = comdat any

$_ZNKSt6chrono8durationIlSt5ratioILl1ELl1000000000EEE5countEv = comdat any

$_ZNSt6chrono8durationIlSt5ratioILl1ELl1000000EEEC2IlvEERKT_ = comdat any

$_ZNSt6chronomiIlSt5ratioILl1ELl1000000000EElS2_EENSt11common_typeIJNS_8durationIT_T0_EENS4_IT1_T2_EEEE4typeERKS7_RKSA_ = comdat any

$_ZNKSt6chrono10time_pointINS_3_V212system_clockENS_8durationIlSt5ratioILl1ELl1000000000EEEEE16time_since_epochEv = comdat any

$_ZNSt6chrono8durationIlSt5ratioILl1ELl1000000000EEEC2IlvEERKT_ = comdat any

$_ZN9IrsThreadD2Ev = comdat any

$_ZNSt12_Vector_baseIPN9prod_cons8ProducerESaIS2_EEC2Ev = comdat any

$_ZNSt12_Vector_baseIPN9prod_cons8ProducerESaIS2_EE12_Vector_implC2Ev = comdat any

$_ZNSaIPN9prod_cons8ProducerEEC2Ev = comdat any

$_ZN9__gnu_cxx13new_allocatorIPN9prod_cons8ProducerEEC2Ev = comdat any

$_ZSt8_DestroyIPPN9prod_cons8ProducerES2_EvT_S4_RSaIT0_E = comdat any

$_ZNSt12_Vector_baseIPN9prod_cons8ProducerESaIS2_EE19_M_get_Tp_allocatorEv = comdat any

$_ZNSt12_Vector_baseIPN9prod_cons8ProducerESaIS2_EED2Ev = comdat any

$_ZSt8_DestroyIPPN9prod_cons8ProducerEEvT_S4_ = comdat any

$_ZNSt12_Destroy_auxILb1EE9__destroyIPPN9prod_cons8ProducerEEEvT_S6_ = comdat any

$_ZNSt12_Vector_baseIPN9prod_cons8ProducerESaIS2_EE13_M_deallocateEPS2_m = comdat any

$_ZNSt12_Vector_baseIPN9prod_cons8ProducerESaIS2_EE12_Vector_implD2Ev = comdat any

$_ZNSt16allocator_traitsISaIPN9prod_cons8ProducerEEE10deallocateERS3_PS2_m = comdat any

$_ZN9__gnu_cxx13new_allocatorIPN9prod_cons8ProducerEE10deallocateEPS3_m = comdat any

$_ZNSaIPN9prod_cons8ProducerEED2Ev = comdat any

$_ZN9__gnu_cxx13new_allocatorIPN9prod_cons8ProducerEED2Ev = comdat any

$_ZNSt12_Vector_baseIPN9prod_cons8ConsumerESaIS2_EEC2Ev = comdat any

$_ZNSt12_Vector_baseIPN9prod_cons8ConsumerESaIS2_EE12_Vector_implC2Ev = comdat any

$_ZNSaIPN9prod_cons8ConsumerEEC2Ev = comdat any

$_ZN9__gnu_cxx13new_allocatorIPN9prod_cons8ConsumerEEC2Ev = comdat any

$_ZSt8_DestroyIPPN9prod_cons8ConsumerES2_EvT_S4_RSaIT0_E = comdat any

$_ZNSt12_Vector_baseIPN9prod_cons8ConsumerESaIS2_EE19_M_get_Tp_allocatorEv = comdat any

$_ZNSt12_Vector_baseIPN9prod_cons8ConsumerESaIS2_EED2Ev = comdat any

$_ZSt8_DestroyIPPN9prod_cons8ConsumerEEvT_S4_ = comdat any

$_ZNSt12_Destroy_auxILb1EE9__destroyIPPN9prod_cons8ConsumerEEEvT_S6_ = comdat any

$_ZNSt12_Vector_baseIPN9prod_cons8ConsumerESaIS2_EE13_M_deallocateEPS2_m = comdat any

$_ZNSt12_Vector_baseIPN9prod_cons8ConsumerESaIS2_EE12_Vector_implD2Ev = comdat any

$_ZNSt16allocator_traitsISaIPN9prod_cons8ConsumerEEE10deallocateERS3_PS2_m = comdat any

$_ZN9__gnu_cxx13new_allocatorIPN9prod_cons8ConsumerEE10deallocateEPS3_m = comdat any

$_ZNSaIPN9prod_cons8ConsumerEED2Ev = comdat any

$_ZN9__gnu_cxx13new_allocatorIPN9prod_cons8ConsumerEED2Ev = comdat any

$_ZNSt16allocator_traitsISaIPN9prod_cons8ConsumerEEE9constructIS2_JS2_EEEvRS3_PT_DpOT0_ = comdat any

$_ZNSt6vectorIPN9prod_cons8ConsumerESaIS2_EE19_M_emplace_back_auxIJS2_EEEvDpOT_ = comdat any

$_ZN9__gnu_cxx13new_allocatorIPN9prod_cons8ConsumerEE9constructIS3_JS3_EEEvPT_DpOT0_ = comdat any

$_ZNKSt6vectorIPN9prod_cons8ConsumerESaIS2_EE12_M_check_lenEmPKc = comdat any

$_ZNSt12_Vector_baseIPN9prod_cons8ConsumerESaIS2_EE11_M_allocateEm = comdat any

$_ZNKSt6vectorIPN9prod_cons8ConsumerESaIS2_EE4sizeEv = comdat any

$_ZSt34__uninitialized_move_if_noexcept_aIPPN9prod_cons8ConsumerES3_SaIS2_EET0_T_S6_S5_RT1_ = comdat any

$_ZNSt16allocator_traitsISaIPN9prod_cons8ConsumerEEE7destroyIS2_EEvRS3_PT_ = comdat any

$_ZNKSt6vectorIPN9prod_cons8ConsumerESaIS2_EE8max_sizeEv = comdat any

$_ZSt3maxImERKT_S2_S2_ = comdat any

$_ZNSt16allocator_traitsISaIPN9prod_cons8ConsumerEEE8max_sizeERKS3_ = comdat any

$_ZNKSt12_Vector_baseIPN9prod_cons8ConsumerESaIS2_EE19_M_get_Tp_allocatorEv = comdat any

$_ZNK9__gnu_cxx13new_allocatorIPN9prod_cons8ConsumerEE8max_sizeEv = comdat any

$_ZNSt16allocator_traitsISaIPN9prod_cons8ConsumerEEE8allocateERS3_m = comdat any

$_ZN9__gnu_cxx13new_allocatorIPN9prod_cons8ConsumerEE8allocateEmPKv = comdat any

$_ZSt22__uninitialized_copy_aISt13move_iteratorIPPN9prod_cons8ConsumerEES4_S3_ET0_T_S7_S6_RSaIT1_E = comdat any

$_ZSt32__make_move_if_noexcept_iteratorIPN9prod_cons8ConsumerESt13move_iteratorIPS2_EET0_PT_ = comdat any

$_ZSt18uninitialized_copyISt13move_iteratorIPPN9prod_cons8ConsumerEES4_ET0_T_S7_S6_ = comdat any

$_ZNSt20__uninitialized_copyILb1EE13__uninit_copyISt13move_iteratorIPPN9prod_cons8ConsumerEES6_EET0_T_S9_S8_ = comdat any

$_ZSt4copyISt13move_iteratorIPPN9prod_cons8ConsumerEES4_ET0_T_S7_S6_ = comdat any

$_ZSt14__copy_move_a2ILb1EPPN9prod_cons8ConsumerES3_ET1_T0_S5_S4_ = comdat any

$_ZSt12__miter_baseIPPN9prod_cons8ConsumerEEDTcl12__miter_basecldtfp_4baseEEESt13move_iteratorIT_E = comdat any

$_ZSt13__copy_move_aILb1EPPN9prod_cons8ConsumerES3_ET1_T0_S5_S4_ = comdat any

$_ZSt12__niter_baseIPPN9prod_cons8ConsumerEET_S4_ = comdat any

$_ZNSt11__copy_moveILb1ELb1ESt26random_access_iterator_tagE8__copy_mIPN9prod_cons8ConsumerEEEPT_PKS6_S9_S7_ = comdat any

$_ZSt12__miter_baseIPPN9prod_cons8ConsumerEET_S4_ = comdat any

$_ZNKSt13move_iteratorIPPN9prod_cons8ConsumerEE4baseEv = comdat any

$_ZNSt13move_iteratorIPPN9prod_cons8ConsumerEEC2ES3_ = comdat any

$_ZN9__gnu_cxx13new_allocatorIPN9prod_cons8ConsumerEE7destroyIS3_EEvPT_ = comdat any

$_ZNSt16allocator_traitsISaIPN9prod_cons8ProducerEEE9constructIS2_JS2_EEEvRS3_PT_DpOT0_ = comdat any

$_ZNSt6vectorIPN9prod_cons8ProducerESaIS2_EE19_M_emplace_back_auxIJS2_EEEvDpOT_ = comdat any

$_ZN9__gnu_cxx13new_allocatorIPN9prod_cons8ProducerEE9constructIS3_JS3_EEEvPT_DpOT0_ = comdat any

$_ZNKSt6vectorIPN9prod_cons8ProducerESaIS2_EE12_M_check_lenEmPKc = comdat any

$_ZNSt12_Vector_baseIPN9prod_cons8ProducerESaIS2_EE11_M_allocateEm = comdat any

$_ZNKSt6vectorIPN9prod_cons8ProducerESaIS2_EE4sizeEv = comdat any

$_ZSt34__uninitialized_move_if_noexcept_aIPPN9prod_cons8ProducerES3_SaIS2_EET0_T_S6_S5_RT1_ = comdat any

$_ZNSt16allocator_traitsISaIPN9prod_cons8ProducerEEE7destroyIS2_EEvRS3_PT_ = comdat any

$_ZNKSt6vectorIPN9prod_cons8ProducerESaIS2_EE8max_sizeEv = comdat any

$_ZNSt16allocator_traitsISaIPN9prod_cons8ProducerEEE8max_sizeERKS3_ = comdat any

$_ZNKSt12_Vector_baseIPN9prod_cons8ProducerESaIS2_EE19_M_get_Tp_allocatorEv = comdat any

$_ZNK9__gnu_cxx13new_allocatorIPN9prod_cons8ProducerEE8max_sizeEv = comdat any

$_ZNSt16allocator_traitsISaIPN9prod_cons8ProducerEEE8allocateERS3_m = comdat any

$_ZN9__gnu_cxx13new_allocatorIPN9prod_cons8ProducerEE8allocateEmPKv = comdat any

$_ZSt22__uninitialized_copy_aISt13move_iteratorIPPN9prod_cons8ProducerEES4_S3_ET0_T_S7_S6_RSaIT1_E = comdat any

$_ZSt32__make_move_if_noexcept_iteratorIPN9prod_cons8ProducerESt13move_iteratorIPS2_EET0_PT_ = comdat any

$_ZSt18uninitialized_copyISt13move_iteratorIPPN9prod_cons8ProducerEES4_ET0_T_S7_S6_ = comdat any

$_ZNSt20__uninitialized_copyILb1EE13__uninit_copyISt13move_iteratorIPPN9prod_cons8ProducerEES6_EET0_T_S9_S8_ = comdat any

$_ZSt4copyISt13move_iteratorIPPN9prod_cons8ProducerEES4_ET0_T_S7_S6_ = comdat any

$_ZSt14__copy_move_a2ILb1EPPN9prod_cons8ProducerES3_ET1_T0_S5_S4_ = comdat any

$_ZSt12__miter_baseIPPN9prod_cons8ProducerEEDTcl12__miter_basecldtfp_4baseEEESt13move_iteratorIT_E = comdat any

$_ZSt13__copy_move_aILb1EPPN9prod_cons8ProducerES3_ET1_T0_S5_S4_ = comdat any

$_ZSt12__niter_baseIPPN9prod_cons8ProducerEET_S4_ = comdat any

$_ZNSt11__copy_moveILb1ELb1ESt26random_access_iterator_tagE8__copy_mIPN9prod_cons8ProducerEEEPT_PKS6_S9_S7_ = comdat any

$_ZSt12__miter_baseIPPN9prod_cons8ProducerEET_S4_ = comdat any

$_ZNKSt13move_iteratorIPPN9prod_cons8ProducerEE4baseEv = comdat any

$_ZNSt13move_iteratorIPPN9prod_cons8ProducerEEC2ES3_ = comdat any

$_ZN9__gnu_cxx13new_allocatorIPN9prod_cons8ProducerEE7destroyIS3_EEvPT_ = comdat any

$_ZN9__gnu_cxx17__normal_iteratorIPPN9prod_cons8ProducerESt6vectorIS3_SaIS3_EEEC2ERKS4_ = comdat any

$_ZNK9__gnu_cxx17__normal_iteratorIPPN9prod_cons8ProducerESt6vectorIS3_SaIS3_EEE4baseEv = comdat any

$_ZN9__gnu_cxx17__normal_iteratorIPPN9prod_cons8ConsumerESt6vectorIS3_SaIS3_EEEC2ERKS4_ = comdat any

$_ZNK9__gnu_cxx17__normal_iteratorIPPN9prod_cons8ConsumerESt6vectorIS3_SaIS3_EEE4baseEv = comdat any

$_ZTVNSt6thread11_State_implISt12_Bind_simpleIFSt7_Mem_fnIMN9prod_cons8ProducerEFvvEEPS4_EEEE = comdat any

$_ZTSNSt6thread11_State_implISt12_Bind_simpleIFSt7_Mem_fnIMN9prod_cons8ProducerEFvvEEPS4_EEEE = comdat any

$_ZTINSt6thread11_State_implISt12_Bind_simpleIFSt7_Mem_fnIMN9prod_cons8ProducerEFvvEEPS4_EEEE = comdat any

$_ZTVNSt6thread11_State_implISt12_Bind_simpleIFSt7_Mem_fnIMN9prod_cons8ConsumerEFvvEEPS4_EEEE = comdat any

$_ZTSNSt6thread11_State_implISt12_Bind_simpleIFSt7_Mem_fnIMN9prod_cons8ConsumerEFvvEEPS4_EEEE = comdat any

$_ZTINSt6thread11_State_implISt12_Bind_simpleIFSt7_Mem_fnIMN9prod_cons8ConsumerEFvvEEPS4_EEEE = comdat any

@_ZStL8__ioinit = internal global %"class.std::ios_base::Init" zeroinitializer, align 1
@__dso_handle = external global i8
@_ZN5boostL4noneE = internal global %"struct.boost::none_t" zeroinitializer, align 1
@_ZN5boost6detailL28make_color_map_from_arg_packE = internal global %"class.boost::detail::make_property_map_from_arg_pack_gen" zeroinitializer, align 4
@.str = private unnamed_addr constant [15 x i8] c"after_callback\00", section "llvm.metadata"
@.str.3 = private unnamed_addr constant [119 x i8] c"/home/sreeram/Dev/mastersthesis/userspace_implementation/MemoryCheck/src/Benchmark/../../include/Benchmark/benchmark.h\00", section "llvm.metadata"
@.str.4 = private unnamed_addr constant [16 x i8] c"before_callback\00", section "llvm.metadata"
@_ZN9prod_cons12THREAD_COUNTE = constant i32 16, align 4
@_ZN9prod_cons8g_bufferE = global [16 x i32] zeroinitializer, align 16
@.str.5 = private unnamed_addr constant [5 x i8] c"gvar\00", section "llvm.metadata"
@.str.6 = private unnamed_addr constant [97 x i8] c"/home/sreeram/Dev/mastersthesis/userspace_implementation/MemoryCheck/src/Benchmark/prod_cons.cpp\00", section "llvm.metadata"
@_ZN9prod_cons4g_inE = global i32 0, align 4
@_ZN9prod_cons5g_outE = global i32 0, align 4
@_ZN9prod_cons5g_ctrE = global i32 0, align 4
@_ZSt4cout = external global %"class.std::basic_ostream", align 8
@.str.7 = private unnamed_addr constant [5 x i8] c"ignr\00", section "llvm.metadata"
@_ZTVNSt6thread11_State_implISt12_Bind_simpleIFSt7_Mem_fnIMN9prod_cons8ProducerEFvvEEPS4_EEEE = linkonce_odr unnamed_addr constant [5 x i8*] [i8* null, i8* bitcast ({ i8*, i8*, i8* }* @_ZTINSt6thread11_State_implISt12_Bind_simpleIFSt7_Mem_fnIMN9prod_cons8ProducerEFvvEEPS4_EEEE to i8*), i8* bitcast (void (%"struct.std::thread::_State_impl"*)* @_ZNSt6thread11_State_implISt12_Bind_simpleIFSt7_Mem_fnIMN9prod_cons8ProducerEFvvEEPS4_EEED2Ev to i8*), i8* bitcast (void (%"struct.std::thread::_State_impl"*)* @_ZNSt6thread11_State_implISt12_Bind_simpleIFSt7_Mem_fnIMN9prod_cons8ProducerEFvvEEPS4_EEED0Ev to i8*), i8* bitcast (void (%"struct.std::thread::_State_impl"*)* @_ZNSt6thread11_State_implISt12_Bind_simpleIFSt7_Mem_fnIMN9prod_cons8ProducerEFvvEEPS4_EEE6_M_runEv to i8*)], comdat, align 8
@_ZTVN10__cxxabiv120__si_class_type_infoE = external global i8*
@_ZTSNSt6thread11_State_implISt12_Bind_simpleIFSt7_Mem_fnIMN9prod_cons8ProducerEFvvEEPS4_EEEE = linkonce_odr constant [89 x i8] c"NSt6thread11_State_implISt12_Bind_simpleIFSt7_Mem_fnIMN9prod_cons8ProducerEFvvEEPS4_EEEE\00", comdat
@_ZTINSt6thread6_StateE = external constant i8*
@_ZTINSt6thread11_State_implISt12_Bind_simpleIFSt7_Mem_fnIMN9prod_cons8ProducerEFvvEEPS4_EEEE = linkonce_odr constant { i8*, i8*, i8* } { i8* bitcast (i8** getelementptr inbounds (i8*, i8** @_ZTVN10__cxxabiv120__si_class_type_infoE, i64 2) to i8*), i8* getelementptr inbounds ([89 x i8], [89 x i8]* @_ZTSNSt6thread11_State_implISt12_Bind_simpleIFSt7_Mem_fnIMN9prod_cons8ProducerEFvvEEPS4_EEEE, i32 0, i32 0), i8* bitcast (i8** @_ZTINSt6thread6_StateE to i8*) }, comdat
@_ZTVNSt6thread6_StateE = external unnamed_addr constant [5 x i8*]
@_ZTVNSt6thread11_State_implISt12_Bind_simpleIFSt7_Mem_fnIMN9prod_cons8ConsumerEFvvEEPS4_EEEE = linkonce_odr unnamed_addr constant [5 x i8*] [i8* null, i8* bitcast ({ i8*, i8*, i8* }* @_ZTINSt6thread11_State_implISt12_Bind_simpleIFSt7_Mem_fnIMN9prod_cons8ConsumerEFvvEEPS4_EEEE to i8*), i8* bitcast (void (%"struct.std::thread::_State_impl.24"*)* @_ZNSt6thread11_State_implISt12_Bind_simpleIFSt7_Mem_fnIMN9prod_cons8ConsumerEFvvEEPS4_EEED2Ev to i8*), i8* bitcast (void (%"struct.std::thread::_State_impl.24"*)* @_ZNSt6thread11_State_implISt12_Bind_simpleIFSt7_Mem_fnIMN9prod_cons8ConsumerEFvvEEPS4_EEED0Ev to i8*), i8* bitcast (void (%"struct.std::thread::_State_impl.24"*)* @_ZNSt6thread11_State_implISt12_Bind_simpleIFSt7_Mem_fnIMN9prod_cons8ConsumerEFvvEEPS4_EEE6_M_runEv to i8*)], comdat, align 8
@_ZTSNSt6thread11_State_implISt12_Bind_simpleIFSt7_Mem_fnIMN9prod_cons8ConsumerEFvvEEPS4_EEEE = linkonce_odr constant [89 x i8] c"NSt6thread11_State_implISt12_Bind_simpleIFSt7_Mem_fnIMN9prod_cons8ConsumerEFvvEEPS4_EEEE\00", comdat
@_ZTINSt6thread11_State_implISt12_Bind_simpleIFSt7_Mem_fnIMN9prod_cons8ConsumerEFvvEEPS4_EEEE = linkonce_odr constant { i8*, i8*, i8* } { i8* bitcast (i8** getelementptr inbounds (i8*, i8** @_ZTVN10__cxxabiv120__si_class_type_infoE, i64 2) to i8*), i8* getelementptr inbounds ([89 x i8], [89 x i8]* @_ZTSNSt6thread11_State_implISt12_Bind_simpleIFSt7_Mem_fnIMN9prod_cons8ConsumerEFvvEEPS4_EEEE, i32 0, i32 0), i8* bitcast (i8** @_ZTINSt6thread6_StateE to i8*) }, comdat
@.str.8 = private unnamed_addr constant [28 x i8] c"vector::_M_emplace_back_aux\00", align 1
@llvm.global_ctors = appending global [1 x { i32, void ()*, i8* }] [{ i32, void ()*, i8* } { i32 65535, void ()* @_GLOBAL__sub_I_prod_cons.cpp, i8* null }]
@llvm.global.annotations = appending global [7 x { i8*, i8*, i8*, i32 }] [{ i8*, i8*, i8*, i32 } { i8* bitcast (void (i32)* @_Z9__afterMAi to i8*), i8* getelementptr inbounds ([15 x i8], [15 x i8]* @.str, i32 0, i32 0), i8* getelementptr inbounds ([119 x i8], [119 x i8]* @.str.3, i32 0, i32 0), i32 23 }, { i8*, i8*, i8*, i32 } { i8* bitcast (void (i32, i8*, i64, i32)* @_Z10__beforeMAiPvli to i8*), i8* getelementptr inbounds ([16 x i8], [16 x i8]* @.str.4, i32 0, i32 0), i8* getelementptr inbounds ([119 x i8], [119 x i8]* @.str.3, i32 0, i32 0), i32 26 }, { i8*, i8*, i8*, i32 } { i8* bitcast ([16 x i32]* @_ZN9prod_cons8g_bufferE to i8*), i8* getelementptr inbounds ([5 x i8], [5 x i8]* @.str.5, i32 0, i32 0), i8* getelementptr inbounds ([97 x i8], [97 x i8]* @.str.6, i32 0, i32 0), i32 16 }, { i8*, i8*, i8*, i32 } { i8* bitcast (i32* @_ZN9prod_cons4g_inE to i8*), i8* getelementptr inbounds ([5 x i8], [5 x i8]* @.str.5, i32 0, i32 0), i8* getelementptr inbounds ([97 x i8], [97 x i8]* @.str.6, i32 0, i32 0), i32 17 }, { i8*, i8*, i8*, i32 } { i8* bitcast (i32* @_ZN9prod_cons5g_outE to i8*), i8* getelementptr inbounds ([5 x i8], [5 x i8]* @.str.5, i32 0, i32 0), i8* getelementptr inbounds ([97 x i8], [97 x i8]* @.str.6, i32 0, i32 0), i32 18 }, { i8*, i8*, i8*, i32 } { i8* bitcast (i32* @_ZN9prod_cons5g_ctrE to i8*), i8* getelementptr inbounds ([5 x i8], [5 x i8]* @.str.5, i32 0, i32 0), i8* getelementptr inbounds ([97 x i8], [97 x i8]* @.str.6, i32 0, i32 0), i32 19 }, { i8*, i8*, i8*, i32 } { i8* bitcast (void ()* @_ZN9prod_cons13run_benchmarkEv to i8*), i8* getelementptr inbounds ([5 x i8], [5 x i8]* @.str.7, i32 0, i32 0), i8* getelementptr inbounds ([97 x i8], [97 x i8]* @.str.6, i32 0, i32 0), i32 77 }], section "llvm.metadata"
@llvm.used = appending global [2 x i8*] [i8* bitcast (i32 (%"class.prod_cons::Producer"*)* @_ZN9prod_cons8Producer11getThreadIdEv to i8*), i8* bitcast (i32 (%"class.prod_cons::Consumer"*)* @_ZN9prod_cons8Consumer11getThreadIdEv to i8*)], section "llvm.metadata"

; Function Attrs: uwtable
define internal void @__cxx_global_var_init() #0 section ".text.startup" !dbg !3731 {
  call void @_ZNSt8ios_base4InitC1Ev(%"class.std::ios_base::Init"* @_ZStL8__ioinit), !dbg !3732
  %1 = call i32 @__cxa_atexit(void (i8*)* bitcast (void (%"class.std::ios_base::Init"*)* @_ZNSt8ios_base4InitD1Ev to void (i8*)*), i8* getelementptr inbounds (%"class.std::ios_base::Init", %"class.std::ios_base::Init"* @_ZStL8__ioinit, i32 0, i32 0), i8* @__dso_handle) #3, !dbg !3733
  ret void, !dbg !3732
}

declare void @_ZNSt8ios_base4InitC1Ev(%"class.std::ios_base::Init"*) unnamed_addr #1

; Function Attrs: nounwind
declare void @_ZNSt8ios_base4InitD1Ev(%"class.std::ios_base::Init"*) unnamed_addr #2

; Function Attrs: nounwind
declare i32 @__cxa_atexit(void (i8*)*, i8*, i8*) #3

; Function Attrs: uwtable
define internal void @__cxx_global_var_init.1() #0 section ".text.startup" !dbg !3735 {
  %1 = alloca %"struct.boost::none_t::init_tag", align 1
  call void @_ZN5boost6none_tC2ENS0_8init_tagE(%"struct.boost::none_t"* @_ZN5boostL4noneE), !dbg !3736
  ret void, !dbg !3737
}

; Function Attrs: nounwind uwtable
define linkonce_odr void @_ZN5boost6none_tC2ENS0_8init_tagE(%"struct.boost::none_t"*) unnamed_addr #4 comdat align 2 !dbg !3738 {
  %2 = alloca %"struct.boost::none_t::init_tag", align 1
  %3 = alloca %"struct.boost::none_t"*, align 8
  store %"struct.boost::none_t"* %0, %"struct.boost::none_t"** %3, align 8
  call void @llvm.dbg.declare(metadata %"struct.boost::none_t"** %3, metadata !3739, metadata !3741), !dbg !3742
  call void @llvm.dbg.declare(metadata %"struct.boost::none_t::init_tag"* %2, metadata !3743, metadata !3741), !dbg !3744
  %4 = load %"struct.boost::none_t"*, %"struct.boost::none_t"** %3, align 8
  ret void, !dbg !3745
}

; Function Attrs: uwtable
define internal void @__cxx_global_var_init.2() #0 section ".text.startup" !dbg !3746 {
  call void @_ZN5boost6detail35make_property_map_from_arg_pack_genINS_5graph8keywords3tag9color_mapENS_18default_color_typeEEC2ES6_(%"class.boost::detail::make_property_map_from_arg_pack_gen"* @_ZN5boost6detailL28make_color_map_from_arg_packE, i32 0), !dbg !3747
  ret void, !dbg !3748
}

; Function Attrs: nounwind uwtable
define linkonce_odr void @_ZN5boost6detail35make_property_map_from_arg_pack_genINS_5graph8keywords3tag9color_mapENS_18default_color_typeEEC2ES6_(%"class.boost::detail::make_property_map_from_arg_pack_gen"*, i32) unnamed_addr #4 comdat align 2 !dbg !3749 {
  %3 = alloca %"class.boost::detail::make_property_map_from_arg_pack_gen"*, align 8
  %4 = alloca i32, align 4
  store %"class.boost::detail::make_property_map_from_arg_pack_gen"* %0, %"class.boost::detail::make_property_map_from_arg_pack_gen"** %3, align 8
  call void @llvm.dbg.declare(metadata %"class.boost::detail::make_property_map_from_arg_pack_gen"** %3, metadata !3750, metadata !3741), !dbg !3752
  store i32 %1, i32* %4, align 4
  call void @llvm.dbg.declare(metadata i32* %4, metadata !3753, metadata !3741), !dbg !3754
  %5 = load %"class.boost::detail::make_property_map_from_arg_pack_gen"*, %"class.boost::detail::make_property_map_from_arg_pack_gen"** %3, align 8
  %6 = getelementptr inbounds %"class.boost::detail::make_property_map_from_arg_pack_gen", %"class.boost::detail::make_property_map_from_arg_pack_gen"* %5, i32 0, i32 0, !dbg !3755
  %7 = load i32, i32* %4, align 4, !dbg !3756
  store i32 %7, i32* %6, align 4, !dbg !3755
  ret void, !dbg !3757
}

; Function Attrs: uwtable
define void @_Z9__afterMAi(i32) #0 !dbg !3758 {
  %2 = alloca i32, align 4
  store i32 %0, i32* %2, align 4
  call void @llvm.dbg.declare(metadata i32* %2, metadata !3760, metadata !3741), !dbg !3761
  %3 = load i32, i32* %2, align 4, !dbg !3762
  call void @_ZN7Runtime7afterMAEi(i32 %3), !dbg !3763
  ret void, !dbg !3764
}

; Function Attrs: nounwind readnone
declare void @llvm.dbg.declare(metadata, metadata, metadata) #5

declare void @_ZN7Runtime7afterMAEi(i32) #1

; Function Attrs: uwtable
define void @_Z10__beforeMAiPvli(i32, i8*, i64, i32) #0 !dbg !3765 {
  %5 = alloca i32, align 4
  %6 = alloca i8*, align 8
  %7 = alloca i64, align 8
  %8 = alloca i32, align 4
  store i32 %0, i32* %5, align 4
  call void @llvm.dbg.declare(metadata i32* %5, metadata !3768, metadata !3741), !dbg !3769
  store i8* %1, i8** %6, align 8
  call void @llvm.dbg.declare(metadata i8** %6, metadata !3770, metadata !3741), !dbg !3771
  store i64 %2, i64* %7, align 8
  call void @llvm.dbg.declare(metadata i64* %7, metadata !3772, metadata !3741), !dbg !3773
  store i32 %3, i32* %8, align 4
  call void @llvm.dbg.declare(metadata i32* %8, metadata !3774, metadata !3741), !dbg !3775
  %9 = load i32, i32* %5, align 4, !dbg !3776
  %10 = load i8*, i8** %6, align 8, !dbg !3777
  %11 = load i32, i32* %8, align 4, !dbg !3778
  %12 = icmp ne i32 %11, 0, !dbg !3778
  call void @_ZN7Runtime8beforeMAEiPvb(i32 %9, i8* %10, i1 zeroext %12), !dbg !3779
  ret void, !dbg !3780
}

declare void @_ZN7Runtime8beforeMAEiPvb(i32, i8*, i1 zeroext) #1

; Function Attrs: noinline uwtable
define linkonce_odr i32 @_ZN9prod_cons8Producer11getThreadIdEv(%"class.prod_cons::Producer"*) #6 comdat align 2 !dbg !3781 {
  %2 = alloca %"class.prod_cons::Producer"*, align 8
  store %"class.prod_cons::Producer"* %0, %"class.prod_cons::Producer"** %2, align 8
  call void @llvm.dbg.declare(metadata %"class.prod_cons::Producer"** %2, metadata !3782, metadata !3741), !dbg !3783
  %3 = load %"class.prod_cons::Producer"*, %"class.prod_cons::Producer"** %2, align 8
  %4 = getelementptr inbounds %"class.prod_cons::Producer", %"class.prod_cons::Producer"* %3, i32 0, i32 0, !dbg !3784
  %5 = call i32 @_ZNK9IrsThread6getTidEv(%class.IrsThread* %4), !dbg !3785
  ret i32 %5, !dbg !3786
}

; Function Attrs: nounwind uwtable
define linkonce_odr i32 @_ZNK9IrsThread6getTidEv(%class.IrsThread*) #4 comdat align 2 !dbg !3787 {
  %2 = alloca %class.IrsThread*, align 8
  store %class.IrsThread* %0, %class.IrsThread** %2, align 8
  call void @llvm.dbg.declare(metadata %class.IrsThread** %2, metadata !3788, metadata !3741), !dbg !3790
  %3 = load %class.IrsThread*, %class.IrsThread** %2, align 8
  %4 = getelementptr inbounds %class.IrsThread, %class.IrsThread* %3, i32 0, i32 1, !dbg !3791
  %5 = load i32, i32* %4, align 8, !dbg !3791
  ret i32 %5, !dbg !3792
}

; Function Attrs: noinline uwtable
define linkonce_odr i32 @_ZN9prod_cons8Consumer11getThreadIdEv(%"class.prod_cons::Consumer"*) #6 comdat align 2 !dbg !3793 {
  %2 = alloca %"class.prod_cons::Consumer"*, align 8
  store %"class.prod_cons::Consumer"* %0, %"class.prod_cons::Consumer"** %2, align 8
  call void @llvm.dbg.declare(metadata %"class.prod_cons::Consumer"** %2, metadata !3794, metadata !3741), !dbg !3795
  %3 = load %"class.prod_cons::Consumer"*, %"class.prod_cons::Consumer"** %2, align 8
  %4 = getelementptr inbounds %"class.prod_cons::Consumer", %"class.prod_cons::Consumer"* %3, i32 0, i32 0, !dbg !3796
  %5 = call i32 @_ZNK9IrsThread6getTidEv(%class.IrsThread* %4), !dbg !3797
  ret i32 %5, !dbg !3798
}

; Function Attrs: uwtable
define void @_ZN9prod_cons13run_benchmarkEv() #0 personality i8* bitcast (i32 (...)* @__gxx_personality_v0 to i8*) !dbg !3799 {
  %1 = alloca i32, align 4
  %2 = alloca %"struct.std::chrono::time_point", align 8
  %3 = alloca %"class.std::vector", align 8
  %4 = alloca %"class.std::vector.0", align 8
  %5 = alloca i32, align 4
  %6 = alloca %"class.prod_cons::Consumer"*, align 8
  %7 = alloca i8*
  %8 = alloca i32
  %9 = alloca %"class.prod_cons::Producer"*, align 8
  %10 = alloca %"class.std::vector"*, align 8
  %11 = alloca %"class.__gnu_cxx::__normal_iterator", align 8
  %12 = alloca %"class.__gnu_cxx::__normal_iterator", align 8
  %13 = alloca %"class.prod_cons::Producer"**, align 8
  %14 = alloca %"class.std::vector.0"*, align 8
  %15 = alloca %"class.__gnu_cxx::__normal_iterator.5", align 8
  %16 = alloca %"class.__gnu_cxx::__normal_iterator.5", align 8
  %17 = alloca %"class.prod_cons::Consumer"**, align 8
  %18 = alloca %"class.std::vector"*, align 8
  %19 = alloca %"class.__gnu_cxx::__normal_iterator", align 8
  %20 = alloca %"class.__gnu_cxx::__normal_iterator", align 8
  %21 = alloca %"class.prod_cons::Producer"**, align 8
  %22 = alloca %"class.std::vector.0"*, align 8
  %23 = alloca %"class.__gnu_cxx::__normal_iterator.5", align 8
  %24 = alloca %"class.__gnu_cxx::__normal_iterator.5", align 8
  %25 = alloca %"class.prod_cons::Consumer"**, align 8
  %26 = alloca %"struct.std::chrono::time_point", align 8
  %27 = alloca i64, align 8
  %28 = alloca %"struct.std::chrono::duration", align 8
  %29 = alloca %"struct.std::chrono::duration.6", align 8
  %30 = alloca %"class.std::vector"*, align 8
  %31 = alloca %"class.__gnu_cxx::__normal_iterator", align 8
  %32 = alloca %"class.__gnu_cxx::__normal_iterator", align 8
  %33 = alloca %"class.prod_cons::Producer"**, align 8
  %34 = alloca %"class.std::vector.0"*, align 8
  %35 = alloca %"class.__gnu_cxx::__normal_iterator.5", align 8
  %36 = alloca %"class.__gnu_cxx::__normal_iterator.5", align 8
  %37 = alloca %"class.prod_cons::Consumer"**, align 8
  call void @llvm.dbg.declare(metadata i32* %1, metadata !3800, metadata !3741), !dbg !3802
  store i32 0, i32* %1, align 4, !dbg !3802
  br label %38, !dbg !3803

; <label>:38:                                     ; preds = %45, %0
  %39 = load i32, i32* %1, align 4, !dbg !3804
  %40 = icmp slt i32 %39, 16, !dbg !3807
  br i1 %40, label %41, label %48, !dbg !3808

; <label>:41:                                     ; preds = %38
  %42 = load i32, i32* %1, align 4, !dbg !3809
  %43 = sext i32 %42 to i64, !dbg !3811
  %44 = getelementptr inbounds [16 x i32], [16 x i32]* @_ZN9prod_cons8g_bufferE, i64 0, i64 %43, !dbg !3811
  store i32 0, i32* %44, align 4, !dbg !3812
  br label %45, !dbg !3813

; <label>:45:                                     ; preds = %41
  %46 = load i32, i32* %1, align 4, !dbg !3814
  %47 = add nsw i32 %46, 1, !dbg !3814
  store i32 %47, i32* %1, align 4, !dbg !3814
  br label %38, !dbg !3816, !llvm.loop !3817

; <label>:48:                                     ; preds = %38
  store i32 0, i32* @_ZN9prod_cons4g_inE, align 4, !dbg !3819
  store i32 0, i32* @_ZN9prod_cons5g_outE, align 4, !dbg !3820
  store i32 0, i32* @_ZN9prod_cons5g_ctrE, align 4, !dbg !3821
  call void @llvm.dbg.declare(metadata %"struct.std::chrono::time_point"* %2, metadata !3822, metadata !3741), !dbg !3869
  %49 = call i64 @_ZNSt6chrono3_V212system_clock3nowEv() #3, !dbg !3869
  %50 = getelementptr inbounds %"struct.std::chrono::time_point", %"struct.std::chrono::time_point"* %2, i32 0, i32 0, !dbg !3869
  %51 = getelementptr inbounds %"struct.std::chrono::duration", %"struct.std::chrono::duration"* %50, i32 0, i32 0, !dbg !3869
  store i64 %49, i64* %51, align 8, !dbg !3869
  call void @llvm.dbg.declare(metadata %"class.std::vector"* %3, metadata !3870, metadata !3741), !dbg !3871
  call void @_ZNSt6vectorIPN9prod_cons8ProducerESaIS2_EEC2Ev(%"class.std::vector"* %3) #3, !dbg !3871
  call void @llvm.dbg.declare(metadata %"class.std::vector.0"* %4, metadata !3872, metadata !3741), !dbg !3873
  call void @_ZNSt6vectorIPN9prod_cons8ConsumerESaIS2_EEC2Ev(%"class.std::vector.0"* %4) #3, !dbg !3873
  call void @llvm.dbg.declare(metadata i32* %5, metadata !3874, metadata !3741), !dbg !3876
  store i32 1, i32* %5, align 4, !dbg !3876
  br label %52, !dbg !3877

; <label>:52:                                     ; preds = %86, %48
  %53 = load i32, i32* %5, align 4, !dbg !3878
  %54 = icmp sle i32 %53, 16, !dbg !3881
  br i1 %54, label %55, label %89, !dbg !3882

; <label>:55:                                     ; preds = %52
  %56 = load i32, i32* %5, align 4, !dbg !3883
  %57 = srem i32 %56, 2, !dbg !3886
  %58 = icmp eq i32 %57, 0, !dbg !3887
  br i1 %58, label %59, label %74, !dbg !3888

; <label>:59:                                     ; preds = %55
  %60 = invoke i8* @_Znwm(i64 16) #15
          to label %61 unwind label %66, !dbg !3889

; <label>:61:                                     ; preds = %59
  %62 = bitcast i8* %60 to %"class.prod_cons::Consumer"*, !dbg !3891
  %63 = load i32, i32* %5, align 4, !dbg !3893
  invoke void @_ZN9prod_cons8ConsumerC2Ei(%"class.prod_cons::Consumer"* %62, i32 %63)
          to label %64 unwind label %70, !dbg !3894

; <label>:64:                                     ; preds = %61
  store %"class.prod_cons::Consumer"* %62, %"class.prod_cons::Consumer"** %6, align 8, !dbg !3895
  invoke void @_ZNSt6vectorIPN9prod_cons8ConsumerESaIS2_EE12emplace_backIJS2_EEEvDpOT_(%"class.std::vector.0"* %4, %"class.prod_cons::Consumer"** dereferenceable(8) %6)
          to label %65 unwind label %66, !dbg !3897

; <label>:65:                                     ; preds = %64
  br label %85, !dbg !3898

; <label>:66:                                     ; preds = %167, %164, %161, %158, %153, %146, %130, %114, %98, %79, %74, %64, %59
  %67 = landingpad { i8*, i32 }
          cleanup, !dbg !3899
  %68 = extractvalue { i8*, i32 } %67, 0, !dbg !3899
  store i8* %68, i8** %7, align 8, !dbg !3899
  %69 = extractvalue { i8*, i32 } %67, 1, !dbg !3899
  store i32 %69, i32* %8, align 4, !dbg !3899
  br label %208, !dbg !3899

; <label>:70:                                     ; preds = %61
  %71 = landingpad { i8*, i32 }
          cleanup, !dbg !3900
  %72 = extractvalue { i8*, i32 } %71, 0, !dbg !3900
  store i8* %72, i8** %7, align 8, !dbg !3900
  %73 = extractvalue { i8*, i32 } %71, 1, !dbg !3900
  store i32 %73, i32* %8, align 4, !dbg !3900
  call void @_ZdlPv(i8* %60) #16, !dbg !3901
  br label %208, !dbg !3901

; <label>:74:                                     ; preds = %55
  %75 = invoke i8* @_Znwm(i64 16) #15
          to label %76 unwind label %66, !dbg !3903

; <label>:76:                                     ; preds = %74
  %77 = bitcast i8* %75 to %"class.prod_cons::Producer"*, !dbg !3905
  %78 = load i32, i32* %5, align 4, !dbg !3907
  invoke void @_ZN9prod_cons8ProducerC2Ei(%"class.prod_cons::Producer"* %77, i32 %78)
          to label %79 unwind label %81, !dbg !3908

; <label>:79:                                     ; preds = %76
  store %"class.prod_cons::Producer"* %77, %"class.prod_cons::Producer"** %9, align 8, !dbg !3909
  invoke void @_ZNSt6vectorIPN9prod_cons8ProducerESaIS2_EE12emplace_backIJS2_EEEvDpOT_(%"class.std::vector"* %3, %"class.prod_cons::Producer"** dereferenceable(8) %9)
          to label %80 unwind label %66, !dbg !3911

; <label>:80:                                     ; preds = %79
  br label %85

; <label>:81:                                     ; preds = %76
  %82 = landingpad { i8*, i32 }
          cleanup, !dbg !3912
  %83 = extractvalue { i8*, i32 } %82, 0, !dbg !3912
  store i8* %83, i8** %7, align 8, !dbg !3912
  %84 = extractvalue { i8*, i32 } %82, 1, !dbg !3912
  store i32 %84, i32* %8, align 4, !dbg !3912
  call void @_ZdlPv(i8* %75) #16, !dbg !3913
  br label %208, !dbg !3913

; <label>:85:                                     ; preds = %80, %65
  br label %86, !dbg !3915

; <label>:86:                                     ; preds = %85
  %87 = load i32, i32* %5, align 4, !dbg !3916
  %88 = add nsw i32 %87, 1, !dbg !3916
  store i32 %88, i32* %5, align 4, !dbg !3916
  br label %52, !dbg !3918, !llvm.loop !3919

; <label>:89:                                     ; preds = %52
  call void @llvm.dbg.declare(metadata %"class.std::vector"** %10, metadata !3921, metadata !3741), !dbg !3923
  store %"class.std::vector"* %3, %"class.std::vector"** %10, align 8, !dbg !3924
  call void @llvm.dbg.declare(metadata %"class.__gnu_cxx::__normal_iterator"* %11, metadata !3925, metadata !3741), !dbg !3923
  %90 = load %"class.std::vector"*, %"class.std::vector"** %10, align 8, !dbg !3926
  %91 = call %"class.prod_cons::Producer"** @_ZNSt6vectorIPN9prod_cons8ProducerESaIS2_EE5beginEv(%"class.std::vector"* %90) #3, !dbg !3926
  %92 = getelementptr inbounds %"class.__gnu_cxx::__normal_iterator", %"class.__gnu_cxx::__normal_iterator"* %11, i32 0, i32 0, !dbg !3926
  store %"class.prod_cons::Producer"** %91, %"class.prod_cons::Producer"*** %92, align 8, !dbg !3926
  call void @llvm.dbg.declare(metadata %"class.__gnu_cxx::__normal_iterator"* %12, metadata !3927, metadata !3741), !dbg !3923
  %93 = load %"class.std::vector"*, %"class.std::vector"** %10, align 8, !dbg !3926
  %94 = call %"class.prod_cons::Producer"** @_ZNSt6vectorIPN9prod_cons8ProducerESaIS2_EE3endEv(%"class.std::vector"* %93) #3, !dbg !3928
  %95 = getelementptr inbounds %"class.__gnu_cxx::__normal_iterator", %"class.__gnu_cxx::__normal_iterator"* %12, i32 0, i32 0, !dbg !3926
  store %"class.prod_cons::Producer"** %94, %"class.prod_cons::Producer"*** %95, align 8, !dbg !3926
  br label %96, !dbg !3926

; <label>:96:                                     ; preds = %103, %89
  %97 = call zeroext i1 @_ZN9__gnu_cxxneIPPN9prod_cons8ProducerESt6vectorIS3_SaIS3_EEEEbRKNS_17__normal_iteratorIT_T0_EESD_(%"class.__gnu_cxx::__normal_iterator"* dereferenceable(8) %11, %"class.__gnu_cxx::__normal_iterator"* dereferenceable(8) %12) #3, !dbg !3930
  br i1 %97, label %98, label %105, !dbg !3930

; <label>:98:                                     ; preds = %96
  call void @llvm.dbg.declare(metadata %"class.prod_cons::Producer"*** %13, metadata !3932, metadata !3741), !dbg !3934
  %99 = call dereferenceable(8) %"class.prod_cons::Producer"** @_ZNK9__gnu_cxx17__normal_iteratorIPPN9prod_cons8ProducerESt6vectorIS3_SaIS3_EEEdeEv(%"class.__gnu_cxx::__normal_iterator"* %11) #3, !dbg !3935
  store %"class.prod_cons::Producer"** %99, %"class.prod_cons::Producer"*** %13, align 8, !dbg !3937
  %100 = load %"class.prod_cons::Producer"**, %"class.prod_cons::Producer"*** %13, align 8, !dbg !3938
  %101 = load %"class.prod_cons::Producer"*, %"class.prod_cons::Producer"** %100, align 8, !dbg !3938
  invoke void @_ZN9prod_cons8Producer5startEv(%"class.prod_cons::Producer"* %101)
          to label %102 unwind label %66, !dbg !3940

; <label>:102:                                    ; preds = %98
  br label %103, !dbg !3941

; <label>:103:                                    ; preds = %102
  %104 = call dereferenceable(8) %"class.__gnu_cxx::__normal_iterator"* @_ZN9__gnu_cxx17__normal_iteratorIPPN9prod_cons8ProducerESt6vectorIS3_SaIS3_EEEppEv(%"class.__gnu_cxx::__normal_iterator"* %11) #3, !dbg !3943
  br label %96, !dbg !3943, !llvm.loop !3945

; <label>:105:                                    ; preds = %96
  call void @llvm.dbg.declare(metadata %"class.std::vector.0"** %14, metadata !3947, metadata !3741), !dbg !3949
  store %"class.std::vector.0"* %4, %"class.std::vector.0"** %14, align 8, !dbg !3950
  call void @llvm.dbg.declare(metadata %"class.__gnu_cxx::__normal_iterator.5"* %15, metadata !3951, metadata !3741), !dbg !3949
  %106 = load %"class.std::vector.0"*, %"class.std::vector.0"** %14, align 8, !dbg !3952
  %107 = call %"class.prod_cons::Consumer"** @_ZNSt6vectorIPN9prod_cons8ConsumerESaIS2_EE5beginEv(%"class.std::vector.0"* %106) #3, !dbg !3952
  %108 = getelementptr inbounds %"class.__gnu_cxx::__normal_iterator.5", %"class.__gnu_cxx::__normal_iterator.5"* %15, i32 0, i32 0, !dbg !3952
  store %"class.prod_cons::Consumer"** %107, %"class.prod_cons::Consumer"*** %108, align 8, !dbg !3952
  call void @llvm.dbg.declare(metadata %"class.__gnu_cxx::__normal_iterator.5"* %16, metadata !3953, metadata !3741), !dbg !3949
  %109 = load %"class.std::vector.0"*, %"class.std::vector.0"** %14, align 8, !dbg !3952
  %110 = call %"class.prod_cons::Consumer"** @_ZNSt6vectorIPN9prod_cons8ConsumerESaIS2_EE3endEv(%"class.std::vector.0"* %109) #3, !dbg !3954
  %111 = getelementptr inbounds %"class.__gnu_cxx::__normal_iterator.5", %"class.__gnu_cxx::__normal_iterator.5"* %16, i32 0, i32 0, !dbg !3952
  store %"class.prod_cons::Consumer"** %110, %"class.prod_cons::Consumer"*** %111, align 8, !dbg !3952
  br label %112, !dbg !3952

; <label>:112:                                    ; preds = %119, %105
  %113 = call zeroext i1 @_ZN9__gnu_cxxneIPPN9prod_cons8ConsumerESt6vectorIS3_SaIS3_EEEEbRKNS_17__normal_iteratorIT_T0_EESD_(%"class.__gnu_cxx::__normal_iterator.5"* dereferenceable(8) %15, %"class.__gnu_cxx::__normal_iterator.5"* dereferenceable(8) %16) #3, !dbg !3956
  br i1 %113, label %114, label %121, !dbg !3956

; <label>:114:                                    ; preds = %112
  call void @llvm.dbg.declare(metadata %"class.prod_cons::Consumer"*** %17, metadata !3958, metadata !3741), !dbg !3960
  %115 = call dereferenceable(8) %"class.prod_cons::Consumer"** @_ZNK9__gnu_cxx17__normal_iteratorIPPN9prod_cons8ConsumerESt6vectorIS3_SaIS3_EEEdeEv(%"class.__gnu_cxx::__normal_iterator.5"* %15) #3, !dbg !3961
  store %"class.prod_cons::Consumer"** %115, %"class.prod_cons::Consumer"*** %17, align 8, !dbg !3963
  %116 = load %"class.prod_cons::Consumer"**, %"class.prod_cons::Consumer"*** %17, align 8, !dbg !3964
  %117 = load %"class.prod_cons::Consumer"*, %"class.prod_cons::Consumer"** %116, align 8, !dbg !3964
  invoke void @_ZN9prod_cons8Consumer5startEv(%"class.prod_cons::Consumer"* %117)
          to label %118 unwind label %66, !dbg !3966

; <label>:118:                                    ; preds = %114
  br label %119, !dbg !3967

; <label>:119:                                    ; preds = %118
  %120 = call dereferenceable(8) %"class.__gnu_cxx::__normal_iterator.5"* @_ZN9__gnu_cxx17__normal_iteratorIPPN9prod_cons8ConsumerESt6vectorIS3_SaIS3_EEEppEv(%"class.__gnu_cxx::__normal_iterator.5"* %15) #3, !dbg !3969
  br label %112, !dbg !3969, !llvm.loop !3971

; <label>:121:                                    ; preds = %112
  call void @llvm.dbg.declare(metadata %"class.std::vector"** %18, metadata !3973, metadata !3741), !dbg !3975
  store %"class.std::vector"* %3, %"class.std::vector"** %18, align 8, !dbg !3976
  call void @llvm.dbg.declare(metadata %"class.__gnu_cxx::__normal_iterator"* %19, metadata !3977, metadata !3741), !dbg !3975
  %122 = load %"class.std::vector"*, %"class.std::vector"** %18, align 8, !dbg !3978
  %123 = call %"class.prod_cons::Producer"** @_ZNSt6vectorIPN9prod_cons8ProducerESaIS2_EE5beginEv(%"class.std::vector"* %122) #3, !dbg !3978
  %124 = getelementptr inbounds %"class.__gnu_cxx::__normal_iterator", %"class.__gnu_cxx::__normal_iterator"* %19, i32 0, i32 0, !dbg !3978
  store %"class.prod_cons::Producer"** %123, %"class.prod_cons::Producer"*** %124, align 8, !dbg !3978
  call void @llvm.dbg.declare(metadata %"class.__gnu_cxx::__normal_iterator"* %20, metadata !3979, metadata !3741), !dbg !3975
  %125 = load %"class.std::vector"*, %"class.std::vector"** %18, align 8, !dbg !3978
  %126 = call %"class.prod_cons::Producer"** @_ZNSt6vectorIPN9prod_cons8ProducerESaIS2_EE3endEv(%"class.std::vector"* %125) #3, !dbg !3980
  %127 = getelementptr inbounds %"class.__gnu_cxx::__normal_iterator", %"class.__gnu_cxx::__normal_iterator"* %20, i32 0, i32 0, !dbg !3978
  store %"class.prod_cons::Producer"** %126, %"class.prod_cons::Producer"*** %127, align 8, !dbg !3978
  br label %128, !dbg !3978

; <label>:128:                                    ; preds = %135, %121
  %129 = call zeroext i1 @_ZN9__gnu_cxxneIPPN9prod_cons8ProducerESt6vectorIS3_SaIS3_EEEEbRKNS_17__normal_iteratorIT_T0_EESD_(%"class.__gnu_cxx::__normal_iterator"* dereferenceable(8) %19, %"class.__gnu_cxx::__normal_iterator"* dereferenceable(8) %20) #3, !dbg !3982
  br i1 %129, label %130, label %137, !dbg !3982

; <label>:130:                                    ; preds = %128
  call void @llvm.dbg.declare(metadata %"class.prod_cons::Producer"*** %21, metadata !3984, metadata !3741), !dbg !3986
  %131 = call dereferenceable(8) %"class.prod_cons::Producer"** @_ZNK9__gnu_cxx17__normal_iteratorIPPN9prod_cons8ProducerESt6vectorIS3_SaIS3_EEEdeEv(%"class.__gnu_cxx::__normal_iterator"* %19) #3, !dbg !3987
  store %"class.prod_cons::Producer"** %131, %"class.prod_cons::Producer"*** %21, align 8, !dbg !3989
  %132 = load %"class.prod_cons::Producer"**, %"class.prod_cons::Producer"*** %21, align 8, !dbg !3990
  %133 = load %"class.prod_cons::Producer"*, %"class.prod_cons::Producer"** %132, align 8, !dbg !3990
  invoke void @_ZN9prod_cons8Producer4joinEv(%"class.prod_cons::Producer"* %133)
          to label %134 unwind label %66, !dbg !3992

; <label>:134:                                    ; preds = %130
  br label %135, !dbg !3993

; <label>:135:                                    ; preds = %134
  %136 = call dereferenceable(8) %"class.__gnu_cxx::__normal_iterator"* @_ZN9__gnu_cxx17__normal_iteratorIPPN9prod_cons8ProducerESt6vectorIS3_SaIS3_EEEppEv(%"class.__gnu_cxx::__normal_iterator"* %19) #3, !dbg !3995
  br label %128, !dbg !3995, !llvm.loop !3997

; <label>:137:                                    ; preds = %128
  call void @llvm.dbg.declare(metadata %"class.std::vector.0"** %22, metadata !3999, metadata !3741), !dbg !4001
  store %"class.std::vector.0"* %4, %"class.std::vector.0"** %22, align 8, !dbg !4002
  call void @llvm.dbg.declare(metadata %"class.__gnu_cxx::__normal_iterator.5"* %23, metadata !4003, metadata !3741), !dbg !4001
  %138 = load %"class.std::vector.0"*, %"class.std::vector.0"** %22, align 8, !dbg !4004
  %139 = call %"class.prod_cons::Consumer"** @_ZNSt6vectorIPN9prod_cons8ConsumerESaIS2_EE5beginEv(%"class.std::vector.0"* %138) #3, !dbg !4004
  %140 = getelementptr inbounds %"class.__gnu_cxx::__normal_iterator.5", %"class.__gnu_cxx::__normal_iterator.5"* %23, i32 0, i32 0, !dbg !4004
  store %"class.prod_cons::Consumer"** %139, %"class.prod_cons::Consumer"*** %140, align 8, !dbg !4004
  call void @llvm.dbg.declare(metadata %"class.__gnu_cxx::__normal_iterator.5"* %24, metadata !4005, metadata !3741), !dbg !4001
  %141 = load %"class.std::vector.0"*, %"class.std::vector.0"** %22, align 8, !dbg !4004
  %142 = call %"class.prod_cons::Consumer"** @_ZNSt6vectorIPN9prod_cons8ConsumerESaIS2_EE3endEv(%"class.std::vector.0"* %141) #3, !dbg !4006
  %143 = getelementptr inbounds %"class.__gnu_cxx::__normal_iterator.5", %"class.__gnu_cxx::__normal_iterator.5"* %24, i32 0, i32 0, !dbg !4004
  store %"class.prod_cons::Consumer"** %142, %"class.prod_cons::Consumer"*** %143, align 8, !dbg !4004
  br label %144, !dbg !4004

; <label>:144:                                    ; preds = %151, %137
  %145 = call zeroext i1 @_ZN9__gnu_cxxneIPPN9prod_cons8ConsumerESt6vectorIS3_SaIS3_EEEEbRKNS_17__normal_iteratorIT_T0_EESD_(%"class.__gnu_cxx::__normal_iterator.5"* dereferenceable(8) %23, %"class.__gnu_cxx::__normal_iterator.5"* dereferenceable(8) %24) #3, !dbg !4008
  br i1 %145, label %146, label %153, !dbg !4008

; <label>:146:                                    ; preds = %144
  call void @llvm.dbg.declare(metadata %"class.prod_cons::Consumer"*** %25, metadata !4010, metadata !3741), !dbg !4012
  %147 = call dereferenceable(8) %"class.prod_cons::Consumer"** @_ZNK9__gnu_cxx17__normal_iteratorIPPN9prod_cons8ConsumerESt6vectorIS3_SaIS3_EEEdeEv(%"class.__gnu_cxx::__normal_iterator.5"* %23) #3, !dbg !4013
  store %"class.prod_cons::Consumer"** %147, %"class.prod_cons::Consumer"*** %25, align 8, !dbg !4015
  %148 = load %"class.prod_cons::Consumer"**, %"class.prod_cons::Consumer"*** %25, align 8, !dbg !4016
  %149 = load %"class.prod_cons::Consumer"*, %"class.prod_cons::Consumer"** %148, align 8, !dbg !4016
  invoke void @_ZN9prod_cons8Consumer4joinEv(%"class.prod_cons::Consumer"* %149)
          to label %150 unwind label %66, !dbg !4018

; <label>:150:                                    ; preds = %146
  br label %151, !dbg !4019

; <label>:151:                                    ; preds = %150
  %152 = call dereferenceable(8) %"class.__gnu_cxx::__normal_iterator.5"* @_ZN9__gnu_cxx17__normal_iteratorIPPN9prod_cons8ConsumerESt6vectorIS3_SaIS3_EEEppEv(%"class.__gnu_cxx::__normal_iterator.5"* %23) #3, !dbg !4021
  br label %144, !dbg !4021, !llvm.loop !4023

; <label>:153:                                    ; preds = %144
  call void @llvm.dbg.declare(metadata %"struct.std::chrono::time_point"* %26, metadata !4025, metadata !3741), !dbg !4026
  %154 = call i64 @_ZNSt6chrono3_V212system_clock3nowEv() #3, !dbg !4026
  %155 = getelementptr inbounds %"struct.std::chrono::time_point", %"struct.std::chrono::time_point"* %26, i32 0, i32 0, !dbg !4026
  %156 = getelementptr inbounds %"struct.std::chrono::duration", %"struct.std::chrono::duration"* %155, i32 0, i32 0, !dbg !4026
  store i64 %154, i64* %156, align 8, !dbg !4026
  call void @llvm.dbg.declare(metadata i64* %27, metadata !4027, metadata !3741), !dbg !4026
  %157 = invoke i64 @_ZNSt6chronomiINS_3_V212system_clockENS_8durationIlSt5ratioILl1ELl1000000000EEEES6_EENSt11common_typeIJT0_T1_EE4typeERKNS_10time_pointIT_S8_EERKNSC_ISD_S9_EE(%"struct.std::chrono::time_point"* dereferenceable(8) %26, %"struct.std::chrono::time_point"* dereferenceable(8) %2)
          to label %158 unwind label %66, !dbg !4026

; <label>:158:                                    ; preds = %153
  %159 = getelementptr inbounds %"struct.std::chrono::duration", %"struct.std::chrono::duration"* %28, i32 0, i32 0, !dbg !4028
  store i64 %157, i64* %159, align 8, !dbg !4028
  %160 = invoke i64 @_ZNSt6chrono13duration_castINS_8durationIlSt5ratioILl1ELl1000000EEEElS2_ILl1ELl1000000000EEEENSt9enable_ifIXsr13__is_durationIT_EE5valueES7_E4typeERKNS1_IT0_T1_EE(%"struct.std::chrono::duration"* dereferenceable(8) %28)
          to label %161 unwind label %66, !dbg !4028

; <label>:161:                                    ; preds = %158
  %162 = getelementptr inbounds %"struct.std::chrono::duration.6", %"struct.std::chrono::duration.6"* %29, i32 0, i32 0, !dbg !4030
  store i64 %160, i64* %162, align 8, !dbg !4030
  %163 = invoke i64 @_ZNKSt6chrono8durationIlSt5ratioILl1ELl1000000EEE5countEv(%"struct.std::chrono::duration.6"* %29)
          to label %164 unwind label %66, !dbg !4030

; <label>:164:                                    ; preds = %161
  store i64 %163, i64* %27, align 8, !dbg !4032
  %165 = load i64, i64* %27, align 8, !dbg !4032
  %166 = invoke dereferenceable(272) %"class.std::basic_ostream"* @_ZNSolsEl(%"class.std::basic_ostream"* @_ZSt4cout, i64 %165)
          to label %167 unwind label %66, !dbg !4032

; <label>:167:                                    ; preds = %164
  %168 = invoke dereferenceable(272) %"class.std::basic_ostream"* @_ZNSolsEPFRSoS_E(%"class.std::basic_ostream"* %166, %"class.std::basic_ostream"* (%"class.std::basic_ostream"*)* @_ZSt4endlIcSt11char_traitsIcEERSt13basic_ostreamIT_T0_ES6_)
          to label %169 unwind label %66, !dbg !4034

; <label>:169:                                    ; preds = %167
  call void @llvm.dbg.declare(metadata %"class.std::vector"** %30, metadata !4036, metadata !3741), !dbg !4038
  store %"class.std::vector"* %3, %"class.std::vector"** %30, align 8, !dbg !4039
  call void @llvm.dbg.declare(metadata %"class.__gnu_cxx::__normal_iterator"* %31, metadata !4040, metadata !3741), !dbg !4038
  %170 = load %"class.std::vector"*, %"class.std::vector"** %30, align 8, !dbg !4041
  %171 = call %"class.prod_cons::Producer"** @_ZNSt6vectorIPN9prod_cons8ProducerESaIS2_EE5beginEv(%"class.std::vector"* %170) #3, !dbg !4041
  %172 = getelementptr inbounds %"class.__gnu_cxx::__normal_iterator", %"class.__gnu_cxx::__normal_iterator"* %31, i32 0, i32 0, !dbg !4041
  store %"class.prod_cons::Producer"** %171, %"class.prod_cons::Producer"*** %172, align 8, !dbg !4041
  call void @llvm.dbg.declare(metadata %"class.__gnu_cxx::__normal_iterator"* %32, metadata !4042, metadata !3741), !dbg !4038
  %173 = load %"class.std::vector"*, %"class.std::vector"** %30, align 8, !dbg !4041
  %174 = call %"class.prod_cons::Producer"** @_ZNSt6vectorIPN9prod_cons8ProducerESaIS2_EE3endEv(%"class.std::vector"* %173) #3, !dbg !4043
  %175 = getelementptr inbounds %"class.__gnu_cxx::__normal_iterator", %"class.__gnu_cxx::__normal_iterator"* %32, i32 0, i32 0, !dbg !4041
  store %"class.prod_cons::Producer"** %174, %"class.prod_cons::Producer"*** %175, align 8, !dbg !4041
  br label %176, !dbg !4041

; <label>:176:                                    ; preds = %186, %169
  %177 = call zeroext i1 @_ZN9__gnu_cxxneIPPN9prod_cons8ProducerESt6vectorIS3_SaIS3_EEEEbRKNS_17__normal_iteratorIT_T0_EESD_(%"class.__gnu_cxx::__normal_iterator"* dereferenceable(8) %31, %"class.__gnu_cxx::__normal_iterator"* dereferenceable(8) %32) #3, !dbg !4045
  br i1 %177, label %178, label %188, !dbg !4045

; <label>:178:                                    ; preds = %176
  call void @llvm.dbg.declare(metadata %"class.prod_cons::Producer"*** %33, metadata !4047, metadata !3741), !dbg !4049
  %179 = call dereferenceable(8) %"class.prod_cons::Producer"** @_ZNK9__gnu_cxx17__normal_iteratorIPPN9prod_cons8ProducerESt6vectorIS3_SaIS3_EEEdeEv(%"class.__gnu_cxx::__normal_iterator"* %31) #3, !dbg !4050
  store %"class.prod_cons::Producer"** %179, %"class.prod_cons::Producer"*** %33, align 8, !dbg !4052
  %180 = load %"class.prod_cons::Producer"**, %"class.prod_cons::Producer"*** %33, align 8, !dbg !4053
  %181 = load %"class.prod_cons::Producer"*, %"class.prod_cons::Producer"** %180, align 8, !dbg !4053
  %182 = icmp eq %"class.prod_cons::Producer"* %181, null, !dbg !4055
  br i1 %182, label %185, label %183, !dbg !4055

; <label>:183:                                    ; preds = %178
  call void @_ZN9prod_cons8ProducerD2Ev(%"class.prod_cons::Producer"* %181) #3, !dbg !4056
  %184 = bitcast %"class.prod_cons::Producer"* %181 to i8*, !dbg !4056
  call void @_ZdlPv(i8* %184) #16, !dbg !4058
  br label %185, !dbg !4056

; <label>:185:                                    ; preds = %183, %178
  br label %186, !dbg !4060

; <label>:186:                                    ; preds = %185
  %187 = call dereferenceable(8) %"class.__gnu_cxx::__normal_iterator"* @_ZN9__gnu_cxx17__normal_iteratorIPPN9prod_cons8ProducerESt6vectorIS3_SaIS3_EEEppEv(%"class.__gnu_cxx::__normal_iterator"* %31) #3, !dbg !4062
  br label %176, !dbg !4062, !llvm.loop !4064

; <label>:188:                                    ; preds = %176
  call void @llvm.dbg.declare(metadata %"class.std::vector.0"** %34, metadata !4066, metadata !3741), !dbg !4068
  store %"class.std::vector.0"* %4, %"class.std::vector.0"** %34, align 8, !dbg !4069
  call void @llvm.dbg.declare(metadata %"class.__gnu_cxx::__normal_iterator.5"* %35, metadata !4070, metadata !3741), !dbg !4068
  %189 = load %"class.std::vector.0"*, %"class.std::vector.0"** %34, align 8, !dbg !4071
  %190 = call %"class.prod_cons::Consumer"** @_ZNSt6vectorIPN9prod_cons8ConsumerESaIS2_EE5beginEv(%"class.std::vector.0"* %189) #3, !dbg !4071
  %191 = getelementptr inbounds %"class.__gnu_cxx::__normal_iterator.5", %"class.__gnu_cxx::__normal_iterator.5"* %35, i32 0, i32 0, !dbg !4071
  store %"class.prod_cons::Consumer"** %190, %"class.prod_cons::Consumer"*** %191, align 8, !dbg !4071
  call void @llvm.dbg.declare(metadata %"class.__gnu_cxx::__normal_iterator.5"* %36, metadata !4072, metadata !3741), !dbg !4068
  %192 = load %"class.std::vector.0"*, %"class.std::vector.0"** %34, align 8, !dbg !4071
  %193 = call %"class.prod_cons::Consumer"** @_ZNSt6vectorIPN9prod_cons8ConsumerESaIS2_EE3endEv(%"class.std::vector.0"* %192) #3, !dbg !4073
  %194 = getelementptr inbounds %"class.__gnu_cxx::__normal_iterator.5", %"class.__gnu_cxx::__normal_iterator.5"* %36, i32 0, i32 0, !dbg !4071
  store %"class.prod_cons::Consumer"** %193, %"class.prod_cons::Consumer"*** %194, align 8, !dbg !4071
  br label %195, !dbg !4071

; <label>:195:                                    ; preds = %205, %188
  %196 = call zeroext i1 @_ZN9__gnu_cxxneIPPN9prod_cons8ConsumerESt6vectorIS3_SaIS3_EEEEbRKNS_17__normal_iteratorIT_T0_EESD_(%"class.__gnu_cxx::__normal_iterator.5"* dereferenceable(8) %35, %"class.__gnu_cxx::__normal_iterator.5"* dereferenceable(8) %36) #3, !dbg !4075
  br i1 %196, label %197, label %207, !dbg !4075

; <label>:197:                                    ; preds = %195
  call void @llvm.dbg.declare(metadata %"class.prod_cons::Consumer"*** %37, metadata !4077, metadata !3741), !dbg !4079
  %198 = call dereferenceable(8) %"class.prod_cons::Consumer"** @_ZNK9__gnu_cxx17__normal_iteratorIPPN9prod_cons8ConsumerESt6vectorIS3_SaIS3_EEEdeEv(%"class.__gnu_cxx::__normal_iterator.5"* %35) #3, !dbg !4080
  store %"class.prod_cons::Consumer"** %198, %"class.prod_cons::Consumer"*** %37, align 8, !dbg !4082
  %199 = load %"class.prod_cons::Consumer"**, %"class.prod_cons::Consumer"*** %37, align 8, !dbg !4083
  %200 = load %"class.prod_cons::Consumer"*, %"class.prod_cons::Consumer"** %199, align 8, !dbg !4083
  %201 = icmp eq %"class.prod_cons::Consumer"* %200, null, !dbg !4085
  br i1 %201, label %204, label %202, !dbg !4085

; <label>:202:                                    ; preds = %197
  call void @_ZN9prod_cons8ConsumerD2Ev(%"class.prod_cons::Consumer"* %200) #3, !dbg !4086
  %203 = bitcast %"class.prod_cons::Consumer"* %200 to i8*, !dbg !4086
  call void @_ZdlPv(i8* %203) #16, !dbg !4088
  br label %204, !dbg !4086

; <label>:204:                                    ; preds = %202, %197
  br label %205, !dbg !4090

; <label>:205:                                    ; preds = %204
  %206 = call dereferenceable(8) %"class.__gnu_cxx::__normal_iterator.5"* @_ZN9__gnu_cxx17__normal_iteratorIPPN9prod_cons8ConsumerESt6vectorIS3_SaIS3_EEEppEv(%"class.__gnu_cxx::__normal_iterator.5"* %35) #3, !dbg !4092
  br label %195, !dbg !4092, !llvm.loop !4094

; <label>:207:                                    ; preds = %195
  call void @_ZNSt6vectorIPN9prod_cons8ConsumerESaIS2_EED2Ev(%"class.std::vector.0"* %4) #3, !dbg !4096
  call void @_ZNSt6vectorIPN9prod_cons8ProducerESaIS2_EED2Ev(%"class.std::vector"* %3) #3, !dbg !4097
  ret void, !dbg !4096

; <label>:208:                                    ; preds = %81, %70, %66
  call void @_ZNSt6vectorIPN9prod_cons8ConsumerESaIS2_EED2Ev(%"class.std::vector.0"* %4) #3, !dbg !4099
  call void @_ZNSt6vectorIPN9prod_cons8ProducerESaIS2_EED2Ev(%"class.std::vector"* %3) #3, !dbg !4100
  br label %209, !dbg !4099

; <label>:209:                                    ; preds = %208
  %210 = load i8*, i8** %7, align 8, !dbg !4102
  %211 = load i32, i32* %8, align 4, !dbg !4102
  %212 = insertvalue { i8*, i32 } undef, i8* %210, 0, !dbg !4102
  %213 = insertvalue { i8*, i32 } %212, i32 %211, 1, !dbg !4102
  resume { i8*, i32 } %213, !dbg !4102
}

; Function Attrs: nounwind
declare i64 @_ZNSt6chrono3_V212system_clock3nowEv() #2

; Function Attrs: nounwind uwtable
define linkonce_odr void @_ZNSt6vectorIPN9prod_cons8ProducerESaIS2_EEC2Ev(%"class.std::vector"*) unnamed_addr #4 comdat align 2 personality i8* bitcast (i32 (...)* @__gxx_personality_v0 to i8*) !dbg !4104 {
  %2 = alloca %"class.std::vector"*, align 8
  store %"class.std::vector"* %0, %"class.std::vector"** %2, align 8
  call void @llvm.dbg.declare(metadata %"class.std::vector"** %2, metadata !4105, metadata !3741), !dbg !4107
  %3 = load %"class.std::vector"*, %"class.std::vector"** %2, align 8
  %4 = bitcast %"class.std::vector"* %3 to %"struct.std::_Vector_base"*, !dbg !4108
  invoke void @_ZNSt12_Vector_baseIPN9prod_cons8ProducerESaIS2_EEC2Ev(%"struct.std::_Vector_base"* %4)
          to label %5 unwind label %6, !dbg !4109

; <label>:5:                                      ; preds = %1
  ret void, !dbg !4110

; <label>:6:                                      ; preds = %1
  %7 = landingpad { i8*, i32 }
          catch i8* null, !dbg !4112
  %8 = extractvalue { i8*, i32 } %7, 0, !dbg !4112
  call void @__clang_call_terminate(i8* %8) #17, !dbg !4112
  unreachable, !dbg !4112
}

; Function Attrs: nounwind uwtable
define linkonce_odr void @_ZNSt6vectorIPN9prod_cons8ConsumerESaIS2_EEC2Ev(%"class.std::vector.0"*) unnamed_addr #4 comdat align 2 personality i8* bitcast (i32 (...)* @__gxx_personality_v0 to i8*) !dbg !4114 {
  %2 = alloca %"class.std::vector.0"*, align 8
  store %"class.std::vector.0"* %0, %"class.std::vector.0"** %2, align 8
  call void @llvm.dbg.declare(metadata %"class.std::vector.0"** %2, metadata !4115, metadata !3741), !dbg !4117
  %3 = load %"class.std::vector.0"*, %"class.std::vector.0"** %2, align 8
  %4 = bitcast %"class.std::vector.0"* %3 to %"struct.std::_Vector_base.1"*, !dbg !4118
  invoke void @_ZNSt12_Vector_baseIPN9prod_cons8ConsumerESaIS2_EEC2Ev(%"struct.std::_Vector_base.1"* %4)
          to label %5 unwind label %6, !dbg !4119

; <label>:5:                                      ; preds = %1
  ret void, !dbg !4120

; <label>:6:                                      ; preds = %1
  %7 = landingpad { i8*, i32 }
          catch i8* null, !dbg !4122
  %8 = extractvalue { i8*, i32 } %7, 0, !dbg !4122
  call void @__clang_call_terminate(i8* %8) #17, !dbg !4122
  unreachable, !dbg !4122
}

; Function Attrs: uwtable
define linkonce_odr void @_ZNSt6vectorIPN9prod_cons8ConsumerESaIS2_EE12emplace_backIJS2_EEEvDpOT_(%"class.std::vector.0"*, %"class.prod_cons::Consumer"** dereferenceable(8)) #0 comdat align 2 !dbg !4124 {
  %3 = alloca %"class.std::vector.0"*, align 8
  %4 = alloca %"class.prod_cons::Consumer"**, align 8
  store %"class.std::vector.0"* %0, %"class.std::vector.0"** %3, align 8
  call void @llvm.dbg.declare(metadata %"class.std::vector.0"** %3, metadata !4130, metadata !3741), !dbg !4131
  store %"class.prod_cons::Consumer"** %1, %"class.prod_cons::Consumer"*** %4, align 8
  call void @llvm.dbg.declare(metadata %"class.prod_cons::Consumer"*** %4, metadata !4132, metadata !3741), !dbg !4133
  %5 = load %"class.std::vector.0"*, %"class.std::vector.0"** %3, align 8
  %6 = bitcast %"class.std::vector.0"* %5 to %"struct.std::_Vector_base.1"*, !dbg !4134
  %7 = getelementptr inbounds %"struct.std::_Vector_base.1", %"struct.std::_Vector_base.1"* %6, i32 0, i32 0, !dbg !4134
  %8 = getelementptr inbounds %"struct.std::_Vector_base<prod_cons::Consumer *, std::allocator<prod_cons::Consumer *> >::_Vector_impl", %"struct.std::_Vector_base<prod_cons::Consumer *, std::allocator<prod_cons::Consumer *> >::_Vector_impl"* %7, i32 0, i32 1, !dbg !4136
  %9 = load %"class.prod_cons::Consumer"**, %"class.prod_cons::Consumer"*** %8, align 8, !dbg !4136
  %10 = bitcast %"class.std::vector.0"* %5 to %"struct.std::_Vector_base.1"*, !dbg !4137
  %11 = getelementptr inbounds %"struct.std::_Vector_base.1", %"struct.std::_Vector_base.1"* %10, i32 0, i32 0, !dbg !4137
  %12 = getelementptr inbounds %"struct.std::_Vector_base<prod_cons::Consumer *, std::allocator<prod_cons::Consumer *> >::_Vector_impl", %"struct.std::_Vector_base<prod_cons::Consumer *, std::allocator<prod_cons::Consumer *> >::_Vector_impl"* %11, i32 0, i32 2, !dbg !4138
  %13 = load %"class.prod_cons::Consumer"**, %"class.prod_cons::Consumer"*** %12, align 8, !dbg !4138
  %14 = icmp ne %"class.prod_cons::Consumer"** %9, %13, !dbg !4139
  br i1 %14, label %15, label %30, !dbg !4140

; <label>:15:                                     ; preds = %2
  %16 = bitcast %"class.std::vector.0"* %5 to %"struct.std::_Vector_base.1"*, !dbg !4141
  %17 = getelementptr inbounds %"struct.std::_Vector_base.1", %"struct.std::_Vector_base.1"* %16, i32 0, i32 0, !dbg !4141
  %18 = bitcast %"struct.std::_Vector_base<prod_cons::Consumer *, std::allocator<prod_cons::Consumer *> >::_Vector_impl"* %17 to %"class.std::allocator.2"*, !dbg !4143
  %19 = bitcast %"class.std::vector.0"* %5 to %"struct.std::_Vector_base.1"*, !dbg !4144
  %20 = getelementptr inbounds %"struct.std::_Vector_base.1", %"struct.std::_Vector_base.1"* %19, i32 0, i32 0, !dbg !4144
  %21 = getelementptr inbounds %"struct.std::_Vector_base<prod_cons::Consumer *, std::allocator<prod_cons::Consumer *> >::_Vector_impl", %"struct.std::_Vector_base<prod_cons::Consumer *, std::allocator<prod_cons::Consumer *> >::_Vector_impl"* %20, i32 0, i32 1, !dbg !4145
  %22 = load %"class.prod_cons::Consumer"**, %"class.prod_cons::Consumer"*** %21, align 8, !dbg !4145
  %23 = load %"class.prod_cons::Consumer"**, %"class.prod_cons::Consumer"*** %4, align 8, !dbg !4146
  %24 = call dereferenceable(8) %"class.prod_cons::Consumer"** @_ZSt7forwardIPN9prod_cons8ConsumerEEOT_RNSt16remove_referenceIS3_E4typeE(%"class.prod_cons::Consumer"** dereferenceable(8) %23) #3, !dbg !4147
  call void @_ZNSt16allocator_traitsISaIPN9prod_cons8ConsumerEEE9constructIS2_JS2_EEEvRS3_PT_DpOT0_(%"class.std::allocator.2"* dereferenceable(1) %18, %"class.prod_cons::Consumer"** %22, %"class.prod_cons::Consumer"** dereferenceable(8) %24), !dbg !4148
  %25 = bitcast %"class.std::vector.0"* %5 to %"struct.std::_Vector_base.1"*, !dbg !4149
  %26 = getelementptr inbounds %"struct.std::_Vector_base.1", %"struct.std::_Vector_base.1"* %25, i32 0, i32 0, !dbg !4149
  %27 = getelementptr inbounds %"struct.std::_Vector_base<prod_cons::Consumer *, std::allocator<prod_cons::Consumer *> >::_Vector_impl", %"struct.std::_Vector_base<prod_cons::Consumer *, std::allocator<prod_cons::Consumer *> >::_Vector_impl"* %26, i32 0, i32 1, !dbg !4150
  %28 = load %"class.prod_cons::Consumer"**, %"class.prod_cons::Consumer"*** %27, align 8, !dbg !4151
  %29 = getelementptr inbounds %"class.prod_cons::Consumer"*, %"class.prod_cons::Consumer"** %28, i32 1, !dbg !4151
  store %"class.prod_cons::Consumer"** %29, %"class.prod_cons::Consumer"*** %27, align 8, !dbg !4151
  br label %33, !dbg !4152

; <label>:30:                                     ; preds = %2
  %31 = load %"class.prod_cons::Consumer"**, %"class.prod_cons::Consumer"*** %4, align 8, !dbg !4153
  %32 = call dereferenceable(8) %"class.prod_cons::Consumer"** @_ZSt7forwardIPN9prod_cons8ConsumerEEOT_RNSt16remove_referenceIS3_E4typeE(%"class.prod_cons::Consumer"** dereferenceable(8) %31) #3, !dbg !4154
  call void @_ZNSt6vectorIPN9prod_cons8ConsumerESaIS2_EE19_M_emplace_back_auxIJS2_EEEvDpOT_(%"class.std::vector.0"* %5, %"class.prod_cons::Consumer"** dereferenceable(8) %32), !dbg !4155
  br label %33

; <label>:33:                                     ; preds = %30, %15
  ret void, !dbg !4157
}

; Function Attrs: nobuiltin
declare noalias i8* @_Znwm(i64) #7

declare i32 @__gxx_personality_v0(...)

; Function Attrs: uwtable
define linkonce_odr void @_ZN9prod_cons8ConsumerC2Ei(%"class.prod_cons::Consumer"*, i32) unnamed_addr #0 comdat align 2 !dbg !4158 {
  %3 = alloca %"class.prod_cons::Consumer"*, align 8
  %4 = alloca i32, align 4
  store %"class.prod_cons::Consumer"* %0, %"class.prod_cons::Consumer"** %3, align 8
  call void @llvm.dbg.declare(metadata %"class.prod_cons::Consumer"** %3, metadata !4159, metadata !3741), !dbg !4160
  store i32 %1, i32* %4, align 4
  call void @llvm.dbg.declare(metadata i32* %4, metadata !4161, metadata !3741), !dbg !4162
  %5 = load %"class.prod_cons::Consumer"*, %"class.prod_cons::Consumer"** %3, align 8
  %6 = getelementptr inbounds %"class.prod_cons::Consumer", %"class.prod_cons::Consumer"* %5, i32 0, i32 0, !dbg !4163
  %7 = load i32, i32* %4, align 4, !dbg !4164
  call void @_ZN9IrsThreadC2Ei(%class.IrsThread* %6, i32 %7), !dbg !4163
  ret void, !dbg !4165
}

; Function Attrs: nobuiltin nounwind
declare void @_ZdlPv(i8*) #8

; Function Attrs: uwtable
define linkonce_odr void @_ZNSt6vectorIPN9prod_cons8ProducerESaIS2_EE12emplace_backIJS2_EEEvDpOT_(%"class.std::vector"*, %"class.prod_cons::Producer"** dereferenceable(8)) #0 comdat align 2 !dbg !4166 {
  %3 = alloca %"class.std::vector"*, align 8
  %4 = alloca %"class.prod_cons::Producer"**, align 8
  store %"class.std::vector"* %0, %"class.std::vector"** %3, align 8
  call void @llvm.dbg.declare(metadata %"class.std::vector"** %3, metadata !4171, metadata !3741), !dbg !4172
  store %"class.prod_cons::Producer"** %1, %"class.prod_cons::Producer"*** %4, align 8
  call void @llvm.dbg.declare(metadata %"class.prod_cons::Producer"*** %4, metadata !4173, metadata !3741), !dbg !4174
  %5 = load %"class.std::vector"*, %"class.std::vector"** %3, align 8
  %6 = bitcast %"class.std::vector"* %5 to %"struct.std::_Vector_base"*, !dbg !4175
  %7 = getelementptr inbounds %"struct.std::_Vector_base", %"struct.std::_Vector_base"* %6, i32 0, i32 0, !dbg !4175
  %8 = getelementptr inbounds %"struct.std::_Vector_base<prod_cons::Producer *, std::allocator<prod_cons::Producer *> >::_Vector_impl", %"struct.std::_Vector_base<prod_cons::Producer *, std::allocator<prod_cons::Producer *> >::_Vector_impl"* %7, i32 0, i32 1, !dbg !4177
  %9 = load %"class.prod_cons::Producer"**, %"class.prod_cons::Producer"*** %8, align 8, !dbg !4177
  %10 = bitcast %"class.std::vector"* %5 to %"struct.std::_Vector_base"*, !dbg !4178
  %11 = getelementptr inbounds %"struct.std::_Vector_base", %"struct.std::_Vector_base"* %10, i32 0, i32 0, !dbg !4178
  %12 = getelementptr inbounds %"struct.std::_Vector_base<prod_cons::Producer *, std::allocator<prod_cons::Producer *> >::_Vector_impl", %"struct.std::_Vector_base<prod_cons::Producer *, std::allocator<prod_cons::Producer *> >::_Vector_impl"* %11, i32 0, i32 2, !dbg !4179
  %13 = load %"class.prod_cons::Producer"**, %"class.prod_cons::Producer"*** %12, align 8, !dbg !4179
  %14 = icmp ne %"class.prod_cons::Producer"** %9, %13, !dbg !4180
  br i1 %14, label %15, label %30, !dbg !4181

; <label>:15:                                     ; preds = %2
  %16 = bitcast %"class.std::vector"* %5 to %"struct.std::_Vector_base"*, !dbg !4182
  %17 = getelementptr inbounds %"struct.std::_Vector_base", %"struct.std::_Vector_base"* %16, i32 0, i32 0, !dbg !4182
  %18 = bitcast %"struct.std::_Vector_base<prod_cons::Producer *, std::allocator<prod_cons::Producer *> >::_Vector_impl"* %17 to %"class.std::allocator"*, !dbg !4184
  %19 = bitcast %"class.std::vector"* %5 to %"struct.std::_Vector_base"*, !dbg !4185
  %20 = getelementptr inbounds %"struct.std::_Vector_base", %"struct.std::_Vector_base"* %19, i32 0, i32 0, !dbg !4185
  %21 = getelementptr inbounds %"struct.std::_Vector_base<prod_cons::Producer *, std::allocator<prod_cons::Producer *> >::_Vector_impl", %"struct.std::_Vector_base<prod_cons::Producer *, std::allocator<prod_cons::Producer *> >::_Vector_impl"* %20, i32 0, i32 1, !dbg !4186
  %22 = load %"class.prod_cons::Producer"**, %"class.prod_cons::Producer"*** %21, align 8, !dbg !4186
  %23 = load %"class.prod_cons::Producer"**, %"class.prod_cons::Producer"*** %4, align 8, !dbg !4187
  %24 = call dereferenceable(8) %"class.prod_cons::Producer"** @_ZSt7forwardIPN9prod_cons8ProducerEEOT_RNSt16remove_referenceIS3_E4typeE(%"class.prod_cons::Producer"** dereferenceable(8) %23) #3, !dbg !4188
  call void @_ZNSt16allocator_traitsISaIPN9prod_cons8ProducerEEE9constructIS2_JS2_EEEvRS3_PT_DpOT0_(%"class.std::allocator"* dereferenceable(1) %18, %"class.prod_cons::Producer"** %22, %"class.prod_cons::Producer"** dereferenceable(8) %24), !dbg !4189
  %25 = bitcast %"class.std::vector"* %5 to %"struct.std::_Vector_base"*, !dbg !4190
  %26 = getelementptr inbounds %"struct.std::_Vector_base", %"struct.std::_Vector_base"* %25, i32 0, i32 0, !dbg !4190
  %27 = getelementptr inbounds %"struct.std::_Vector_base<prod_cons::Producer *, std::allocator<prod_cons::Producer *> >::_Vector_impl", %"struct.std::_Vector_base<prod_cons::Producer *, std::allocator<prod_cons::Producer *> >::_Vector_impl"* %26, i32 0, i32 1, !dbg !4191
  %28 = load %"class.prod_cons::Producer"**, %"class.prod_cons::Producer"*** %27, align 8, !dbg !4192
  %29 = getelementptr inbounds %"class.prod_cons::Producer"*, %"class.prod_cons::Producer"** %28, i32 1, !dbg !4192
  store %"class.prod_cons::Producer"** %29, %"class.prod_cons::Producer"*** %27, align 8, !dbg !4192
  br label %33, !dbg !4193

; <label>:30:                                     ; preds = %2
  %31 = load %"class.prod_cons::Producer"**, %"class.prod_cons::Producer"*** %4, align 8, !dbg !4194
  %32 = call dereferenceable(8) %"class.prod_cons::Producer"** @_ZSt7forwardIPN9prod_cons8ProducerEEOT_RNSt16remove_referenceIS3_E4typeE(%"class.prod_cons::Producer"** dereferenceable(8) %31) #3, !dbg !4195
  call void @_ZNSt6vectorIPN9prod_cons8ProducerESaIS2_EE19_M_emplace_back_auxIJS2_EEEvDpOT_(%"class.std::vector"* %5, %"class.prod_cons::Producer"** dereferenceable(8) %32), !dbg !4196
  br label %33

; <label>:33:                                     ; preds = %30, %15
  ret void, !dbg !4198
}

; Function Attrs: uwtable
define linkonce_odr void @_ZN9prod_cons8ProducerC2Ei(%"class.prod_cons::Producer"*, i32) unnamed_addr #0 comdat align 2 !dbg !4199 {
  %3 = alloca %"class.prod_cons::Producer"*, align 8
  %4 = alloca i32, align 4
  store %"class.prod_cons::Producer"* %0, %"class.prod_cons::Producer"** %3, align 8
  call void @llvm.dbg.declare(metadata %"class.prod_cons::Producer"** %3, metadata !4200, metadata !3741), !dbg !4201
  store i32 %1, i32* %4, align 4
  call void @llvm.dbg.declare(metadata i32* %4, metadata !4202, metadata !3741), !dbg !4203
  %5 = load %"class.prod_cons::Producer"*, %"class.prod_cons::Producer"** %3, align 8
  %6 = getelementptr inbounds %"class.prod_cons::Producer", %"class.prod_cons::Producer"* %5, i32 0, i32 0, !dbg !4204
  %7 = load i32, i32* %4, align 4, !dbg !4205
  call void @_ZN9IrsThreadC2Ei(%class.IrsThread* %6, i32 %7), !dbg !4204
  ret void, !dbg !4206
}

; Function Attrs: nounwind uwtable
define linkonce_odr %"class.prod_cons::Producer"** @_ZNSt6vectorIPN9prod_cons8ProducerESaIS2_EE5beginEv(%"class.std::vector"*) #4 comdat align 2 !dbg !4207 {
  %2 = alloca %"class.__gnu_cxx::__normal_iterator", align 8
  %3 = alloca %"class.std::vector"*, align 8
  store %"class.std::vector"* %0, %"class.std::vector"** %3, align 8
  call void @llvm.dbg.declare(metadata %"class.std::vector"** %3, metadata !4208, metadata !3741), !dbg !4209
  %4 = load %"class.std::vector"*, %"class.std::vector"** %3, align 8
  %5 = bitcast %"class.std::vector"* %4 to %"struct.std::_Vector_base"*, !dbg !4210
  %6 = getelementptr inbounds %"struct.std::_Vector_base", %"struct.std::_Vector_base"* %5, i32 0, i32 0, !dbg !4210
  %7 = getelementptr inbounds %"struct.std::_Vector_base<prod_cons::Producer *, std::allocator<prod_cons::Producer *> >::_Vector_impl", %"struct.std::_Vector_base<prod_cons::Producer *, std::allocator<prod_cons::Producer *> >::_Vector_impl"* %6, i32 0, i32 0, !dbg !4211
  call void @_ZN9__gnu_cxx17__normal_iteratorIPPN9prod_cons8ProducerESt6vectorIS3_SaIS3_EEEC2ERKS4_(%"class.__gnu_cxx::__normal_iterator"* %2, %"class.prod_cons::Producer"*** dereferenceable(8) %7) #3, !dbg !4212
  %8 = getelementptr inbounds %"class.__gnu_cxx::__normal_iterator", %"class.__gnu_cxx::__normal_iterator"* %2, i32 0, i32 0, !dbg !4213
  %9 = load %"class.prod_cons::Producer"**, %"class.prod_cons::Producer"*** %8, align 8, !dbg !4213
  ret %"class.prod_cons::Producer"** %9, !dbg !4213
}

; Function Attrs: nounwind uwtable
define linkonce_odr %"class.prod_cons::Producer"** @_ZNSt6vectorIPN9prod_cons8ProducerESaIS2_EE3endEv(%"class.std::vector"*) #4 comdat align 2 !dbg !4214 {
  %2 = alloca %"class.__gnu_cxx::__normal_iterator", align 8
  %3 = alloca %"class.std::vector"*, align 8
  store %"class.std::vector"* %0, %"class.std::vector"** %3, align 8
  call void @llvm.dbg.declare(metadata %"class.std::vector"** %3, metadata !4215, metadata !3741), !dbg !4216
  %4 = load %"class.std::vector"*, %"class.std::vector"** %3, align 8
  %5 = bitcast %"class.std::vector"* %4 to %"struct.std::_Vector_base"*, !dbg !4217
  %6 = getelementptr inbounds %"struct.std::_Vector_base", %"struct.std::_Vector_base"* %5, i32 0, i32 0, !dbg !4217
  %7 = getelementptr inbounds %"struct.std::_Vector_base<prod_cons::Producer *, std::allocator<prod_cons::Producer *> >::_Vector_impl", %"struct.std::_Vector_base<prod_cons::Producer *, std::allocator<prod_cons::Producer *> >::_Vector_impl"* %6, i32 0, i32 1, !dbg !4218
  call void @_ZN9__gnu_cxx17__normal_iteratorIPPN9prod_cons8ProducerESt6vectorIS3_SaIS3_EEEC2ERKS4_(%"class.__gnu_cxx::__normal_iterator"* %2, %"class.prod_cons::Producer"*** dereferenceable(8) %7) #3, !dbg !4219
  %8 = getelementptr inbounds %"class.__gnu_cxx::__normal_iterator", %"class.__gnu_cxx::__normal_iterator"* %2, i32 0, i32 0, !dbg !4220
  %9 = load %"class.prod_cons::Producer"**, %"class.prod_cons::Producer"*** %8, align 8, !dbg !4220
  ret %"class.prod_cons::Producer"** %9, !dbg !4220
}

; Function Attrs: inlinehint nounwind uwtable
define linkonce_odr zeroext i1 @_ZN9__gnu_cxxneIPPN9prod_cons8ProducerESt6vectorIS3_SaIS3_EEEEbRKNS_17__normal_iteratorIT_T0_EESD_(%"class.__gnu_cxx::__normal_iterator"* dereferenceable(8), %"class.__gnu_cxx::__normal_iterator"* dereferenceable(8)) #9 comdat !dbg !4221 {
  %3 = alloca %"class.__gnu_cxx::__normal_iterator"*, align 8
  %4 = alloca %"class.__gnu_cxx::__normal_iterator"*, align 8
  store %"class.__gnu_cxx::__normal_iterator"* %0, %"class.__gnu_cxx::__normal_iterator"** %3, align 8
  call void @llvm.dbg.declare(metadata %"class.__gnu_cxx::__normal_iterator"** %3, metadata !4225, metadata !3741), !dbg !4226
  store %"class.__gnu_cxx::__normal_iterator"* %1, %"class.__gnu_cxx::__normal_iterator"** %4, align 8
  call void @llvm.dbg.declare(metadata %"class.__gnu_cxx::__normal_iterator"** %4, metadata !4227, metadata !3741), !dbg !4228
  %5 = load %"class.__gnu_cxx::__normal_iterator"*, %"class.__gnu_cxx::__normal_iterator"** %3, align 8, !dbg !4229
  %6 = call dereferenceable(8) %"class.prod_cons::Producer"*** @_ZNK9__gnu_cxx17__normal_iteratorIPPN9prod_cons8ProducerESt6vectorIS3_SaIS3_EEE4baseEv(%"class.__gnu_cxx::__normal_iterator"* %5) #3, !dbg !4230
  %7 = load %"class.prod_cons::Producer"**, %"class.prod_cons::Producer"*** %6, align 8, !dbg !4230
  %8 = load %"class.__gnu_cxx::__normal_iterator"*, %"class.__gnu_cxx::__normal_iterator"** %4, align 8, !dbg !4231
  %9 = call dereferenceable(8) %"class.prod_cons::Producer"*** @_ZNK9__gnu_cxx17__normal_iteratorIPPN9prod_cons8ProducerESt6vectorIS3_SaIS3_EEE4baseEv(%"class.__gnu_cxx::__normal_iterator"* %8) #3, !dbg !4232
  %10 = load %"class.prod_cons::Producer"**, %"class.prod_cons::Producer"*** %9, align 8, !dbg !4234
  %11 = icmp ne %"class.prod_cons::Producer"** %7, %10, !dbg !4235
  ret i1 %11, !dbg !4236
}

; Function Attrs: nounwind uwtable
define linkonce_odr dereferenceable(8) %"class.prod_cons::Producer"** @_ZNK9__gnu_cxx17__normal_iteratorIPPN9prod_cons8ProducerESt6vectorIS3_SaIS3_EEEdeEv(%"class.__gnu_cxx::__normal_iterator"*) #4 comdat align 2 !dbg !4237 {
  %2 = alloca %"class.__gnu_cxx::__normal_iterator"*, align 8
  store %"class.__gnu_cxx::__normal_iterator"* %0, %"class.__gnu_cxx::__normal_iterator"** %2, align 8
  call void @llvm.dbg.declare(metadata %"class.__gnu_cxx::__normal_iterator"** %2, metadata !4238, metadata !3741), !dbg !4240
  %3 = load %"class.__gnu_cxx::__normal_iterator"*, %"class.__gnu_cxx::__normal_iterator"** %2, align 8
  %4 = getelementptr inbounds %"class.__gnu_cxx::__normal_iterator", %"class.__gnu_cxx::__normal_iterator"* %3, i32 0, i32 0, !dbg !4241
  %5 = load %"class.prod_cons::Producer"**, %"class.prod_cons::Producer"*** %4, align 8, !dbg !4241
  ret %"class.prod_cons::Producer"** %5, !dbg !4242
}

; Function Attrs: uwtable
define linkonce_odr void @_ZN9prod_cons8Producer5startEv(%"class.prod_cons::Producer"*) #0 comdat align 2 !dbg !4243 {
  %2 = alloca %"class.prod_cons::Producer"*, align 8
  %3 = alloca { i64, i64 }, align 8
  %4 = alloca %"class.prod_cons::Producer"*, align 8
  store %"class.prod_cons::Producer"* %0, %"class.prod_cons::Producer"** %2, align 8
  call void @llvm.dbg.declare(metadata %"class.prod_cons::Producer"** %2, metadata !4244, metadata !3741), !dbg !4245
  %5 = load %"class.prod_cons::Producer"*, %"class.prod_cons::Producer"** %2, align 8
  %6 = getelementptr inbounds %"class.prod_cons::Producer", %"class.prod_cons::Producer"* %5, i32 0, i32 0, !dbg !4246
  store { i64, i64 } { i64 ptrtoint (void (%"class.prod_cons::Producer"*)* @_ZN9prod_cons8Producer4execEv to i64), i64 0 }, { i64, i64 }* %3, align 8, !dbg !4247
  store %"class.prod_cons::Producer"* %5, %"class.prod_cons::Producer"** %4, align 8, !dbg !4248
  call void @_ZN9IrsThreadclIJMN9prod_cons8ProducerEFvvEPS2_EEEvDpOT_(%class.IrsThread* %6, { i64, i64 }* dereferenceable(16) %3, %"class.prod_cons::Producer"** dereferenceable(8) %4), !dbg !4246
  ret void, !dbg !4249
}

; Function Attrs: nounwind uwtable
define linkonce_odr dereferenceable(8) %"class.__gnu_cxx::__normal_iterator"* @_ZN9__gnu_cxx17__normal_iteratorIPPN9prod_cons8ProducerESt6vectorIS3_SaIS3_EEEppEv(%"class.__gnu_cxx::__normal_iterator"*) #4 comdat align 2 !dbg !4250 {
  %2 = alloca %"class.__gnu_cxx::__normal_iterator"*, align 8
  store %"class.__gnu_cxx::__normal_iterator"* %0, %"class.__gnu_cxx::__normal_iterator"** %2, align 8
  call void @llvm.dbg.declare(metadata %"class.__gnu_cxx::__normal_iterator"** %2, metadata !4251, metadata !3741), !dbg !4253
  %3 = load %"class.__gnu_cxx::__normal_iterator"*, %"class.__gnu_cxx::__normal_iterator"** %2, align 8
  %4 = getelementptr inbounds %"class.__gnu_cxx::__normal_iterator", %"class.__gnu_cxx::__normal_iterator"* %3, i32 0, i32 0, !dbg !4254
  %5 = load %"class.prod_cons::Producer"**, %"class.prod_cons::Producer"*** %4, align 8, !dbg !4255
  %6 = getelementptr inbounds %"class.prod_cons::Producer"*, %"class.prod_cons::Producer"** %5, i32 1, !dbg !4255
  store %"class.prod_cons::Producer"** %6, %"class.prod_cons::Producer"*** %4, align 8, !dbg !4255
  ret %"class.__gnu_cxx::__normal_iterator"* %3, !dbg !4256
}

; Function Attrs: nounwind uwtable
define linkonce_odr %"class.prod_cons::Consumer"** @_ZNSt6vectorIPN9prod_cons8ConsumerESaIS2_EE5beginEv(%"class.std::vector.0"*) #4 comdat align 2 !dbg !4257 {
  %2 = alloca %"class.__gnu_cxx::__normal_iterator.5", align 8
  %3 = alloca %"class.std::vector.0"*, align 8
  store %"class.std::vector.0"* %0, %"class.std::vector.0"** %3, align 8
  call void @llvm.dbg.declare(metadata %"class.std::vector.0"** %3, metadata !4258, metadata !3741), !dbg !4259
  %4 = load %"class.std::vector.0"*, %"class.std::vector.0"** %3, align 8
  %5 = bitcast %"class.std::vector.0"* %4 to %"struct.std::_Vector_base.1"*, !dbg !4260
  %6 = getelementptr inbounds %"struct.std::_Vector_base.1", %"struct.std::_Vector_base.1"* %5, i32 0, i32 0, !dbg !4260
  %7 = getelementptr inbounds %"struct.std::_Vector_base<prod_cons::Consumer *, std::allocator<prod_cons::Consumer *> >::_Vector_impl", %"struct.std::_Vector_base<prod_cons::Consumer *, std::allocator<prod_cons::Consumer *> >::_Vector_impl"* %6, i32 0, i32 0, !dbg !4261
  call void @_ZN9__gnu_cxx17__normal_iteratorIPPN9prod_cons8ConsumerESt6vectorIS3_SaIS3_EEEC2ERKS4_(%"class.__gnu_cxx::__normal_iterator.5"* %2, %"class.prod_cons::Consumer"*** dereferenceable(8) %7) #3, !dbg !4262
  %8 = getelementptr inbounds %"class.__gnu_cxx::__normal_iterator.5", %"class.__gnu_cxx::__normal_iterator.5"* %2, i32 0, i32 0, !dbg !4263
  %9 = load %"class.prod_cons::Consumer"**, %"class.prod_cons::Consumer"*** %8, align 8, !dbg !4263
  ret %"class.prod_cons::Consumer"** %9, !dbg !4263
}

; Function Attrs: nounwind uwtable
define linkonce_odr %"class.prod_cons::Consumer"** @_ZNSt6vectorIPN9prod_cons8ConsumerESaIS2_EE3endEv(%"class.std::vector.0"*) #4 comdat align 2 !dbg !4264 {
  %2 = alloca %"class.__gnu_cxx::__normal_iterator.5", align 8
  %3 = alloca %"class.std::vector.0"*, align 8
  store %"class.std::vector.0"* %0, %"class.std::vector.0"** %3, align 8
  call void @llvm.dbg.declare(metadata %"class.std::vector.0"** %3, metadata !4265, metadata !3741), !dbg !4266
  %4 = load %"class.std::vector.0"*, %"class.std::vector.0"** %3, align 8
  %5 = bitcast %"class.std::vector.0"* %4 to %"struct.std::_Vector_base.1"*, !dbg !4267
  %6 = getelementptr inbounds %"struct.std::_Vector_base.1", %"struct.std::_Vector_base.1"* %5, i32 0, i32 0, !dbg !4267
  %7 = getelementptr inbounds %"struct.std::_Vector_base<prod_cons::Consumer *, std::allocator<prod_cons::Consumer *> >::_Vector_impl", %"struct.std::_Vector_base<prod_cons::Consumer *, std::allocator<prod_cons::Consumer *> >::_Vector_impl"* %6, i32 0, i32 1, !dbg !4268
  call void @_ZN9__gnu_cxx17__normal_iteratorIPPN9prod_cons8ConsumerESt6vectorIS3_SaIS3_EEEC2ERKS4_(%"class.__gnu_cxx::__normal_iterator.5"* %2, %"class.prod_cons::Consumer"*** dereferenceable(8) %7) #3, !dbg !4269
  %8 = getelementptr inbounds %"class.__gnu_cxx::__normal_iterator.5", %"class.__gnu_cxx::__normal_iterator.5"* %2, i32 0, i32 0, !dbg !4270
  %9 = load %"class.prod_cons::Consumer"**, %"class.prod_cons::Consumer"*** %8, align 8, !dbg !4270
  ret %"class.prod_cons::Consumer"** %9, !dbg !4270
}

; Function Attrs: inlinehint nounwind uwtable
define linkonce_odr zeroext i1 @_ZN9__gnu_cxxneIPPN9prod_cons8ConsumerESt6vectorIS3_SaIS3_EEEEbRKNS_17__normal_iteratorIT_T0_EESD_(%"class.__gnu_cxx::__normal_iterator.5"* dereferenceable(8), %"class.__gnu_cxx::__normal_iterator.5"* dereferenceable(8)) #9 comdat !dbg !4271 {
  %3 = alloca %"class.__gnu_cxx::__normal_iterator.5"*, align 8
  %4 = alloca %"class.__gnu_cxx::__normal_iterator.5"*, align 8
  store %"class.__gnu_cxx::__normal_iterator.5"* %0, %"class.__gnu_cxx::__normal_iterator.5"** %3, align 8
  call void @llvm.dbg.declare(metadata %"class.__gnu_cxx::__normal_iterator.5"** %3, metadata !4275, metadata !3741), !dbg !4276
  store %"class.__gnu_cxx::__normal_iterator.5"* %1, %"class.__gnu_cxx::__normal_iterator.5"** %4, align 8
  call void @llvm.dbg.declare(metadata %"class.__gnu_cxx::__normal_iterator.5"** %4, metadata !4277, metadata !3741), !dbg !4278
  %5 = load %"class.__gnu_cxx::__normal_iterator.5"*, %"class.__gnu_cxx::__normal_iterator.5"** %3, align 8, !dbg !4279
  %6 = call dereferenceable(8) %"class.prod_cons::Consumer"*** @_ZNK9__gnu_cxx17__normal_iteratorIPPN9prod_cons8ConsumerESt6vectorIS3_SaIS3_EEE4baseEv(%"class.__gnu_cxx::__normal_iterator.5"* %5) #3, !dbg !4280
  %7 = load %"class.prod_cons::Consumer"**, %"class.prod_cons::Consumer"*** %6, align 8, !dbg !4280
  %8 = load %"class.__gnu_cxx::__normal_iterator.5"*, %"class.__gnu_cxx::__normal_iterator.5"** %4, align 8, !dbg !4281
  %9 = call dereferenceable(8) %"class.prod_cons::Consumer"*** @_ZNK9__gnu_cxx17__normal_iteratorIPPN9prod_cons8ConsumerESt6vectorIS3_SaIS3_EEE4baseEv(%"class.__gnu_cxx::__normal_iterator.5"* %8) #3, !dbg !4282
  %10 = load %"class.prod_cons::Consumer"**, %"class.prod_cons::Consumer"*** %9, align 8, !dbg !4284
  %11 = icmp ne %"class.prod_cons::Consumer"** %7, %10, !dbg !4285
  ret i1 %11, !dbg !4286
}

; Function Attrs: nounwind uwtable
define linkonce_odr dereferenceable(8) %"class.prod_cons::Consumer"** @_ZNK9__gnu_cxx17__normal_iteratorIPPN9prod_cons8ConsumerESt6vectorIS3_SaIS3_EEEdeEv(%"class.__gnu_cxx::__normal_iterator.5"*) #4 comdat align 2 !dbg !4287 {
  %2 = alloca %"class.__gnu_cxx::__normal_iterator.5"*, align 8
  store %"class.__gnu_cxx::__normal_iterator.5"* %0, %"class.__gnu_cxx::__normal_iterator.5"** %2, align 8
  call void @llvm.dbg.declare(metadata %"class.__gnu_cxx::__normal_iterator.5"** %2, metadata !4288, metadata !3741), !dbg !4290
  %3 = load %"class.__gnu_cxx::__normal_iterator.5"*, %"class.__gnu_cxx::__normal_iterator.5"** %2, align 8
  %4 = getelementptr inbounds %"class.__gnu_cxx::__normal_iterator.5", %"class.__gnu_cxx::__normal_iterator.5"* %3, i32 0, i32 0, !dbg !4291
  %5 = load %"class.prod_cons::Consumer"**, %"class.prod_cons::Consumer"*** %4, align 8, !dbg !4291
  ret %"class.prod_cons::Consumer"** %5, !dbg !4292
}

; Function Attrs: uwtable
define linkonce_odr void @_ZN9prod_cons8Consumer5startEv(%"class.prod_cons::Consumer"*) #0 comdat align 2 !dbg !4293 {
  %2 = alloca %"class.prod_cons::Consumer"*, align 8
  %3 = alloca { i64, i64 }, align 8
  %4 = alloca %"class.prod_cons::Consumer"*, align 8
  store %"class.prod_cons::Consumer"* %0, %"class.prod_cons::Consumer"** %2, align 8
  call void @llvm.dbg.declare(metadata %"class.prod_cons::Consumer"** %2, metadata !4294, metadata !3741), !dbg !4295
  %5 = load %"class.prod_cons::Consumer"*, %"class.prod_cons::Consumer"** %2, align 8
  %6 = getelementptr inbounds %"class.prod_cons::Consumer", %"class.prod_cons::Consumer"* %5, i32 0, i32 0, !dbg !4296
  store { i64, i64 } { i64 ptrtoint (void (%"class.prod_cons::Consumer"*)* @_ZN9prod_cons8Consumer4execEv to i64), i64 0 }, { i64, i64 }* %3, align 8, !dbg !4297
  store %"class.prod_cons::Consumer"* %5, %"class.prod_cons::Consumer"** %4, align 8, !dbg !4298
  call void @_ZN9IrsThreadclIJMN9prod_cons8ConsumerEFvvEPS2_EEEvDpOT_(%class.IrsThread* %6, { i64, i64 }* dereferenceable(16) %3, %"class.prod_cons::Consumer"** dereferenceable(8) %4), !dbg !4296
  ret void, !dbg !4299
}

; Function Attrs: nounwind uwtable
define linkonce_odr dereferenceable(8) %"class.__gnu_cxx::__normal_iterator.5"* @_ZN9__gnu_cxx17__normal_iteratorIPPN9prod_cons8ConsumerESt6vectorIS3_SaIS3_EEEppEv(%"class.__gnu_cxx::__normal_iterator.5"*) #4 comdat align 2 !dbg !4300 {
  %2 = alloca %"class.__gnu_cxx::__normal_iterator.5"*, align 8
  store %"class.__gnu_cxx::__normal_iterator.5"* %0, %"class.__gnu_cxx::__normal_iterator.5"** %2, align 8
  call void @llvm.dbg.declare(metadata %"class.__gnu_cxx::__normal_iterator.5"** %2, metadata !4301, metadata !3741), !dbg !4303
  %3 = load %"class.__gnu_cxx::__normal_iterator.5"*, %"class.__gnu_cxx::__normal_iterator.5"** %2, align 8
  %4 = getelementptr inbounds %"class.__gnu_cxx::__normal_iterator.5", %"class.__gnu_cxx::__normal_iterator.5"* %3, i32 0, i32 0, !dbg !4304
  %5 = load %"class.prod_cons::Consumer"**, %"class.prod_cons::Consumer"*** %4, align 8, !dbg !4305
  %6 = getelementptr inbounds %"class.prod_cons::Consumer"*, %"class.prod_cons::Consumer"** %5, i32 1, !dbg !4305
  store %"class.prod_cons::Consumer"** %6, %"class.prod_cons::Consumer"*** %4, align 8, !dbg !4305
  ret %"class.__gnu_cxx::__normal_iterator.5"* %3, !dbg !4306
}

; Function Attrs: uwtable
define linkonce_odr void @_ZN9prod_cons8Producer4joinEv(%"class.prod_cons::Producer"*) #0 comdat align 2 !dbg !4307 {
  %2 = alloca %"class.prod_cons::Producer"*, align 8
  store %"class.prod_cons::Producer"* %0, %"class.prod_cons::Producer"** %2, align 8
  call void @llvm.dbg.declare(metadata %"class.prod_cons::Producer"** %2, metadata !4308, metadata !3741), !dbg !4309
  %3 = load %"class.prod_cons::Producer"*, %"class.prod_cons::Producer"** %2, align 8
  %4 = getelementptr inbounds %"class.prod_cons::Producer", %"class.prod_cons::Producer"* %3, i32 0, i32 0, !dbg !4310
  call void @_ZN9IrsThread4joinEv(%class.IrsThread* %4), !dbg !4311
  ret void, !dbg !4312
}

; Function Attrs: uwtable
define linkonce_odr void @_ZN9prod_cons8Consumer4joinEv(%"class.prod_cons::Consumer"*) #0 comdat align 2 !dbg !4313 {
  %2 = alloca %"class.prod_cons::Consumer"*, align 8
  store %"class.prod_cons::Consumer"* %0, %"class.prod_cons::Consumer"** %2, align 8
  call void @llvm.dbg.declare(metadata %"class.prod_cons::Consumer"** %2, metadata !4314, metadata !3741), !dbg !4315
  %3 = load %"class.prod_cons::Consumer"*, %"class.prod_cons::Consumer"** %2, align 8
  %4 = getelementptr inbounds %"class.prod_cons::Consumer", %"class.prod_cons::Consumer"* %3, i32 0, i32 0, !dbg !4316
  call void @_ZN9IrsThread4joinEv(%class.IrsThread* %4), !dbg !4317
  ret void, !dbg !4318
}

; Function Attrs: uwtable
define linkonce_odr i64 @_ZNSt6chrono13duration_castINS_8durationIlSt5ratioILl1ELl1000000EEEElS2_ILl1ELl1000000000EEEENSt9enable_ifIXsr13__is_durationIT_EE5valueES7_E4typeERKNS1_IT0_T1_EE(%"struct.std::chrono::duration"* dereferenceable(8)) #0 comdat !dbg !4319 {
  %2 = alloca %"struct.std::chrono::duration.6", align 8
  %3 = alloca %"struct.std::chrono::duration"*, align 8
  store %"struct.std::chrono::duration"* %0, %"struct.std::chrono::duration"** %3, align 8
  call void @llvm.dbg.declare(metadata %"struct.std::chrono::duration"** %3, metadata !4328, metadata !3741), !dbg !4329
  %4 = load %"struct.std::chrono::duration"*, %"struct.std::chrono::duration"** %3, align 8, !dbg !4330
  %5 = call i64 @_ZNSt6chrono20__duration_cast_implINS_8durationIlSt5ratioILl1ELl1000000EEEES2_ILl1ELl1000EElLb1ELb0EE6__castIlS2_ILl1ELl1000000000EEEES4_RKNS1_IT_T0_EE(%"struct.std::chrono::duration"* dereferenceable(8) %4), !dbg !4331
  %6 = getelementptr inbounds %"struct.std::chrono::duration.6", %"struct.std::chrono::duration.6"* %2, i32 0, i32 0, !dbg !4331
  store i64 %5, i64* %6, align 8, !dbg !4331
  %7 = getelementptr inbounds %"struct.std::chrono::duration.6", %"struct.std::chrono::duration.6"* %2, i32 0, i32 0, !dbg !4332
  %8 = load i64, i64* %7, align 8, !dbg !4332
  ret i64 %8, !dbg !4332
}

; Function Attrs: uwtable
define linkonce_odr i64 @_ZNSt6chronomiINS_3_V212system_clockENS_8durationIlSt5ratioILl1ELl1000000000EEEES6_EENSt11common_typeIJT0_T1_EE4typeERKNS_10time_pointIT_S8_EERKNSC_ISD_S9_EE(%"struct.std::chrono::time_point"* dereferenceable(8), %"struct.std::chrono::time_point"* dereferenceable(8)) #0 comdat !dbg !4333 {
  %3 = alloca %"struct.std::chrono::duration", align 8
  %4 = alloca %"struct.std::chrono::time_point"*, align 8
  %5 = alloca %"struct.std::chrono::time_point"*, align 8
  %6 = alloca %"struct.std::chrono::duration", align 8
  %7 = alloca %"struct.std::chrono::duration", align 8
  store %"struct.std::chrono::time_point"* %0, %"struct.std::chrono::time_point"** %4, align 8
  call void @llvm.dbg.declare(metadata %"struct.std::chrono::time_point"** %4, metadata !4340, metadata !3741), !dbg !4341
  store %"struct.std::chrono::time_point"* %1, %"struct.std::chrono::time_point"** %5, align 8
  call void @llvm.dbg.declare(metadata %"struct.std::chrono::time_point"** %5, metadata !4342, metadata !3741), !dbg !4343
  %8 = load %"struct.std::chrono::time_point"*, %"struct.std::chrono::time_point"** %4, align 8, !dbg !4344
  %9 = call i64 @_ZNKSt6chrono10time_pointINS_3_V212system_clockENS_8durationIlSt5ratioILl1ELl1000000000EEEEE16time_since_epochEv(%"struct.std::chrono::time_point"* %8), !dbg !4345
  %10 = getelementptr inbounds %"struct.std::chrono::duration", %"struct.std::chrono::duration"* %6, i32 0, i32 0, !dbg !4345
  store i64 %9, i64* %10, align 8, !dbg !4345
  %11 = load %"struct.std::chrono::time_point"*, %"struct.std::chrono::time_point"** %5, align 8, !dbg !4346
  %12 = call i64 @_ZNKSt6chrono10time_pointINS_3_V212system_clockENS_8durationIlSt5ratioILl1ELl1000000000EEEEE16time_since_epochEv(%"struct.std::chrono::time_point"* %11), !dbg !4347
  %13 = getelementptr inbounds %"struct.std::chrono::duration", %"struct.std::chrono::duration"* %7, i32 0, i32 0, !dbg !4349
  store i64 %12, i64* %13, align 8, !dbg !4349
  %14 = call i64 @_ZNSt6chronomiIlSt5ratioILl1ELl1000000000EElS2_EENSt11common_typeIJNS_8durationIT_T0_EENS4_IT1_T2_EEEE4typeERKS7_RKSA_(%"struct.std::chrono::duration"* dereferenceable(8) %6, %"struct.std::chrono::duration"* dereferenceable(8) %7), !dbg !4350
  %15 = getelementptr inbounds %"struct.std::chrono::duration", %"struct.std::chrono::duration"* %3, i32 0, i32 0, !dbg !4352
  store i64 %14, i64* %15, align 8, !dbg !4352
  %16 = getelementptr inbounds %"struct.std::chrono::duration", %"struct.std::chrono::duration"* %3, i32 0, i32 0, !dbg !4353
  %17 = load i64, i64* %16, align 8, !dbg !4353
  ret i64 %17, !dbg !4353
}

; Function Attrs: nounwind uwtable
define linkonce_odr i64 @_ZNKSt6chrono8durationIlSt5ratioILl1ELl1000000EEE5countEv(%"struct.std::chrono::duration.6"*) #4 comdat align 2 !dbg !4354 {
  %2 = alloca %"struct.std::chrono::duration.6"*, align 8
  store %"struct.std::chrono::duration.6"* %0, %"struct.std::chrono::duration.6"** %2, align 8
  call void @llvm.dbg.declare(metadata %"struct.std::chrono::duration.6"** %2, metadata !4355, metadata !3741), !dbg !4357
  %3 = load %"struct.std::chrono::duration.6"*, %"struct.std::chrono::duration.6"** %2, align 8
  %4 = getelementptr inbounds %"struct.std::chrono::duration.6", %"struct.std::chrono::duration.6"* %3, i32 0, i32 0, !dbg !4358
  %5 = load i64, i64* %4, align 8, !dbg !4358
  ret i64 %5, !dbg !4359
}

declare dereferenceable(272) %"class.std::basic_ostream"* @_ZNSolsEl(%"class.std::basic_ostream"*, i64) #1

declare dereferenceable(272) %"class.std::basic_ostream"* @_ZNSolsEPFRSoS_E(%"class.std::basic_ostream"*, %"class.std::basic_ostream"* (%"class.std::basic_ostream"*)*) #1

declare dereferenceable(272) %"class.std::basic_ostream"* @_ZSt4endlIcSt11char_traitsIcEERSt13basic_ostreamIT_T0_ES6_(%"class.std::basic_ostream"* dereferenceable(272)) #1

; Function Attrs: inlinehint nounwind uwtable
define linkonce_odr void @_ZN9prod_cons8ProducerD2Ev(%"class.prod_cons::Producer"*) unnamed_addr #9 comdat align 2 !dbg !4360 {
  %2 = alloca %"class.prod_cons::Producer"*, align 8
  store %"class.prod_cons::Producer"* %0, %"class.prod_cons::Producer"** %2, align 8
  call void @llvm.dbg.declare(metadata %"class.prod_cons::Producer"** %2, metadata !4362, metadata !3741), !dbg !4363
  %3 = load %"class.prod_cons::Producer"*, %"class.prod_cons::Producer"** %2, align 8
  %4 = getelementptr inbounds %"class.prod_cons::Producer", %"class.prod_cons::Producer"* %3, i32 0, i32 0, !dbg !4364
  call void @_ZN9IrsThreadD2Ev(%class.IrsThread* %4) #3, !dbg !4364
  ret void, !dbg !4366
}

; Function Attrs: inlinehint nounwind uwtable
define linkonce_odr void @_ZN9prod_cons8ConsumerD2Ev(%"class.prod_cons::Consumer"*) unnamed_addr #9 comdat align 2 !dbg !4367 {
  %2 = alloca %"class.prod_cons::Consumer"*, align 8
  store %"class.prod_cons::Consumer"* %0, %"class.prod_cons::Consumer"** %2, align 8
  call void @llvm.dbg.declare(metadata %"class.prod_cons::Consumer"** %2, metadata !4369, metadata !3741), !dbg !4370
  %3 = load %"class.prod_cons::Consumer"*, %"class.prod_cons::Consumer"** %2, align 8
  %4 = getelementptr inbounds %"class.prod_cons::Consumer", %"class.prod_cons::Consumer"* %3, i32 0, i32 0, !dbg !4371
  call void @_ZN9IrsThreadD2Ev(%class.IrsThread* %4) #3, !dbg !4371
  ret void, !dbg !4373
}

; Function Attrs: nounwind uwtable
define linkonce_odr void @_ZNSt6vectorIPN9prod_cons8ConsumerESaIS2_EED2Ev(%"class.std::vector.0"*) unnamed_addr #4 comdat align 2 personality i8* bitcast (i32 (...)* @__gxx_personality_v0 to i8*) !dbg !4374 {
  %2 = alloca %"class.std::vector.0"*, align 8
  %3 = alloca i8*
  %4 = alloca i32
  store %"class.std::vector.0"* %0, %"class.std::vector.0"** %2, align 8
  call void @llvm.dbg.declare(metadata %"class.std::vector.0"** %2, metadata !4375, metadata !3741), !dbg !4376
  %5 = load %"class.std::vector.0"*, %"class.std::vector.0"** %2, align 8
  %6 = bitcast %"class.std::vector.0"* %5 to %"struct.std::_Vector_base.1"*, !dbg !4377
  %7 = getelementptr inbounds %"struct.std::_Vector_base.1", %"struct.std::_Vector_base.1"* %6, i32 0, i32 0, !dbg !4377
  %8 = getelementptr inbounds %"struct.std::_Vector_base<prod_cons::Consumer *, std::allocator<prod_cons::Consumer *> >::_Vector_impl", %"struct.std::_Vector_base<prod_cons::Consumer *, std::allocator<prod_cons::Consumer *> >::_Vector_impl"* %7, i32 0, i32 0, !dbg !4379
  %9 = load %"class.prod_cons::Consumer"**, %"class.prod_cons::Consumer"*** %8, align 8, !dbg !4379
  %10 = bitcast %"class.std::vector.0"* %5 to %"struct.std::_Vector_base.1"*, !dbg !4380
  %11 = getelementptr inbounds %"struct.std::_Vector_base.1", %"struct.std::_Vector_base.1"* %10, i32 0, i32 0, !dbg !4380
  %12 = getelementptr inbounds %"struct.std::_Vector_base<prod_cons::Consumer *, std::allocator<prod_cons::Consumer *> >::_Vector_impl", %"struct.std::_Vector_base<prod_cons::Consumer *, std::allocator<prod_cons::Consumer *> >::_Vector_impl"* %11, i32 0, i32 1, !dbg !4381
  %13 = load %"class.prod_cons::Consumer"**, %"class.prod_cons::Consumer"*** %12, align 8, !dbg !4381
  %14 = bitcast %"class.std::vector.0"* %5 to %"struct.std::_Vector_base.1"*, !dbg !4382
  %15 = call dereferenceable(1) %"class.std::allocator.2"* @_ZNSt12_Vector_baseIPN9prod_cons8ConsumerESaIS2_EE19_M_get_Tp_allocatorEv(%"struct.std::_Vector_base.1"* %14) #3, !dbg !4382
  invoke void @_ZSt8_DestroyIPPN9prod_cons8ConsumerES2_EvT_S4_RSaIT0_E(%"class.prod_cons::Consumer"** %9, %"class.prod_cons::Consumer"** %13, %"class.std::allocator.2"* dereferenceable(1) %15)
          to label %16 unwind label %18, !dbg !4383

; <label>:16:                                     ; preds = %1
  %17 = bitcast %"class.std::vector.0"* %5 to %"struct.std::_Vector_base.1"*, !dbg !4384
  call void @_ZNSt12_Vector_baseIPN9prod_cons8ConsumerESaIS2_EED2Ev(%"struct.std::_Vector_base.1"* %17) #3, !dbg !4384
  ret void, !dbg !4384

; <label>:18:                                     ; preds = %1
  %19 = landingpad { i8*, i32 }
          catch i8* null, !dbg !4386
  %20 = extractvalue { i8*, i32 } %19, 0, !dbg !4386
  store i8* %20, i8** %3, align 8, !dbg !4386
  %21 = extractvalue { i8*, i32 } %19, 1, !dbg !4386
  store i32 %21, i32* %4, align 4, !dbg !4386
  %22 = bitcast %"class.std::vector.0"* %5 to %"struct.std::_Vector_base.1"*, !dbg !4386
  call void @_ZNSt12_Vector_baseIPN9prod_cons8ConsumerESaIS2_EED2Ev(%"struct.std::_Vector_base.1"* %22) #3, !dbg !4386
  br label %23, !dbg !4386

; <label>:23:                                     ; preds = %18
  %24 = load i8*, i8** %3, align 8, !dbg !4388
  call void @__clang_call_terminate(i8* %24) #17, !dbg !4388
  unreachable, !dbg !4388
}

; Function Attrs: nounwind uwtable
define linkonce_odr void @_ZNSt6vectorIPN9prod_cons8ProducerESaIS2_EED2Ev(%"class.std::vector"*) unnamed_addr #4 comdat align 2 personality i8* bitcast (i32 (...)* @__gxx_personality_v0 to i8*) !dbg !4390 {
  %2 = alloca %"class.std::vector"*, align 8
  %3 = alloca i8*
  %4 = alloca i32
  store %"class.std::vector"* %0, %"class.std::vector"** %2, align 8
  call void @llvm.dbg.declare(metadata %"class.std::vector"** %2, metadata !4391, metadata !3741), !dbg !4392
  %5 = load %"class.std::vector"*, %"class.std::vector"** %2, align 8
  %6 = bitcast %"class.std::vector"* %5 to %"struct.std::_Vector_base"*, !dbg !4393
  %7 = getelementptr inbounds %"struct.std::_Vector_base", %"struct.std::_Vector_base"* %6, i32 0, i32 0, !dbg !4393
  %8 = getelementptr inbounds %"struct.std::_Vector_base<prod_cons::Producer *, std::allocator<prod_cons::Producer *> >::_Vector_impl", %"struct.std::_Vector_base<prod_cons::Producer *, std::allocator<prod_cons::Producer *> >::_Vector_impl"* %7, i32 0, i32 0, !dbg !4395
  %9 = load %"class.prod_cons::Producer"**, %"class.prod_cons::Producer"*** %8, align 8, !dbg !4395
  %10 = bitcast %"class.std::vector"* %5 to %"struct.std::_Vector_base"*, !dbg !4396
  %11 = getelementptr inbounds %"struct.std::_Vector_base", %"struct.std::_Vector_base"* %10, i32 0, i32 0, !dbg !4396
  %12 = getelementptr inbounds %"struct.std::_Vector_base<prod_cons::Producer *, std::allocator<prod_cons::Producer *> >::_Vector_impl", %"struct.std::_Vector_base<prod_cons::Producer *, std::allocator<prod_cons::Producer *> >::_Vector_impl"* %11, i32 0, i32 1, !dbg !4397
  %13 = load %"class.prod_cons::Producer"**, %"class.prod_cons::Producer"*** %12, align 8, !dbg !4397
  %14 = bitcast %"class.std::vector"* %5 to %"struct.std::_Vector_base"*, !dbg !4398
  %15 = call dereferenceable(1) %"class.std::allocator"* @_ZNSt12_Vector_baseIPN9prod_cons8ProducerESaIS2_EE19_M_get_Tp_allocatorEv(%"struct.std::_Vector_base"* %14) #3, !dbg !4398
  invoke void @_ZSt8_DestroyIPPN9prod_cons8ProducerES2_EvT_S4_RSaIT0_E(%"class.prod_cons::Producer"** %9, %"class.prod_cons::Producer"** %13, %"class.std::allocator"* dereferenceable(1) %15)
          to label %16 unwind label %18, !dbg !4399

; <label>:16:                                     ; preds = %1
  %17 = bitcast %"class.std::vector"* %5 to %"struct.std::_Vector_base"*, !dbg !4400
  call void @_ZNSt12_Vector_baseIPN9prod_cons8ProducerESaIS2_EED2Ev(%"struct.std::_Vector_base"* %17) #3, !dbg !4400
  ret void, !dbg !4400

; <label>:18:                                     ; preds = %1
  %19 = landingpad { i8*, i32 }
          catch i8* null, !dbg !4402
  %20 = extractvalue { i8*, i32 } %19, 0, !dbg !4402
  store i8* %20, i8** %3, align 8, !dbg !4402
  %21 = extractvalue { i8*, i32 } %19, 1, !dbg !4402
  store i32 %21, i32* %4, align 4, !dbg !4402
  %22 = bitcast %"class.std::vector"* %5 to %"struct.std::_Vector_base"*, !dbg !4402
  call void @_ZNSt12_Vector_baseIPN9prod_cons8ProducerESaIS2_EED2Ev(%"struct.std::_Vector_base"* %22) #3, !dbg !4402
  br label %23, !dbg !4402

; <label>:23:                                     ; preds = %18
  %24 = load i8*, i8** %3, align 8, !dbg !4404
  call void @__clang_call_terminate(i8* %24) #17, !dbg !4404
  unreachable, !dbg !4404
}

; Function Attrs: nounwind uwtable
define linkonce_odr void @_ZN9IrsThreadC2Ei(%class.IrsThread*, i32) unnamed_addr #4 comdat align 2 !dbg !4406 {
  %3 = alloca %class.IrsThread*, align 8
  %4 = alloca i32, align 4
  store %class.IrsThread* %0, %class.IrsThread** %3, align 8
  call void @llvm.dbg.declare(metadata %class.IrsThread** %3, metadata !4407, metadata !3741), !dbg !4409
  store i32 %1, i32* %4, align 4
  call void @llvm.dbg.declare(metadata i32* %4, metadata !4410, metadata !3741), !dbg !4411
  %5 = load %class.IrsThread*, %class.IrsThread** %3, align 8
  %6 = getelementptr inbounds %class.IrsThread, %class.IrsThread* %5, i32 0, i32 0, !dbg !4412
  call void @_ZNSt6threadC2Ev(%"class.std::thread"* %6) #3, !dbg !4412
  %7 = getelementptr inbounds %class.IrsThread, %class.IrsThread* %5, i32 0, i32 1, !dbg !4413
  %8 = load i32, i32* %4, align 4, !dbg !4414
  store i32 %8, i32* %7, align 8, !dbg !4413
  ret void, !dbg !4415
}

; Function Attrs: nounwind uwtable
define linkonce_odr void @_ZNSt6threadC2Ev(%"class.std::thread"*) unnamed_addr #4 comdat align 2 !dbg !4416 {
  %2 = alloca %"class.std::thread"*, align 8
  store %"class.std::thread"* %0, %"class.std::thread"** %2, align 8
  call void @llvm.dbg.declare(metadata %"class.std::thread"** %2, metadata !4417, metadata !3741), !dbg !4419
  %3 = load %"class.std::thread"*, %"class.std::thread"** %2, align 8
  %4 = getelementptr inbounds %"class.std::thread", %"class.std::thread"* %3, i32 0, i32 0, !dbg !4420
  call void @_ZNSt6thread2idC2Ev(%"class.std::thread::id"* %4) #3, !dbg !4420
  ret void, !dbg !4421
}

; Function Attrs: nounwind uwtable
define linkonce_odr void @_ZNSt6thread2idC2Ev(%"class.std::thread::id"*) unnamed_addr #4 comdat align 2 !dbg !4422 {
  %2 = alloca %"class.std::thread::id"*, align 8
  store %"class.std::thread::id"* %0, %"class.std::thread::id"** %2, align 8
  call void @llvm.dbg.declare(metadata %"class.std::thread::id"** %2, metadata !4423, metadata !3741), !dbg !4425
  %3 = load %"class.std::thread::id"*, %"class.std::thread::id"** %2, align 8
  %4 = getelementptr inbounds %"class.std::thread::id", %"class.std::thread::id"* %3, i32 0, i32 0, !dbg !4426
  store i64 0, i64* %4, align 8, !dbg !4426
  ret void, !dbg !4427
}

; Function Attrs: uwtable
define linkonce_odr void @_ZN9IrsThreadclIJMN9prod_cons8ProducerEFvvEPS2_EEEvDpOT_(%class.IrsThread*, { i64, i64 }* dereferenceable(16), %"class.prod_cons::Producer"** dereferenceable(8)) #0 comdat align 2 !dbg !4428 {
  %4 = alloca %class.IrsThread*, align 8
  %5 = alloca { i64, i64 }*, align 8
  %6 = alloca %"class.prod_cons::Producer"**, align 8
  %7 = alloca %"class.std::thread", align 8
  store %class.IrsThread* %0, %class.IrsThread** %4, align 8
  call void @llvm.dbg.declare(metadata %class.IrsThread** %4, metadata !4437, metadata !3741), !dbg !4438
  store { i64, i64 }* %1, { i64, i64 }** %5, align 8
  call void @llvm.dbg.declare(metadata { i64, i64 }** %5, metadata !4439, metadata !3741), !dbg !4440
  store %"class.prod_cons::Producer"** %2, %"class.prod_cons::Producer"*** %6, align 8
  call void @llvm.dbg.declare(metadata %"class.prod_cons::Producer"*** %6, metadata !4441, metadata !3741), !dbg !4440
  %8 = load %class.IrsThread*, %class.IrsThread** %4, align 8
  %9 = getelementptr inbounds %class.IrsThread, %class.IrsThread* %8, i32 0, i32 0, !dbg !4442
  %10 = load { i64, i64 }*, { i64, i64 }** %5, align 8, !dbg !4443
  %11 = call dereferenceable(16) { i64, i64 }* @_ZSt7forwardIMN9prod_cons8ProducerEFvvEEOT_RNSt16remove_referenceIS4_E4typeE({ i64, i64 }* dereferenceable(16) %10) #3, !dbg !4444
  %12 = load %"class.prod_cons::Producer"**, %"class.prod_cons::Producer"*** %6, align 8, !dbg !4443
  %13 = call dereferenceable(8) %"class.prod_cons::Producer"** @_ZSt7forwardIPN9prod_cons8ProducerEEOT_RNSt16remove_referenceIS3_E4typeE(%"class.prod_cons::Producer"** dereferenceable(8) %12) #3, !dbg !4445
  call void @_ZNSt6threadC2IMN9prod_cons8ProducerEFvvEJPS2_EEEOT_DpOT0_(%"class.std::thread"* %7, { i64, i64 }* dereferenceable(16) %11, %"class.prod_cons::Producer"** dereferenceable(8) %13), !dbg !4447
  %14 = call dereferenceable(8) %"class.std::thread"* @_ZNSt6threadaSEOS_(%"class.std::thread"* %9, %"class.std::thread"* dereferenceable(8) %7) #3, !dbg !4449
  call void @_ZNSt6threadD2Ev(%"class.std::thread"* %7) #3, !dbg !4451
  ret void, !dbg !4453
}

; Function Attrs: uwtable
define linkonce_odr void @_ZN9prod_cons8Producer4execEv(%"class.prod_cons::Producer"*) #0 comdat align 2 !dbg !4454 {
  %2 = alloca %"class.prod_cons::Producer"*, align 8
  %3 = alloca i32, align 4
  %4 = alloca i32, align 4
  %5 = alloca i32, align 4
  store %"class.prod_cons::Producer"* %0, %"class.prod_cons::Producer"** %2, align 8
  call void @llvm.dbg.declare(metadata %"class.prod_cons::Producer"** %2, metadata !4455, metadata !3741), !dbg !4456
  %6 = load %"class.prod_cons::Producer"*, %"class.prod_cons::Producer"** %2, align 8
  call void @llvm.dbg.declare(metadata i32* %3, metadata !4457, metadata !3741), !dbg !4458
  %7 = call i32 @_ZN9prod_cons8Producer11getThreadIdEv(%"class.prod_cons::Producer"* %6), !dbg !4459
  store i32 %7, i32* %3, align 4, !dbg !4458
  call void @llvm.dbg.declare(metadata i32* %4, metadata !4460, metadata !3741), !dbg !4461
  call void @llvm.dbg.declare(metadata i32* %5, metadata !4462, metadata !3741), !dbg !4463
  store i32 0, i32* %4, align 4, !dbg !4464
  br label %8, !dbg !4466

; <label>:8:                                      ; preds = %26, %1
  %9 = load i32, i32* %4, align 4, !dbg !4467
  %10 = icmp slt i32 %9, 4, !dbg !4470
  br i1 %10, label %11, label %29, !dbg !4471

; <label>:11:                                     ; preds = %8
  store i32 100, i32* %5, align 4, !dbg !4472
  br label %12, !dbg !4474

; <label>:12:                                     ; preds = %15, %11
  %13 = load i32, i32* @_ZN9prod_cons5g_ctrE, align 4, !dbg !4475
  %14 = icmp eq i32 %13, 16, !dbg !4477
  br i1 %14, label %15, label %16, !dbg !4478

; <label>:15:                                     ; preds = %12
  br label %12, !dbg !4479, !llvm.loop !4481

; <label>:16:                                     ; preds = %12
  %17 = load i32, i32* %5, align 4, !dbg !4482
  %18 = load i32, i32* @_ZN9prod_cons4g_inE, align 4, !dbg !4483
  %19 = sext i32 %18 to i64, !dbg !4484
  %20 = getelementptr inbounds [16 x i32], [16 x i32]* @_ZN9prod_cons8g_bufferE, i64 0, i64 %19, !dbg !4484
  store i32 %17, i32* %20, align 4, !dbg !4485
  %21 = load i32, i32* @_ZN9prod_cons4g_inE, align 4, !dbg !4486
  %22 = add nsw i32 %21, 1, !dbg !4487
  %23 = srem i32 %22, 16, !dbg !4488
  store i32 %23, i32* @_ZN9prod_cons4g_inE, align 4, !dbg !4489
  %24 = load i32, i32* @_ZN9prod_cons5g_ctrE, align 4, !dbg !4490
  %25 = add nsw i32 %24, 1, !dbg !4490
  store i32 %25, i32* @_ZN9prod_cons5g_ctrE, align 4, !dbg !4490
  br label %26, !dbg !4491

; <label>:26:                                     ; preds = %16
  %27 = load i32, i32* %4, align 4, !dbg !4492
  %28 = add nsw i32 %27, 1, !dbg !4492
  store i32 %28, i32* %4, align 4, !dbg !4492
  br label %8, !dbg !4494, !llvm.loop !4495

; <label>:29:                                     ; preds = %8
  ret void, !dbg !4497
}

; Function Attrs: nounwind uwtable
define linkonce_odr dereferenceable(8) %"class.std::thread"* @_ZNSt6threadaSEOS_(%"class.std::thread"*, %"class.std::thread"* dereferenceable(8)) #4 comdat align 2 !dbg !4498 {
  %3 = alloca %"class.std::thread"*, align 8
  %4 = alloca %"class.std::thread"*, align 8
  store %"class.std::thread"* %0, %"class.std::thread"** %3, align 8
  call void @llvm.dbg.declare(metadata %"class.std::thread"** %3, metadata !4499, metadata !3741), !dbg !4500
  store %"class.std::thread"* %1, %"class.std::thread"** %4, align 8
  call void @llvm.dbg.declare(metadata %"class.std::thread"** %4, metadata !4501, metadata !3741), !dbg !4502
  %5 = load %"class.std::thread"*, %"class.std::thread"** %3, align 8
  %6 = call zeroext i1 @_ZNKSt6thread8joinableEv(%"class.std::thread"* %5) #3, !dbg !4503
  br i1 %6, label %7, label %8, !dbg !4505

; <label>:7:                                      ; preds = %2
  call void @_ZSt9terminatev() #17, !dbg !4506
  unreachable, !dbg !4506

; <label>:8:                                      ; preds = %2
  %9 = load %"class.std::thread"*, %"class.std::thread"** %4, align 8, !dbg !4507
  call void @_ZNSt6thread4swapERS_(%"class.std::thread"* %5, %"class.std::thread"* dereferenceable(8) %9) #3, !dbg !4508
  ret %"class.std::thread"* %5, !dbg !4509
}

; Function Attrs: nounwind uwtable
define linkonce_odr dereferenceable(16) { i64, i64 }* @_ZSt7forwardIMN9prod_cons8ProducerEFvvEEOT_RNSt16remove_referenceIS4_E4typeE({ i64, i64 }* dereferenceable(16)) #4 comdat !dbg !4510 {
  %2 = alloca { i64, i64 }*, align 8
  store { i64, i64 }* %0, { i64, i64 }** %2, align 8
  call void @llvm.dbg.declare(metadata { i64, i64 }** %2, metadata !4517, metadata !3741), !dbg !4518
  %3 = load { i64, i64 }*, { i64, i64 }** %2, align 8, !dbg !4519
  ret { i64, i64 }* %3, !dbg !4520
}

; Function Attrs: nounwind uwtable
define linkonce_odr dereferenceable(8) %"class.prod_cons::Producer"** @_ZSt7forwardIPN9prod_cons8ProducerEEOT_RNSt16remove_referenceIS3_E4typeE(%"class.prod_cons::Producer"** dereferenceable(8)) #4 comdat !dbg !4521 {
  %2 = alloca %"class.prod_cons::Producer"**, align 8
  store %"class.prod_cons::Producer"** %0, %"class.prod_cons::Producer"*** %2, align 8
  call void @llvm.dbg.declare(metadata %"class.prod_cons::Producer"*** %2, metadata !4527, metadata !3741), !dbg !4528
  %3 = load %"class.prod_cons::Producer"**, %"class.prod_cons::Producer"*** %2, align 8, !dbg !4529
  ret %"class.prod_cons::Producer"** %3, !dbg !4530
}

; Function Attrs: uwtable
define linkonce_odr void @_ZNSt6threadC2IMN9prod_cons8ProducerEFvvEJPS2_EEEOT_DpOT0_(%"class.std::thread"*, { i64, i64 }* dereferenceable(16), %"class.prod_cons::Producer"** dereferenceable(8)) unnamed_addr #0 comdat align 2 personality i8* bitcast (i32 (...)* @__gxx_personality_v0 to i8*) !dbg !4531 {
  %4 = alloca %"class.std::thread"*, align 8
  %5 = alloca { i64, i64 }*, align 8
  %6 = alloca %"class.prod_cons::Producer"**, align 8
  %7 = alloca void ()*, align 8
  %8 = alloca %"class.std::unique_ptr", align 8
  %9 = alloca %"struct.std::_Bind_simple", align 8
  %10 = alloca i8*
  %11 = alloca i32
  store %"class.std::thread"* %0, %"class.std::thread"** %4, align 8
  call void @llvm.dbg.declare(metadata %"class.std::thread"** %4, metadata !4537, metadata !3741), !dbg !4538
  store { i64, i64 }* %1, { i64, i64 }** %5, align 8
  call void @llvm.dbg.declare(metadata { i64, i64 }** %5, metadata !4539, metadata !3741), !dbg !4540
  store %"class.prod_cons::Producer"** %2, %"class.prod_cons::Producer"*** %6, align 8
  call void @llvm.dbg.declare(metadata %"class.prod_cons::Producer"*** %6, metadata !4541, metadata !3741), !dbg !4542
  %12 = load %"class.std::thread"*, %"class.std::thread"** %4, align 8
  %13 = getelementptr inbounds %"class.std::thread", %"class.std::thread"* %12, i32 0, i32 0, !dbg !4543
  call void @_ZNSt6thread2idC2Ev(%"class.std::thread::id"* %13) #3, !dbg !4543
  call void @llvm.dbg.declare(metadata void ()** %7, metadata !4544, metadata !3741), !dbg !4546
  store void ()* bitcast (i32 (i64*, %union.pthread_attr_t*, i8* (i8*)*, i8*)* @pthread_create to void ()*), void ()** %7, align 8, !dbg !4546
  %14 = load { i64, i64 }*, { i64, i64 }** %5, align 8, !dbg !4547
  %15 = call dereferenceable(16) { i64, i64 }* @_ZSt7forwardIMN9prod_cons8ProducerEFvvEEOT_RNSt16remove_referenceIS4_E4typeE({ i64, i64 }* dereferenceable(16) %14) #3, !dbg !4548
  %16 = load %"class.prod_cons::Producer"**, %"class.prod_cons::Producer"*** %6, align 8, !dbg !4549
  %17 = call dereferenceable(8) %"class.prod_cons::Producer"** @_ZSt7forwardIPN9prod_cons8ProducerEEOT_RNSt16remove_referenceIS3_E4typeE(%"class.prod_cons::Producer"** dereferenceable(8) %16) #3, !dbg !4550
  call void @_ZSt13__bind_simpleIMN9prod_cons8ProducerEFvvEJPS1_EENSt19_Bind_simple_helperIT_JDpT0_EE6__typeEOS6_DpOS7_(%"struct.std::_Bind_simple"* sret %9, { i64, i64 }* dereferenceable(16) %15, %"class.prod_cons::Producer"** dereferenceable(8) %17), !dbg !4551
  call void @_ZNSt6thread13_S_make_stateISt12_Bind_simpleIFSt7_Mem_fnIMN9prod_cons8ProducerEFvvEEPS4_EEEESt10unique_ptrINS_6_StateESt14default_deleteISC_EEOT_(%"class.std::unique_ptr"* sret %8, %"struct.std::_Bind_simple"* dereferenceable(24) %9), !dbg !4553
  %18 = load void ()*, void ()** %7, align 8, !dbg !4554
  invoke void @_ZNSt6thread15_M_start_threadESt10unique_ptrINS_6_StateESt14default_deleteIS1_EEPFvvE(%"class.std::thread"* %12, %"class.std::unique_ptr"* %8, void ()* %18)
          to label %19 unwind label %20, !dbg !4555

; <label>:19:                                     ; preds = %3
  call void @_ZNSt10unique_ptrINSt6thread6_StateESt14default_deleteIS1_EED2Ev(%"class.std::unique_ptr"* %8) #3, !dbg !4556
  ret void, !dbg !4557

; <label>:20:                                     ; preds = %3
  %21 = landingpad { i8*, i32 }
          cleanup, !dbg !4558
  %22 = extractvalue { i8*, i32 } %21, 0, !dbg !4558
  store i8* %22, i8** %10, align 8, !dbg !4558
  %23 = extractvalue { i8*, i32 } %21, 1, !dbg !4558
  store i32 %23, i32* %11, align 4, !dbg !4558
  call void @_ZNSt10unique_ptrINSt6thread6_StateESt14default_deleteIS1_EED2Ev(%"class.std::unique_ptr"* %8) #3, !dbg !4559
  br label %24, !dbg !4559

; <label>:24:                                     ; preds = %20
  %25 = load i8*, i8** %10, align 8, !dbg !4561
  %26 = load i32, i32* %11, align 4, !dbg !4561
  %27 = insertvalue { i8*, i32 } undef, i8* %25, 0, !dbg !4561
  %28 = insertvalue { i8*, i32 } %27, i32 %26, 1, !dbg !4561
  resume { i8*, i32 } %28, !dbg !4561
}

; Function Attrs: nounwind uwtable
define linkonce_odr void @_ZNSt6threadD2Ev(%"class.std::thread"*) unnamed_addr #4 comdat align 2 !dbg !4563 {
  %2 = alloca %"class.std::thread"*, align 8
  store %"class.std::thread"* %0, %"class.std::thread"** %2, align 8
  call void @llvm.dbg.declare(metadata %"class.std::thread"** %2, metadata !4564, metadata !3741), !dbg !4565
  %3 = load %"class.std::thread"*, %"class.std::thread"** %2, align 8
  %4 = call zeroext i1 @_ZNKSt6thread8joinableEv(%"class.std::thread"* %3) #3, !dbg !4566
  br i1 %4, label %5, label %6, !dbg !4569

; <label>:5:                                      ; preds = %1
  call void @_ZSt9terminatev() #17, !dbg !4570
  unreachable, !dbg !4570

; <label>:6:                                      ; preds = %1
  ret void, !dbg !4571
}

; Function Attrs: nounwind uwtable
define linkonce_odr zeroext i1 @_ZNKSt6thread8joinableEv(%"class.std::thread"*) #4 comdat align 2 !dbg !4572 {
  %2 = alloca %"class.std::thread"*, align 8
  %3 = alloca %"class.std::thread::id", align 8
  %4 = alloca %"class.std::thread::id", align 8
  store %"class.std::thread"* %0, %"class.std::thread"** %2, align 8
  call void @llvm.dbg.declare(metadata %"class.std::thread"** %2, metadata !4573, metadata !3741), !dbg !4575
  %5 = load %"class.std::thread"*, %"class.std::thread"** %2, align 8
  %6 = getelementptr inbounds %"class.std::thread", %"class.std::thread"* %5, i32 0, i32 0, !dbg !4576
  %7 = bitcast %"class.std::thread::id"* %3 to i8*, !dbg !4576
  %8 = bitcast %"class.std::thread::id"* %6 to i8*, !dbg !4576
  call void @llvm.memcpy.p0i8.p0i8.i64(i8* %7, i8* %8, i64 8, i32 8, i1 false), !dbg !4576
  call void @_ZNSt6thread2idC2Ev(%"class.std::thread::id"* %4) #3, !dbg !4577
  %9 = getelementptr inbounds %"class.std::thread::id", %"class.std::thread::id"* %3, i32 0, i32 0, !dbg !4579
  %10 = load i64, i64* %9, align 8, !dbg !4579
  %11 = getelementptr inbounds %"class.std::thread::id", %"class.std::thread::id"* %4, i32 0, i32 0, !dbg !4579
  %12 = load i64, i64* %11, align 8, !dbg !4579
  %13 = call zeroext i1 @_ZSteqNSt6thread2idES0_(i64 %10, i64 %12) #3, !dbg !4580
  %14 = xor i1 %13, true, !dbg !4582
  ret i1 %14, !dbg !4583
}

; Function Attrs: noreturn nounwind
declare void @_ZSt9terminatev() #10

; Function Attrs: nounwind uwtable
define linkonce_odr void @_ZNSt6thread4swapERS_(%"class.std::thread"*, %"class.std::thread"* dereferenceable(8)) #4 comdat align 2 !dbg !4584 {
  %3 = alloca %"class.std::thread"*, align 8
  %4 = alloca %"class.std::thread"*, align 8
  store %"class.std::thread"* %0, %"class.std::thread"** %3, align 8
  call void @llvm.dbg.declare(metadata %"class.std::thread"** %3, metadata !4585, metadata !3741), !dbg !4586
  store %"class.std::thread"* %1, %"class.std::thread"** %4, align 8
  call void @llvm.dbg.declare(metadata %"class.std::thread"** %4, metadata !4587, metadata !3741), !dbg !4588
  %5 = load %"class.std::thread"*, %"class.std::thread"** %3, align 8
  %6 = getelementptr inbounds %"class.std::thread", %"class.std::thread"* %5, i32 0, i32 0, !dbg !4589
  %7 = load %"class.std::thread"*, %"class.std::thread"** %4, align 8, !dbg !4590
  %8 = getelementptr inbounds %"class.std::thread", %"class.std::thread"* %7, i32 0, i32 0, !dbg !4591
  call void @_ZSt4swapINSt6thread2idEENSt9enable_ifIXsr6__and_ISt21is_move_constructibleIT_ESt18is_move_assignableIS4_EEE5valueEvE4typeERS4_SA_(%"class.std::thread::id"* dereferenceable(8) %6, %"class.std::thread::id"* dereferenceable(8) %8) #3, !dbg !4592
  ret void, !dbg !4593
}

; Function Attrs: nounwind uwtable
define linkonce_odr zeroext i1 @_ZSteqNSt6thread2idES0_(i64, i64) #4 comdat !dbg !4594 {
  %3 = alloca %"class.std::thread::id", align 8
  %4 = alloca %"class.std::thread::id", align 8
  %5 = getelementptr inbounds %"class.std::thread::id", %"class.std::thread::id"* %3, i32 0, i32 0
  store i64 %0, i64* %5, align 8
  %6 = getelementptr inbounds %"class.std::thread::id", %"class.std::thread::id"* %4, i32 0, i32 0
  store i64 %1, i64* %6, align 8
  call void @llvm.dbg.declare(metadata %"class.std::thread::id"* %3, metadata !4597, metadata !3741), !dbg !4598
  call void @llvm.dbg.declare(metadata %"class.std::thread::id"* %4, metadata !4599, metadata !3741), !dbg !4600
  %7 = getelementptr inbounds %"class.std::thread::id", %"class.std::thread::id"* %3, i32 0, i32 0, !dbg !4601
  %8 = load i64, i64* %7, align 8, !dbg !4601
  %9 = getelementptr inbounds %"class.std::thread::id", %"class.std::thread::id"* %4, i32 0, i32 0, !dbg !4602
  %10 = load i64, i64* %9, align 8, !dbg !4602
  %11 = icmp eq i64 %8, %10, !dbg !4603
  ret i1 %11, !dbg !4604
}

; Function Attrs: argmemonly nounwind
declare void @llvm.memcpy.p0i8.p0i8.i64(i8* nocapture writeonly, i8* nocapture readonly, i64, i32, i1) #11

; Function Attrs: inlinehint nounwind uwtable
define linkonce_odr void @_ZSt4swapINSt6thread2idEENSt9enable_ifIXsr6__and_ISt21is_move_constructibleIT_ESt18is_move_assignableIS4_EEE5valueEvE4typeERS4_SA_(%"class.std::thread::id"* dereferenceable(8), %"class.std::thread::id"* dereferenceable(8)) #9 comdat !dbg !4605 {
  %3 = alloca %"class.std::thread::id"*, align 8
  %4 = alloca %"class.std::thread::id"*, align 8
  %5 = alloca %"class.std::thread::id", align 8
  store %"class.std::thread::id"* %0, %"class.std::thread::id"** %3, align 8
  call void @llvm.dbg.declare(metadata %"class.std::thread::id"** %3, metadata !4614, metadata !3741), !dbg !4615
  store %"class.std::thread::id"* %1, %"class.std::thread::id"** %4, align 8
  call void @llvm.dbg.declare(metadata %"class.std::thread::id"** %4, metadata !4616, metadata !3741), !dbg !4617
  call void @llvm.dbg.declare(metadata %"class.std::thread::id"* %5, metadata !4618, metadata !3741), !dbg !4619
  %6 = load %"class.std::thread::id"*, %"class.std::thread::id"** %3, align 8, !dbg !4620
  %7 = call dereferenceable(8) %"class.std::thread::id"* @_ZSt4moveIRNSt6thread2idEEONSt16remove_referenceIT_E4typeEOS4_(%"class.std::thread::id"* dereferenceable(8) %6) #3, !dbg !4620
  %8 = bitcast %"class.std::thread::id"* %5 to i8*, !dbg !4620
  %9 = bitcast %"class.std::thread::id"* %7 to i8*, !dbg !4620
  call void @llvm.memcpy.p0i8.p0i8.i64(i8* %8, i8* %9, i64 8, i32 8, i1 false), !dbg !4621
  %10 = load %"class.std::thread::id"*, %"class.std::thread::id"** %3, align 8, !dbg !4623
  %11 = load %"class.std::thread::id"*, %"class.std::thread::id"** %4, align 8, !dbg !4624
  %12 = call dereferenceable(8) %"class.std::thread::id"* @_ZSt4moveIRNSt6thread2idEEONSt16remove_referenceIT_E4typeEOS4_(%"class.std::thread::id"* dereferenceable(8) %11) #3, !dbg !4624
  %13 = bitcast %"class.std::thread::id"* %10 to i8*, !dbg !4625
  %14 = bitcast %"class.std::thread::id"* %12 to i8*, !dbg !4625
  call void @llvm.memcpy.p0i8.p0i8.i64(i8* %13, i8* %14, i64 8, i32 8, i1 false), !dbg !4626
  %15 = load %"class.std::thread::id"*, %"class.std::thread::id"** %4, align 8, !dbg !4627
  %16 = call dereferenceable(8) %"class.std::thread::id"* @_ZSt4moveIRNSt6thread2idEEONSt16remove_referenceIT_E4typeEOS4_(%"class.std::thread::id"* dereferenceable(8) %5) #3, !dbg !4628
  %17 = bitcast %"class.std::thread::id"* %15 to i8*, !dbg !4629
  %18 = bitcast %"class.std::thread::id"* %16 to i8*, !dbg !4629
  call void @llvm.memcpy.p0i8.p0i8.i64(i8* %17, i8* %18, i64 8, i32 8, i1 false), !dbg !4630
  ret void, !dbg !4631
}

; Function Attrs: nounwind uwtable
define linkonce_odr dereferenceable(8) %"class.std::thread::id"* @_ZSt4moveIRNSt6thread2idEEONSt16remove_referenceIT_E4typeEOS4_(%"class.std::thread::id"* dereferenceable(8)) #4 comdat !dbg !4632 {
  %2 = alloca %"class.std::thread::id"*, align 8
  store %"class.std::thread::id"* %0, %"class.std::thread::id"** %2, align 8
  call void @llvm.dbg.declare(metadata %"class.std::thread::id"** %2, metadata !4640, metadata !3741), !dbg !4641
  %3 = load %"class.std::thread::id"*, %"class.std::thread::id"** %2, align 8, !dbg !4642
  ret %"class.std::thread::id"* %3, !dbg !4643
}

; Function Attrs: nounwind
declare i32 @pthread_create(i64*, %union.pthread_attr_t*, i8* (i8*)*, i8*) #2

declare void @_ZNSt6thread15_M_start_threadESt10unique_ptrINS_6_StateESt14default_deleteIS1_EEPFvvE(%"class.std::thread"*, %"class.std::unique_ptr"*, void ()*) #1

; Function Attrs: uwtable
define linkonce_odr void @_ZNSt6thread13_S_make_stateISt12_Bind_simpleIFSt7_Mem_fnIMN9prod_cons8ProducerEFvvEEPS4_EEEESt10unique_ptrINS_6_StateESt14default_deleteISC_EEOT_(%"class.std::unique_ptr"* noalias sret, %"struct.std::_Bind_simple"* dereferenceable(24)) #0 comdat align 2 personality i8* bitcast (i32 (...)* @__gxx_personality_v0 to i8*) !dbg !4644 {
  %3 = alloca %"struct.std::_Bind_simple"*, align 8
  %4 = alloca i8*
  %5 = alloca i32
  store %"struct.std::_Bind_simple"* %1, %"struct.std::_Bind_simple"** %3, align 8
  call void @llvm.dbg.declare(metadata %"struct.std::_Bind_simple"** %3, metadata !4847, metadata !3741), !dbg !4848
  %6 = call i8* @_Znwm(i64 32) #15, !dbg !4849
  %7 = bitcast i8* %6 to %"struct.std::thread::_State_impl"*, !dbg !4849
  %8 = load %"struct.std::_Bind_simple"*, %"struct.std::_Bind_simple"** %3, align 8, !dbg !4850
  %9 = call dereferenceable(24) %"struct.std::_Bind_simple"* @_ZSt7forwardISt12_Bind_simpleIFSt7_Mem_fnIMN9prod_cons8ProducerEFvvEEPS3_EEEOT_RNSt16remove_referenceISA_E4typeE(%"struct.std::_Bind_simple"* dereferenceable(24) %8) #3, !dbg !4851
  invoke void @_ZNSt6thread11_State_implISt12_Bind_simpleIFSt7_Mem_fnIMN9prod_cons8ProducerEFvvEEPS4_EEEC2EOSA_(%"struct.std::thread::_State_impl"* %7, %"struct.std::_Bind_simple"* dereferenceable(24) %9)
          to label %10 unwind label %12, !dbg !4853

; <label>:10:                                     ; preds = %2
  %11 = bitcast %"struct.std::thread::_State_impl"* %7 to %"struct.std::thread::_State"*, !dbg !4854
  call void @_ZNSt10unique_ptrINSt6thread6_StateESt14default_deleteIS1_EEC2EPS1_(%"class.std::unique_ptr"* %0, %"struct.std::thread::_State"* %11) #3, !dbg !4856
  ret void, !dbg !4857

; <label>:12:                                     ; preds = %2
  %13 = landingpad { i8*, i32 }
          cleanup, !dbg !4858
  %14 = extractvalue { i8*, i32 } %13, 0, !dbg !4858
  store i8* %14, i8** %4, align 8, !dbg !4858
  %15 = extractvalue { i8*, i32 } %13, 1, !dbg !4858
  store i32 %15, i32* %5, align 4, !dbg !4858
  call void @_ZdlPv(i8* %6) #16, !dbg !4859
  br label %16, !dbg !4859

; <label>:16:                                     ; preds = %12
  %17 = load i8*, i8** %4, align 8, !dbg !4861
  %18 = load i32, i32* %5, align 4, !dbg !4861
  %19 = insertvalue { i8*, i32 } undef, i8* %17, 0, !dbg !4861
  %20 = insertvalue { i8*, i32 } %19, i32 %18, 1, !dbg !4861
  resume { i8*, i32 } %20, !dbg !4861
}

; Function Attrs: uwtable
define linkonce_odr void @_ZSt13__bind_simpleIMN9prod_cons8ProducerEFvvEJPS1_EENSt19_Bind_simple_helperIT_JDpT0_EE6__typeEOS6_DpOS7_(%"struct.std::_Bind_simple"* noalias sret, { i64, i64 }* dereferenceable(16), %"class.prod_cons::Producer"** dereferenceable(8)) #0 comdat !dbg !4863 {
  %4 = alloca { i64, i64 }*, align 8
  %5 = alloca %"class.prod_cons::Producer"**, align 8
  %6 = alloca %"struct.std::_Mem_fn", align 8
  %7 = alloca { i64, i64 }, align 8
  store { i64, i64 }* %1, { i64, i64 }** %4, align 8
  call void @llvm.dbg.declare(metadata { i64, i64 }** %4, metadata !4874, metadata !3741), !dbg !4875
  store %"class.prod_cons::Producer"** %2, %"class.prod_cons::Producer"*** %5, align 8
  call void @llvm.dbg.declare(metadata %"class.prod_cons::Producer"*** %5, metadata !4876, metadata !3741), !dbg !4877
  %8 = load { i64, i64 }*, { i64, i64 }** %4, align 8, !dbg !4878
  %9 = call dereferenceable(16) { i64, i64 }* @_ZSt7forwardIMN9prod_cons8ProducerEFvvEEOT_RNSt16remove_referenceIS4_E4typeE({ i64, i64 }* dereferenceable(16) %8) #3, !dbg !4879
  %10 = load { i64, i64 }, { i64, i64 }* %9, align 8, !dbg !4879
  store { i64, i64 } %10, { i64, i64 }* %7, align 8, !dbg !4880
  %11 = getelementptr inbounds { i64, i64 }, { i64, i64 }* %7, i32 0, i32 0, !dbg !4880
  %12 = load i64, i64* %11, align 8, !dbg !4880
  %13 = getelementptr inbounds { i64, i64 }, { i64, i64 }* %7, i32 0, i32 1, !dbg !4880
  %14 = load i64, i64* %13, align 8, !dbg !4880
  %15 = call { i64, i64 } @_ZNSt26_Maybe_wrap_member_pointerIMN9prod_cons8ProducerEFvvEE9__do_wrapES3_(i64 %12, i64 %14), !dbg !4881
  %16 = getelementptr inbounds %"struct.std::_Mem_fn", %"struct.std::_Mem_fn"* %6, i32 0, i32 0, !dbg !4880
  %17 = getelementptr inbounds %"class.std::_Mem_fn_base", %"class.std::_Mem_fn_base"* %16, i32 0, i32 0, !dbg !4880
  %18 = getelementptr inbounds { i64, i64 }, { i64, i64 }* %17, i32 0, i32 0, !dbg !4880
  %19 = extractvalue { i64, i64 } %15, 0, !dbg !4880
  store i64 %19, i64* %18, align 8, !dbg !4880
  %20 = getelementptr inbounds { i64, i64 }, { i64, i64 }* %17, i32 0, i32 1, !dbg !4880
  %21 = extractvalue { i64, i64 } %15, 1, !dbg !4880
  store i64 %21, i64* %20, align 8, !dbg !4880
  %22 = load %"class.prod_cons::Producer"**, %"class.prod_cons::Producer"*** %5, align 8, !dbg !4883
  %23 = call dereferenceable(8) %"class.prod_cons::Producer"** @_ZSt7forwardIPN9prod_cons8ProducerEEOT_RNSt16remove_referenceIS3_E4typeE(%"class.prod_cons::Producer"** dereferenceable(8) %22) #3, !dbg !4884
  call void @_ZNSt12_Bind_simpleIFSt7_Mem_fnIMN9prod_cons8ProducerEFvvEEPS2_EEC2IS5_JS6_EEEOT_DpOT0_(%"struct.std::_Bind_simple"* %0, %"struct.std::_Mem_fn"* dereferenceable(16) %6, %"class.prod_cons::Producer"** dereferenceable(8) %23), !dbg !4885
  ret void, !dbg !4886
}

; Function Attrs: nounwind uwtable
define linkonce_odr void @_ZNSt10unique_ptrINSt6thread6_StateESt14default_deleteIS1_EED2Ev(%"class.std::unique_ptr"*) unnamed_addr #4 comdat align 2 personality i8* bitcast (i32 (...)* @__gxx_personality_v0 to i8*) !dbg !4887 {
  %2 = alloca %"class.std::unique_ptr"*, align 8
  %3 = alloca %"struct.std::thread::_State"**, align 8
  store %"class.std::unique_ptr"* %0, %"class.std::unique_ptr"** %2, align 8
  call void @llvm.dbg.declare(metadata %"class.std::unique_ptr"** %2, metadata !4888, metadata !3741), !dbg !4890
  %4 = load %"class.std::unique_ptr"*, %"class.std::unique_ptr"** %2, align 8
  call void @llvm.dbg.declare(metadata %"struct.std::thread::_State"*** %3, metadata !4891, metadata !3741), !dbg !4893
  %5 = getelementptr inbounds %"class.std::unique_ptr", %"class.std::unique_ptr"* %4, i32 0, i32 0, !dbg !4894
  %6 = call dereferenceable(8) %"struct.std::thread::_State"** @_ZSt3getILm0EJPNSt6thread6_StateESt14default_deleteIS1_EEERNSt13tuple_elementIXT_ESt5tupleIJDpT0_EEE4typeERS9_(%"class.std::tuple"* dereferenceable(8) %5) #3, !dbg !4895
  store %"struct.std::thread::_State"** %6, %"struct.std::thread::_State"*** %3, align 8, !dbg !4893
  %7 = load %"struct.std::thread::_State"**, %"struct.std::thread::_State"*** %3, align 8, !dbg !4896
  %8 = load %"struct.std::thread::_State"*, %"struct.std::thread::_State"** %7, align 8, !dbg !4896
  %9 = icmp ne %"struct.std::thread::_State"* %8, null, !dbg !4898
  br i1 %9, label %10, label %15, !dbg !4899

; <label>:10:                                     ; preds = %1
  %11 = call dereferenceable(1) %"struct.std::default_delete"* @_ZNSt10unique_ptrINSt6thread6_StateESt14default_deleteIS1_EE11get_deleterEv(%"class.std::unique_ptr"* %4) #3, !dbg !4900
  %12 = load %"struct.std::thread::_State"**, %"struct.std::thread::_State"*** %3, align 8, !dbg !4901
  %13 = load %"struct.std::thread::_State"*, %"struct.std::thread::_State"** %12, align 8, !dbg !4901
  invoke void @_ZNKSt14default_deleteINSt6thread6_StateEEclEPS1_(%"struct.std::default_delete"* %11, %"struct.std::thread::_State"* %13)
          to label %14 unwind label %17, !dbg !4900

; <label>:14:                                     ; preds = %10
  br label %15, !dbg !4902

; <label>:15:                                     ; preds = %14, %1
  %16 = load %"struct.std::thread::_State"**, %"struct.std::thread::_State"*** %3, align 8, !dbg !4904
  store %"struct.std::thread::_State"* null, %"struct.std::thread::_State"** %16, align 8, !dbg !4905
  ret void, !dbg !4906

; <label>:17:                                     ; preds = %10
  %18 = landingpad { i8*, i32 }
          catch i8* null, !dbg !4907
  %19 = extractvalue { i8*, i32 } %18, 0, !dbg !4907
  call void @__clang_call_terminate(i8* %19) #17, !dbg !4907
  unreachable, !dbg !4907
}

; Function Attrs: nounwind uwtable
define linkonce_odr dereferenceable(24) %"struct.std::_Bind_simple"* @_ZSt7forwardISt12_Bind_simpleIFSt7_Mem_fnIMN9prod_cons8ProducerEFvvEEPS3_EEEOT_RNSt16remove_referenceISA_E4typeE(%"struct.std::_Bind_simple"* dereferenceable(24)) #4 comdat !dbg !4909 {
  %2 = alloca %"struct.std::_Bind_simple"*, align 8
  store %"struct.std::_Bind_simple"* %0, %"struct.std::_Bind_simple"** %2, align 8
  call void @llvm.dbg.declare(metadata %"struct.std::_Bind_simple"** %2, metadata !4917, metadata !3741), !dbg !4918
  %3 = load %"struct.std::_Bind_simple"*, %"struct.std::_Bind_simple"** %2, align 8, !dbg !4919
  ret %"struct.std::_Bind_simple"* %3, !dbg !4920
}

; Function Attrs: nounwind uwtable
define linkonce_odr void @_ZNSt6thread11_State_implISt12_Bind_simpleIFSt7_Mem_fnIMN9prod_cons8ProducerEFvvEEPS4_EEEC2EOSA_(%"struct.std::thread::_State_impl"*, %"struct.std::_Bind_simple"* dereferenceable(24)) unnamed_addr #4 comdat align 2 !dbg !4921 {
  %3 = alloca %"struct.std::thread::_State_impl"*, align 8
  %4 = alloca %"struct.std::_Bind_simple"*, align 8
  store %"struct.std::thread::_State_impl"* %0, %"struct.std::thread::_State_impl"** %3, align 8
  call void @llvm.dbg.declare(metadata %"struct.std::thread::_State_impl"** %3, metadata !4933, metadata !3741), !dbg !4935
  store %"struct.std::_Bind_simple"* %1, %"struct.std::_Bind_simple"** %4, align 8
  call void @llvm.dbg.declare(metadata %"struct.std::_Bind_simple"** %4, metadata !4936, metadata !3741), !dbg !4937
  %5 = load %"struct.std::thread::_State_impl"*, %"struct.std::thread::_State_impl"** %3, align 8
  %6 = bitcast %"struct.std::thread::_State_impl"* %5 to %"struct.std::thread::_State"*, !dbg !4938
  call void @_ZNSt6thread6_StateC2Ev(%"struct.std::thread::_State"* %6) #3, !dbg !4939
  %7 = bitcast %"struct.std::thread::_State_impl"* %5 to i32 (...)***, !dbg !4938
  store i32 (...)** bitcast (i8** getelementptr inbounds ([5 x i8*], [5 x i8*]* @_ZTVNSt6thread11_State_implISt12_Bind_simpleIFSt7_Mem_fnIMN9prod_cons8ProducerEFvvEEPS4_EEEE, i32 0, i32 2) to i32 (...)**), i32 (...)*** %7, align 8, !dbg !4938
  %8 = getelementptr inbounds %"struct.std::thread::_State_impl", %"struct.std::thread::_State_impl"* %5, i32 0, i32 1, !dbg !4940
  %9 = load %"struct.std::_Bind_simple"*, %"struct.std::_Bind_simple"** %4, align 8, !dbg !4941
  %10 = call dereferenceable(24) %"struct.std::_Bind_simple"* @_ZSt7forwardISt12_Bind_simpleIFSt7_Mem_fnIMN9prod_cons8ProducerEFvvEEPS3_EEEOT_RNSt16remove_referenceISA_E4typeE(%"struct.std::_Bind_simple"* dereferenceable(24) %9) #3, !dbg !4942
  call void @_ZNSt12_Bind_simpleIFSt7_Mem_fnIMN9prod_cons8ProducerEFvvEEPS2_EEC2EOS8_(%"struct.std::_Bind_simple"* %8, %"struct.std::_Bind_simple"* dereferenceable(24) %10) #3, !dbg !4944
  ret void, !dbg !4946
}

; Function Attrs: nounwind uwtable
define linkonce_odr void @_ZNSt10unique_ptrINSt6thread6_StateESt14default_deleteIS1_EEC2EPS1_(%"class.std::unique_ptr"*, %"struct.std::thread::_State"*) unnamed_addr #4 comdat align 2 personality i8* bitcast (i32 (...)* @__gxx_personality_v0 to i8*) !dbg !4947 {
  %3 = alloca %"class.std::unique_ptr"*, align 8
  %4 = alloca %"struct.std::thread::_State"*, align 8
  %5 = alloca %"struct.std::default_delete", align 1
  store %"class.std::unique_ptr"* %0, %"class.std::unique_ptr"** %3, align 8
  call void @llvm.dbg.declare(metadata %"class.std::unique_ptr"** %3, metadata !4948, metadata !3741), !dbg !4949
  store %"struct.std::thread::_State"* %1, %"struct.std::thread::_State"** %4, align 8
  call void @llvm.dbg.declare(metadata %"struct.std::thread::_State"** %4, metadata !4950, metadata !3741), !dbg !4951
  %6 = load %"class.std::unique_ptr"*, %"class.std::unique_ptr"** %3, align 8
  %7 = getelementptr inbounds %"class.std::unique_ptr", %"class.std::unique_ptr"* %6, i32 0, i32 0, !dbg !4952
  invoke void @_ZNSt5tupleIJPNSt6thread6_StateESt14default_deleteIS1_EEEC2IRS2_S4_Lb1EEEOT_OT0_(%"class.std::tuple"* %7, %"struct.std::thread::_State"** dereferenceable(8) %4, %"struct.std::default_delete"* dereferenceable(1) %5)
          to label %8 unwind label %9, !dbg !4952

; <label>:8:                                      ; preds = %2
  ret void, !dbg !4953

; <label>:9:                                      ; preds = %2
  %10 = landingpad { i8*, i32 }
          catch i8* null, !dbg !4954
  %11 = extractvalue { i8*, i32 } %10, 0, !dbg !4954
  call void @__clang_call_terminate(i8* %11) #17, !dbg !4954
  unreachable, !dbg !4954
}

; Function Attrs: inlinehint nounwind uwtable
define linkonce_odr void @_ZNSt6thread6_StateC2Ev(%"struct.std::thread::_State"*) unnamed_addr #9 comdat align 2 !dbg !4956 {
  %2 = alloca %"struct.std::thread::_State"*, align 8
  store %"struct.std::thread::_State"* %0, %"struct.std::thread::_State"** %2, align 8
  call void @llvm.dbg.declare(metadata %"struct.std::thread::_State"** %2, metadata !4961, metadata !3741), !dbg !4962
  %3 = load %"struct.std::thread::_State"*, %"struct.std::thread::_State"** %2, align 8
  %4 = bitcast %"struct.std::thread::_State"* %3 to i32 (...)***, !dbg !4963
  store i32 (...)** bitcast (i8** getelementptr inbounds ([5 x i8*], [5 x i8*]* @_ZTVNSt6thread6_StateE, i32 0, i32 2) to i32 (...)**), i32 (...)*** %4, align 8, !dbg !4963
  ret void, !dbg !4963
}

; Function Attrs: nounwind uwtable
define linkonce_odr void @_ZNSt12_Bind_simpleIFSt7_Mem_fnIMN9prod_cons8ProducerEFvvEEPS2_EEC2EOS8_(%"struct.std::_Bind_simple"*, %"struct.std::_Bind_simple"* dereferenceable(24)) unnamed_addr #4 comdat align 2 !dbg !4964 {
  %3 = alloca %"struct.std::_Bind_simple"*, align 8
  %4 = alloca %"struct.std::_Bind_simple"*, align 8
  store %"struct.std::_Bind_simple"* %0, %"struct.std::_Bind_simple"** %3, align 8
  call void @llvm.dbg.declare(metadata %"struct.std::_Bind_simple"** %3, metadata !4965, metadata !3741), !dbg !4967
  store %"struct.std::_Bind_simple"* %1, %"struct.std::_Bind_simple"** %4, align 8
  call void @llvm.dbg.declare(metadata %"struct.std::_Bind_simple"** %4, metadata !4968, metadata !3741), !dbg !4969
  %5 = load %"struct.std::_Bind_simple"*, %"struct.std::_Bind_simple"** %3, align 8
  %6 = getelementptr inbounds %"struct.std::_Bind_simple", %"struct.std::_Bind_simple"* %5, i32 0, i32 0, !dbg !4970
  %7 = load %"struct.std::_Bind_simple"*, %"struct.std::_Bind_simple"** %4, align 8, !dbg !4970
  %8 = getelementptr inbounds %"struct.std::_Bind_simple", %"struct.std::_Bind_simple"* %7, i32 0, i32 0, !dbg !4970
  call void @_ZNSt5tupleIJSt7_Mem_fnIMN9prod_cons8ProducerEFvvEEPS2_EEC2EOS7_(%"class.std::tuple.9"* %6, %"class.std::tuple.9"* dereferenceable(24) %8) #3, !dbg !4970
  ret void, !dbg !4970
}

; Function Attrs: inlinehint nounwind uwtable
define linkonce_odr void @_ZNSt6thread11_State_implISt12_Bind_simpleIFSt7_Mem_fnIMN9prod_cons8ProducerEFvvEEPS4_EEED2Ev(%"struct.std::thread::_State_impl"*) unnamed_addr #9 comdat align 2 !dbg !4971 {
  %2 = alloca %"struct.std::thread::_State_impl"*, align 8
  store %"struct.std::thread::_State_impl"* %0, %"struct.std::thread::_State_impl"** %2, align 8
  call void @llvm.dbg.declare(metadata %"struct.std::thread::_State_impl"** %2, metadata !4973, metadata !3741), !dbg !4974
  %3 = load %"struct.std::thread::_State_impl"*, %"struct.std::thread::_State_impl"** %2, align 8
  %4 = bitcast %"struct.std::thread::_State_impl"* %3 to %"struct.std::thread::_State"*, !dbg !4975
  call void @_ZNSt6thread6_StateD2Ev(%"struct.std::thread::_State"* %4) #3, !dbg !4975
  ret void, !dbg !4977
}

; Function Attrs: inlinehint nounwind uwtable
define linkonce_odr void @_ZNSt6thread11_State_implISt12_Bind_simpleIFSt7_Mem_fnIMN9prod_cons8ProducerEFvvEEPS4_EEED0Ev(%"struct.std::thread::_State_impl"*) unnamed_addr #9 comdat align 2 !dbg !4978 {
  %2 = alloca %"struct.std::thread::_State_impl"*, align 8
  store %"struct.std::thread::_State_impl"* %0, %"struct.std::thread::_State_impl"** %2, align 8
  call void @llvm.dbg.declare(metadata %"struct.std::thread::_State_impl"** %2, metadata !4979, metadata !3741), !dbg !4980
  %3 = load %"struct.std::thread::_State_impl"*, %"struct.std::thread::_State_impl"** %2, align 8
  call void @_ZNSt6thread11_State_implISt12_Bind_simpleIFSt7_Mem_fnIMN9prod_cons8ProducerEFvvEEPS4_EEED2Ev(%"struct.std::thread::_State_impl"* %3) #3, !dbg !4981
  %4 = bitcast %"struct.std::thread::_State_impl"* %3 to i8*, !dbg !4981
  call void @_ZdlPv(i8* %4) #16, !dbg !4982
  ret void, !dbg !4981
}

; Function Attrs: uwtable
define linkonce_odr void @_ZNSt6thread11_State_implISt12_Bind_simpleIFSt7_Mem_fnIMN9prod_cons8ProducerEFvvEEPS4_EEE6_M_runEv(%"struct.std::thread::_State_impl"*) unnamed_addr #0 comdat align 2 !dbg !4984 {
  %2 = alloca %"struct.std::thread::_State_impl"*, align 8
  store %"struct.std::thread::_State_impl"* %0, %"struct.std::thread::_State_impl"** %2, align 8
  call void @llvm.dbg.declare(metadata %"struct.std::thread::_State_impl"** %2, metadata !4985, metadata !3741), !dbg !4986
  %3 = load %"struct.std::thread::_State_impl"*, %"struct.std::thread::_State_impl"** %2, align 8
  %4 = getelementptr inbounds %"struct.std::thread::_State_impl", %"struct.std::thread::_State_impl"* %3, i32 0, i32 1, !dbg !4987
  call void @_ZNSt12_Bind_simpleIFSt7_Mem_fnIMN9prod_cons8ProducerEFvvEEPS2_EEclEv(%"struct.std::_Bind_simple"* %4), !dbg !4987
  ret void, !dbg !4988
}

; Function Attrs: nounwind uwtable
define linkonce_odr void @_ZNSt5tupleIJSt7_Mem_fnIMN9prod_cons8ProducerEFvvEEPS2_EEC2EOS7_(%"class.std::tuple.9"*, %"class.std::tuple.9"* dereferenceable(24)) unnamed_addr #4 comdat align 2 !dbg !4989 {
  %3 = alloca %"class.std::tuple.9"*, align 8
  %4 = alloca %"class.std::tuple.9"*, align 8
  store %"class.std::tuple.9"* %0, %"class.std::tuple.9"** %3, align 8
  call void @llvm.dbg.declare(metadata %"class.std::tuple.9"** %3, metadata !4990, metadata !3741), !dbg !4992
  store %"class.std::tuple.9"* %1, %"class.std::tuple.9"** %4, align 8
  call void @llvm.dbg.declare(metadata %"class.std::tuple.9"** %4, metadata !4993, metadata !3741), !dbg !4994
  %5 = load %"class.std::tuple.9"*, %"class.std::tuple.9"** %3, align 8
  %6 = bitcast %"class.std::tuple.9"* %5 to %"struct.std::_Tuple_impl.10"*, !dbg !4995
  %7 = load %"class.std::tuple.9"*, %"class.std::tuple.9"** %4, align 8, !dbg !4995
  %8 = bitcast %"class.std::tuple.9"* %7 to %"struct.std::_Tuple_impl.10"*, !dbg !4995
  call void @_ZNSt11_Tuple_implILm0EJSt7_Mem_fnIMN9prod_cons8ProducerEFvvEEPS2_EEC2EOS7_(%"struct.std::_Tuple_impl.10"* %6, %"struct.std::_Tuple_impl.10"* dereferenceable(24) %8) #3, !dbg !4995
  ret void, !dbg !4995
}

; Function Attrs: nounwind uwtable
define linkonce_odr void @_ZNSt11_Tuple_implILm0EJSt7_Mem_fnIMN9prod_cons8ProducerEFvvEEPS2_EEC2EOS7_(%"struct.std::_Tuple_impl.10"*, %"struct.std::_Tuple_impl.10"* dereferenceable(24)) unnamed_addr #4 comdat align 2 personality i8* bitcast (i32 (...)* @__gxx_personality_v0 to i8*) !dbg !4996 {
  %3 = alloca %"struct.std::_Tuple_impl.10"*, align 8
  %4 = alloca %"struct.std::_Tuple_impl.10"*, align 8
  store %"struct.std::_Tuple_impl.10"* %0, %"struct.std::_Tuple_impl.10"** %3, align 8
  call void @llvm.dbg.declare(metadata %"struct.std::_Tuple_impl.10"** %3, metadata !4997, metadata !3741), !dbg !4999
  store %"struct.std::_Tuple_impl.10"* %1, %"struct.std::_Tuple_impl.10"** %4, align 8
  call void @llvm.dbg.declare(metadata %"struct.std::_Tuple_impl.10"** %4, metadata !5000, metadata !3741), !dbg !5001
  %5 = load %"struct.std::_Tuple_impl.10"*, %"struct.std::_Tuple_impl.10"** %3, align 8
  %6 = bitcast %"struct.std::_Tuple_impl.10"* %5 to %"struct.std::_Tuple_impl.11"*, !dbg !5002
  %7 = load %"struct.std::_Tuple_impl.10"*, %"struct.std::_Tuple_impl.10"** %4, align 8, !dbg !5003
  %8 = call dereferenceable(8) %"struct.std::_Tuple_impl.11"* @_ZNSt11_Tuple_implILm0EJSt7_Mem_fnIMN9prod_cons8ProducerEFvvEEPS2_EE7_M_tailERS7_(%"struct.std::_Tuple_impl.10"* dereferenceable(24) %7) #3, !dbg !5004
  %9 = call dereferenceable(8) %"struct.std::_Tuple_impl.11"* @_ZSt4moveIRSt11_Tuple_implILm1EJPN9prod_cons8ProducerEEEEONSt16remove_referenceIT_E4typeEOS7_(%"struct.std::_Tuple_impl.11"* dereferenceable(8) %8) #3, !dbg !5005
  call void @_ZNSt11_Tuple_implILm1EJPN9prod_cons8ProducerEEEC2EOS3_(%"struct.std::_Tuple_impl.11"* %6, %"struct.std::_Tuple_impl.11"* dereferenceable(8) %9) #3, !dbg !5007
  %10 = bitcast %"struct.std::_Tuple_impl.10"* %5 to i8*, !dbg !5002
  %11 = getelementptr inbounds i8, i8* %10, i64 8, !dbg !5002
  %12 = bitcast i8* %11 to %"struct.std::_Head_base.13"*, !dbg !5002
  %13 = load %"struct.std::_Tuple_impl.10"*, %"struct.std::_Tuple_impl.10"** %4, align 8, !dbg !5009
  %14 = call dereferenceable(16) %"struct.std::_Mem_fn"* @_ZNSt11_Tuple_implILm0EJSt7_Mem_fnIMN9prod_cons8ProducerEFvvEEPS2_EE7_M_headERS7_(%"struct.std::_Tuple_impl.10"* dereferenceable(24) %13) #3, !dbg !5010
  %15 = call dereferenceable(16) %"struct.std::_Mem_fn"* @_ZSt7forwardISt7_Mem_fnIMN9prod_cons8ProducerEFvvEEEOT_RNSt16remove_referenceIS6_E4typeE(%"struct.std::_Mem_fn"* dereferenceable(16) %14) #3, !dbg !5011
  invoke void @_ZNSt10_Head_baseILm0ESt7_Mem_fnIMN9prod_cons8ProducerEFvvEELb0EEC2IS5_EEOT_(%"struct.std::_Head_base.13"* %12, %"struct.std::_Mem_fn"* dereferenceable(16) %15)
          to label %16 unwind label %17, !dbg !5013

; <label>:16:                                     ; preds = %2
  ret void, !dbg !5014

; <label>:17:                                     ; preds = %2
  %18 = landingpad { i8*, i32 }
          catch i8* null, !dbg !5015
  %19 = extractvalue { i8*, i32 } %18, 0, !dbg !5015
  call void @__clang_call_terminate(i8* %19) #17, !dbg !5015
  unreachable, !dbg !5015
}

; Function Attrs: nounwind uwtable
define linkonce_odr dereferenceable(8) %"struct.std::_Tuple_impl.11"* @_ZSt4moveIRSt11_Tuple_implILm1EJPN9prod_cons8ProducerEEEEONSt16remove_referenceIT_E4typeEOS7_(%"struct.std::_Tuple_impl.11"* dereferenceable(8)) #4 comdat !dbg !5016 {
  %2 = alloca %"struct.std::_Tuple_impl.11"*, align 8
  store %"struct.std::_Tuple_impl.11"* %0, %"struct.std::_Tuple_impl.11"** %2, align 8
  call void @llvm.dbg.declare(metadata %"struct.std::_Tuple_impl.11"** %2, metadata !5024, metadata !3741), !dbg !5025
  %3 = load %"struct.std::_Tuple_impl.11"*, %"struct.std::_Tuple_impl.11"** %2, align 8, !dbg !5026
  ret %"struct.std::_Tuple_impl.11"* %3, !dbg !5027
}

; Function Attrs: nounwind uwtable
define linkonce_odr dereferenceable(8) %"struct.std::_Tuple_impl.11"* @_ZNSt11_Tuple_implILm0EJSt7_Mem_fnIMN9prod_cons8ProducerEFvvEEPS2_EE7_M_tailERS7_(%"struct.std::_Tuple_impl.10"* dereferenceable(24)) #4 comdat align 2 !dbg !5028 {
  %2 = alloca %"struct.std::_Tuple_impl.10"*, align 8
  store %"struct.std::_Tuple_impl.10"* %0, %"struct.std::_Tuple_impl.10"** %2, align 8
  call void @llvm.dbg.declare(metadata %"struct.std::_Tuple_impl.10"** %2, metadata !5029, metadata !3741), !dbg !5030
  %3 = load %"struct.std::_Tuple_impl.10"*, %"struct.std::_Tuple_impl.10"** %2, align 8, !dbg !5031
  %4 = bitcast %"struct.std::_Tuple_impl.10"* %3 to %"struct.std::_Tuple_impl.11"*, !dbg !5031
  ret %"struct.std::_Tuple_impl.11"* %4, !dbg !5032
}

; Function Attrs: nounwind uwtable
define linkonce_odr void @_ZNSt11_Tuple_implILm1EJPN9prod_cons8ProducerEEEC2EOS3_(%"struct.std::_Tuple_impl.11"*, %"struct.std::_Tuple_impl.11"* dereferenceable(8)) unnamed_addr #4 comdat align 2 personality i8* bitcast (i32 (...)* @__gxx_personality_v0 to i8*) !dbg !5033 {
  %3 = alloca %"struct.std::_Tuple_impl.11"*, align 8
  %4 = alloca %"struct.std::_Tuple_impl.11"*, align 8
  store %"struct.std::_Tuple_impl.11"* %0, %"struct.std::_Tuple_impl.11"** %3, align 8
  call void @llvm.dbg.declare(metadata %"struct.std::_Tuple_impl.11"** %3, metadata !5034, metadata !3741), !dbg !5036
  store %"struct.std::_Tuple_impl.11"* %1, %"struct.std::_Tuple_impl.11"** %4, align 8
  call void @llvm.dbg.declare(metadata %"struct.std::_Tuple_impl.11"** %4, metadata !5037, metadata !3741), !dbg !5038
  %5 = load %"struct.std::_Tuple_impl.11"*, %"struct.std::_Tuple_impl.11"** %3, align 8
  %6 = bitcast %"struct.std::_Tuple_impl.11"* %5 to %"struct.std::_Head_base.12"*, !dbg !5039
  %7 = load %"struct.std::_Tuple_impl.11"*, %"struct.std::_Tuple_impl.11"** %4, align 8, !dbg !5040
  %8 = call dereferenceable(8) %"class.prod_cons::Producer"** @_ZNSt11_Tuple_implILm1EJPN9prod_cons8ProducerEEE7_M_headERS3_(%"struct.std::_Tuple_impl.11"* dereferenceable(8) %7) #3, !dbg !5041
  %9 = call dereferenceable(8) %"class.prod_cons::Producer"** @_ZSt7forwardIPN9prod_cons8ProducerEEOT_RNSt16remove_referenceIS3_E4typeE(%"class.prod_cons::Producer"** dereferenceable(8) %8) #3, !dbg !5042
  invoke void @_ZNSt10_Head_baseILm1EPN9prod_cons8ProducerELb0EEC2IS2_EEOT_(%"struct.std::_Head_base.12"* %6, %"class.prod_cons::Producer"** dereferenceable(8) %9)
          to label %10 unwind label %11, !dbg !5044

; <label>:10:                                     ; preds = %2
  ret void, !dbg !5045

; <label>:11:                                     ; preds = %2
  %12 = landingpad { i8*, i32 }
          catch i8* null, !dbg !5047
  %13 = extractvalue { i8*, i32 } %12, 0, !dbg !5047
  call void @__clang_call_terminate(i8* %13) #17, !dbg !5047
  unreachable, !dbg !5047
}

; Function Attrs: nounwind uwtable
define linkonce_odr dereferenceable(16) %"struct.std::_Mem_fn"* @_ZSt7forwardISt7_Mem_fnIMN9prod_cons8ProducerEFvvEEEOT_RNSt16remove_referenceIS6_E4typeE(%"struct.std::_Mem_fn"* dereferenceable(16)) #4 comdat !dbg !5049 {
  %2 = alloca %"struct.std::_Mem_fn"*, align 8
  store %"struct.std::_Mem_fn"* %0, %"struct.std::_Mem_fn"** %2, align 8
  call void @llvm.dbg.declare(metadata %"struct.std::_Mem_fn"** %2, metadata !5058, metadata !3741), !dbg !5059
  %3 = load %"struct.std::_Mem_fn"*, %"struct.std::_Mem_fn"** %2, align 8, !dbg !5060
  ret %"struct.std::_Mem_fn"* %3, !dbg !5061
}

; Function Attrs: nounwind uwtable
define linkonce_odr dereferenceable(16) %"struct.std::_Mem_fn"* @_ZNSt11_Tuple_implILm0EJSt7_Mem_fnIMN9prod_cons8ProducerEFvvEEPS2_EE7_M_headERS7_(%"struct.std::_Tuple_impl.10"* dereferenceable(24)) #4 comdat align 2 !dbg !5062 {
  %2 = alloca %"struct.std::_Tuple_impl.10"*, align 8
  store %"struct.std::_Tuple_impl.10"* %0, %"struct.std::_Tuple_impl.10"** %2, align 8
  call void @llvm.dbg.declare(metadata %"struct.std::_Tuple_impl.10"** %2, metadata !5063, metadata !3741), !dbg !5064
  %3 = load %"struct.std::_Tuple_impl.10"*, %"struct.std::_Tuple_impl.10"** %2, align 8, !dbg !5065
  %4 = bitcast %"struct.std::_Tuple_impl.10"* %3 to i8*, !dbg !5065
  %5 = getelementptr inbounds i8, i8* %4, i64 8, !dbg !5065
  %6 = bitcast i8* %5 to %"struct.std::_Head_base.13"*, !dbg !5065
  %7 = call dereferenceable(16) %"struct.std::_Mem_fn"* @_ZNSt10_Head_baseILm0ESt7_Mem_fnIMN9prod_cons8ProducerEFvvEELb0EE7_M_headERS6_(%"struct.std::_Head_base.13"* dereferenceable(16) %6) #3, !dbg !5066
  ret %"struct.std::_Mem_fn"* %7, !dbg !5067
}

; Function Attrs: nounwind uwtable
define linkonce_odr void @_ZNSt10_Head_baseILm0ESt7_Mem_fnIMN9prod_cons8ProducerEFvvEELb0EEC2IS5_EEOT_(%"struct.std::_Head_base.13"*, %"struct.std::_Mem_fn"* dereferenceable(16)) unnamed_addr #4 comdat align 2 !dbg !5068 {
  %3 = alloca %"struct.std::_Head_base.13"*, align 8
  %4 = alloca %"struct.std::_Mem_fn"*, align 8
  store %"struct.std::_Head_base.13"* %0, %"struct.std::_Head_base.13"** %3, align 8
  call void @llvm.dbg.declare(metadata %"struct.std::_Head_base.13"** %3, metadata !5074, metadata !3741), !dbg !5076
  store %"struct.std::_Mem_fn"* %1, %"struct.std::_Mem_fn"** %4, align 8
  call void @llvm.dbg.declare(metadata %"struct.std::_Mem_fn"** %4, metadata !5077, metadata !3741), !dbg !5078
  %5 = load %"struct.std::_Head_base.13"*, %"struct.std::_Head_base.13"** %3, align 8
  %6 = getelementptr inbounds %"struct.std::_Head_base.13", %"struct.std::_Head_base.13"* %5, i32 0, i32 0, !dbg !5079
  %7 = load %"struct.std::_Mem_fn"*, %"struct.std::_Mem_fn"** %4, align 8, !dbg !5080
  %8 = call dereferenceable(16) %"struct.std::_Mem_fn"* @_ZSt7forwardISt7_Mem_fnIMN9prod_cons8ProducerEFvvEEEOT_RNSt16remove_referenceIS6_E4typeE(%"struct.std::_Mem_fn"* dereferenceable(16) %7) #3, !dbg !5081
  %9 = bitcast %"struct.std::_Mem_fn"* %6 to i8*, !dbg !5079
  %10 = bitcast %"struct.std::_Mem_fn"* %8 to i8*, !dbg !5079
  call void @llvm.memcpy.p0i8.p0i8.i64(i8* %9, i8* %10, i64 16, i32 8, i1 false), !dbg !5082
  ret void, !dbg !5084
}

; Function Attrs: noinline noreturn nounwind
define linkonce_odr hidden void @__clang_call_terminate(i8*) #12 comdat {
  %2 = call i8* @__cxa_begin_catch(i8* %0) #3
  call void @_ZSt9terminatev() #17
  unreachable
}

declare i8* @__cxa_begin_catch(i8*)

; Function Attrs: nounwind uwtable
define linkonce_odr dereferenceable(8) %"class.prod_cons::Producer"** @_ZNSt11_Tuple_implILm1EJPN9prod_cons8ProducerEEE7_M_headERS3_(%"struct.std::_Tuple_impl.11"* dereferenceable(8)) #4 comdat align 2 !dbg !5085 {
  %2 = alloca %"struct.std::_Tuple_impl.11"*, align 8
  store %"struct.std::_Tuple_impl.11"* %0, %"struct.std::_Tuple_impl.11"** %2, align 8
  call void @llvm.dbg.declare(metadata %"struct.std::_Tuple_impl.11"** %2, metadata !5086, metadata !3741), !dbg !5087
  %3 = load %"struct.std::_Tuple_impl.11"*, %"struct.std::_Tuple_impl.11"** %2, align 8, !dbg !5088
  %4 = bitcast %"struct.std::_Tuple_impl.11"* %3 to %"struct.std::_Head_base.12"*, !dbg !5088
  %5 = call dereferenceable(8) %"class.prod_cons::Producer"** @_ZNSt10_Head_baseILm1EPN9prod_cons8ProducerELb0EE7_M_headERS3_(%"struct.std::_Head_base.12"* dereferenceable(8) %4) #3, !dbg !5089
  ret %"class.prod_cons::Producer"** %5, !dbg !5090
}

; Function Attrs: nounwind uwtable
define linkonce_odr void @_ZNSt10_Head_baseILm1EPN9prod_cons8ProducerELb0EEC2IS2_EEOT_(%"struct.std::_Head_base.12"*, %"class.prod_cons::Producer"** dereferenceable(8)) unnamed_addr #4 comdat align 2 !dbg !5091 {
  %3 = alloca %"struct.std::_Head_base.12"*, align 8
  %4 = alloca %"class.prod_cons::Producer"**, align 8
  store %"struct.std::_Head_base.12"* %0, %"struct.std::_Head_base.12"** %3, align 8
  call void @llvm.dbg.declare(metadata %"struct.std::_Head_base.12"** %3, metadata !5097, metadata !3741), !dbg !5099
  store %"class.prod_cons::Producer"** %1, %"class.prod_cons::Producer"*** %4, align 8
  call void @llvm.dbg.declare(metadata %"class.prod_cons::Producer"*** %4, metadata !5100, metadata !3741), !dbg !5101
  %5 = load %"struct.std::_Head_base.12"*, %"struct.std::_Head_base.12"** %3, align 8
  %6 = getelementptr inbounds %"struct.std::_Head_base.12", %"struct.std::_Head_base.12"* %5, i32 0, i32 0, !dbg !5102
  %7 = load %"class.prod_cons::Producer"**, %"class.prod_cons::Producer"*** %4, align 8, !dbg !5103
  %8 = call dereferenceable(8) %"class.prod_cons::Producer"** @_ZSt7forwardIPN9prod_cons8ProducerEEOT_RNSt16remove_referenceIS3_E4typeE(%"class.prod_cons::Producer"** dereferenceable(8) %7) #3, !dbg !5104
  %9 = load %"class.prod_cons::Producer"*, %"class.prod_cons::Producer"** %8, align 8, !dbg !5104
  store %"class.prod_cons::Producer"* %9, %"class.prod_cons::Producer"** %6, align 8, !dbg !5102
  ret void, !dbg !5105
}

; Function Attrs: nounwind uwtable
define linkonce_odr dereferenceable(8) %"class.prod_cons::Producer"** @_ZNSt10_Head_baseILm1EPN9prod_cons8ProducerELb0EE7_M_headERS3_(%"struct.std::_Head_base.12"* dereferenceable(8)) #4 comdat align 2 !dbg !5106 {
  %2 = alloca %"struct.std::_Head_base.12"*, align 8
  store %"struct.std::_Head_base.12"* %0, %"struct.std::_Head_base.12"** %2, align 8
  call void @llvm.dbg.declare(metadata %"struct.std::_Head_base.12"** %2, metadata !5107, metadata !3741), !dbg !5108
  %3 = load %"struct.std::_Head_base.12"*, %"struct.std::_Head_base.12"** %2, align 8, !dbg !5109
  %4 = getelementptr inbounds %"struct.std::_Head_base.12", %"struct.std::_Head_base.12"* %3, i32 0, i32 0, !dbg !5110
  ret %"class.prod_cons::Producer"** %4, !dbg !5111
}

; Function Attrs: nounwind uwtable
define linkonce_odr dereferenceable(16) %"struct.std::_Mem_fn"* @_ZNSt10_Head_baseILm0ESt7_Mem_fnIMN9prod_cons8ProducerEFvvEELb0EE7_M_headERS6_(%"struct.std::_Head_base.13"* dereferenceable(16)) #4 comdat align 2 !dbg !5112 {
  %2 = alloca %"struct.std::_Head_base.13"*, align 8
  store %"struct.std::_Head_base.13"* %0, %"struct.std::_Head_base.13"** %2, align 8
  call void @llvm.dbg.declare(metadata %"struct.std::_Head_base.13"** %2, metadata !5113, metadata !3741), !dbg !5114
  %3 = load %"struct.std::_Head_base.13"*, %"struct.std::_Head_base.13"** %2, align 8, !dbg !5115
  %4 = getelementptr inbounds %"struct.std::_Head_base.13", %"struct.std::_Head_base.13"* %3, i32 0, i32 0, !dbg !5116
  ret %"struct.std::_Mem_fn"* %4, !dbg !5117
}

; Function Attrs: nounwind
declare void @_ZNSt6thread6_StateD2Ev(%"struct.std::thread::_State"*) unnamed_addr #2

; Function Attrs: uwtable
define linkonce_odr void @_ZNSt12_Bind_simpleIFSt7_Mem_fnIMN9prod_cons8ProducerEFvvEEPS2_EEclEv(%"struct.std::_Bind_simple"*) #0 comdat align 2 !dbg !5118 {
  %2 = alloca %"struct.std::_Bind_simple"*, align 8
  %3 = alloca %"struct.std::_Index_tuple", align 1
  store %"struct.std::_Bind_simple"* %0, %"struct.std::_Bind_simple"** %2, align 8
  call void @llvm.dbg.declare(metadata %"struct.std::_Bind_simple"** %2, metadata !5119, metadata !3741), !dbg !5120
  %4 = load %"struct.std::_Bind_simple"*, %"struct.std::_Bind_simple"** %2, align 8
  call void @_ZNSt12_Bind_simpleIFSt7_Mem_fnIMN9prod_cons8ProducerEFvvEEPS2_EE9_M_invokeIJLm0EEEEvSt12_Index_tupleIJXspT_EEE(%"struct.std::_Bind_simple"* %4), !dbg !5121
  ret void, !dbg !5122
}

; Function Attrs: uwtable
define linkonce_odr void @_ZNSt12_Bind_simpleIFSt7_Mem_fnIMN9prod_cons8ProducerEFvvEEPS2_EE9_M_invokeIJLm0EEEEvSt12_Index_tupleIJXspT_EEE(%"struct.std::_Bind_simple"*) #0 comdat align 2 !dbg !5123 {
  %2 = alloca %"struct.std::_Index_tuple", align 1
  %3 = alloca %"struct.std::_Bind_simple"*, align 8
  store %"struct.std::_Bind_simple"* %0, %"struct.std::_Bind_simple"** %3, align 8
  call void @llvm.dbg.declare(metadata %"struct.std::_Bind_simple"** %3, metadata !5135, metadata !3741), !dbg !5136
  call void @llvm.dbg.declare(metadata %"struct.std::_Index_tuple"* %2, metadata !5137, metadata !3741), !dbg !5138
  %4 = load %"struct.std::_Bind_simple"*, %"struct.std::_Bind_simple"** %3, align 8
  %5 = getelementptr inbounds %"struct.std::_Bind_simple", %"struct.std::_Bind_simple"* %4, i32 0, i32 0, !dbg !5139
  %6 = call dereferenceable(16) %"struct.std::_Mem_fn"* @_ZSt3getILm0EJSt7_Mem_fnIMN9prod_cons8ProducerEFvvEEPS2_EERNSt13tuple_elementIXT_ESt5tupleIJDpT0_EEE4typeERSB_(%"class.std::tuple.9"* dereferenceable(24) %5) #3, !dbg !5140
  %7 = call dereferenceable(16) %"struct.std::_Mem_fn"* @_ZSt7forwardISt7_Mem_fnIMN9prod_cons8ProducerEFvvEEEOT_RNSt16remove_referenceIS6_E4typeE(%"struct.std::_Mem_fn"* dereferenceable(16) %6) #3, !dbg !5141
  %8 = bitcast %"struct.std::_Mem_fn"* %7 to %"class.std::_Mem_fn_base"*, !dbg !5143
  %9 = getelementptr inbounds %"struct.std::_Bind_simple", %"struct.std::_Bind_simple"* %4, i32 0, i32 0, !dbg !5144
  %10 = call dereferenceable(8) %"class.prod_cons::Producer"** @_ZSt3getILm1EJSt7_Mem_fnIMN9prod_cons8ProducerEFvvEEPS2_EERNSt13tuple_elementIXT_ESt5tupleIJDpT0_EEE4typeERSB_(%"class.std::tuple.9"* dereferenceable(24) %9) #3, !dbg !5145
  %11 = call dereferenceable(8) %"class.prod_cons::Producer"** @_ZSt7forwardIPN9prod_cons8ProducerEEOT_RNSt16remove_referenceIS3_E4typeE(%"class.prod_cons::Producer"** dereferenceable(8) %10) #3, !dbg !5146
  call void @_ZNKSt12_Mem_fn_baseIMN9prod_cons8ProducerEFvvELb1EEclIJPS1_EEEDTclsr3stdE8__invokedtdefpT6_M_pmfspclsr3stdE7forwardIT_Efp_EEEDpOS7_(%"class.std::_Mem_fn_base"* %8, %"class.prod_cons::Producer"** dereferenceable(8) %11), !dbg !5147
  ret void, !dbg !5149
}

; Function Attrs: nounwind uwtable
define linkonce_odr dereferenceable(16) %"struct.std::_Mem_fn"* @_ZSt3getILm0EJSt7_Mem_fnIMN9prod_cons8ProducerEFvvEEPS2_EERNSt13tuple_elementIXT_ESt5tupleIJDpT0_EEE4typeERSB_(%"class.std::tuple.9"* dereferenceable(24)) #4 comdat !dbg !5150 {
  %2 = alloca %"class.std::tuple.9"*, align 8
  store %"class.std::tuple.9"* %0, %"class.std::tuple.9"** %2, align 8
  call void @llvm.dbg.declare(metadata %"class.std::tuple.9"** %2, metadata !5162, metadata !3741), !dbg !5163
  %3 = load %"class.std::tuple.9"*, %"class.std::tuple.9"** %2, align 8, !dbg !5164
  %4 = bitcast %"class.std::tuple.9"* %3 to %"struct.std::_Tuple_impl.10"*, !dbg !5164
  %5 = call dereferenceable(16) %"struct.std::_Mem_fn"* @_ZSt12__get_helperILm0ESt7_Mem_fnIMN9prod_cons8ProducerEFvvEEJPS2_EERT0_RSt11_Tuple_implIXT_EJS7_DpT1_EE(%"struct.std::_Tuple_impl.10"* dereferenceable(24) %4) #3, !dbg !5165
  ret %"struct.std::_Mem_fn"* %5, !dbg !5166
}

; Function Attrs: uwtable
define linkonce_odr void @_ZNKSt12_Mem_fn_baseIMN9prod_cons8ProducerEFvvELb1EEclIJPS1_EEEDTclsr3stdE8__invokedtdefpT6_M_pmfspclsr3stdE7forwardIT_Efp_EEEDpOS7_(%"class.std::_Mem_fn_base"*, %"class.prod_cons::Producer"** dereferenceable(8)) #0 comdat align 2 !dbg !5167 {
  %3 = alloca %"class.std::_Mem_fn_base"*, align 8
  %4 = alloca %"class.prod_cons::Producer"**, align 8
  store %"class.std::_Mem_fn_base"* %0, %"class.std::_Mem_fn_base"** %3, align 8
  call void @llvm.dbg.declare(metadata %"class.std::_Mem_fn_base"** %3, metadata !5173, metadata !3741), !dbg !5175
  store %"class.prod_cons::Producer"** %1, %"class.prod_cons::Producer"*** %4, align 8
  call void @llvm.dbg.declare(metadata %"class.prod_cons::Producer"*** %4, metadata !5176, metadata !3741), !dbg !5177
  %5 = load %"class.std::_Mem_fn_base"*, %"class.std::_Mem_fn_base"** %3, align 8
  %6 = getelementptr inbounds %"class.std::_Mem_fn_base", %"class.std::_Mem_fn_base"* %5, i32 0, i32 0, !dbg !5178
  %7 = load %"class.prod_cons::Producer"**, %"class.prod_cons::Producer"*** %4, align 8, !dbg !5179
  %8 = call dereferenceable(8) %"class.prod_cons::Producer"** @_ZSt7forwardIPN9prod_cons8ProducerEEOT_RNSt16remove_referenceIS3_E4typeE(%"class.prod_cons::Producer"** dereferenceable(8) %7) #3, !dbg !5180
  call void @_ZSt8__invokeIRKMN9prod_cons8ProducerEFvvEJPS1_EENSt9result_ofIFOT_DpOT0_EE4typeES9_SC_({ i64, i64 }* dereferenceable(16) %6, %"class.prod_cons::Producer"** dereferenceable(8) %8), !dbg !5181
  ret void, !dbg !5183
}

; Function Attrs: nounwind uwtable
define linkonce_odr dereferenceable(8) %"class.prod_cons::Producer"** @_ZSt3getILm1EJSt7_Mem_fnIMN9prod_cons8ProducerEFvvEEPS2_EERNSt13tuple_elementIXT_ESt5tupleIJDpT0_EEE4typeERSB_(%"class.std::tuple.9"* dereferenceable(24)) #4 comdat !dbg !5184 {
  %2 = alloca %"class.std::tuple.9"*, align 8
  store %"class.std::tuple.9"* %0, %"class.std::tuple.9"** %2, align 8
  call void @llvm.dbg.declare(metadata %"class.std::tuple.9"** %2, metadata !5196, metadata !3741), !dbg !5197
  %3 = load %"class.std::tuple.9"*, %"class.std::tuple.9"** %2, align 8, !dbg !5198
  %4 = bitcast %"class.std::tuple.9"* %3 to %"struct.std::_Tuple_impl.11"*, !dbg !5198
  %5 = call dereferenceable(8) %"class.prod_cons::Producer"** @_ZSt12__get_helperILm1EPN9prod_cons8ProducerEJEERT0_RSt11_Tuple_implIXT_EJS3_DpT1_EE(%"struct.std::_Tuple_impl.11"* dereferenceable(8) %4) #3, !dbg !5199
  ret %"class.prod_cons::Producer"** %5, !dbg !5200
}

; Function Attrs: nounwind uwtable
define linkonce_odr dereferenceable(16) %"struct.std::_Mem_fn"* @_ZSt12__get_helperILm0ESt7_Mem_fnIMN9prod_cons8ProducerEFvvEEJPS2_EERT0_RSt11_Tuple_implIXT_EJS7_DpT1_EE(%"struct.std::_Tuple_impl.10"* dereferenceable(24)) #4 comdat !dbg !5201 {
  %2 = alloca %"struct.std::_Tuple_impl.10"*, align 8
  store %"struct.std::_Tuple_impl.10"* %0, %"struct.std::_Tuple_impl.10"** %2, align 8
  call void @llvm.dbg.declare(metadata %"struct.std::_Tuple_impl.10"** %2, metadata !5204, metadata !3741), !dbg !5205
  %3 = load %"struct.std::_Tuple_impl.10"*, %"struct.std::_Tuple_impl.10"** %2, align 8, !dbg !5206
  %4 = call dereferenceable(16) %"struct.std::_Mem_fn"* @_ZNSt11_Tuple_implILm0EJSt7_Mem_fnIMN9prod_cons8ProducerEFvvEEPS2_EE7_M_headERS7_(%"struct.std::_Tuple_impl.10"* dereferenceable(24) %3) #3, !dbg !5207
  ret %"struct.std::_Mem_fn"* %4, !dbg !5208
}

; Function Attrs: inlinehint uwtable
define linkonce_odr void @_ZSt8__invokeIRKMN9prod_cons8ProducerEFvvEJPS1_EENSt9result_ofIFOT_DpOT0_EE4typeES9_SC_({ i64, i64 }* dereferenceable(16), %"class.prod_cons::Producer"** dereferenceable(8)) #13 comdat !dbg !497 {
  %3 = alloca { i64, i64 }*, align 8
  %4 = alloca %"class.prod_cons::Producer"**, align 8
  %5 = alloca %"struct.std::__invoke_memfun_deref", align 1
  store { i64, i64 }* %0, { i64, i64 }** %3, align 8
  call void @llvm.dbg.declare(metadata { i64, i64 }** %3, metadata !5209, metadata !3741), !dbg !5210
  store %"class.prod_cons::Producer"** %1, %"class.prod_cons::Producer"*** %4, align 8
  call void @llvm.dbg.declare(metadata %"class.prod_cons::Producer"*** %4, metadata !5211, metadata !3741), !dbg !5212
  %6 = load { i64, i64 }*, { i64, i64 }** %3, align 8, !dbg !5213
  %7 = call dereferenceable(16) { i64, i64 }* @_ZSt7forwardIRKMN9prod_cons8ProducerEFvvEEOT_RNSt16remove_referenceIS6_E4typeE({ i64, i64 }* dereferenceable(16) %6) #3, !dbg !5214
  %8 = load %"class.prod_cons::Producer"**, %"class.prod_cons::Producer"*** %4, align 8, !dbg !5215
  %9 = call dereferenceable(8) %"class.prod_cons::Producer"** @_ZSt7forwardIPN9prod_cons8ProducerEEOT_RNSt16remove_referenceIS3_E4typeE(%"class.prod_cons::Producer"** dereferenceable(8) %8) #3, !dbg !5216
  call void @_ZSt13__invoke_implIvRKMN9prod_cons8ProducerEFvvEPS1_JEET_St21__invoke_memfun_derefOT0_OT1_DpOT2_({ i64, i64 }* dereferenceable(16) %7, %"class.prod_cons::Producer"** dereferenceable(8) %9), !dbg !5217
  ret void, !dbg !5219
}

; Function Attrs: inlinehint uwtable
define linkonce_odr void @_ZSt13__invoke_implIvRKMN9prod_cons8ProducerEFvvEPS1_JEET_St21__invoke_memfun_derefOT0_OT1_DpOT2_({ i64, i64 }* dereferenceable(16), %"class.prod_cons::Producer"** dereferenceable(8)) #13 comdat !dbg !5220 {
  %3 = alloca %"struct.std::__invoke_memfun_deref", align 1
  %4 = alloca { i64, i64 }*, align 8
  %5 = alloca %"class.prod_cons::Producer"**, align 8
  call void @llvm.dbg.declare(metadata %"struct.std::__invoke_memfun_deref"* %3, metadata !5226, metadata !3741), !dbg !5227
  store { i64, i64 }* %0, { i64, i64 }** %4, align 8
  call void @llvm.dbg.declare(metadata { i64, i64 }** %4, metadata !5228, metadata !3741), !dbg !5229
  store %"class.prod_cons::Producer"** %1, %"class.prod_cons::Producer"*** %5, align 8
  call void @llvm.dbg.declare(metadata %"class.prod_cons::Producer"*** %5, metadata !5230, metadata !3741), !dbg !5231
  %6 = load { i64, i64 }*, { i64, i64 }** %4, align 8, !dbg !5232
  %7 = load { i64, i64 }, { i64, i64 }* %6, align 8, !dbg !5232
  %8 = load %"class.prod_cons::Producer"**, %"class.prod_cons::Producer"*** %5, align 8, !dbg !5233
  %9 = call dereferenceable(8) %"class.prod_cons::Producer"** @_ZSt7forwardIPN9prod_cons8ProducerEEOT_RNSt16remove_referenceIS3_E4typeE(%"class.prod_cons::Producer"** dereferenceable(8) %8) #3, !dbg !5234
  %10 = load %"class.prod_cons::Producer"*, %"class.prod_cons::Producer"** %9, align 8, !dbg !5234
  %11 = extractvalue { i64, i64 } %7, 1, !dbg !5235
  %12 = bitcast %"class.prod_cons::Producer"* %10 to i8*, !dbg !5235
  %13 = getelementptr inbounds i8, i8* %12, i64 %11, !dbg !5235
  %14 = bitcast i8* %13 to %"class.prod_cons::Producer"*, !dbg !5235
  %15 = extractvalue { i64, i64 } %7, 0, !dbg !5235
  %16 = and i64 %15, 1, !dbg !5235
  %17 = icmp ne i64 %16, 0, !dbg !5235
  br i1 %17, label %18, label %25, !dbg !5235

; <label>:18:                                     ; preds = %2
  %19 = bitcast %"class.prod_cons::Producer"* %14 to i8**, !dbg !5236
  %20 = load i8*, i8** %19, align 8, !dbg !5236
  %21 = sub i64 %15, 1, !dbg !5236
  %22 = getelementptr i8, i8* %20, i64 %21, !dbg !5236
  %23 = bitcast i8* %22 to void (%"class.prod_cons::Producer"*)**, !dbg !5236
  %24 = load void (%"class.prod_cons::Producer"*)*, void (%"class.prod_cons::Producer"*)** %23, align 8, !dbg !5236
  br label %27, !dbg !5236

; <label>:25:                                     ; preds = %2
  %26 = inttoptr i64 %15 to void (%"class.prod_cons::Producer"*)*, !dbg !5238
  br label %27, !dbg !5238

; <label>:27:                                     ; preds = %25, %18
  %28 = phi void (%"class.prod_cons::Producer"*)* [ %24, %18 ], [ %26, %25 ], !dbg !5240
  call void %28(%"class.prod_cons::Producer"* %14), !dbg !5240
  ret void, !dbg !5242
}

; Function Attrs: nounwind uwtable
define linkonce_odr dereferenceable(16) { i64, i64 }* @_ZSt7forwardIRKMN9prod_cons8ProducerEFvvEEOT_RNSt16remove_referenceIS6_E4typeE({ i64, i64 }* dereferenceable(16)) #4 comdat !dbg !5243 {
  %2 = alloca { i64, i64 }*, align 8
  store { i64, i64 }* %0, { i64, i64 }** %2, align 8
  call void @llvm.dbg.declare(metadata { i64, i64 }** %2, metadata !5251, metadata !3741), !dbg !5252
  %3 = load { i64, i64 }*, { i64, i64 }** %2, align 8, !dbg !5253
  ret { i64, i64 }* %3, !dbg !5254
}

; Function Attrs: nounwind uwtable
define linkonce_odr dereferenceable(8) %"class.prod_cons::Producer"** @_ZSt12__get_helperILm1EPN9prod_cons8ProducerEJEERT0_RSt11_Tuple_implIXT_EJS3_DpT1_EE(%"struct.std::_Tuple_impl.11"* dereferenceable(8)) #4 comdat !dbg !5255 {
  %2 = alloca %"struct.std::_Tuple_impl.11"*, align 8
  store %"struct.std::_Tuple_impl.11"* %0, %"struct.std::_Tuple_impl.11"** %2, align 8
  call void @llvm.dbg.declare(metadata %"struct.std::_Tuple_impl.11"** %2, metadata !5258, metadata !3741), !dbg !5259
  %3 = load %"struct.std::_Tuple_impl.11"*, %"struct.std::_Tuple_impl.11"** %2, align 8, !dbg !5260
  %4 = call dereferenceable(8) %"class.prod_cons::Producer"** @_ZNSt11_Tuple_implILm1EJPN9prod_cons8ProducerEEE7_M_headERS3_(%"struct.std::_Tuple_impl.11"* dereferenceable(8) %3) #3, !dbg !5261
  ret %"class.prod_cons::Producer"** %4, !dbg !5262
}

; Function Attrs: uwtable
define linkonce_odr void @_ZNSt5tupleIJPNSt6thread6_StateESt14default_deleteIS1_EEEC2IRS2_S4_Lb1EEEOT_OT0_(%"class.std::tuple"*, %"struct.std::thread::_State"** dereferenceable(8), %"struct.std::default_delete"* dereferenceable(1)) unnamed_addr #0 comdat align 2 !dbg !5263 {
  %4 = alloca %"class.std::tuple"*, align 8
  %5 = alloca %"struct.std::thread::_State"**, align 8
  %6 = alloca %"struct.std::default_delete"*, align 8
  store %"class.std::tuple"* %0, %"class.std::tuple"** %4, align 8
  call void @llvm.dbg.declare(metadata %"class.std::tuple"** %4, metadata !5271, metadata !3741), !dbg !5273
  store %"struct.std::thread::_State"** %1, %"struct.std::thread::_State"*** %5, align 8
  call void @llvm.dbg.declare(metadata %"struct.std::thread::_State"*** %5, metadata !5274, metadata !3741), !dbg !5275
  store %"struct.std::default_delete"* %2, %"struct.std::default_delete"** %6, align 8
  call void @llvm.dbg.declare(metadata %"struct.std::default_delete"** %6, metadata !5276, metadata !3741), !dbg !5277
  %7 = load %"class.std::tuple"*, %"class.std::tuple"** %4, align 8
  %8 = bitcast %"class.std::tuple"* %7 to %"struct.std::_Tuple_impl"*, !dbg !5278
  %9 = load %"struct.std::thread::_State"**, %"struct.std::thread::_State"*** %5, align 8, !dbg !5279
  %10 = call dereferenceable(8) %"struct.std::thread::_State"** @_ZSt7forwardIRPNSt6thread6_StateEEOT_RNSt16remove_referenceIS4_E4typeE(%"struct.std::thread::_State"** dereferenceable(8) %9) #3, !dbg !5280
  %11 = load %"struct.std::default_delete"*, %"struct.std::default_delete"** %6, align 8, !dbg !5281
  %12 = call dereferenceable(1) %"struct.std::default_delete"* @_ZSt7forwardISt14default_deleteINSt6thread6_StateEEEOT_RNSt16remove_referenceIS4_E4typeE(%"struct.std::default_delete"* dereferenceable(1) %11) #3, !dbg !5282
  call void @_ZNSt11_Tuple_implILm0EJPNSt6thread6_StateESt14default_deleteIS1_EEEC2IRS2_JS4_EvEEOT_DpOT0_(%"struct.std::_Tuple_impl"* %8, %"struct.std::thread::_State"** dereferenceable(8) %10, %"struct.std::default_delete"* dereferenceable(1) %12), !dbg !5284
  ret void, !dbg !5286
}

; Function Attrs: nounwind uwtable
define linkonce_odr dereferenceable(8) %"struct.std::thread::_State"** @_ZSt7forwardIRPNSt6thread6_StateEEOT_RNSt16remove_referenceIS4_E4typeE(%"struct.std::thread::_State"** dereferenceable(8)) #4 comdat !dbg !5287 {
  %2 = alloca %"struct.std::thread::_State"**, align 8
  store %"struct.std::thread::_State"** %0, %"struct.std::thread::_State"*** %2, align 8
  call void @llvm.dbg.declare(metadata %"struct.std::thread::_State"*** %2, metadata !5295, metadata !3741), !dbg !5296
  %3 = load %"struct.std::thread::_State"**, %"struct.std::thread::_State"*** %2, align 8, !dbg !5297
  ret %"struct.std::thread::_State"** %3, !dbg !5298
}

; Function Attrs: nounwind uwtable
define linkonce_odr dereferenceable(1) %"struct.std::default_delete"* @_ZSt7forwardISt14default_deleteINSt6thread6_StateEEEOT_RNSt16remove_referenceIS4_E4typeE(%"struct.std::default_delete"* dereferenceable(1)) #4 comdat !dbg !5299 {
  %2 = alloca %"struct.std::default_delete"*, align 8
  store %"struct.std::default_delete"* %0, %"struct.std::default_delete"** %2, align 8
  call void @llvm.dbg.declare(metadata %"struct.std::default_delete"** %2, metadata !5303, metadata !3741), !dbg !5304
  %3 = load %"struct.std::default_delete"*, %"struct.std::default_delete"** %2, align 8, !dbg !5305
  ret %"struct.std::default_delete"* %3, !dbg !5306
}

; Function Attrs: uwtable
define linkonce_odr void @_ZNSt11_Tuple_implILm0EJPNSt6thread6_StateESt14default_deleteIS1_EEEC2IRS2_JS4_EvEEOT_DpOT0_(%"struct.std::_Tuple_impl"*, %"struct.std::thread::_State"** dereferenceable(8), %"struct.std::default_delete"* dereferenceable(1)) unnamed_addr #0 comdat align 2 !dbg !5307 {
  %4 = alloca %"struct.std::_Tuple_impl"*, align 8
  %5 = alloca %"struct.std::thread::_State"**, align 8
  %6 = alloca %"struct.std::default_delete"*, align 8
  store %"struct.std::_Tuple_impl"* %0, %"struct.std::_Tuple_impl"** %4, align 8
  call void @llvm.dbg.declare(metadata %"struct.std::_Tuple_impl"** %4, metadata !5315, metadata !3741), !dbg !5317
  store %"struct.std::thread::_State"** %1, %"struct.std::thread::_State"*** %5, align 8
  call void @llvm.dbg.declare(metadata %"struct.std::thread::_State"*** %5, metadata !5318, metadata !3741), !dbg !5319
  store %"struct.std::default_delete"* %2, %"struct.std::default_delete"** %6, align 8
  call void @llvm.dbg.declare(metadata %"struct.std::default_delete"** %6, metadata !5320, metadata !3741), !dbg !5321
  %7 = load %"struct.std::_Tuple_impl"*, %"struct.std::_Tuple_impl"** %4, align 8
  %8 = bitcast %"struct.std::_Tuple_impl"* %7 to %"struct.std::_Tuple_impl.7"*, !dbg !5322
  %9 = load %"struct.std::default_delete"*, %"struct.std::default_delete"** %6, align 8, !dbg !5323
  %10 = call dereferenceable(1) %"struct.std::default_delete"* @_ZSt7forwardISt14default_deleteINSt6thread6_StateEEEOT_RNSt16remove_referenceIS4_E4typeE(%"struct.std::default_delete"* dereferenceable(1) %9) #3, !dbg !5324
  call void @_ZNSt11_Tuple_implILm1EJSt14default_deleteINSt6thread6_StateEEEEC2IS3_EEOT_(%"struct.std::_Tuple_impl.7"* %8, %"struct.std::default_delete"* dereferenceable(1) %10), !dbg !5325
  %11 = bitcast %"struct.std::_Tuple_impl"* %7 to %"struct.std::_Head_base.8"*, !dbg !5322
  %12 = load %"struct.std::thread::_State"**, %"struct.std::thread::_State"*** %5, align 8, !dbg !5327
  %13 = call dereferenceable(8) %"struct.std::thread::_State"** @_ZSt7forwardIRPNSt6thread6_StateEEOT_RNSt16remove_referenceIS4_E4typeE(%"struct.std::thread::_State"** dereferenceable(8) %12) #3, !dbg !5328
  call void @_ZNSt10_Head_baseILm0EPNSt6thread6_StateELb0EEC2IRS2_EEOT_(%"struct.std::_Head_base.8"* %11, %"struct.std::thread::_State"** dereferenceable(8) %13), !dbg !5329
  ret void, !dbg !5330
}

; Function Attrs: uwtable
define linkonce_odr void @_ZNSt11_Tuple_implILm1EJSt14default_deleteINSt6thread6_StateEEEEC2IS3_EEOT_(%"struct.std::_Tuple_impl.7"*, %"struct.std::default_delete"* dereferenceable(1)) unnamed_addr #0 comdat align 2 !dbg !5331 {
  %3 = alloca %"struct.std::_Tuple_impl.7"*, align 8
  %4 = alloca %"struct.std::default_delete"*, align 8
  store %"struct.std::_Tuple_impl.7"* %0, %"struct.std::_Tuple_impl.7"** %3, align 8
  call void @llvm.dbg.declare(metadata %"struct.std::_Tuple_impl.7"** %3, metadata !5337, metadata !3741), !dbg !5339
  store %"struct.std::default_delete"* %1, %"struct.std::default_delete"** %4, align 8
  call void @llvm.dbg.declare(metadata %"struct.std::default_delete"** %4, metadata !5340, metadata !3741), !dbg !5341
  %5 = load %"struct.std::_Tuple_impl.7"*, %"struct.std::_Tuple_impl.7"** %3, align 8
  %6 = bitcast %"struct.std::_Tuple_impl.7"* %5 to %"struct.std::_Head_base"*, !dbg !5342
  %7 = load %"struct.std::default_delete"*, %"struct.std::default_delete"** %4, align 8, !dbg !5343
  %8 = call dereferenceable(1) %"struct.std::default_delete"* @_ZSt7forwardISt14default_deleteINSt6thread6_StateEEEOT_RNSt16remove_referenceIS4_E4typeE(%"struct.std::default_delete"* dereferenceable(1) %7) #3, !dbg !5344
  call void @_ZNSt10_Head_baseILm1ESt14default_deleteINSt6thread6_StateEELb1EEC2IS3_EEOT_(%"struct.std::_Head_base"* %6, %"struct.std::default_delete"* dereferenceable(1) %8), !dbg !5345
  ret void, !dbg !5347
}

; Function Attrs: nounwind uwtable
define linkonce_odr void @_ZNSt10_Head_baseILm0EPNSt6thread6_StateELb0EEC2IRS2_EEOT_(%"struct.std::_Head_base.8"*, %"struct.std::thread::_State"** dereferenceable(8)) unnamed_addr #4 comdat align 2 !dbg !5348 {
  %3 = alloca %"struct.std::_Head_base.8"*, align 8
  %4 = alloca %"struct.std::thread::_State"**, align 8
  store %"struct.std::_Head_base.8"* %0, %"struct.std::_Head_base.8"** %3, align 8
  call void @llvm.dbg.declare(metadata %"struct.std::_Head_base.8"** %3, metadata !5353, metadata !3741), !dbg !5355
  store %"struct.std::thread::_State"** %1, %"struct.std::thread::_State"*** %4, align 8
  call void @llvm.dbg.declare(metadata %"struct.std::thread::_State"*** %4, metadata !5356, metadata !3741), !dbg !5357
  %5 = load %"struct.std::_Head_base.8"*, %"struct.std::_Head_base.8"** %3, align 8
  %6 = getelementptr inbounds %"struct.std::_Head_base.8", %"struct.std::_Head_base.8"* %5, i32 0, i32 0, !dbg !5358
  %7 = load %"struct.std::thread::_State"**, %"struct.std::thread::_State"*** %4, align 8, !dbg !5359
  %8 = call dereferenceable(8) %"struct.std::thread::_State"** @_ZSt7forwardIRPNSt6thread6_StateEEOT_RNSt16remove_referenceIS4_E4typeE(%"struct.std::thread::_State"** dereferenceable(8) %7) #3, !dbg !5360
  %9 = load %"struct.std::thread::_State"*, %"struct.std::thread::_State"** %8, align 8, !dbg !5360
  store %"struct.std::thread::_State"* %9, %"struct.std::thread::_State"** %6, align 8, !dbg !5358
  ret void, !dbg !5361
}

; Function Attrs: nounwind uwtable
define linkonce_odr void @_ZNSt10_Head_baseILm1ESt14default_deleteINSt6thread6_StateEELb1EEC2IS3_EEOT_(%"struct.std::_Head_base"*, %"struct.std::default_delete"* dereferenceable(1)) unnamed_addr #4 comdat align 2 !dbg !5362 {
  %3 = alloca %"struct.std::_Head_base"*, align 8
  %4 = alloca %"struct.std::default_delete"*, align 8
  store %"struct.std::_Head_base"* %0, %"struct.std::_Head_base"** %3, align 8
  call void @llvm.dbg.declare(metadata %"struct.std::_Head_base"** %3, metadata !5366, metadata !3741), !dbg !5368
  store %"struct.std::default_delete"* %1, %"struct.std::default_delete"** %4, align 8
  call void @llvm.dbg.declare(metadata %"struct.std::default_delete"** %4, metadata !5369, metadata !3741), !dbg !5370
  %5 = load %"struct.std::_Head_base"*, %"struct.std::_Head_base"** %3, align 8
  %6 = bitcast %"struct.std::_Head_base"* %5 to %"struct.std::default_delete"*, !dbg !5371
  %7 = load %"struct.std::default_delete"*, %"struct.std::default_delete"** %4, align 8, !dbg !5372
  %8 = call dereferenceable(1) %"struct.std::default_delete"* @_ZSt7forwardISt14default_deleteINSt6thread6_StateEEEOT_RNSt16remove_referenceIS4_E4typeE(%"struct.std::default_delete"* dereferenceable(1) %7) #3, !dbg !5373
  ret void, !dbg !5374
}

; Function Attrs: nounwind uwtable
define linkonce_odr { i64, i64 } @_ZNSt26_Maybe_wrap_member_pointerIMN9prod_cons8ProducerEFvvEE9__do_wrapES3_(i64, i64) #4 comdat align 2 !dbg !5375 {
  %3 = alloca %"struct.std::_Mem_fn", align 8
  %4 = alloca { i64, i64 }, align 8
  %5 = alloca { i64, i64 }, align 8
  %6 = alloca { i64, i64 }, align 8
  %7 = getelementptr inbounds { i64, i64 }, { i64, i64 }* %4, i32 0, i32 0
  store i64 %0, i64* %7, align 8
  %8 = getelementptr inbounds { i64, i64 }, { i64, i64 }* %4, i32 0, i32 1
  store i64 %1, i64* %8, align 8
  %9 = load { i64, i64 }, { i64, i64 }* %4, align 8
  store { i64, i64 } %9, { i64, i64 }* %5, align 8
  call void @llvm.dbg.declare(metadata { i64, i64 }* %5, metadata !5376, metadata !3741), !dbg !5377
  %10 = load { i64, i64 }, { i64, i64 }* %5, align 8, !dbg !5378
  store { i64, i64 } %10, { i64, i64 }* %6, align 8, !dbg !5379
  %11 = getelementptr inbounds { i64, i64 }, { i64, i64 }* %6, i32 0, i32 0, !dbg !5379
  %12 = load i64, i64* %11, align 8, !dbg !5379
  %13 = getelementptr inbounds { i64, i64 }, { i64, i64 }* %6, i32 0, i32 1, !dbg !5379
  %14 = load i64, i64* %13, align 8, !dbg !5379
  call void @_ZNSt7_Mem_fnIMN9prod_cons8ProducerEFvvEECI2St12_Mem_fn_baseIS3_Lb1EEES3_(%"struct.std::_Mem_fn"* %3, i64 %12, i64 %14) #3, !dbg !5379
  %15 = getelementptr inbounds %"struct.std::_Mem_fn", %"struct.std::_Mem_fn"* %3, i32 0, i32 0, !dbg !5380
  %16 = getelementptr inbounds %"class.std::_Mem_fn_base", %"class.std::_Mem_fn_base"* %15, i32 0, i32 0, !dbg !5380
  %17 = load { i64, i64 }, { i64, i64 }* %16, align 8, !dbg !5380
  ret { i64, i64 } %17, !dbg !5380
}

; Function Attrs: uwtable
define linkonce_odr void @_ZNSt12_Bind_simpleIFSt7_Mem_fnIMN9prod_cons8ProducerEFvvEEPS2_EEC2IS5_JS6_EEEOT_DpOT0_(%"struct.std::_Bind_simple"*, %"struct.std::_Mem_fn"* dereferenceable(16), %"class.prod_cons::Producer"** dereferenceable(8)) unnamed_addr #0 comdat align 2 !dbg !5381 {
  %4 = alloca %"struct.std::_Bind_simple"*, align 8
  %5 = alloca %"struct.std::_Mem_fn"*, align 8
  %6 = alloca %"class.prod_cons::Producer"**, align 8
  store %"struct.std::_Bind_simple"* %0, %"struct.std::_Bind_simple"** %4, align 8
  call void @llvm.dbg.declare(metadata %"struct.std::_Bind_simple"** %4, metadata !5387, metadata !3741), !dbg !5388
  store %"struct.std::_Mem_fn"* %1, %"struct.std::_Mem_fn"** %5, align 8
  call void @llvm.dbg.declare(metadata %"struct.std::_Mem_fn"** %5, metadata !5389, metadata !3741), !dbg !5390
  store %"class.prod_cons::Producer"** %2, %"class.prod_cons::Producer"*** %6, align 8
  call void @llvm.dbg.declare(metadata %"class.prod_cons::Producer"*** %6, metadata !5391, metadata !3741), !dbg !5392
  %7 = load %"struct.std::_Bind_simple"*, %"struct.std::_Bind_simple"** %4, align 8
  %8 = getelementptr inbounds %"struct.std::_Bind_simple", %"struct.std::_Bind_simple"* %7, i32 0, i32 0, !dbg !5393
  %9 = load %"struct.std::_Mem_fn"*, %"struct.std::_Mem_fn"** %5, align 8, !dbg !5394
  %10 = call dereferenceable(16) %"struct.std::_Mem_fn"* @_ZSt7forwardISt7_Mem_fnIMN9prod_cons8ProducerEFvvEEEOT_RNSt16remove_referenceIS6_E4typeE(%"struct.std::_Mem_fn"* dereferenceable(16) %9) #3, !dbg !5395
  %11 = load %"class.prod_cons::Producer"**, %"class.prod_cons::Producer"*** %6, align 8, !dbg !5396
  %12 = call dereferenceable(8) %"class.prod_cons::Producer"** @_ZSt7forwardIPN9prod_cons8ProducerEEOT_RNSt16remove_referenceIS3_E4typeE(%"class.prod_cons::Producer"** dereferenceable(8) %11) #3, !dbg !5397
  call void @_ZNSt5tupleIJSt7_Mem_fnIMN9prod_cons8ProducerEFvvEEPS2_EEC2IS5_S6_Lb1EEEOT_OT0_(%"class.std::tuple.9"* %8, %"struct.std::_Mem_fn"* dereferenceable(16) %10, %"class.prod_cons::Producer"** dereferenceable(8) %12), !dbg !5399
  ret void, !dbg !5401
}

; Function Attrs: inlinehint nounwind uwtable
define linkonce_odr void @_ZNSt7_Mem_fnIMN9prod_cons8ProducerEFvvEECI2St12_Mem_fn_baseIS3_Lb1EEES3_(%"struct.std::_Mem_fn"*, i64, i64) unnamed_addr #9 comdat align 2 !dbg !5402 {
  %4 = alloca { i64, i64 }, align 8
  %5 = alloca %"struct.std::_Mem_fn"*, align 8
  %6 = alloca { i64, i64 }, align 8
  %7 = alloca { i64, i64 }, align 8
  %8 = getelementptr inbounds { i64, i64 }, { i64, i64 }* %4, i32 0, i32 0
  store i64 %1, i64* %8, align 8
  %9 = getelementptr inbounds { i64, i64 }, { i64, i64 }* %4, i32 0, i32 1
  store i64 %2, i64* %9, align 8
  %10 = load { i64, i64 }, { i64, i64 }* %4, align 8
  store %"struct.std::_Mem_fn"* %0, %"struct.std::_Mem_fn"** %5, align 8
  call void @llvm.dbg.declare(metadata %"struct.std::_Mem_fn"** %5, metadata !5407, metadata !3741), !dbg !5409
  store { i64, i64 } %10, { i64, i64 }* %6, align 8
  call void @llvm.dbg.declare(metadata { i64, i64 }* %6, metadata !5410, metadata !3741), !dbg !5409
  %11 = load %"struct.std::_Mem_fn"*, %"struct.std::_Mem_fn"** %5, align 8
  %12 = bitcast %"struct.std::_Mem_fn"* %11 to %"class.std::_Mem_fn_base"*, !dbg !5411
  %13 = load { i64, i64 }, { i64, i64 }* %6, align 8, !dbg !5411
  store { i64, i64 } %13, { i64, i64 }* %7, align 8, !dbg !5411
  %14 = getelementptr inbounds { i64, i64 }, { i64, i64 }* %7, i32 0, i32 0, !dbg !5411
  %15 = load i64, i64* %14, align 8, !dbg !5411
  %16 = getelementptr inbounds { i64, i64 }, { i64, i64 }* %7, i32 0, i32 1, !dbg !5411
  %17 = load i64, i64* %16, align 8, !dbg !5411
  call void @_ZNSt12_Mem_fn_baseIMN9prod_cons8ProducerEFvvELb1EEC2ES3_(%"class.std::_Mem_fn_base"* %12, i64 %15, i64 %17) #3, !dbg !5411
  ret void, !dbg !5411
}

; Function Attrs: nounwind uwtable
define linkonce_odr void @_ZNSt12_Mem_fn_baseIMN9prod_cons8ProducerEFvvELb1EEC2ES3_(%"class.std::_Mem_fn_base"*, i64, i64) unnamed_addr #4 comdat align 2 !dbg !5412 {
  %4 = alloca { i64, i64 }, align 8
  %5 = alloca %"class.std::_Mem_fn_base"*, align 8
  %6 = alloca { i64, i64 }, align 8
  %7 = getelementptr inbounds { i64, i64 }, { i64, i64 }* %4, i32 0, i32 0
  store i64 %1, i64* %7, align 8
  %8 = getelementptr inbounds { i64, i64 }, { i64, i64 }* %4, i32 0, i32 1
  store i64 %2, i64* %8, align 8
  %9 = load { i64, i64 }, { i64, i64 }* %4, align 8
  store %"class.std::_Mem_fn_base"* %0, %"class.std::_Mem_fn_base"** %5, align 8
  call void @llvm.dbg.declare(metadata %"class.std::_Mem_fn_base"** %5, metadata !5413, metadata !3741), !dbg !5415
  store { i64, i64 } %9, { i64, i64 }* %6, align 8
  call void @llvm.dbg.declare(metadata { i64, i64 }* %6, metadata !5416, metadata !3741), !dbg !5417
  %10 = load %"class.std::_Mem_fn_base"*, %"class.std::_Mem_fn_base"** %5, align 8
  %11 = bitcast %"class.std::_Mem_fn_base"* %10 to %"struct.std::_Maybe_unary_or_binary_function"*, !dbg !5418
  %12 = getelementptr inbounds %"class.std::_Mem_fn_base", %"class.std::_Mem_fn_base"* %10, i32 0, i32 0, !dbg !5419
  %13 = load { i64, i64 }, { i64, i64 }* %6, align 8, !dbg !5420
  store { i64, i64 } %13, { i64, i64 }* %12, align 8, !dbg !5419
  ret void, !dbg !5421
}

; Function Attrs: uwtable
define linkonce_odr void @_ZNSt5tupleIJSt7_Mem_fnIMN9prod_cons8ProducerEFvvEEPS2_EEC2IS5_S6_Lb1EEEOT_OT0_(%"class.std::tuple.9"*, %"struct.std::_Mem_fn"* dereferenceable(16), %"class.prod_cons::Producer"** dereferenceable(8)) unnamed_addr #0 comdat align 2 !dbg !5422 {
  %4 = alloca %"class.std::tuple.9"*, align 8
  %5 = alloca %"struct.std::_Mem_fn"*, align 8
  %6 = alloca %"class.prod_cons::Producer"**, align 8
  store %"class.std::tuple.9"* %0, %"class.std::tuple.9"** %4, align 8
  call void @llvm.dbg.declare(metadata %"class.std::tuple.9"** %4, metadata !5429, metadata !3741), !dbg !5430
  store %"struct.std::_Mem_fn"* %1, %"struct.std::_Mem_fn"** %5, align 8
  call void @llvm.dbg.declare(metadata %"struct.std::_Mem_fn"** %5, metadata !5431, metadata !3741), !dbg !5432
  store %"class.prod_cons::Producer"** %2, %"class.prod_cons::Producer"*** %6, align 8
  call void @llvm.dbg.declare(metadata %"class.prod_cons::Producer"*** %6, metadata !5433, metadata !3741), !dbg !5434
  %7 = load %"class.std::tuple.9"*, %"class.std::tuple.9"** %4, align 8
  %8 = bitcast %"class.std::tuple.9"* %7 to %"struct.std::_Tuple_impl.10"*, !dbg !5435
  %9 = load %"struct.std::_Mem_fn"*, %"struct.std::_Mem_fn"** %5, align 8, !dbg !5436
  %10 = call dereferenceable(16) %"struct.std::_Mem_fn"* @_ZSt7forwardISt7_Mem_fnIMN9prod_cons8ProducerEFvvEEEOT_RNSt16remove_referenceIS6_E4typeE(%"struct.std::_Mem_fn"* dereferenceable(16) %9) #3, !dbg !5437
  %11 = load %"class.prod_cons::Producer"**, %"class.prod_cons::Producer"*** %6, align 8, !dbg !5438
  %12 = call dereferenceable(8) %"class.prod_cons::Producer"** @_ZSt7forwardIPN9prod_cons8ProducerEEOT_RNSt16remove_referenceIS3_E4typeE(%"class.prod_cons::Producer"** dereferenceable(8) %11) #3, !dbg !5439
  call void @_ZNSt11_Tuple_implILm0EJSt7_Mem_fnIMN9prod_cons8ProducerEFvvEEPS2_EEC2IS5_JS6_EvEEOT_DpOT0_(%"struct.std::_Tuple_impl.10"* %8, %"struct.std::_Mem_fn"* dereferenceable(16) %10, %"class.prod_cons::Producer"** dereferenceable(8) %12), !dbg !5441
  ret void, !dbg !5443
}

; Function Attrs: uwtable
define linkonce_odr void @_ZNSt11_Tuple_implILm0EJSt7_Mem_fnIMN9prod_cons8ProducerEFvvEEPS2_EEC2IS5_JS6_EvEEOT_DpOT0_(%"struct.std::_Tuple_impl.10"*, %"struct.std::_Mem_fn"* dereferenceable(16), %"class.prod_cons::Producer"** dereferenceable(8)) unnamed_addr #0 comdat align 2 !dbg !5444 {
  %4 = alloca %"struct.std::_Tuple_impl.10"*, align 8
  %5 = alloca %"struct.std::_Mem_fn"*, align 8
  %6 = alloca %"class.prod_cons::Producer"**, align 8
  store %"struct.std::_Tuple_impl.10"* %0, %"struct.std::_Tuple_impl.10"** %4, align 8
  call void @llvm.dbg.declare(metadata %"struct.std::_Tuple_impl.10"** %4, metadata !5450, metadata !3741), !dbg !5451
  store %"struct.std::_Mem_fn"* %1, %"struct.std::_Mem_fn"** %5, align 8
  call void @llvm.dbg.declare(metadata %"struct.std::_Mem_fn"** %5, metadata !5452, metadata !3741), !dbg !5453
  store %"class.prod_cons::Producer"** %2, %"class.prod_cons::Producer"*** %6, align 8
  call void @llvm.dbg.declare(metadata %"class.prod_cons::Producer"*** %6, metadata !5454, metadata !3741), !dbg !5455
  %7 = load %"struct.std::_Tuple_impl.10"*, %"struct.std::_Tuple_impl.10"** %4, align 8
  %8 = bitcast %"struct.std::_Tuple_impl.10"* %7 to %"struct.std::_Tuple_impl.11"*, !dbg !5456
  %9 = load %"class.prod_cons::Producer"**, %"class.prod_cons::Producer"*** %6, align 8, !dbg !5457
  %10 = call dereferenceable(8) %"class.prod_cons::Producer"** @_ZSt7forwardIPN9prod_cons8ProducerEEOT_RNSt16remove_referenceIS3_E4typeE(%"class.prod_cons::Producer"** dereferenceable(8) %9) #3, !dbg !5458
  call void @_ZNSt11_Tuple_implILm1EJPN9prod_cons8ProducerEEEC2IS2_EEOT_(%"struct.std::_Tuple_impl.11"* %8, %"class.prod_cons::Producer"** dereferenceable(8) %10), !dbg !5459
  %11 = bitcast %"struct.std::_Tuple_impl.10"* %7 to i8*, !dbg !5456
  %12 = getelementptr inbounds i8, i8* %11, i64 8, !dbg !5456
  %13 = bitcast i8* %12 to %"struct.std::_Head_base.13"*, !dbg !5456
  %14 = load %"struct.std::_Mem_fn"*, %"struct.std::_Mem_fn"** %5, align 8, !dbg !5461
  %15 = call dereferenceable(16) %"struct.std::_Mem_fn"* @_ZSt7forwardISt7_Mem_fnIMN9prod_cons8ProducerEFvvEEEOT_RNSt16remove_referenceIS6_E4typeE(%"struct.std::_Mem_fn"* dereferenceable(16) %14) #3, !dbg !5462
  call void @_ZNSt10_Head_baseILm0ESt7_Mem_fnIMN9prod_cons8ProducerEFvvEELb0EEC2IS5_EEOT_(%"struct.std::_Head_base.13"* %13, %"struct.std::_Mem_fn"* dereferenceable(16) %15), !dbg !5463
  ret void, !dbg !5464
}

; Function Attrs: nounwind uwtable
define linkonce_odr void @_ZNSt11_Tuple_implILm1EJPN9prod_cons8ProducerEEEC2IS2_EEOT_(%"struct.std::_Tuple_impl.11"*, %"class.prod_cons::Producer"** dereferenceable(8)) unnamed_addr #4 comdat align 2 !dbg !5465 {
  %3 = alloca %"struct.std::_Tuple_impl.11"*, align 8
  %4 = alloca %"class.prod_cons::Producer"**, align 8
  store %"struct.std::_Tuple_impl.11"* %0, %"struct.std::_Tuple_impl.11"** %3, align 8
  call void @llvm.dbg.declare(metadata %"struct.std::_Tuple_impl.11"** %3, metadata !5469, metadata !3741), !dbg !5470
  store %"class.prod_cons::Producer"** %1, %"class.prod_cons::Producer"*** %4, align 8
  call void @llvm.dbg.declare(metadata %"class.prod_cons::Producer"*** %4, metadata !5471, metadata !3741), !dbg !5472
  %5 = load %"struct.std::_Tuple_impl.11"*, %"struct.std::_Tuple_impl.11"** %3, align 8
  %6 = bitcast %"struct.std::_Tuple_impl.11"* %5 to %"struct.std::_Head_base.12"*, !dbg !5473
  %7 = load %"class.prod_cons::Producer"**, %"class.prod_cons::Producer"*** %4, align 8, !dbg !5474
  %8 = call dereferenceable(8) %"class.prod_cons::Producer"** @_ZSt7forwardIPN9prod_cons8ProducerEEOT_RNSt16remove_referenceIS3_E4typeE(%"class.prod_cons::Producer"** dereferenceable(8) %7) #3, !dbg !5475
  call void @_ZNSt10_Head_baseILm1EPN9prod_cons8ProducerELb0EEC2IS2_EEOT_(%"struct.std::_Head_base.12"* %6, %"class.prod_cons::Producer"** dereferenceable(8) %8), !dbg !5476
  ret void, !dbg !5478
}

; Function Attrs: nounwind uwtable
define linkonce_odr dereferenceable(8) %"struct.std::thread::_State"** @_ZSt3getILm0EJPNSt6thread6_StateESt14default_deleteIS1_EEERNSt13tuple_elementIXT_ESt5tupleIJDpT0_EEE4typeERS9_(%"class.std::tuple"* dereferenceable(8)) #4 comdat !dbg !5479 {
  %2 = alloca %"class.std::tuple"*, align 8
  store %"class.std::tuple"* %0, %"class.std::tuple"** %2, align 8
  call void @llvm.dbg.declare(metadata %"class.std::tuple"** %2, metadata !5489, metadata !3741), !dbg !5490
  %3 = load %"class.std::tuple"*, %"class.std::tuple"** %2, align 8, !dbg !5491
  %4 = bitcast %"class.std::tuple"* %3 to %"struct.std::_Tuple_impl"*, !dbg !5491
  %5 = call dereferenceable(8) %"struct.std::thread::_State"** @_ZSt12__get_helperILm0EPNSt6thread6_StateEJSt14default_deleteIS1_EEERT0_RSt11_Tuple_implIXT_EJS5_DpT1_EE(%"struct.std::_Tuple_impl"* dereferenceable(8) %4) #3, !dbg !5492
  ret %"struct.std::thread::_State"** %5, !dbg !5493
}

; Function Attrs: nounwind uwtable
define linkonce_odr dereferenceable(1) %"struct.std::default_delete"* @_ZNSt10unique_ptrINSt6thread6_StateESt14default_deleteIS1_EE11get_deleterEv(%"class.std::unique_ptr"*) #4 comdat align 2 !dbg !5494 {
  %2 = alloca %"class.std::unique_ptr"*, align 8
  store %"class.std::unique_ptr"* %0, %"class.std::unique_ptr"** %2, align 8
  call void @llvm.dbg.declare(metadata %"class.std::unique_ptr"** %2, metadata !5495, metadata !3741), !dbg !5496
  %3 = load %"class.std::unique_ptr"*, %"class.std::unique_ptr"** %2, align 8
  %4 = getelementptr inbounds %"class.std::unique_ptr", %"class.std::unique_ptr"* %3, i32 0, i32 0, !dbg !5497
  %5 = call dereferenceable(1) %"struct.std::default_delete"* @_ZSt3getILm1EJPNSt6thread6_StateESt14default_deleteIS1_EEERNSt13tuple_elementIXT_ESt5tupleIJDpT0_EEE4typeERS9_(%"class.std::tuple"* dereferenceable(8) %4) #3, !dbg !5498
  ret %"struct.std::default_delete"* %5, !dbg !5499
}

; Function Attrs: nounwind uwtable
define linkonce_odr void @_ZNKSt14default_deleteINSt6thread6_StateEEclEPS1_(%"struct.std::default_delete"*, %"struct.std::thread::_State"*) #4 comdat align 2 !dbg !5500 {
  %3 = alloca %"struct.std::default_delete"*, align 8
  %4 = alloca %"struct.std::thread::_State"*, align 8
  store %"struct.std::default_delete"* %0, %"struct.std::default_delete"** %3, align 8
  call void @llvm.dbg.declare(metadata %"struct.std::default_delete"** %3, metadata !5501, metadata !3741), !dbg !5503
  store %"struct.std::thread::_State"* %1, %"struct.std::thread::_State"** %4, align 8
  call void @llvm.dbg.declare(metadata %"struct.std::thread::_State"** %4, metadata !5504, metadata !3741), !dbg !5505
  %5 = load %"struct.std::default_delete"*, %"struct.std::default_delete"** %3, align 8
  %6 = load %"struct.std::thread::_State"*, %"struct.std::thread::_State"** %4, align 8, !dbg !5506
  %7 = icmp eq %"struct.std::thread::_State"* %6, null, !dbg !5507
  br i1 %7, label %13, label %8, !dbg !5507

; <label>:8:                                      ; preds = %2
  %9 = bitcast %"struct.std::thread::_State"* %6 to void (%"struct.std::thread::_State"*)***, !dbg !5508
  %10 = load void (%"struct.std::thread::_State"*)**, void (%"struct.std::thread::_State"*)*** %9, align 8, !dbg !5508
  %11 = getelementptr inbounds void (%"struct.std::thread::_State"*)*, void (%"struct.std::thread::_State"*)** %10, i64 1, !dbg !5508
  %12 = load void (%"struct.std::thread::_State"*)*, void (%"struct.std::thread::_State"*)** %11, align 8, !dbg !5508
  call void %12(%"struct.std::thread::_State"* %6) #3, !dbg !5508
  br label %13, !dbg !5508

; <label>:13:                                     ; preds = %8, %2
  ret void, !dbg !5510
}

; Function Attrs: nounwind uwtable
define linkonce_odr dereferenceable(8) %"struct.std::thread::_State"** @_ZSt12__get_helperILm0EPNSt6thread6_StateEJSt14default_deleteIS1_EEERT0_RSt11_Tuple_implIXT_EJS5_DpT1_EE(%"struct.std::_Tuple_impl"* dereferenceable(8)) #4 comdat !dbg !5511 {
  %2 = alloca %"struct.std::_Tuple_impl"*, align 8
  store %"struct.std::_Tuple_impl"* %0, %"struct.std::_Tuple_impl"** %2, align 8
  call void @llvm.dbg.declare(metadata %"struct.std::_Tuple_impl"** %2, metadata !5514, metadata !3741), !dbg !5515
  %3 = load %"struct.std::_Tuple_impl"*, %"struct.std::_Tuple_impl"** %2, align 8, !dbg !5516
  %4 = call dereferenceable(8) %"struct.std::thread::_State"** @_ZNSt11_Tuple_implILm0EJPNSt6thread6_StateESt14default_deleteIS1_EEE7_M_headERS5_(%"struct.std::_Tuple_impl"* dereferenceable(8) %3) #3, !dbg !5517
  ret %"struct.std::thread::_State"** %4, !dbg !5518
}

; Function Attrs: nounwind uwtable
define linkonce_odr dereferenceable(8) %"struct.std::thread::_State"** @_ZNSt11_Tuple_implILm0EJPNSt6thread6_StateESt14default_deleteIS1_EEE7_M_headERS5_(%"struct.std::_Tuple_impl"* dereferenceable(8)) #4 comdat align 2 !dbg !5519 {
  %2 = alloca %"struct.std::_Tuple_impl"*, align 8
  store %"struct.std::_Tuple_impl"* %0, %"struct.std::_Tuple_impl"** %2, align 8
  call void @llvm.dbg.declare(metadata %"struct.std::_Tuple_impl"** %2, metadata !5520, metadata !3741), !dbg !5521
  %3 = load %"struct.std::_Tuple_impl"*, %"struct.std::_Tuple_impl"** %2, align 8, !dbg !5522
  %4 = bitcast %"struct.std::_Tuple_impl"* %3 to %"struct.std::_Head_base.8"*, !dbg !5522
  %5 = call dereferenceable(8) %"struct.std::thread::_State"** @_ZNSt10_Head_baseILm0EPNSt6thread6_StateELb0EE7_M_headERS3_(%"struct.std::_Head_base.8"* dereferenceable(8) %4) #3, !dbg !5523
  ret %"struct.std::thread::_State"** %5, !dbg !5524
}

; Function Attrs: nounwind uwtable
define linkonce_odr dereferenceable(8) %"struct.std::thread::_State"** @_ZNSt10_Head_baseILm0EPNSt6thread6_StateELb0EE7_M_headERS3_(%"struct.std::_Head_base.8"* dereferenceable(8)) #4 comdat align 2 !dbg !5525 {
  %2 = alloca %"struct.std::_Head_base.8"*, align 8
  store %"struct.std::_Head_base.8"* %0, %"struct.std::_Head_base.8"** %2, align 8
  call void @llvm.dbg.declare(metadata %"struct.std::_Head_base.8"** %2, metadata !5526, metadata !3741), !dbg !5527
  %3 = load %"struct.std::_Head_base.8"*, %"struct.std::_Head_base.8"** %2, align 8, !dbg !5528
  %4 = getelementptr inbounds %"struct.std::_Head_base.8", %"struct.std::_Head_base.8"* %3, i32 0, i32 0, !dbg !5529
  ret %"struct.std::thread::_State"** %4, !dbg !5530
}

; Function Attrs: nounwind uwtable
define linkonce_odr dereferenceable(1) %"struct.std::default_delete"* @_ZSt3getILm1EJPNSt6thread6_StateESt14default_deleteIS1_EEERNSt13tuple_elementIXT_ESt5tupleIJDpT0_EEE4typeERS9_(%"class.std::tuple"* dereferenceable(8)) #4 comdat !dbg !5531 {
  %2 = alloca %"class.std::tuple"*, align 8
  store %"class.std::tuple"* %0, %"class.std::tuple"** %2, align 8
  call void @llvm.dbg.declare(metadata %"class.std::tuple"** %2, metadata !5542, metadata !3741), !dbg !5543
  %3 = load %"class.std::tuple"*, %"class.std::tuple"** %2, align 8, !dbg !5544
  %4 = bitcast %"class.std::tuple"* %3 to %"struct.std::_Tuple_impl.7"*, !dbg !5544
  %5 = call dereferenceable(1) %"struct.std::default_delete"* @_ZSt12__get_helperILm1ESt14default_deleteINSt6thread6_StateEEJEERT0_RSt11_Tuple_implIXT_EJS4_DpT1_EE(%"struct.std::_Tuple_impl.7"* dereferenceable(1) %4) #3, !dbg !5545
  ret %"struct.std::default_delete"* %5, !dbg !5546
}

; Function Attrs: nounwind uwtable
define linkonce_odr dereferenceable(1) %"struct.std::default_delete"* @_ZSt12__get_helperILm1ESt14default_deleteINSt6thread6_StateEEJEERT0_RSt11_Tuple_implIXT_EJS4_DpT1_EE(%"struct.std::_Tuple_impl.7"* dereferenceable(1)) #4 comdat !dbg !5547 {
  %2 = alloca %"struct.std::_Tuple_impl.7"*, align 8
  store %"struct.std::_Tuple_impl.7"* %0, %"struct.std::_Tuple_impl.7"** %2, align 8
  call void @llvm.dbg.declare(metadata %"struct.std::_Tuple_impl.7"** %2, metadata !5549, metadata !3741), !dbg !5550
  %3 = load %"struct.std::_Tuple_impl.7"*, %"struct.std::_Tuple_impl.7"** %2, align 8, !dbg !5551
  %4 = call dereferenceable(1) %"struct.std::default_delete"* @_ZNSt11_Tuple_implILm1EJSt14default_deleteINSt6thread6_StateEEEE7_M_headERS4_(%"struct.std::_Tuple_impl.7"* dereferenceable(1) %3) #3, !dbg !5552
  ret %"struct.std::default_delete"* %4, !dbg !5553
}

; Function Attrs: nounwind uwtable
define linkonce_odr dereferenceable(1) %"struct.std::default_delete"* @_ZNSt11_Tuple_implILm1EJSt14default_deleteINSt6thread6_StateEEEE7_M_headERS4_(%"struct.std::_Tuple_impl.7"* dereferenceable(1)) #4 comdat align 2 !dbg !5554 {
  %2 = alloca %"struct.std::_Tuple_impl.7"*, align 8
  store %"struct.std::_Tuple_impl.7"* %0, %"struct.std::_Tuple_impl.7"** %2, align 8
  call void @llvm.dbg.declare(metadata %"struct.std::_Tuple_impl.7"** %2, metadata !5555, metadata !3741), !dbg !5556
  %3 = load %"struct.std::_Tuple_impl.7"*, %"struct.std::_Tuple_impl.7"** %2, align 8, !dbg !5557
  %4 = bitcast %"struct.std::_Tuple_impl.7"* %3 to %"struct.std::_Head_base"*, !dbg !5557
  %5 = call dereferenceable(1) %"struct.std::default_delete"* @_ZNSt10_Head_baseILm1ESt14default_deleteINSt6thread6_StateEELb1EE7_M_headERS4_(%"struct.std::_Head_base"* dereferenceable(1) %4) #3, !dbg !5558
  ret %"struct.std::default_delete"* %5, !dbg !5559
}

; Function Attrs: nounwind uwtable
define linkonce_odr dereferenceable(1) %"struct.std::default_delete"* @_ZNSt10_Head_baseILm1ESt14default_deleteINSt6thread6_StateEELb1EE7_M_headERS4_(%"struct.std::_Head_base"* dereferenceable(1)) #4 comdat align 2 !dbg !5560 {
  %2 = alloca %"struct.std::_Head_base"*, align 8
  store %"struct.std::_Head_base"* %0, %"struct.std::_Head_base"** %2, align 8
  call void @llvm.dbg.declare(metadata %"struct.std::_Head_base"** %2, metadata !5561, metadata !3741), !dbg !5562
  %3 = load %"struct.std::_Head_base"*, %"struct.std::_Head_base"** %2, align 8, !dbg !5563
  %4 = bitcast %"struct.std::_Head_base"* %3 to %"struct.std::default_delete"*, !dbg !5563
  ret %"struct.std::default_delete"* %4, !dbg !5564
}

; Function Attrs: uwtable
define linkonce_odr void @_ZN9IrsThreadclIJMN9prod_cons8ConsumerEFvvEPS2_EEEvDpOT_(%class.IrsThread*, { i64, i64 }* dereferenceable(16), %"class.prod_cons::Consumer"** dereferenceable(8)) #0 comdat align 2 !dbg !5565 {
  %4 = alloca %class.IrsThread*, align 8
  %5 = alloca { i64, i64 }*, align 8
  %6 = alloca %"class.prod_cons::Consumer"**, align 8
  %7 = alloca %"class.std::thread", align 8
  store %class.IrsThread* %0, %class.IrsThread** %4, align 8
  call void @llvm.dbg.declare(metadata %class.IrsThread** %4, metadata !5574, metadata !3741), !dbg !5575
  store { i64, i64 }* %1, { i64, i64 }** %5, align 8
  call void @llvm.dbg.declare(metadata { i64, i64 }** %5, metadata !5576, metadata !3741), !dbg !5577
  store %"class.prod_cons::Consumer"** %2, %"class.prod_cons::Consumer"*** %6, align 8
  call void @llvm.dbg.declare(metadata %"class.prod_cons::Consumer"*** %6, metadata !5578, metadata !3741), !dbg !5577
  %8 = load %class.IrsThread*, %class.IrsThread** %4, align 8
  %9 = getelementptr inbounds %class.IrsThread, %class.IrsThread* %8, i32 0, i32 0, !dbg !5579
  %10 = load { i64, i64 }*, { i64, i64 }** %5, align 8, !dbg !5580
  %11 = call dereferenceable(16) { i64, i64 }* @_ZSt7forwardIMN9prod_cons8ConsumerEFvvEEOT_RNSt16remove_referenceIS4_E4typeE({ i64, i64 }* dereferenceable(16) %10) #3, !dbg !5581
  %12 = load %"class.prod_cons::Consumer"**, %"class.prod_cons::Consumer"*** %6, align 8, !dbg !5580
  %13 = call dereferenceable(8) %"class.prod_cons::Consumer"** @_ZSt7forwardIPN9prod_cons8ConsumerEEOT_RNSt16remove_referenceIS3_E4typeE(%"class.prod_cons::Consumer"** dereferenceable(8) %12) #3, !dbg !5582
  call void @_ZNSt6threadC2IMN9prod_cons8ConsumerEFvvEJPS2_EEEOT_DpOT0_(%"class.std::thread"* %7, { i64, i64 }* dereferenceable(16) %11, %"class.prod_cons::Consumer"** dereferenceable(8) %13), !dbg !5584
  %14 = call dereferenceable(8) %"class.std::thread"* @_ZNSt6threadaSEOS_(%"class.std::thread"* %9, %"class.std::thread"* dereferenceable(8) %7) #3, !dbg !5586
  call void @_ZNSt6threadD2Ev(%"class.std::thread"* %7) #3, !dbg !5588
  ret void, !dbg !5590
}

; Function Attrs: uwtable
define linkonce_odr void @_ZN9prod_cons8Consumer4execEv(%"class.prod_cons::Consumer"*) #0 comdat align 2 !dbg !5591 {
  %2 = alloca %"class.prod_cons::Consumer"*, align 8
  %3 = alloca i32, align 4
  %4 = alloca i32, align 4
  %5 = alloca i32, align 4
  store %"class.prod_cons::Consumer"* %0, %"class.prod_cons::Consumer"** %2, align 8
  call void @llvm.dbg.declare(metadata %"class.prod_cons::Consumer"** %2, metadata !5592, metadata !3741), !dbg !5593
  %6 = load %"class.prod_cons::Consumer"*, %"class.prod_cons::Consumer"** %2, align 8
  call void @llvm.dbg.declare(metadata i32* %3, metadata !5594, metadata !3741), !dbg !5595
  %7 = call i32 @_ZN9prod_cons8Consumer11getThreadIdEv(%"class.prod_cons::Consumer"* %6), !dbg !5596
  store i32 %7, i32* %3, align 4, !dbg !5595
  call void @llvm.dbg.declare(metadata i32* %4, metadata !5597, metadata !3741), !dbg !5598
  call void @llvm.dbg.declare(metadata i32* %5, metadata !5599, metadata !3741), !dbg !5600
  store i32 0, i32* %4, align 4, !dbg !5601
  br label %8, !dbg !5603

; <label>:8:                                      ; preds = %26, %1
  %9 = load i32, i32* %4, align 4, !dbg !5604
  %10 = icmp slt i32 %9, 4, !dbg !5607
  br i1 %10, label %11, label %29, !dbg !5608

; <label>:11:                                     ; preds = %8
  br label %12, !dbg !5609

; <label>:12:                                     ; preds = %15, %11
  %13 = load i32, i32* @_ZN9prod_cons5g_ctrE, align 4, !dbg !5611
  %14 = icmp eq i32 %13, 0, !dbg !5613
  br i1 %14, label %15, label %16, !dbg !5614

; <label>:15:                                     ; preds = %12
  br label %12, !dbg !5615, !llvm.loop !5617

; <label>:16:                                     ; preds = %12
  %17 = load i32, i32* @_ZN9prod_cons5g_outE, align 4, !dbg !5618
  %18 = sext i32 %17 to i64, !dbg !5619
  %19 = getelementptr inbounds [16 x i32], [16 x i32]* @_ZN9prod_cons8g_bufferE, i64 0, i64 %18, !dbg !5619
  %20 = load i32, i32* %19, align 4, !dbg !5619
  store i32 %20, i32* %5, align 4, !dbg !5620
  %21 = load i32, i32* @_ZN9prod_cons5g_outE, align 4, !dbg !5621
  %22 = add nsw i32 %21, 1, !dbg !5622
  %23 = srem i32 %22, 16, !dbg !5623
  store i32 %23, i32* @_ZN9prod_cons5g_outE, align 4, !dbg !5624
  %24 = load i32, i32* @_ZN9prod_cons5g_ctrE, align 4, !dbg !5625
  %25 = add nsw i32 %24, -1, !dbg !5625
  store i32 %25, i32* @_ZN9prod_cons5g_ctrE, align 4, !dbg !5625
  br label %26, !dbg !5626

; <label>:26:                                     ; preds = %16
  %27 = load i32, i32* %4, align 4, !dbg !5627
  %28 = add nsw i32 %27, 1, !dbg !5627
  store i32 %28, i32* %4, align 4, !dbg !5627
  br label %8, !dbg !5629, !llvm.loop !5630

; <label>:29:                                     ; preds = %8
  ret void, !dbg !5632
}

; Function Attrs: nounwind uwtable
define linkonce_odr dereferenceable(16) { i64, i64 }* @_ZSt7forwardIMN9prod_cons8ConsumerEFvvEEOT_RNSt16remove_referenceIS4_E4typeE({ i64, i64 }* dereferenceable(16)) #4 comdat !dbg !5633 {
  %2 = alloca { i64, i64 }*, align 8
  store { i64, i64 }* %0, { i64, i64 }** %2, align 8
  call void @llvm.dbg.declare(metadata { i64, i64 }** %2, metadata !5639, metadata !3741), !dbg !5640
  %3 = load { i64, i64 }*, { i64, i64 }** %2, align 8, !dbg !5641
  ret { i64, i64 }* %3, !dbg !5642
}

; Function Attrs: nounwind uwtable
define linkonce_odr dereferenceable(8) %"class.prod_cons::Consumer"** @_ZSt7forwardIPN9prod_cons8ConsumerEEOT_RNSt16remove_referenceIS3_E4typeE(%"class.prod_cons::Consumer"** dereferenceable(8)) #4 comdat !dbg !5643 {
  %2 = alloca %"class.prod_cons::Consumer"**, align 8
  store %"class.prod_cons::Consumer"** %0, %"class.prod_cons::Consumer"*** %2, align 8
  call void @llvm.dbg.declare(metadata %"class.prod_cons::Consumer"*** %2, metadata !5649, metadata !3741), !dbg !5650
  %3 = load %"class.prod_cons::Consumer"**, %"class.prod_cons::Consumer"*** %2, align 8, !dbg !5651
  ret %"class.prod_cons::Consumer"** %3, !dbg !5652
}

; Function Attrs: uwtable
define linkonce_odr void @_ZNSt6threadC2IMN9prod_cons8ConsumerEFvvEJPS2_EEEOT_DpOT0_(%"class.std::thread"*, { i64, i64 }* dereferenceable(16), %"class.prod_cons::Consumer"** dereferenceable(8)) unnamed_addr #0 comdat align 2 personality i8* bitcast (i32 (...)* @__gxx_personality_v0 to i8*) !dbg !5653 {
  %4 = alloca %"class.std::thread"*, align 8
  %5 = alloca { i64, i64 }*, align 8
  %6 = alloca %"class.prod_cons::Consumer"**, align 8
  %7 = alloca void ()*, align 8
  %8 = alloca %"class.std::unique_ptr", align 8
  %9 = alloca %"struct.std::_Bind_simple.14", align 8
  %10 = alloca i8*
  %11 = alloca i32
  store %"class.std::thread"* %0, %"class.std::thread"** %4, align 8
  call void @llvm.dbg.declare(metadata %"class.std::thread"** %4, metadata !5659, metadata !3741), !dbg !5660
  store { i64, i64 }* %1, { i64, i64 }** %5, align 8
  call void @llvm.dbg.declare(metadata { i64, i64 }** %5, metadata !5661, metadata !3741), !dbg !5662
  store %"class.prod_cons::Consumer"** %2, %"class.prod_cons::Consumer"*** %6, align 8
  call void @llvm.dbg.declare(metadata %"class.prod_cons::Consumer"*** %6, metadata !5663, metadata !3741), !dbg !5664
  %12 = load %"class.std::thread"*, %"class.std::thread"** %4, align 8
  %13 = getelementptr inbounds %"class.std::thread", %"class.std::thread"* %12, i32 0, i32 0, !dbg !5665
  call void @_ZNSt6thread2idC2Ev(%"class.std::thread::id"* %13) #3, !dbg !5665
  call void @llvm.dbg.declare(metadata void ()** %7, metadata !5666, metadata !3741), !dbg !5668
  store void ()* bitcast (i32 (i64*, %union.pthread_attr_t*, i8* (i8*)*, i8*)* @pthread_create to void ()*), void ()** %7, align 8, !dbg !5668
  %14 = load { i64, i64 }*, { i64, i64 }** %5, align 8, !dbg !5669
  %15 = call dereferenceable(16) { i64, i64 }* @_ZSt7forwardIMN9prod_cons8ConsumerEFvvEEOT_RNSt16remove_referenceIS4_E4typeE({ i64, i64 }* dereferenceable(16) %14) #3, !dbg !5670
  %16 = load %"class.prod_cons::Consumer"**, %"class.prod_cons::Consumer"*** %6, align 8, !dbg !5671
  %17 = call dereferenceable(8) %"class.prod_cons::Consumer"** @_ZSt7forwardIPN9prod_cons8ConsumerEEOT_RNSt16remove_referenceIS3_E4typeE(%"class.prod_cons::Consumer"** dereferenceable(8) %16) #3, !dbg !5672
  call void @_ZSt13__bind_simpleIMN9prod_cons8ConsumerEFvvEJPS1_EENSt19_Bind_simple_helperIT_JDpT0_EE6__typeEOS6_DpOS7_(%"struct.std::_Bind_simple.14"* sret %9, { i64, i64 }* dereferenceable(16) %15, %"class.prod_cons::Consumer"** dereferenceable(8) %17), !dbg !5673
  call void @_ZNSt6thread13_S_make_stateISt12_Bind_simpleIFSt7_Mem_fnIMN9prod_cons8ConsumerEFvvEEPS4_EEEESt10unique_ptrINS_6_StateESt14default_deleteISC_EEOT_(%"class.std::unique_ptr"* sret %8, %"struct.std::_Bind_simple.14"* dereferenceable(24) %9), !dbg !5675
  %18 = load void ()*, void ()** %7, align 8, !dbg !5676
  invoke void @_ZNSt6thread15_M_start_threadESt10unique_ptrINS_6_StateESt14default_deleteIS1_EEPFvvE(%"class.std::thread"* %12, %"class.std::unique_ptr"* %8, void ()* %18)
          to label %19 unwind label %20, !dbg !5677

; <label>:19:                                     ; preds = %3
  call void @_ZNSt10unique_ptrINSt6thread6_StateESt14default_deleteIS1_EED2Ev(%"class.std::unique_ptr"* %8) #3, !dbg !5678
  ret void, !dbg !5679

; <label>:20:                                     ; preds = %3
  %21 = landingpad { i8*, i32 }
          cleanup, !dbg !5680
  %22 = extractvalue { i8*, i32 } %21, 0, !dbg !5680
  store i8* %22, i8** %10, align 8, !dbg !5680
  %23 = extractvalue { i8*, i32 } %21, 1, !dbg !5680
  store i32 %23, i32* %11, align 4, !dbg !5680
  call void @_ZNSt10unique_ptrINSt6thread6_StateESt14default_deleteIS1_EED2Ev(%"class.std::unique_ptr"* %8) #3, !dbg !5681
  br label %24, !dbg !5681

; <label>:24:                                     ; preds = %20
  %25 = load i8*, i8** %10, align 8, !dbg !5683
  %26 = load i32, i32* %11, align 4, !dbg !5683
  %27 = insertvalue { i8*, i32 } undef, i8* %25, 0, !dbg !5683
  %28 = insertvalue { i8*, i32 } %27, i32 %26, 1, !dbg !5683
  resume { i8*, i32 } %28, !dbg !5683
}

; Function Attrs: uwtable
define linkonce_odr void @_ZNSt6thread13_S_make_stateISt12_Bind_simpleIFSt7_Mem_fnIMN9prod_cons8ConsumerEFvvEEPS4_EEEESt10unique_ptrINS_6_StateESt14default_deleteISC_EEOT_(%"class.std::unique_ptr"* noalias sret, %"struct.std::_Bind_simple.14"* dereferenceable(24)) #0 comdat align 2 personality i8* bitcast (i32 (...)* @__gxx_personality_v0 to i8*) !dbg !5685 {
  %3 = alloca %"struct.std::_Bind_simple.14"*, align 8
  %4 = alloca i8*
  %5 = alloca i32
  store %"struct.std::_Bind_simple.14"* %1, %"struct.std::_Bind_simple.14"** %3, align 8
  call void @llvm.dbg.declare(metadata %"struct.std::_Bind_simple.14"** %3, metadata !5888, metadata !3741), !dbg !5889
  %6 = call i8* @_Znwm(i64 32) #15, !dbg !5890
  %7 = bitcast i8* %6 to %"struct.std::thread::_State_impl.24"*, !dbg !5890
  %8 = load %"struct.std::_Bind_simple.14"*, %"struct.std::_Bind_simple.14"** %3, align 8, !dbg !5891
  %9 = call dereferenceable(24) %"struct.std::_Bind_simple.14"* @_ZSt7forwardISt12_Bind_simpleIFSt7_Mem_fnIMN9prod_cons8ConsumerEFvvEEPS3_EEEOT_RNSt16remove_referenceISA_E4typeE(%"struct.std::_Bind_simple.14"* dereferenceable(24) %8) #3, !dbg !5892
  invoke void @_ZNSt6thread11_State_implISt12_Bind_simpleIFSt7_Mem_fnIMN9prod_cons8ConsumerEFvvEEPS4_EEEC2EOSA_(%"struct.std::thread::_State_impl.24"* %7, %"struct.std::_Bind_simple.14"* dereferenceable(24) %9)
          to label %10 unwind label %12, !dbg !5894

; <label>:10:                                     ; preds = %2
  %11 = bitcast %"struct.std::thread::_State_impl.24"* %7 to %"struct.std::thread::_State"*, !dbg !5895
  call void @_ZNSt10unique_ptrINSt6thread6_StateESt14default_deleteIS1_EEC2EPS1_(%"class.std::unique_ptr"* %0, %"struct.std::thread::_State"* %11) #3, !dbg !5897
  ret void, !dbg !5898

; <label>:12:                                     ; preds = %2
  %13 = landingpad { i8*, i32 }
          cleanup, !dbg !5899
  %14 = extractvalue { i8*, i32 } %13, 0, !dbg !5899
  store i8* %14, i8** %4, align 8, !dbg !5899
  %15 = extractvalue { i8*, i32 } %13, 1, !dbg !5899
  store i32 %15, i32* %5, align 4, !dbg !5899
  call void @_ZdlPv(i8* %6) #16, !dbg !5900
  br label %16, !dbg !5900

; <label>:16:                                     ; preds = %12
  %17 = load i8*, i8** %4, align 8, !dbg !5902
  %18 = load i32, i32* %5, align 4, !dbg !5902
  %19 = insertvalue { i8*, i32 } undef, i8* %17, 0, !dbg !5902
  %20 = insertvalue { i8*, i32 } %19, i32 %18, 1, !dbg !5902
  resume { i8*, i32 } %20, !dbg !5902
}

; Function Attrs: uwtable
define linkonce_odr void @_ZSt13__bind_simpleIMN9prod_cons8ConsumerEFvvEJPS1_EENSt19_Bind_simple_helperIT_JDpT0_EE6__typeEOS6_DpOS7_(%"struct.std::_Bind_simple.14"* noalias sret, { i64, i64 }* dereferenceable(16), %"class.prod_cons::Consumer"** dereferenceable(8)) #0 comdat !dbg !5904 {
  %4 = alloca { i64, i64 }*, align 8
  %5 = alloca %"class.prod_cons::Consumer"**, align 8
  %6 = alloca %"struct.std::_Mem_fn.20", align 8
  %7 = alloca { i64, i64 }, align 8
  store { i64, i64 }* %1, { i64, i64 }** %4, align 8
  call void @llvm.dbg.declare(metadata { i64, i64 }** %4, metadata !5915, metadata !3741), !dbg !5916
  store %"class.prod_cons::Consumer"** %2, %"class.prod_cons::Consumer"*** %5, align 8
  call void @llvm.dbg.declare(metadata %"class.prod_cons::Consumer"*** %5, metadata !5917, metadata !3741), !dbg !5918
  %8 = load { i64, i64 }*, { i64, i64 }** %4, align 8, !dbg !5919
  %9 = call dereferenceable(16) { i64, i64 }* @_ZSt7forwardIMN9prod_cons8ConsumerEFvvEEOT_RNSt16remove_referenceIS4_E4typeE({ i64, i64 }* dereferenceable(16) %8) #3, !dbg !5920
  %10 = load { i64, i64 }, { i64, i64 }* %9, align 8, !dbg !5920
  store { i64, i64 } %10, { i64, i64 }* %7, align 8, !dbg !5921
  %11 = getelementptr inbounds { i64, i64 }, { i64, i64 }* %7, i32 0, i32 0, !dbg !5921
  %12 = load i64, i64* %11, align 8, !dbg !5921
  %13 = getelementptr inbounds { i64, i64 }, { i64, i64 }* %7, i32 0, i32 1, !dbg !5921
  %14 = load i64, i64* %13, align 8, !dbg !5921
  %15 = call { i64, i64 } @_ZNSt26_Maybe_wrap_member_pointerIMN9prod_cons8ConsumerEFvvEE9__do_wrapES3_(i64 %12, i64 %14), !dbg !5922
  %16 = getelementptr inbounds %"struct.std::_Mem_fn.20", %"struct.std::_Mem_fn.20"* %6, i32 0, i32 0, !dbg !5921
  %17 = getelementptr inbounds %"class.std::_Mem_fn_base.21", %"class.std::_Mem_fn_base.21"* %16, i32 0, i32 0, !dbg !5921
  %18 = getelementptr inbounds { i64, i64 }, { i64, i64 }* %17, i32 0, i32 0, !dbg !5921
  %19 = extractvalue { i64, i64 } %15, 0, !dbg !5921
  store i64 %19, i64* %18, align 8, !dbg !5921
  %20 = getelementptr inbounds { i64, i64 }, { i64, i64 }* %17, i32 0, i32 1, !dbg !5921
  %21 = extractvalue { i64, i64 } %15, 1, !dbg !5921
  store i64 %21, i64* %20, align 8, !dbg !5921
  %22 = load %"class.prod_cons::Consumer"**, %"class.prod_cons::Consumer"*** %5, align 8, !dbg !5924
  %23 = call dereferenceable(8) %"class.prod_cons::Consumer"** @_ZSt7forwardIPN9prod_cons8ConsumerEEOT_RNSt16remove_referenceIS3_E4typeE(%"class.prod_cons::Consumer"** dereferenceable(8) %22) #3, !dbg !5925
  call void @_ZNSt12_Bind_simpleIFSt7_Mem_fnIMN9prod_cons8ConsumerEFvvEEPS2_EEC2IS5_JS6_EEEOT_DpOT0_(%"struct.std::_Bind_simple.14"* %0, %"struct.std::_Mem_fn.20"* dereferenceable(16) %6, %"class.prod_cons::Consumer"** dereferenceable(8) %23), !dbg !5926
  ret void, !dbg !5927
}

; Function Attrs: nounwind uwtable
define linkonce_odr dereferenceable(24) %"struct.std::_Bind_simple.14"* @_ZSt7forwardISt12_Bind_simpleIFSt7_Mem_fnIMN9prod_cons8ConsumerEFvvEEPS3_EEEOT_RNSt16remove_referenceISA_E4typeE(%"struct.std::_Bind_simple.14"* dereferenceable(24)) #4 comdat !dbg !5928 {
  %2 = alloca %"struct.std::_Bind_simple.14"*, align 8
  store %"struct.std::_Bind_simple.14"* %0, %"struct.std::_Bind_simple.14"** %2, align 8
  call void @llvm.dbg.declare(metadata %"struct.std::_Bind_simple.14"** %2, metadata !5936, metadata !3741), !dbg !5937
  %3 = load %"struct.std::_Bind_simple.14"*, %"struct.std::_Bind_simple.14"** %2, align 8, !dbg !5938
  ret %"struct.std::_Bind_simple.14"* %3, !dbg !5939
}

; Function Attrs: nounwind uwtable
define linkonce_odr void @_ZNSt6thread11_State_implISt12_Bind_simpleIFSt7_Mem_fnIMN9prod_cons8ConsumerEFvvEEPS4_EEEC2EOSA_(%"struct.std::thread::_State_impl.24"*, %"struct.std::_Bind_simple.14"* dereferenceable(24)) unnamed_addr #4 comdat align 2 !dbg !5940 {
  %3 = alloca %"struct.std::thread::_State_impl.24"*, align 8
  %4 = alloca %"struct.std::_Bind_simple.14"*, align 8
  store %"struct.std::thread::_State_impl.24"* %0, %"struct.std::thread::_State_impl.24"** %3, align 8
  call void @llvm.dbg.declare(metadata %"struct.std::thread::_State_impl.24"** %3, metadata !5952, metadata !3741), !dbg !5954
  store %"struct.std::_Bind_simple.14"* %1, %"struct.std::_Bind_simple.14"** %4, align 8
  call void @llvm.dbg.declare(metadata %"struct.std::_Bind_simple.14"** %4, metadata !5955, metadata !3741), !dbg !5956
  %5 = load %"struct.std::thread::_State_impl.24"*, %"struct.std::thread::_State_impl.24"** %3, align 8
  %6 = bitcast %"struct.std::thread::_State_impl.24"* %5 to %"struct.std::thread::_State"*, !dbg !5957
  call void @_ZNSt6thread6_StateC2Ev(%"struct.std::thread::_State"* %6) #3, !dbg !5958
  %7 = bitcast %"struct.std::thread::_State_impl.24"* %5 to i32 (...)***, !dbg !5957
  store i32 (...)** bitcast (i8** getelementptr inbounds ([5 x i8*], [5 x i8*]* @_ZTVNSt6thread11_State_implISt12_Bind_simpleIFSt7_Mem_fnIMN9prod_cons8ConsumerEFvvEEPS4_EEEE, i32 0, i32 2) to i32 (...)**), i32 (...)*** %7, align 8, !dbg !5957
  %8 = getelementptr inbounds %"struct.std::thread::_State_impl.24", %"struct.std::thread::_State_impl.24"* %5, i32 0, i32 1, !dbg !5959
  %9 = load %"struct.std::_Bind_simple.14"*, %"struct.std::_Bind_simple.14"** %4, align 8, !dbg !5960
  %10 = call dereferenceable(24) %"struct.std::_Bind_simple.14"* @_ZSt7forwardISt12_Bind_simpleIFSt7_Mem_fnIMN9prod_cons8ConsumerEFvvEEPS3_EEEOT_RNSt16remove_referenceISA_E4typeE(%"struct.std::_Bind_simple.14"* dereferenceable(24) %9) #3, !dbg !5961
  call void @_ZNSt12_Bind_simpleIFSt7_Mem_fnIMN9prod_cons8ConsumerEFvvEEPS2_EEC2EOS8_(%"struct.std::_Bind_simple.14"* %8, %"struct.std::_Bind_simple.14"* dereferenceable(24) %10) #3, !dbg !5963
  ret void, !dbg !5965
}

; Function Attrs: nounwind uwtable
define linkonce_odr void @_ZNSt12_Bind_simpleIFSt7_Mem_fnIMN9prod_cons8ConsumerEFvvEEPS2_EEC2EOS8_(%"struct.std::_Bind_simple.14"*, %"struct.std::_Bind_simple.14"* dereferenceable(24)) unnamed_addr #4 comdat align 2 !dbg !5966 {
  %3 = alloca %"struct.std::_Bind_simple.14"*, align 8
  %4 = alloca %"struct.std::_Bind_simple.14"*, align 8
  store %"struct.std::_Bind_simple.14"* %0, %"struct.std::_Bind_simple.14"** %3, align 8
  call void @llvm.dbg.declare(metadata %"struct.std::_Bind_simple.14"** %3, metadata !5967, metadata !3741), !dbg !5969
  store %"struct.std::_Bind_simple.14"* %1, %"struct.std::_Bind_simple.14"** %4, align 8
  call void @llvm.dbg.declare(metadata %"struct.std::_Bind_simple.14"** %4, metadata !5970, metadata !3741), !dbg !5971
  %5 = load %"struct.std::_Bind_simple.14"*, %"struct.std::_Bind_simple.14"** %3, align 8
  %6 = getelementptr inbounds %"struct.std::_Bind_simple.14", %"struct.std::_Bind_simple.14"* %5, i32 0, i32 0, !dbg !5972
  %7 = load %"struct.std::_Bind_simple.14"*, %"struct.std::_Bind_simple.14"** %4, align 8, !dbg !5972
  %8 = getelementptr inbounds %"struct.std::_Bind_simple.14", %"struct.std::_Bind_simple.14"* %7, i32 0, i32 0, !dbg !5972
  call void @_ZNSt5tupleIJSt7_Mem_fnIMN9prod_cons8ConsumerEFvvEEPS2_EEC2EOS7_(%"class.std::tuple.15"* %6, %"class.std::tuple.15"* dereferenceable(24) %8) #3, !dbg !5972
  ret void, !dbg !5972
}

; Function Attrs: inlinehint nounwind uwtable
define linkonce_odr void @_ZNSt6thread11_State_implISt12_Bind_simpleIFSt7_Mem_fnIMN9prod_cons8ConsumerEFvvEEPS4_EEED2Ev(%"struct.std::thread::_State_impl.24"*) unnamed_addr #9 comdat align 2 !dbg !5973 {
  %2 = alloca %"struct.std::thread::_State_impl.24"*, align 8
  store %"struct.std::thread::_State_impl.24"* %0, %"struct.std::thread::_State_impl.24"** %2, align 8
  call void @llvm.dbg.declare(metadata %"struct.std::thread::_State_impl.24"** %2, metadata !5975, metadata !3741), !dbg !5976
  %3 = load %"struct.std::thread::_State_impl.24"*, %"struct.std::thread::_State_impl.24"** %2, align 8
  %4 = bitcast %"struct.std::thread::_State_impl.24"* %3 to %"struct.std::thread::_State"*, !dbg !5977
  call void @_ZNSt6thread6_StateD2Ev(%"struct.std::thread::_State"* %4) #3, !dbg !5977
  ret void, !dbg !5979
}

; Function Attrs: inlinehint nounwind uwtable
define linkonce_odr void @_ZNSt6thread11_State_implISt12_Bind_simpleIFSt7_Mem_fnIMN9prod_cons8ConsumerEFvvEEPS4_EEED0Ev(%"struct.std::thread::_State_impl.24"*) unnamed_addr #9 comdat align 2 !dbg !5980 {
  %2 = alloca %"struct.std::thread::_State_impl.24"*, align 8
  store %"struct.std::thread::_State_impl.24"* %0, %"struct.std::thread::_State_impl.24"** %2, align 8
  call void @llvm.dbg.declare(metadata %"struct.std::thread::_State_impl.24"** %2, metadata !5981, metadata !3741), !dbg !5982
  %3 = load %"struct.std::thread::_State_impl.24"*, %"struct.std::thread::_State_impl.24"** %2, align 8
  call void @_ZNSt6thread11_State_implISt12_Bind_simpleIFSt7_Mem_fnIMN9prod_cons8ConsumerEFvvEEPS4_EEED2Ev(%"struct.std::thread::_State_impl.24"* %3) #3, !dbg !5983
  %4 = bitcast %"struct.std::thread::_State_impl.24"* %3 to i8*, !dbg !5983
  call void @_ZdlPv(i8* %4) #16, !dbg !5984
  ret void, !dbg !5983
}

; Function Attrs: uwtable
define linkonce_odr void @_ZNSt6thread11_State_implISt12_Bind_simpleIFSt7_Mem_fnIMN9prod_cons8ConsumerEFvvEEPS4_EEE6_M_runEv(%"struct.std::thread::_State_impl.24"*) unnamed_addr #0 comdat align 2 !dbg !5986 {
  %2 = alloca %"struct.std::thread::_State_impl.24"*, align 8
  store %"struct.std::thread::_State_impl.24"* %0, %"struct.std::thread::_State_impl.24"** %2, align 8
  call void @llvm.dbg.declare(metadata %"struct.std::thread::_State_impl.24"** %2, metadata !5987, metadata !3741), !dbg !5988
  %3 = load %"struct.std::thread::_State_impl.24"*, %"struct.std::thread::_State_impl.24"** %2, align 8
  %4 = getelementptr inbounds %"struct.std::thread::_State_impl.24", %"struct.std::thread::_State_impl.24"* %3, i32 0, i32 1, !dbg !5989
  call void @_ZNSt12_Bind_simpleIFSt7_Mem_fnIMN9prod_cons8ConsumerEFvvEEPS2_EEclEv(%"struct.std::_Bind_simple.14"* %4), !dbg !5989
  ret void, !dbg !5990
}

; Function Attrs: nounwind uwtable
define linkonce_odr void @_ZNSt5tupleIJSt7_Mem_fnIMN9prod_cons8ConsumerEFvvEEPS2_EEC2EOS7_(%"class.std::tuple.15"*, %"class.std::tuple.15"* dereferenceable(24)) unnamed_addr #4 comdat align 2 !dbg !5991 {
  %3 = alloca %"class.std::tuple.15"*, align 8
  %4 = alloca %"class.std::tuple.15"*, align 8
  store %"class.std::tuple.15"* %0, %"class.std::tuple.15"** %3, align 8
  call void @llvm.dbg.declare(metadata %"class.std::tuple.15"** %3, metadata !5992, metadata !3741), !dbg !5994
  store %"class.std::tuple.15"* %1, %"class.std::tuple.15"** %4, align 8
  call void @llvm.dbg.declare(metadata %"class.std::tuple.15"** %4, metadata !5995, metadata !3741), !dbg !5996
  %5 = load %"class.std::tuple.15"*, %"class.std::tuple.15"** %3, align 8
  %6 = bitcast %"class.std::tuple.15"* %5 to %"struct.std::_Tuple_impl.16"*, !dbg !5997
  %7 = load %"class.std::tuple.15"*, %"class.std::tuple.15"** %4, align 8, !dbg !5997
  %8 = bitcast %"class.std::tuple.15"* %7 to %"struct.std::_Tuple_impl.16"*, !dbg !5997
  call void @_ZNSt11_Tuple_implILm0EJSt7_Mem_fnIMN9prod_cons8ConsumerEFvvEEPS2_EEC2EOS7_(%"struct.std::_Tuple_impl.16"* %6, %"struct.std::_Tuple_impl.16"* dereferenceable(24) %8) #3, !dbg !5997
  ret void, !dbg !5997
}

; Function Attrs: nounwind uwtable
define linkonce_odr void @_ZNSt11_Tuple_implILm0EJSt7_Mem_fnIMN9prod_cons8ConsumerEFvvEEPS2_EEC2EOS7_(%"struct.std::_Tuple_impl.16"*, %"struct.std::_Tuple_impl.16"* dereferenceable(24)) unnamed_addr #4 comdat align 2 personality i8* bitcast (i32 (...)* @__gxx_personality_v0 to i8*) !dbg !5998 {
  %3 = alloca %"struct.std::_Tuple_impl.16"*, align 8
  %4 = alloca %"struct.std::_Tuple_impl.16"*, align 8
  store %"struct.std::_Tuple_impl.16"* %0, %"struct.std::_Tuple_impl.16"** %3, align 8
  call void @llvm.dbg.declare(metadata %"struct.std::_Tuple_impl.16"** %3, metadata !5999, metadata !3741), !dbg !6001
  store %"struct.std::_Tuple_impl.16"* %1, %"struct.std::_Tuple_impl.16"** %4, align 8
  call void @llvm.dbg.declare(metadata %"struct.std::_Tuple_impl.16"** %4, metadata !6002, metadata !3741), !dbg !6003
  %5 = load %"struct.std::_Tuple_impl.16"*, %"struct.std::_Tuple_impl.16"** %3, align 8
  %6 = bitcast %"struct.std::_Tuple_impl.16"* %5 to %"struct.std::_Tuple_impl.17"*, !dbg !6004
  %7 = load %"struct.std::_Tuple_impl.16"*, %"struct.std::_Tuple_impl.16"** %4, align 8, !dbg !6005
  %8 = call dereferenceable(8) %"struct.std::_Tuple_impl.17"* @_ZNSt11_Tuple_implILm0EJSt7_Mem_fnIMN9prod_cons8ConsumerEFvvEEPS2_EE7_M_tailERS7_(%"struct.std::_Tuple_impl.16"* dereferenceable(24) %7) #3, !dbg !6006
  %9 = call dereferenceable(8) %"struct.std::_Tuple_impl.17"* @_ZSt4moveIRSt11_Tuple_implILm1EJPN9prod_cons8ConsumerEEEEONSt16remove_referenceIT_E4typeEOS7_(%"struct.std::_Tuple_impl.17"* dereferenceable(8) %8) #3, !dbg !6007
  call void @_ZNSt11_Tuple_implILm1EJPN9prod_cons8ConsumerEEEC2EOS3_(%"struct.std::_Tuple_impl.17"* %6, %"struct.std::_Tuple_impl.17"* dereferenceable(8) %9) #3, !dbg !6009
  %10 = bitcast %"struct.std::_Tuple_impl.16"* %5 to i8*, !dbg !6004
  %11 = getelementptr inbounds i8, i8* %10, i64 8, !dbg !6004
  %12 = bitcast i8* %11 to %"struct.std::_Head_base.19"*, !dbg !6004
  %13 = load %"struct.std::_Tuple_impl.16"*, %"struct.std::_Tuple_impl.16"** %4, align 8, !dbg !6011
  %14 = call dereferenceable(16) %"struct.std::_Mem_fn.20"* @_ZNSt11_Tuple_implILm0EJSt7_Mem_fnIMN9prod_cons8ConsumerEFvvEEPS2_EE7_M_headERS7_(%"struct.std::_Tuple_impl.16"* dereferenceable(24) %13) #3, !dbg !6012
  %15 = call dereferenceable(16) %"struct.std::_Mem_fn.20"* @_ZSt7forwardISt7_Mem_fnIMN9prod_cons8ConsumerEFvvEEEOT_RNSt16remove_referenceIS6_E4typeE(%"struct.std::_Mem_fn.20"* dereferenceable(16) %14) #3, !dbg !6013
  invoke void @_ZNSt10_Head_baseILm0ESt7_Mem_fnIMN9prod_cons8ConsumerEFvvEELb0EEC2IS5_EEOT_(%"struct.std::_Head_base.19"* %12, %"struct.std::_Mem_fn.20"* dereferenceable(16) %15)
          to label %16 unwind label %17, !dbg !6015

; <label>:16:                                     ; preds = %2
  ret void, !dbg !6016

; <label>:17:                                     ; preds = %2
  %18 = landingpad { i8*, i32 }
          catch i8* null, !dbg !6017
  %19 = extractvalue { i8*, i32 } %18, 0, !dbg !6017
  call void @__clang_call_terminate(i8* %19) #17, !dbg !6017
  unreachable, !dbg !6017
}

; Function Attrs: nounwind uwtable
define linkonce_odr dereferenceable(8) %"struct.std::_Tuple_impl.17"* @_ZSt4moveIRSt11_Tuple_implILm1EJPN9prod_cons8ConsumerEEEEONSt16remove_referenceIT_E4typeEOS7_(%"struct.std::_Tuple_impl.17"* dereferenceable(8)) #4 comdat !dbg !6018 {
  %2 = alloca %"struct.std::_Tuple_impl.17"*, align 8
  store %"struct.std::_Tuple_impl.17"* %0, %"struct.std::_Tuple_impl.17"** %2, align 8
  call void @llvm.dbg.declare(metadata %"struct.std::_Tuple_impl.17"** %2, metadata !6026, metadata !3741), !dbg !6027
  %3 = load %"struct.std::_Tuple_impl.17"*, %"struct.std::_Tuple_impl.17"** %2, align 8, !dbg !6028
  ret %"struct.std::_Tuple_impl.17"* %3, !dbg !6029
}

; Function Attrs: nounwind uwtable
define linkonce_odr dereferenceable(8) %"struct.std::_Tuple_impl.17"* @_ZNSt11_Tuple_implILm0EJSt7_Mem_fnIMN9prod_cons8ConsumerEFvvEEPS2_EE7_M_tailERS7_(%"struct.std::_Tuple_impl.16"* dereferenceable(24)) #4 comdat align 2 !dbg !6030 {
  %2 = alloca %"struct.std::_Tuple_impl.16"*, align 8
  store %"struct.std::_Tuple_impl.16"* %0, %"struct.std::_Tuple_impl.16"** %2, align 8
  call void @llvm.dbg.declare(metadata %"struct.std::_Tuple_impl.16"** %2, metadata !6031, metadata !3741), !dbg !6032
  %3 = load %"struct.std::_Tuple_impl.16"*, %"struct.std::_Tuple_impl.16"** %2, align 8, !dbg !6033
  %4 = bitcast %"struct.std::_Tuple_impl.16"* %3 to %"struct.std::_Tuple_impl.17"*, !dbg !6033
  ret %"struct.std::_Tuple_impl.17"* %4, !dbg !6034
}

; Function Attrs: nounwind uwtable
define linkonce_odr void @_ZNSt11_Tuple_implILm1EJPN9prod_cons8ConsumerEEEC2EOS3_(%"struct.std::_Tuple_impl.17"*, %"struct.std::_Tuple_impl.17"* dereferenceable(8)) unnamed_addr #4 comdat align 2 personality i8* bitcast (i32 (...)* @__gxx_personality_v0 to i8*) !dbg !6035 {
  %3 = alloca %"struct.std::_Tuple_impl.17"*, align 8
  %4 = alloca %"struct.std::_Tuple_impl.17"*, align 8
  store %"struct.std::_Tuple_impl.17"* %0, %"struct.std::_Tuple_impl.17"** %3, align 8
  call void @llvm.dbg.declare(metadata %"struct.std::_Tuple_impl.17"** %3, metadata !6036, metadata !3741), !dbg !6038
  store %"struct.std::_Tuple_impl.17"* %1, %"struct.std::_Tuple_impl.17"** %4, align 8
  call void @llvm.dbg.declare(metadata %"struct.std::_Tuple_impl.17"** %4, metadata !6039, metadata !3741), !dbg !6040
  %5 = load %"struct.std::_Tuple_impl.17"*, %"struct.std::_Tuple_impl.17"** %3, align 8
  %6 = bitcast %"struct.std::_Tuple_impl.17"* %5 to %"struct.std::_Head_base.18"*, !dbg !6041
  %7 = load %"struct.std::_Tuple_impl.17"*, %"struct.std::_Tuple_impl.17"** %4, align 8, !dbg !6042
  %8 = call dereferenceable(8) %"class.prod_cons::Consumer"** @_ZNSt11_Tuple_implILm1EJPN9prod_cons8ConsumerEEE7_M_headERS3_(%"struct.std::_Tuple_impl.17"* dereferenceable(8) %7) #3, !dbg !6043
  %9 = call dereferenceable(8) %"class.prod_cons::Consumer"** @_ZSt7forwardIPN9prod_cons8ConsumerEEOT_RNSt16remove_referenceIS3_E4typeE(%"class.prod_cons::Consumer"** dereferenceable(8) %8) #3, !dbg !6044
  invoke void @_ZNSt10_Head_baseILm1EPN9prod_cons8ConsumerELb0EEC2IS2_EEOT_(%"struct.std::_Head_base.18"* %6, %"class.prod_cons::Consumer"** dereferenceable(8) %9)
          to label %10 unwind label %11, !dbg !6046

; <label>:10:                                     ; preds = %2
  ret void, !dbg !6047

; <label>:11:                                     ; preds = %2
  %12 = landingpad { i8*, i32 }
          catch i8* null, !dbg !6049
  %13 = extractvalue { i8*, i32 } %12, 0, !dbg !6049
