; ModuleID = '/home/sreeram/Dev/mastersthesis/userspace_implementation_thesis_ver/MemoryCheck/src/Benchmark/readers_writers.cpp'
source_filename = "/home/sreeram/Dev/mastersthesis/userspace_implementation_thesis_ver/MemoryCheck/src/Benchmark/readers_writers.cpp"
target datalayout = "e-m:e-i64:64-f80:128-n8:16:32:64-S128"
target triple = "x86_64-pc-linux-gnu"

%"class.std::ios_base::Init" = type { i8 }
%"struct.boost::none_t" = type { i8 }
%"class.boost::detail::make_property_map_from_arg_pack_gen" = type { i32 }
%"class.std::basic_ostream" = type { i32 (...)**, %"class.std::basic_ios" }
%"class.std::basic_ios" = type { %"class.std::ios_base", %"class.std::basic_ostream"*, i8, i8, %"class.std::basic_streambuf"*, %"class.std::ctype"*, %"class.std::num_put"*, %"class.std::num_get"* }
%"class.std::ios_base" = type { i32 (...)**, i64, i64, i32, i32, i32, %"struct.std::ios_base::_Callback_list"*, %"struct.std::ios_base::_Words", [8 x %"struct.std::ios_base::_Words"], i32, %"struct.std::ios_base::_Words"*, %"class.std::locale" }
%"struct.std::ios_base::_Callback_list" = type { %"struct.std::ios_base::_Callback_list"*, void (i32, %"class.std::ios_base"*, i32)*, i32, i32 }
%"struct.std::ios_base::_Words" = type { i8*, i64 }
%"class.std::locale" = type { %"class.std::locale::_Impl"* }
%"class.std::locale::_Impl" = type { i32, %"class.std::locale::facet"**, i64, %"class.std::locale::facet"**, i8** }
%"class.std::locale::facet" = type <{ i32 (...)**, i32, [4 x i8] }>
%"class.std::basic_streambuf" = type { i32 (...)**, i8*, i8*, i8*, i8*, i8*, i8*, %"class.std::locale" }
%"class.std::ctype" = type <{ %"class.std::locale::facet.base", [4 x i8], %struct.__locale_struct*, i8, [7 x i8], i32*, i32*, i16*, i8, [256 x i8], [256 x i8], i8, [6 x i8] }>
%"class.std::locale::facet.base" = type <{ i32 (...)**, i32 }>
%struct.__locale_struct = type { [13 x %struct.__locale_data*], i16*, i32*, i32*, [13 x i8*] }
%struct.__locale_data = type opaque
%"class.std::num_put" = type { %"class.std::locale::facet.base", [4 x i8] }
%"class.std::num_get" = type { %"class.std::locale::facet.base", [4 x i8] }
%"struct.boost::none_t::init_tag" = type { i8 }
%"class.readers_writers::Writer" = type { %class.IrsThread }
%class.IrsThread = type <{ %"class.std::thread", i32, [4 x i8] }>
%"class.std::thread" = type { %"class.std::thread::id" }
%"class.std::thread::id" = type { i64 }
%"class.readers_writers::Reader" = type { %class.IrsThread }
%"class.std::shared_ptr" = type { %"class.std::__shared_ptr" }
%"class.std::__shared_ptr" = type { %"class.readers_writers::Writer"*, %"class.std::__shared_count" }
%"class.std::__shared_count" = type { %"class.std::_Sp_counted_base"* }
%"class.std::_Sp_counted_base" = type { i32 (...)**, i32, i32 }
%"class.std::vector" = type { %"struct.std::_Vector_base" }
%"struct.std::_Vector_base" = type { %"struct.std::_Vector_base<std::shared_ptr<readers_writers::Reader>, std::allocator<std::shared_ptr<readers_writers::Reader> > >::_Vector_impl" }
%"struct.std::_Vector_base<std::shared_ptr<readers_writers::Reader>, std::allocator<std::shared_ptr<readers_writers::Reader> > >::_Vector_impl" = type { %"class.std::shared_ptr.0"*, %"class.std::shared_ptr.0"*, %"class.std::shared_ptr.0"* }
%"class.std::shared_ptr.0" = type { %"class.std::__shared_ptr.1" }
%"class.std::__shared_ptr.1" = type { %"class.readers_writers::Reader"*, %"class.std::__shared_count" }
%"struct.std::chrono::time_point" = type { %"struct.std::chrono::duration" }
%"struct.std::chrono::duration" = type { i64 }
%"class.__gnu_cxx::__normal_iterator" = type { %"class.std::shared_ptr.0"* }
%"struct.std::chrono::duration.2" = type { i64 }
%"class.std::allocator" = type { i8 }
%"class.std::unique_ptr" = type { %"class.std::tuple" }
%"class.std::tuple" = type { %"struct.std::_Tuple_impl" }
%"struct.std::_Tuple_impl" = type { %"struct.std::_Head_base.4" }
%"struct.std::_Head_base.4" = type { %"struct.std::thread::_State"* }
%"struct.std::thread::_State" = type { i32 (...)** }
%"struct.std::_Bind_simple" = type { %"class.std::tuple.5" }
%"class.std::tuple.5" = type { %"struct.std::_Tuple_impl.6" }
%"struct.std::_Tuple_impl.6" = type { %"struct.std::_Tuple_impl.7", %"struct.std::_Head_base.9" }
%"struct.std::_Tuple_impl.7" = type { %"struct.std::_Head_base.8" }
%"struct.std::_Head_base.8" = type { %"class.readers_writers::Writer"* }
%"struct.std::_Head_base.9" = type { %"struct.std::_Mem_fn" }
%"struct.std::_Mem_fn" = type { %"class.std::_Mem_fn_base" }
%"class.std::_Mem_fn_base" = type { { i64, i64 } }
%union.pthread_attr_t = type { i64, [48 x i8] }
%"struct.std::thread::_State_impl" = type { %"struct.std::thread::_State", %"struct.std::_Bind_simple" }
%"struct.std::default_delete" = type { i8 }
%"struct.std::_Index_tuple" = type { i8 }
%"struct.std::__invoke_memfun_deref" = type { i8 }
%"struct.std::_Tuple_impl.3" = type { i8 }
%"struct.std::_Head_base" = type { i8 }
%"struct.std::_Maybe_unary_or_binary_function" = type { i8 }
%"struct.std::_Bind_simple.10" = type { %"class.std::tuple.11" }
%"class.std::tuple.11" = type { %"struct.std::_Tuple_impl.12" }
%"struct.std::_Tuple_impl.12" = type { %"struct.std::_Tuple_impl.13", %"struct.std::_Head_base.15" }
%"struct.std::_Tuple_impl.13" = type { %"struct.std::_Head_base.14" }
%"struct.std::_Head_base.14" = type { %"class.readers_writers::Reader"* }
%"struct.std::_Head_base.15" = type { %"struct.std::_Mem_fn.16" }
%"struct.std::_Mem_fn.16" = type { %"class.std::_Mem_fn_base.17" }
%"class.std::_Mem_fn_base.17" = type { { i64, i64 } }
%"struct.std::thread::_State_impl.20" = type { %"struct.std::thread::_State", %"struct.std::_Bind_simple.10" }
%"struct.std::_Maybe_unary_or_binary_function.18" = type { i8 }
%"class.std::_Sp_counted_ptr" = type { %"class.std::_Sp_counted_base", %"class.readers_writers::Writer"* }
%"class.std::_Mutex_base" = type { i8 }
%"class.std::type_info" = type { i32 (...)**, i8* }
%"class.__gnu_cxx::new_allocator" = type { i8 }
%"class.std::_Sp_counted_ptr.21" = type { %"class.std::_Sp_counted_base", %"class.readers_writers::Reader"* }
%"class.std::move_iterator" = type { %"class.std::shared_ptr.0"* }

$_ZN5boost6none_tC2ENS0_8init_tagE = comdat any

$_ZN5boost6detail35make_property_map_from_arg_pack_genINS_5graph8keywords3tag9color_mapENS_18default_color_typeEEC2ES6_ = comdat any

$_ZN15readers_writers6Writer11getThreadIdEv = comdat any

$_ZNK9IrsThread6getTidEv = comdat any

$_ZN15readers_writers6Reader11getThreadIdEv = comdat any

$_ZN15readers_writers6WriterC2Ei = comdat any

$_ZNSt10shared_ptrIN15readers_writers6WriterEEC2IS1_EEPT_ = comdat any

$_ZNSt6vectorISt10shared_ptrIN15readers_writers6ReaderEESaIS3_EEC2Ev = comdat any

$_ZNSt6vectorISt10shared_ptrIN15readers_writers6ReaderEESaIS3_EE12emplace_backIJS3_EEEvDpOT_ = comdat any

$_ZN15readers_writers6ReaderC2Ei = comdat any

$_ZNSt10shared_ptrIN15readers_writers6ReaderEEC2IS1_EEPT_ = comdat any

$_ZNSt10shared_ptrIN15readers_writers6ReaderEED2Ev = comdat any

$_ZNKSt12__shared_ptrIN15readers_writers6WriterELN9__gnu_cxx12_Lock_policyE2EEptEv = comdat any

$_ZN15readers_writers6Writer5startEv = comdat any

$_ZNSt6vectorISt10shared_ptrIN15readers_writers6ReaderEESaIS3_EE5beginEv = comdat any

$_ZNSt6vectorISt10shared_ptrIN15readers_writers6ReaderEESaIS3_EE3endEv = comdat any

$_ZN9__gnu_cxxneIPSt10shared_ptrIN15readers_writers6ReaderEESt6vectorIS4_SaIS4_EEEEbRKNS_17__normal_iteratorIT_T0_EESE_ = comdat any

$_ZNK9__gnu_cxx17__normal_iteratorIPSt10shared_ptrIN15readers_writers6ReaderEESt6vectorIS4_SaIS4_EEEdeEv = comdat any

$_ZNKSt12__shared_ptrIN15readers_writers6ReaderELN9__gnu_cxx12_Lock_policyE2EEptEv = comdat any

$_ZN15readers_writers6Reader5startEv = comdat any

$_ZN9__gnu_cxx17__normal_iteratorIPSt10shared_ptrIN15readers_writers6ReaderEESt6vectorIS4_SaIS4_EEEppEv = comdat any

$_ZN15readers_writers6Writer4joinEv = comdat any

$_ZN15readers_writers6Reader4joinEv = comdat any

$_ZNSt6chrono13duration_castINS_8durationIlSt5ratioILl1ELl1000000EEEElS2_ILl1ELl1000000000EEEENSt9enable_ifIXsr13__is_durationIT_EE5valueES7_E4typeERKNS1_IT0_T1_EE = comdat any

$_ZNSt6chronomiINS_3_V212system_clockENS_8durationIlSt5ratioILl1ELl1000000000EEEES6_EENSt11common_typeIJT0_T1_EE4typeERKNS_10time_pointIT_S8_EERKNSC_ISD_S9_EE = comdat any

$_ZNKSt6chrono8durationIlSt5ratioILl1ELl1000000EEE5countEv = comdat any

$_ZNSt6vectorISt10shared_ptrIN15readers_writers6ReaderEESaIS3_EED2Ev = comdat any

$_ZNSt10shared_ptrIN15readers_writers6WriterEED2Ev = comdat any

$_ZN9IrsThreadC2Ei = comdat any

$_ZNSt6threadC2Ev = comdat any

$_ZNSt6thread2idC2Ev = comdat any

$_ZNSt12__shared_ptrIN15readers_writers6ReaderELN9__gnu_cxx12_Lock_policyE2EED2Ev = comdat any

$_ZNSt14__shared_countILN9__gnu_cxx12_Lock_policyE2EED2Ev = comdat any

$_ZNSt16_Sp_counted_baseILN9__gnu_cxx12_Lock_policyE2EE10_M_releaseEv = comdat any

$__clang_call_terminate = comdat any

$_ZN9IrsThreadclIJMN15readers_writers6WriterEFvvEPS2_EEEvDpOT_ = comdat any

$_ZN15readers_writers6Writer4execEv = comdat any

$_ZNSt6threadaSEOS_ = comdat any

$_ZSt7forwardIMN15readers_writers6WriterEFvvEEOT_RNSt16remove_referenceIS4_E4typeE = comdat any

$_ZSt7forwardIPN15readers_writers6WriterEEOT_RNSt16remove_referenceIS3_E4typeE = comdat any

$_ZNSt6threadC2IMN15readers_writers6WriterEFvvEJPS2_EEEOT_DpOT0_ = comdat any

$_ZNSt6threadD2Ev = comdat any

$_ZNKSt6thread8joinableEv = comdat any

$_ZNSt6thread4swapERS_ = comdat any

$_ZSteqNSt6thread2idES0_ = comdat any

$_ZSt4swapINSt6thread2idEENSt9enable_ifIXsr6__and_ISt21is_move_constructibleIT_ESt18is_move_assignableIS4_EEE5valueEvE4typeERS4_SA_ = comdat any

$_ZSt4moveIRNSt6thread2idEEONSt16remove_referenceIT_E4typeEOS4_ = comdat any

$_ZNSt6thread13_S_make_stateISt12_Bind_simpleIFSt7_Mem_fnIMN15readers_writers6WriterEFvvEEPS4_EEEESt10unique_ptrINS_6_StateESt14default_deleteISC_EEOT_ = comdat any

$_ZSt13__bind_simpleIMN15readers_writers6WriterEFvvEJPS1_EENSt19_Bind_simple_helperIT_JDpT0_EE6__typeEOS6_DpOS7_ = comdat any

$_ZNSt10unique_ptrINSt6thread6_StateESt14default_deleteIS1_EED2Ev = comdat any

$_ZSt7forwardISt12_Bind_simpleIFSt7_Mem_fnIMN15readers_writers6WriterEFvvEEPS3_EEEOT_RNSt16remove_referenceISA_E4typeE = comdat any

$_ZNSt6thread11_State_implISt12_Bind_simpleIFSt7_Mem_fnIMN15readers_writers6WriterEFvvEEPS4_EEEC2EOSA_ = comdat any

$_ZNSt10unique_ptrINSt6thread6_StateESt14default_deleteIS1_EEC2EPS1_ = comdat any

$_ZNSt6thread6_StateC2Ev = comdat any

$_ZNSt12_Bind_simpleIFSt7_Mem_fnIMN15readers_writers6WriterEFvvEEPS2_EEC2EOS8_ = comdat any

$_ZNSt6thread11_State_implISt12_Bind_simpleIFSt7_Mem_fnIMN15readers_writers6WriterEFvvEEPS4_EEED2Ev = comdat any

$_ZNSt6thread11_State_implISt12_Bind_simpleIFSt7_Mem_fnIMN15readers_writers6WriterEFvvEEPS4_EEED0Ev = comdat any

$_ZNSt6thread11_State_implISt12_Bind_simpleIFSt7_Mem_fnIMN15readers_writers6WriterEFvvEEPS4_EEE6_M_runEv = comdat any

$_ZNSt5tupleIJSt7_Mem_fnIMN15readers_writers6WriterEFvvEEPS2_EEC2EOS7_ = comdat any

$_ZNSt11_Tuple_implILm0EJSt7_Mem_fnIMN15readers_writers6WriterEFvvEEPS2_EEC2EOS7_ = comdat any

$_ZSt4moveIRSt11_Tuple_implILm1EJPN15readers_writers6WriterEEEEONSt16remove_referenceIT_E4typeEOS7_ = comdat any

$_ZNSt11_Tuple_implILm0EJSt7_Mem_fnIMN15readers_writers6WriterEFvvEEPS2_EE7_M_tailERS7_ = comdat any

$_ZNSt11_Tuple_implILm1EJPN15readers_writers6WriterEEEC2EOS3_ = comdat any

$_ZSt7forwardISt7_Mem_fnIMN15readers_writers6WriterEFvvEEEOT_RNSt16remove_referenceIS6_E4typeE = comdat any

$_ZNSt11_Tuple_implILm0EJSt7_Mem_fnIMN15readers_writers6WriterEFvvEEPS2_EE7_M_headERS7_ = comdat any

$_ZNSt10_Head_baseILm0ESt7_Mem_fnIMN15readers_writers6WriterEFvvEELb0EEC2IS5_EEOT_ = comdat any

$_ZNSt11_Tuple_implILm1EJPN15readers_writers6WriterEEE7_M_headERS3_ = comdat any

$_ZNSt10_Head_baseILm1EPN15readers_writers6WriterELb0EEC2IS2_EEOT_ = comdat any

$_ZNSt10_Head_baseILm1EPN15readers_writers6WriterELb0EE7_M_headERS3_ = comdat any

$_ZNSt10_Head_baseILm0ESt7_Mem_fnIMN15readers_writers6WriterEFvvEELb0EE7_M_headERS6_ = comdat any

$_ZNSt12_Bind_simpleIFSt7_Mem_fnIMN15readers_writers6WriterEFvvEEPS2_EEclEv = comdat any

$_ZNSt12_Bind_simpleIFSt7_Mem_fnIMN15readers_writers6WriterEFvvEEPS2_EE9_M_invokeIJLm0EEEEvSt12_Index_tupleIJXspT_EEE = comdat any

$_ZSt3getILm0EJSt7_Mem_fnIMN15readers_writers6WriterEFvvEEPS2_EERNSt13tuple_elementIXT_ESt5tupleIJDpT0_EEE4typeERSB_ = comdat any

$_ZNKSt12_Mem_fn_baseIMN15readers_writers6WriterEFvvELb1EEclIJPS1_EEEDTclsr3stdE8__invokedtdefpT6_M_pmfspclsr3stdE7forwardIT_Efp_EEEDpOS7_ = comdat any

$_ZSt3getILm1EJSt7_Mem_fnIMN15readers_writers6WriterEFvvEEPS2_EERNSt13tuple_elementIXT_ESt5tupleIJDpT0_EEE4typeERSB_ = comdat any

$_ZSt12__get_helperILm0ESt7_Mem_fnIMN15readers_writers6WriterEFvvEEJPS2_EERT0_RSt11_Tuple_implIXT_EJS7_DpT1_EE = comdat any

$_ZSt8__invokeIRKMN15readers_writers6WriterEFvvEJPS1_EENSt9result_ofIFOT_DpOT0_EE4typeES9_SC_ = comdat any

$_ZSt13__invoke_implIvRKMN15readers_writers6WriterEFvvEPS1_JEET_St21__invoke_memfun_derefOT0_OT1_DpOT2_ = comdat any

$_ZSt7forwardIRKMN15readers_writers6WriterEFvvEEOT_RNSt16remove_referenceIS6_E4typeE = comdat any

$_ZSt12__get_helperILm1EPN15readers_writers6WriterEJEERT0_RSt11_Tuple_implIXT_EJS3_DpT1_EE = comdat any

$_ZNSt5tupleIJPNSt6thread6_StateESt14default_deleteIS1_EEEC2IS2_S4_Lb1EEEv = comdat any

$_ZSt3getILm0EJPNSt6thread6_StateESt14default_deleteIS1_EEERNSt13tuple_elementIXT_ESt5tupleIJDpT0_EEE4typeERS9_ = comdat any

$_ZNSt11_Tuple_implILm0EJPNSt6thread6_StateESt14default_deleteIS1_EEEC2Ev = comdat any

$_ZNSt11_Tuple_implILm1EJSt14default_deleteINSt6thread6_StateEEEEC2Ev = comdat any

$_ZNSt10_Head_baseILm0EPNSt6thread6_StateELb0EEC2Ev = comdat any

$_ZNSt10_Head_baseILm1ESt14default_deleteINSt6thread6_StateEELb1EEC2Ev = comdat any

$_ZSt12__get_helperILm0EPNSt6thread6_StateEJSt14default_deleteIS1_EEERT0_RSt11_Tuple_implIXT_EJS5_DpT1_EE = comdat any

$_ZNSt11_Tuple_implILm0EJPNSt6thread6_StateESt14default_deleteIS1_EEE7_M_headERS5_ = comdat any

$_ZNSt10_Head_baseILm0EPNSt6thread6_StateELb0EE7_M_headERS3_ = comdat any

$_ZNSt26_Maybe_wrap_member_pointerIMN15readers_writers6WriterEFvvEE9__do_wrapES3_ = comdat any

$_ZNSt12_Bind_simpleIFSt7_Mem_fnIMN15readers_writers6WriterEFvvEEPS2_EEC2IS5_JS6_EEEOT_DpOT0_ = comdat any

$_ZNSt7_Mem_fnIMN15readers_writers6WriterEFvvEECI2St12_Mem_fn_baseIS3_Lb1EEES3_ = comdat any

$_ZNSt12_Mem_fn_baseIMN15readers_writers6WriterEFvvELb1EEC2ES3_ = comdat any

$_ZNSt5tupleIJSt7_Mem_fnIMN15readers_writers6WriterEFvvEEPS2_EEC2IS5_S6_Lb1EEEOT_OT0_ = comdat any

$_ZNSt11_Tuple_implILm0EJSt7_Mem_fnIMN15readers_writers6WriterEFvvEEPS2_EEC2IS5_JS6_EvEEOT_DpOT0_ = comdat any

$_ZNSt11_Tuple_implILm1EJPN15readers_writers6WriterEEEC2IS2_EEOT_ = comdat any

$_ZNSt10unique_ptrINSt6thread6_StateESt14default_deleteIS1_EE11get_deleterEv = comdat any

$_ZNKSt14default_deleteINSt6thread6_StateEEclEPS1_ = comdat any

$_ZSt3getILm1EJPNSt6thread6_StateESt14default_deleteIS1_EEERNSt13tuple_elementIXT_ESt5tupleIJDpT0_EEE4typeERS9_ = comdat any

$_ZSt12__get_helperILm1ESt14default_deleteINSt6thread6_StateEEJEERT0_RSt11_Tuple_implIXT_EJS4_DpT1_EE = comdat any

$_ZNSt11_Tuple_implILm1EJSt14default_deleteINSt6thread6_StateEEEE7_M_headERS4_ = comdat any

$_ZNSt10_Head_baseILm1ESt14default_deleteINSt6thread6_StateEELb1EE7_M_headERS4_ = comdat any

$_ZN9IrsThreadclIJMN15readers_writers6ReaderEFvvEPS2_EEEvDpOT_ = comdat any

$_ZN15readers_writers6Reader4execEv = comdat any

$_ZSt7forwardIMN15readers_writers6ReaderEFvvEEOT_RNSt16remove_referenceIS4_E4typeE = comdat any

$_ZSt7forwardIPN15readers_writers6ReaderEEOT_RNSt16remove_referenceIS3_E4typeE = comdat any

$_ZNSt6threadC2IMN15readers_writers6ReaderEFvvEJPS2_EEEOT_DpOT0_ = comdat any

$_ZNSt6thread13_S_make_stateISt12_Bind_simpleIFSt7_Mem_fnIMN15readers_writers6ReaderEFvvEEPS4_EEEESt10unique_ptrINS_6_StateESt14default_deleteISC_EEOT_ = comdat any

$_ZSt13__bind_simpleIMN15readers_writers6ReaderEFvvEJPS1_EENSt19_Bind_simple_helperIT_JDpT0_EE6__typeEOS6_DpOS7_ = comdat any

$_ZSt7forwardISt12_Bind_simpleIFSt7_Mem_fnIMN15readers_writers6ReaderEFvvEEPS3_EEEOT_RNSt16remove_referenceISA_E4typeE = comdat any

$_ZNSt6thread11_State_implISt12_Bind_simpleIFSt7_Mem_fnIMN15readers_writers6ReaderEFvvEEPS4_EEEC2EOSA_ = comdat any

$_ZNSt12_Bind_simpleIFSt7_Mem_fnIMN15readers_writers6ReaderEFvvEEPS2_EEC2EOS8_ = comdat any

$_ZNSt6thread11_State_implISt12_Bind_simpleIFSt7_Mem_fnIMN15readers_writers6ReaderEFvvEEPS4_EEED2Ev = comdat any

$_ZNSt6thread11_State_implISt12_Bind_simpleIFSt7_Mem_fnIMN15readers_writers6ReaderEFvvEEPS4_EEED0Ev = comdat any

$_ZNSt6thread11_State_implISt12_Bind_simpleIFSt7_Mem_fnIMN15readers_writers6ReaderEFvvEEPS4_EEE6_M_runEv = comdat any

$_ZNSt5tupleIJSt7_Mem_fnIMN15readers_writers6ReaderEFvvEEPS2_EEC2EOS7_ = comdat any

$_ZNSt11_Tuple_implILm0EJSt7_Mem_fnIMN15readers_writers6ReaderEFvvEEPS2_EEC2EOS7_ = comdat any

$_ZSt4moveIRSt11_Tuple_implILm1EJPN15readers_writers6ReaderEEEEONSt16remove_referenceIT_E4typeEOS7_ = comdat any

$_ZNSt11_Tuple_implILm0EJSt7_Mem_fnIMN15readers_writers6ReaderEFvvEEPS2_EE7_M_tailERS7_ = comdat any

$_ZNSt11_Tuple_implILm1EJPN15readers_writers6ReaderEEEC2EOS3_ = comdat any

$_ZSt7forwardISt7_Mem_fnIMN15readers_writers6ReaderEFvvEEEOT_RNSt16remove_referenceIS6_E4typeE = comdat any

$_ZNSt11_Tuple_implILm0EJSt7_Mem_fnIMN15readers_writers6ReaderEFvvEEPS2_EE7_M_headERS7_ = comdat any

$_ZNSt10_Head_baseILm0ESt7_Mem_fnIMN15readers_writers6ReaderEFvvEELb0EEC2IS5_EEOT_ = comdat any

$_ZNSt11_Tuple_implILm1EJPN15readers_writers6ReaderEEE7_M_headERS3_ = comdat any

$_ZNSt10_Head_baseILm1EPN15readers_writers6ReaderELb0EEC2IS2_EEOT_ = comdat any

$_ZNSt10_Head_baseILm1EPN15readers_writers6ReaderELb0EE7_M_headERS3_ = comdat any

$_ZNSt10_Head_baseILm0ESt7_Mem_fnIMN15readers_writers6ReaderEFvvEELb0EE7_M_headERS6_ = comdat any

$_ZNSt12_Bind_simpleIFSt7_Mem_fnIMN15readers_writers6ReaderEFvvEEPS2_EEclEv = comdat any

$_ZNSt12_Bind_simpleIFSt7_Mem_fnIMN15readers_writers6ReaderEFvvEEPS2_EE9_M_invokeIJLm0EEEEvSt12_Index_tupleIJXspT_EEE = comdat any

$_ZSt3getILm0EJSt7_Mem_fnIMN15readers_writers6ReaderEFvvEEPS2_EERNSt13tuple_elementIXT_ESt5tupleIJDpT0_EEE4typeERSB_ = comdat any

$_ZNKSt12_Mem_fn_baseIMN15readers_writers6ReaderEFvvELb1EEclIJPS1_EEEDTclsr3stdE8__invokedtdefpT6_M_pmfspclsr3stdE7forwardIT_Efp_EEEDpOS7_ = comdat any

$_ZSt3getILm1EJSt7_Mem_fnIMN15readers_writers6ReaderEFvvEEPS2_EERNSt13tuple_elementIXT_ESt5tupleIJDpT0_EEE4typeERSB_ = comdat any

$_ZSt12__get_helperILm0ESt7_Mem_fnIMN15readers_writers6ReaderEFvvEEJPS2_EERT0_RSt11_Tuple_implIXT_EJS7_DpT1_EE = comdat any

$_ZSt8__invokeIRKMN15readers_writers6ReaderEFvvEJPS1_EENSt9result_ofIFOT_DpOT0_EE4typeES9_SC_ = comdat any

$_ZSt13__invoke_implIvRKMN15readers_writers6ReaderEFvvEPS1_JEET_St21__invoke_memfun_derefOT0_OT1_DpOT2_ = comdat any

$_ZSt7forwardIRKMN15readers_writers6ReaderEFvvEEOT_RNSt16remove_referenceIS6_E4typeE = comdat any

$_ZSt12__get_helperILm1EPN15readers_writers6ReaderEJEERT0_RSt11_Tuple_implIXT_EJS3_DpT1_EE = comdat any

$_ZNSt26_Maybe_wrap_member_pointerIMN15readers_writers6ReaderEFvvEE9__do_wrapES3_ = comdat any

$_ZNSt12_Bind_simpleIFSt7_Mem_fnIMN15readers_writers6ReaderEFvvEEPS2_EEC2IS5_JS6_EEEOT_DpOT0_ = comdat any

$_ZNSt7_Mem_fnIMN15readers_writers6ReaderEFvvEECI2St12_Mem_fn_baseIS3_Lb1EEES3_ = comdat any

$_ZNSt12_Mem_fn_baseIMN15readers_writers6ReaderEFvvELb1EEC2ES3_ = comdat any

$_ZNSt5tupleIJSt7_Mem_fnIMN15readers_writers6ReaderEFvvEEPS2_EEC2IS5_S6_Lb1EEEOT_OT0_ = comdat any

$_ZNSt11_Tuple_implILm0EJSt7_Mem_fnIMN15readers_writers6ReaderEFvvEEPS2_EEC2IS5_JS6_EvEEOT_DpOT0_ = comdat any

$_ZNSt11_Tuple_implILm1EJPN15readers_writers6ReaderEEEC2IS2_EEOT_ = comdat any

$_ZN9IrsThread4joinEv = comdat any

$_ZNSt6chrono20__duration_cast_implINS_8durationIlSt5ratioILl1ELl1000000EEEES2_ILl1ELl1000EElLb1ELb0EE6__castIlS2_ILl1ELl1000000000EEEES4_RKNS1_IT_T0_EE = comdat any

$_ZNKSt6chrono8durationIlSt5ratioILl1ELl1000000000EEE5countEv = comdat any

$_ZNSt6chrono8durationIlSt5ratioILl1ELl1000000EEEC2IlvEERKT_ = comdat any

$_ZNSt6chronomiIlSt5ratioILl1ELl1000000000EElS2_EENSt11common_typeIJNS_8durationIT_T0_EENS4_IT1_T2_EEEE4typeERKS7_RKSA_ = comdat any

$_ZNKSt6chrono10time_pointINS_3_V212system_clockENS_8durationIlSt5ratioILl1ELl1000000000EEEEE16time_since_epochEv = comdat any

$_ZNSt6chrono8durationIlSt5ratioILl1ELl1000000000EEEC2IlvEERKT_ = comdat any

$_ZNSt12__shared_ptrIN15readers_writers6WriterELN9__gnu_cxx12_Lock_policyE2EED2Ev = comdat any

$_ZNSt12__shared_ptrIN15readers_writers6WriterELN9__gnu_cxx12_Lock_policyE2EEC2IS1_EEPT_ = comdat any

$_ZNSt14__shared_countILN9__gnu_cxx12_Lock_policyE2EEC2IPN15readers_writers6WriterEEET_ = comdat any

$_ZSt32__enable_shared_from_this_helperILN9__gnu_cxx12_Lock_policyE2EEvRKSt14__shared_countIXT_EEz = comdat any

$_ZNSt15_Sp_counted_ptrIPN15readers_writers6WriterELN9__gnu_cxx12_Lock_policyE2EEC2ES2_ = comdat any

$_ZN15readers_writers6WriterD2Ev = comdat any

$_ZNSt16_Sp_counted_baseILN9__gnu_cxx12_Lock_policyE2EEC2Ev = comdat any

$_ZNSt15_Sp_counted_ptrIPN15readers_writers6WriterELN9__gnu_cxx12_Lock_policyE2EED2Ev = comdat any

$_ZNSt15_Sp_counted_ptrIPN15readers_writers6WriterELN9__gnu_cxx12_Lock_policyE2EED0Ev = comdat any

$_ZNSt15_Sp_counted_ptrIPN15readers_writers6WriterELN9__gnu_cxx12_Lock_policyE2EE10_M_disposeEv = comdat any

$_ZNSt15_Sp_counted_ptrIPN15readers_writers6WriterELN9__gnu_cxx12_Lock_policyE2EE10_M_destroyEv = comdat any

$_ZNSt15_Sp_counted_ptrIPN15readers_writers6WriterELN9__gnu_cxx12_Lock_policyE2EE14_M_get_deleterERKSt9type_info = comdat any

$_ZNSt16_Sp_counted_baseILN9__gnu_cxx12_Lock_policyE2EED2Ev = comdat any

$_ZNSt16_Sp_counted_baseILN9__gnu_cxx12_Lock_policyE2EED0Ev = comdat any

$_ZNSt16_Sp_counted_baseILN9__gnu_cxx12_Lock_policyE2EE10_M_destroyEv = comdat any

$_ZN9IrsThreadD2Ev = comdat any

$_ZNSt12_Vector_baseISt10shared_ptrIN15readers_writers6ReaderEESaIS3_EEC2Ev = comdat any

$_ZNSt12_Vector_baseISt10shared_ptrIN15readers_writers6ReaderEESaIS3_EE12_Vector_implC2Ev = comdat any

$_ZNSaISt10shared_ptrIN15readers_writers6ReaderEEEC2Ev = comdat any

$_ZN9__gnu_cxx13new_allocatorISt10shared_ptrIN15readers_writers6ReaderEEEC2Ev = comdat any

$_ZSt8_DestroyIPSt10shared_ptrIN15readers_writers6ReaderEES3_EvT_S5_RSaIT0_E = comdat any

$_ZNSt12_Vector_baseISt10shared_ptrIN15readers_writers6ReaderEESaIS3_EE19_M_get_Tp_allocatorEv = comdat any

$_ZNSt12_Vector_baseISt10shared_ptrIN15readers_writers6ReaderEESaIS3_EED2Ev = comdat any

$_ZSt8_DestroyIPSt10shared_ptrIN15readers_writers6ReaderEEEvT_S5_ = comdat any

$_ZNSt12_Destroy_auxILb0EE9__destroyIPSt10shared_ptrIN15readers_writers6ReaderEEEEvT_S7_ = comdat any

$_ZSt8_DestroyISt10shared_ptrIN15readers_writers6ReaderEEEvPT_ = comdat any

$_ZSt11__addressofISt10shared_ptrIN15readers_writers6ReaderEEEPT_RS4_ = comdat any

$_ZNSt12_Vector_baseISt10shared_ptrIN15readers_writers6ReaderEESaIS3_EE13_M_deallocateEPS3_m = comdat any

$_ZNSt12_Vector_baseISt10shared_ptrIN15readers_writers6ReaderEESaIS3_EE12_Vector_implD2Ev = comdat any

$_ZNSt16allocator_traitsISaISt10shared_ptrIN15readers_writers6ReaderEEEE10deallocateERS4_PS3_m = comdat any

$_ZN9__gnu_cxx13new_allocatorISt10shared_ptrIN15readers_writers6ReaderEEE10deallocateEPS4_m = comdat any

$_ZNSaISt10shared_ptrIN15readers_writers6ReaderEEED2Ev = comdat any

$_ZN9__gnu_cxx13new_allocatorISt10shared_ptrIN15readers_writers6ReaderEEED2Ev = comdat any

$_ZNSt12__shared_ptrIN15readers_writers6ReaderELN9__gnu_cxx12_Lock_policyE2EEC2IS1_EEPT_ = comdat any

$_ZNSt14__shared_countILN9__gnu_cxx12_Lock_policyE2EEC2IPN15readers_writers6ReaderEEET_ = comdat any

$_ZNSt15_Sp_counted_ptrIPN15readers_writers6ReaderELN9__gnu_cxx12_Lock_policyE2EEC2ES2_ = comdat any

$_ZN15readers_writers6ReaderD2Ev = comdat any

$_ZNSt15_Sp_counted_ptrIPN15readers_writers6ReaderELN9__gnu_cxx12_Lock_policyE2EED2Ev = comdat any

$_ZNSt15_Sp_counted_ptrIPN15readers_writers6ReaderELN9__gnu_cxx12_Lock_policyE2EED0Ev = comdat any

$_ZNSt15_Sp_counted_ptrIPN15readers_writers6ReaderELN9__gnu_cxx12_Lock_policyE2EE10_M_disposeEv = comdat any

$_ZNSt15_Sp_counted_ptrIPN15readers_writers6ReaderELN9__gnu_cxx12_Lock_policyE2EE10_M_destroyEv = comdat any

$_ZNSt15_Sp_counted_ptrIPN15readers_writers6ReaderELN9__gnu_cxx12_Lock_policyE2EE14_M_get_deleterERKSt9type_info = comdat any

$_ZNSt16allocator_traitsISaISt10shared_ptrIN15readers_writers6ReaderEEEE9constructIS3_JS3_EEEvRS4_PT_DpOT0_ = comdat any

$_ZSt7forwardISt10shared_ptrIN15readers_writers6ReaderEEEOT_RNSt16remove_referenceIS4_E4typeE = comdat any

$_ZNSt6vectorISt10shared_ptrIN15readers_writers6ReaderEESaIS3_EE19_M_emplace_back_auxIJS3_EEEvDpOT_ = comdat any

$_ZN9__gnu_cxx13new_allocatorISt10shared_ptrIN15readers_writers6ReaderEEE9constructIS4_JS4_EEEvPT_DpOT0_ = comdat any

$_ZNSt10shared_ptrIN15readers_writers6ReaderEEC2EOS2_ = comdat any

$_ZSt4moveIRSt10shared_ptrIN15readers_writers6ReaderEEEONSt16remove_referenceIT_E4typeEOS6_ = comdat any

$_ZNSt12__shared_ptrIN15readers_writers6ReaderELN9__gnu_cxx12_Lock_policyE2EEC2EOS4_ = comdat any

$_ZNSt14__shared_countILN9__gnu_cxx12_Lock_policyE2EEC2Ev = comdat any

$_ZNSt14__shared_countILN9__gnu_cxx12_Lock_policyE2EE7_M_swapERS2_ = comdat any

$_ZNKSt6vectorISt10shared_ptrIN15readers_writers6ReaderEESaIS3_EE12_M_check_lenEmPKc = comdat any

$_ZNSt12_Vector_baseISt10shared_ptrIN15readers_writers6ReaderEESaIS3_EE11_M_allocateEm = comdat any

$_ZNKSt6vectorISt10shared_ptrIN15readers_writers6ReaderEESaIS3_EE4sizeEv = comdat any

$_ZSt34__uninitialized_move_if_noexcept_aIPSt10shared_ptrIN15readers_writers6ReaderEES4_SaIS3_EET0_T_S7_S6_RT1_ = comdat any

$_ZNSt16allocator_traitsISaISt10shared_ptrIN15readers_writers6ReaderEEEE7destroyIS3_EEvRS4_PT_ = comdat any

$_ZNKSt6vectorISt10shared_ptrIN15readers_writers6ReaderEESaIS3_EE8max_sizeEv = comdat any

$_ZSt3maxImERKT_S2_S2_ = comdat any

$_ZNSt16allocator_traitsISaISt10shared_ptrIN15readers_writers6ReaderEEEE8max_sizeERKS4_ = comdat any

$_ZNKSt12_Vector_baseISt10shared_ptrIN15readers_writers6ReaderEESaIS3_EE19_M_get_Tp_allocatorEv = comdat any

$_ZNK9__gnu_cxx13new_allocatorISt10shared_ptrIN15readers_writers6ReaderEEE8max_sizeEv = comdat any

$_ZNSt16allocator_traitsISaISt10shared_ptrIN15readers_writers6ReaderEEEE8allocateERS4_m = comdat any

$_ZN9__gnu_cxx13new_allocatorISt10shared_ptrIN15readers_writers6ReaderEEE8allocateEmPKv = comdat any

$_ZSt22__uninitialized_copy_aISt13move_iteratorIPSt10shared_ptrIN15readers_writers6ReaderEEES5_S4_ET0_T_S8_S7_RSaIT1_E = comdat any

$_ZSt32__make_move_if_noexcept_iteratorISt10shared_ptrIN15readers_writers6ReaderEESt13move_iteratorIPS3_EET0_PT_ = comdat any

$_ZSt18uninitialized_copyISt13move_iteratorIPSt10shared_ptrIN15readers_writers6ReaderEEES5_ET0_T_S8_S7_ = comdat any

$_ZNSt20__uninitialized_copyILb0EE13__uninit_copyISt13move_iteratorIPSt10shared_ptrIN15readers_writers6ReaderEEES7_EET0_T_SA_S9_ = comdat any

$_ZStneIPSt10shared_ptrIN15readers_writers6ReaderEEEbRKSt13move_iteratorIT_ES9_ = comdat any

$_ZSt10_ConstructISt10shared_ptrIN15readers_writers6ReaderEEJS3_EEvPT_DpOT0_ = comdat any

$_ZNKSt13move_iteratorIPSt10shared_ptrIN15readers_writers6ReaderEEEdeEv = comdat any

$_ZNSt13move_iteratorIPSt10shared_ptrIN15readers_writers6ReaderEEEppEv = comdat any

$_ZSteqIPSt10shared_ptrIN15readers_writers6ReaderEEEbRKSt13move_iteratorIT_ES9_ = comdat any

$_ZNKSt13move_iteratorIPSt10shared_ptrIN15readers_writers6ReaderEEE4baseEv = comdat any

$_ZNSt13move_iteratorIPSt10shared_ptrIN15readers_writers6ReaderEEEC2ES4_ = comdat any

$_ZN9__gnu_cxx13new_allocatorISt10shared_ptrIN15readers_writers6ReaderEEE7destroyIS4_EEvPT_ = comdat any

$_ZN9__gnu_cxx17__normal_iteratorIPSt10shared_ptrIN15readers_writers6ReaderEESt6vectorIS4_SaIS4_EEEC2ERKS5_ = comdat any

$_ZNK9__gnu_cxx17__normal_iteratorIPSt10shared_ptrIN15readers_writers6ReaderEESt6vectorIS4_SaIS4_EEE4baseEv = comdat any

$_ZTVNSt6thread11_State_implISt12_Bind_simpleIFSt7_Mem_fnIMN15readers_writers6WriterEFvvEEPS4_EEEE = comdat any

$_ZTSNSt6thread11_State_implISt12_Bind_simpleIFSt7_Mem_fnIMN15readers_writers6WriterEFvvEEPS4_EEEE = comdat any

$_ZTINSt6thread11_State_implISt12_Bind_simpleIFSt7_Mem_fnIMN15readers_writers6WriterEFvvEEPS4_EEEE = comdat any

$_ZTVNSt6thread11_State_implISt12_Bind_simpleIFSt7_Mem_fnIMN15readers_writers6ReaderEFvvEEPS4_EEEE = comdat any

$_ZTSNSt6thread11_State_implISt12_Bind_simpleIFSt7_Mem_fnIMN15readers_writers6ReaderEFvvEEPS4_EEEE = comdat any

$_ZTINSt6thread11_State_implISt12_Bind_simpleIFSt7_Mem_fnIMN15readers_writers6ReaderEFvvEEPS4_EEEE = comdat any

$_ZTVSt15_Sp_counted_ptrIPN15readers_writers6WriterELN9__gnu_cxx12_Lock_policyE2EE = comdat any

$_ZTSSt15_Sp_counted_ptrIPN15readers_writers6WriterELN9__gnu_cxx12_Lock_policyE2EE = comdat any

$_ZTSSt16_Sp_counted_baseILN9__gnu_cxx12_Lock_policyE2EE = comdat any

$_ZTSSt11_Mutex_baseILN9__gnu_cxx12_Lock_policyE2EE = comdat any

$_ZTISt11_Mutex_baseILN9__gnu_cxx12_Lock_policyE2EE = comdat any

$_ZTISt16_Sp_counted_baseILN9__gnu_cxx12_Lock_policyE2EE = comdat any

$_ZTISt15_Sp_counted_ptrIPN15readers_writers6WriterELN9__gnu_cxx12_Lock_policyE2EE = comdat any

$_ZTVSt16_Sp_counted_baseILN9__gnu_cxx12_Lock_policyE2EE = comdat any

$_ZTVSt15_Sp_counted_ptrIPN15readers_writers6ReaderELN9__gnu_cxx12_Lock_policyE2EE = comdat any

$_ZTSSt15_Sp_counted_ptrIPN15readers_writers6ReaderELN9__gnu_cxx12_Lock_policyE2EE = comdat any

$_ZTISt15_Sp_counted_ptrIPN15readers_writers6ReaderELN9__gnu_cxx12_Lock_policyE2EE = comdat any

@_ZStL8__ioinit = internal global %"class.std::ios_base::Init" zeroinitializer, align 1
@__dso_handle = external global i8
@_ZN5boostL4noneE = internal global %"struct.boost::none_t" zeroinitializer, align 1
@_ZN5boost6detailL28make_color_map_from_arg_packE = internal global %"class.boost::detail::make_property_map_from_arg_pack_gen" zeroinitializer, align 4
@.str = private unnamed_addr constant [15 x i8] c"after_callback\00", section "llvm.metadata"
@.str.3 = private unnamed_addr constant [130 x i8] c"/home/sreeram/Dev/mastersthesis/userspace_implementation_thesis_ver/MemoryCheck/src/Benchmark/../../include/Benchmark/benchmark.h\00", section "llvm.metadata"
@.str.4 = private unnamed_addr constant [16 x i8] c"before_callback\00", section "llvm.metadata"
@_ZN15readers_writers11threadCountE = global i32 0, align 4
@_ZN15readers_writers12THREAD_COUNTE = constant i32 4, align 4
@_ZN15readers_writers7gSharedE = global i32 0, align 4
@.str.5 = private unnamed_addr constant [5 x i8] c"gvar\00", section "llvm.metadata"
@.str.6 = private unnamed_addr constant [114 x i8] c"/home/sreeram/Dev/mastersthesis/userspace_implementation_thesis_ver/MemoryCheck/src/Benchmark/readers_writers.cpp\00", section "llvm.metadata"
@_ZSt4cout = external global %"class.std::basic_ostream", align 8
@.str.7 = private unnamed_addr constant [5 x i8] c"ignr\00", section "llvm.metadata"
@_ZZL18__gthread_active_pvE20__gthread_active_ptr = internal constant i8* bitcast (i32 (i32*, void (i8*)*)* @__pthread_key_create to i8*), align 8
@_ZTVNSt6thread11_State_implISt12_Bind_simpleIFSt7_Mem_fnIMN15readers_writers6WriterEFvvEEPS4_EEEE = linkonce_odr unnamed_addr constant [5 x i8*] [i8* null, i8* bitcast ({ i8*, i8*, i8* }* @_ZTINSt6thread11_State_implISt12_Bind_simpleIFSt7_Mem_fnIMN15readers_writers6WriterEFvvEEPS4_EEEE to i8*), i8* bitcast (void (%"struct.std::thread::_State_impl"*)* @_ZNSt6thread11_State_implISt12_Bind_simpleIFSt7_Mem_fnIMN15readers_writers6WriterEFvvEEPS4_EEED2Ev to i8*), i8* bitcast (void (%"struct.std::thread::_State_impl"*)* @_ZNSt6thread11_State_implISt12_Bind_simpleIFSt7_Mem_fnIMN15readers_writers6WriterEFvvEEPS4_EEED0Ev to i8*), i8* bitcast (void (%"struct.std::thread::_State_impl"*)* @_ZNSt6thread11_State_implISt12_Bind_simpleIFSt7_Mem_fnIMN15readers_writers6WriterEFvvEEPS4_EEE6_M_runEv to i8*)], comdat, align 8
@_ZTVN10__cxxabiv120__si_class_type_infoE = external global i8*
@_ZTSNSt6thread11_State_implISt12_Bind_simpleIFSt7_Mem_fnIMN15readers_writers6WriterEFvvEEPS4_EEEE = linkonce_odr constant [94 x i8] c"NSt6thread11_State_implISt12_Bind_simpleIFSt7_Mem_fnIMN15readers_writers6WriterEFvvEEPS4_EEEE\00", comdat
@_ZTINSt6thread6_StateE = external constant i8*
@_ZTINSt6thread11_State_implISt12_Bind_simpleIFSt7_Mem_fnIMN15readers_writers6WriterEFvvEEPS4_EEEE = linkonce_odr constant { i8*, i8*, i8* } { i8* bitcast (i8** getelementptr inbounds (i8*, i8** @_ZTVN10__cxxabiv120__si_class_type_infoE, i64 2) to i8*), i8* getelementptr inbounds ([94 x i8], [94 x i8]* @_ZTSNSt6thread11_State_implISt12_Bind_simpleIFSt7_Mem_fnIMN15readers_writers6WriterEFvvEEPS4_EEEE, i32 0, i32 0), i8* bitcast (i8** @_ZTINSt6thread6_StateE to i8*) }, comdat
@_ZTVNSt6thread6_StateE = external unnamed_addr constant [5 x i8*]
@_ZTVNSt6thread11_State_implISt12_Bind_simpleIFSt7_Mem_fnIMN15readers_writers6ReaderEFvvEEPS4_EEEE = linkonce_odr unnamed_addr constant [5 x i8*] [i8* null, i8* bitcast ({ i8*, i8*, i8* }* @_ZTINSt6thread11_State_implISt12_Bind_simpleIFSt7_Mem_fnIMN15readers_writers6ReaderEFvvEEPS4_EEEE to i8*), i8* bitcast (void (%"struct.std::thread::_State_impl.20"*)* @_ZNSt6thread11_State_implISt12_Bind_simpleIFSt7_Mem_fnIMN15readers_writers6ReaderEFvvEEPS4_EEED2Ev to i8*), i8* bitcast (void (%"struct.std::thread::_State_impl.20"*)* @_ZNSt6thread11_State_implISt12_Bind_simpleIFSt7_Mem_fnIMN15readers_writers6ReaderEFvvEEPS4_EEED0Ev to i8*), i8* bitcast (void (%"struct.std::thread::_State_impl.20"*)* @_ZNSt6thread11_State_implISt12_Bind_simpleIFSt7_Mem_fnIMN15readers_writers6ReaderEFvvEEPS4_EEE6_M_runEv to i8*)], comdat, align 8
@_ZTSNSt6thread11_State_implISt12_Bind_simpleIFSt7_Mem_fnIMN15readers_writers6ReaderEFvvEEPS4_EEEE = linkonce_odr constant [94 x i8] c"NSt6thread11_State_implISt12_Bind_simpleIFSt7_Mem_fnIMN15readers_writers6ReaderEFvvEEPS4_EEEE\00", comdat
@_ZTINSt6thread11_State_implISt12_Bind_simpleIFSt7_Mem_fnIMN15readers_writers6ReaderEFvvEEPS4_EEEE = linkonce_odr constant { i8*, i8*, i8* } { i8* bitcast (i8** getelementptr inbounds (i8*, i8** @_ZTVN10__cxxabiv120__si_class_type_infoE, i64 2) to i8*), i8* getelementptr inbounds ([94 x i8], [94 x i8]* @_ZTSNSt6thread11_State_implISt12_Bind_simpleIFSt7_Mem_fnIMN15readers_writers6ReaderEFvvEEPS4_EEEE, i32 0, i32 0), i8* bitcast (i8** @_ZTINSt6thread6_StateE to i8*) }, comdat
@_ZTVSt15_Sp_counted_ptrIPN15readers_writers6WriterELN9__gnu_cxx12_Lock_policyE2EE = linkonce_odr unnamed_addr constant [7 x i8*] [i8* null, i8* bitcast ({ i8*, i8*, i8* }* @_ZTISt15_Sp_counted_ptrIPN15readers_writers6WriterELN9__gnu_cxx12_Lock_policyE2EE to i8*), i8* bitcast (void (%"class.std::_Sp_counted_ptr"*)* @_ZNSt15_Sp_counted_ptrIPN15readers_writers6WriterELN9__gnu_cxx12_Lock_policyE2EED2Ev to i8*), i8* bitcast (void (%"class.std::_Sp_counted_ptr"*)* @_ZNSt15_Sp_counted_ptrIPN15readers_writers6WriterELN9__gnu_cxx12_Lock_policyE2EED0Ev to i8*), i8* bitcast (void (%"class.std::_Sp_counted_ptr"*)* @_ZNSt15_Sp_counted_ptrIPN15readers_writers6WriterELN9__gnu_cxx12_Lock_policyE2EE10_M_disposeEv to i8*), i8* bitcast (void (%"class.std::_Sp_counted_ptr"*)* @_ZNSt15_Sp_counted_ptrIPN15readers_writers6WriterELN9__gnu_cxx12_Lock_policyE2EE10_M_destroyEv to i8*), i8* bitcast (i8* (%"class.std::_Sp_counted_ptr"*, %"class.std::type_info"*)* @_ZNSt15_Sp_counted_ptrIPN15readers_writers6WriterELN9__gnu_cxx12_Lock_policyE2EE14_M_get_deleterERKSt9type_info to i8*)], comdat, align 8
@_ZTSSt15_Sp_counted_ptrIPN15readers_writers6WriterELN9__gnu_cxx12_Lock_policyE2EE = linkonce_odr constant [78 x i8] c"St15_Sp_counted_ptrIPN15readers_writers6WriterELN9__gnu_cxx12_Lock_policyE2EE\00", comdat
@_ZTSSt16_Sp_counted_baseILN9__gnu_cxx12_Lock_policyE2EE = linkonce_odr constant [52 x i8] c"St16_Sp_counted_baseILN9__gnu_cxx12_Lock_policyE2EE\00", comdat
@_ZTVN10__cxxabiv117__class_type_infoE = external global i8*
@_ZTSSt11_Mutex_baseILN9__gnu_cxx12_Lock_policyE2EE = linkonce_odr constant [47 x i8] c"St11_Mutex_baseILN9__gnu_cxx12_Lock_policyE2EE\00", comdat
@_ZTISt11_Mutex_baseILN9__gnu_cxx12_Lock_policyE2EE = linkonce_odr constant { i8*, i8* } { i8* bitcast (i8** getelementptr inbounds (i8*, i8** @_ZTVN10__cxxabiv117__class_type_infoE, i64 2) to i8*), i8* getelementptr inbounds ([47 x i8], [47 x i8]* @_ZTSSt11_Mutex_baseILN9__gnu_cxx12_Lock_policyE2EE, i32 0, i32 0) }, comdat
@_ZTISt16_Sp_counted_baseILN9__gnu_cxx12_Lock_policyE2EE = linkonce_odr constant { i8*, i8*, i8* } { i8* bitcast (i8** getelementptr inbounds (i8*, i8** @_ZTVN10__cxxabiv120__si_class_type_infoE, i64 2) to i8*), i8* getelementptr inbounds ([52 x i8], [52 x i8]* @_ZTSSt16_Sp_counted_baseILN9__gnu_cxx12_Lock_policyE2EE, i32 0, i32 0), i8* bitcast ({ i8*, i8* }* @_ZTISt11_Mutex_baseILN9__gnu_cxx12_Lock_policyE2EE to i8*) }, comdat
@_ZTISt15_Sp_counted_ptrIPN15readers_writers6WriterELN9__gnu_cxx12_Lock_policyE2EE = linkonce_odr constant { i8*, i8*, i8* } { i8* bitcast (i8** getelementptr inbounds (i8*, i8** @_ZTVN10__cxxabiv120__si_class_type_infoE, i64 2) to i8*), i8* getelementptr inbounds ([78 x i8], [78 x i8]* @_ZTSSt15_Sp_counted_ptrIPN15readers_writers6WriterELN9__gnu_cxx12_Lock_policyE2EE, i32 0, i32 0), i8* bitcast ({ i8*, i8*, i8* }* @_ZTISt16_Sp_counted_baseILN9__gnu_cxx12_Lock_policyE2EE to i8*) }, comdat
@_ZTVSt16_Sp_counted_baseILN9__gnu_cxx12_Lock_policyE2EE = linkonce_odr unnamed_addr constant [7 x i8*] [i8* null, i8* bitcast ({ i8*, i8*, i8* }* @_ZTISt16_Sp_counted_baseILN9__gnu_cxx12_Lock_policyE2EE to i8*), i8* bitcast (void (%"class.std::_Sp_counted_base"*)* @_ZNSt16_Sp_counted_baseILN9__gnu_cxx12_Lock_policyE2EED2Ev to i8*), i8* bitcast (void (%"class.std::_Sp_counted_base"*)* @_ZNSt16_Sp_counted_baseILN9__gnu_cxx12_Lock_policyE2EED0Ev to i8*), i8* bitcast (void ()* @__cxa_pure_virtual to i8*), i8* bitcast (void (%"class.std::_Sp_counted_base"*)* @_ZNSt16_Sp_counted_baseILN9__gnu_cxx12_Lock_policyE2EE10_M_destroyEv to i8*), i8* bitcast (void ()* @__cxa_pure_virtual to i8*)], comdat, align 8
@_ZTVSt15_Sp_counted_ptrIPN15readers_writers6ReaderELN9__gnu_cxx12_Lock_policyE2EE = linkonce_odr unnamed_addr constant [7 x i8*] [i8* null, i8* bitcast ({ i8*, i8*, i8* }* @_ZTISt15_Sp_counted_ptrIPN15readers_writers6ReaderELN9__gnu_cxx12_Lock_policyE2EE to i8*), i8* bitcast (void (%"class.std::_Sp_counted_ptr.21"*)* @_ZNSt15_Sp_counted_ptrIPN15readers_writers6ReaderELN9__gnu_cxx12_Lock_policyE2EED2Ev to i8*), i8* bitcast (void (%"class.std::_Sp_counted_ptr.21"*)* @_ZNSt15_Sp_counted_ptrIPN15readers_writers6ReaderELN9__gnu_cxx12_Lock_policyE2EED0Ev to i8*), i8* bitcast (void (%"class.std::_Sp_counted_ptr.21"*)* @_ZNSt15_Sp_counted_ptrIPN15readers_writers6ReaderELN9__gnu_cxx12_Lock_policyE2EE10_M_disposeEv to i8*), i8* bitcast (void (%"class.std::_Sp_counted_ptr.21"*)* @_ZNSt15_Sp_counted_ptrIPN15readers_writers6ReaderELN9__gnu_cxx12_Lock_policyE2EE10_M_destroyEv to i8*), i8* bitcast (i8* (%"class.std::_Sp_counted_ptr.21"*, %"class.std::type_info"*)* @_ZNSt15_Sp_counted_ptrIPN15readers_writers6ReaderELN9__gnu_cxx12_Lock_policyE2EE14_M_get_deleterERKSt9type_info to i8*)], comdat, align 8
@_ZTSSt15_Sp_counted_ptrIPN15readers_writers6ReaderELN9__gnu_cxx12_Lock_policyE2EE = linkonce_odr constant [78 x i8] c"St15_Sp_counted_ptrIPN15readers_writers6ReaderELN9__gnu_cxx12_Lock_policyE2EE\00", comdat
@_ZTISt15_Sp_counted_ptrIPN15readers_writers6ReaderELN9__gnu_cxx12_Lock_policyE2EE = linkonce_odr constant { i8*, i8*, i8* } { i8* bitcast (i8** getelementptr inbounds (i8*, i8** @_ZTVN10__cxxabiv120__si_class_type_infoE, i64 2) to i8*), i8* getelementptr inbounds ([78 x i8], [78 x i8]* @_ZTSSt15_Sp_counted_ptrIPN15readers_writers6ReaderELN9__gnu_cxx12_Lock_policyE2EE, i32 0, i32 0), i8* bitcast ({ i8*, i8*, i8* }* @_ZTISt16_Sp_counted_baseILN9__gnu_cxx12_Lock_policyE2EE to i8*) }, comdat
@.str.8 = private unnamed_addr constant [28 x i8] c"vector::_M_emplace_back_aux\00", align 1
@llvm.global_ctors = appending global [1 x { i32, void ()*, i8* }] [{ i32, void ()*, i8* } { i32 65535, void ()* @_GLOBAL__sub_I_readers_writers.cpp, i8* null }]
@llvm.global.annotations = appending global [4 x { i8*, i8*, i8*, i32 }] [{ i8*, i8*, i8*, i32 } { i8* bitcast (void (i32)* @_Z9__afterMAi to i8*), i8* getelementptr inbounds ([15 x i8], [15 x i8]* @.str, i32 0, i32 0), i8* getelementptr inbounds ([130 x i8], [130 x i8]* @.str.3, i32 0, i32 0), i32 23 }, { i8*, i8*, i8*, i32 } { i8* bitcast (void (i32, i8*, i64, i32)* @_Z10__beforeMAiPvli to i8*), i8* getelementptr inbounds ([16 x i8], [16 x i8]* @.str.4, i32 0, i32 0), i8* getelementptr inbounds ([130 x i8], [130 x i8]* @.str.3, i32 0, i32 0), i32 26 }, { i8*, i8*, i8*, i32 } { i8* bitcast (i32* @_ZN15readers_writers7gSharedE to i8*), i8* getelementptr inbounds ([5 x i8], [5 x i8]* @.str.5, i32 0, i32 0), i8* getelementptr inbounds ([114 x i8], [114 x i8]* @.str.6, i32 0, i32 0), i32 15 }, { i8*, i8*, i8*, i32 } { i8* bitcast (void ()* @_ZN15readers_writers13run_benchmarkEv to i8*), i8* getelementptr inbounds ([5 x i8], [5 x i8]* @.str.7, i32 0, i32 0), i8* getelementptr inbounds ([114 x i8], [114 x i8]* @.str.6, i32 0, i32 0), i32 53 }], section "llvm.metadata"
@llvm.used = appending global [2 x i8*] [i8* bitcast (i32 (%"class.readers_writers::Writer"*)* @_ZN15readers_writers6Writer11getThreadIdEv to i8*), i8* bitcast (i32 (%"class.readers_writers::Reader"*)* @_ZN15readers_writers6Reader11getThreadIdEv to i8*)], section "llvm.metadata"

; Function Attrs: uwtable
define internal void @__cxx_global_var_init() #0 section ".text.startup" !dbg !3580 {
  call void @_ZNSt8ios_base4InitC1Ev(%"class.std::ios_base::Init"* @_ZStL8__ioinit), !dbg !3581
  %1 = call i32 @__cxa_atexit(void (i8*)* bitcast (void (%"class.std::ios_base::Init"*)* @_ZNSt8ios_base4InitD1Ev to void (i8*)*), i8* getelementptr inbounds (%"class.std::ios_base::Init", %"class.std::ios_base::Init"* @_ZStL8__ioinit, i32 0, i32 0), i8* @__dso_handle) #3, !dbg !3582
  ret void, !dbg !3581
}

declare void @_ZNSt8ios_base4InitC1Ev(%"class.std::ios_base::Init"*) unnamed_addr #1

; Function Attrs: nounwind
declare void @_ZNSt8ios_base4InitD1Ev(%"class.std::ios_base::Init"*) unnamed_addr #2

; Function Attrs: nounwind
declare i32 @__cxa_atexit(void (i8*)*, i8*, i8*) #3

; Function Attrs: uwtable
define internal void @__cxx_global_var_init.1() #0 section ".text.startup" !dbg !3584 {
  %1 = alloca %"struct.boost::none_t::init_tag", align 1
  call void @_ZN5boost6none_tC2ENS0_8init_tagE(%"struct.boost::none_t"* @_ZN5boostL4noneE), !dbg !3585
  ret void, !dbg !3586
}

; Function Attrs: nounwind uwtable
define linkonce_odr void @_ZN5boost6none_tC2ENS0_8init_tagE(%"struct.boost::none_t"*) unnamed_addr #4 comdat align 2 !dbg !3587 {
  %2 = alloca %"struct.boost::none_t::init_tag", align 1
  %3 = alloca %"struct.boost::none_t"*, align 8
  store %"struct.boost::none_t"* %0, %"struct.boost::none_t"** %3, align 8
  call void @llvm.dbg.declare(metadata %"struct.boost::none_t"** %3, metadata !3588, metadata !3590), !dbg !3591
  call void @llvm.dbg.declare(metadata %"struct.boost::none_t::init_tag"* %2, metadata !3592, metadata !3590), !dbg !3593
  %4 = load %"struct.boost::none_t"*, %"struct.boost::none_t"** %3, align 8
  ret void, !dbg !3594
}

; Function Attrs: uwtable
define internal void @__cxx_global_var_init.2() #0 section ".text.startup" !dbg !3595 {
  call void @_ZN5boost6detail35make_property_map_from_arg_pack_genINS_5graph8keywords3tag9color_mapENS_18default_color_typeEEC2ES6_(%"class.boost::detail::make_property_map_from_arg_pack_gen"* @_ZN5boost6detailL28make_color_map_from_arg_packE, i32 0), !dbg !3596
  ret void, !dbg !3597
}

; Function Attrs: nounwind uwtable
define linkonce_odr void @_ZN5boost6detail35make_property_map_from_arg_pack_genINS_5graph8keywords3tag9color_mapENS_18default_color_typeEEC2ES6_(%"class.boost::detail::make_property_map_from_arg_pack_gen"*, i32) unnamed_addr #4 comdat align 2 !dbg !3598 {
  %3 = alloca %"class.boost::detail::make_property_map_from_arg_pack_gen"*, align 8
  %4 = alloca i32, align 4
  store %"class.boost::detail::make_property_map_from_arg_pack_gen"* %0, %"class.boost::detail::make_property_map_from_arg_pack_gen"** %3, align 8
  call void @llvm.dbg.declare(metadata %"class.boost::detail::make_property_map_from_arg_pack_gen"** %3, metadata !3599, metadata !3590), !dbg !3601
  store i32 %1, i32* %4, align 4
  call void @llvm.dbg.declare(metadata i32* %4, metadata !3602, metadata !3590), !dbg !3603
  %5 = load %"class.boost::detail::make_property_map_from_arg_pack_gen"*, %"class.boost::detail::make_property_map_from_arg_pack_gen"** %3, align 8
  %6 = getelementptr inbounds %"class.boost::detail::make_property_map_from_arg_pack_gen", %"class.boost::detail::make_property_map_from_arg_pack_gen"* %5, i32 0, i32 0, !dbg !3604
  %7 = load i32, i32* %4, align 4, !dbg !3605
  store i32 %7, i32* %6, align 4, !dbg !3604
  ret void, !dbg !3606
}

; Function Attrs: uwtable
define void @_Z9__afterMAi(i32) #0 !dbg !3607 {
  %2 = alloca i32, align 4
  store i32 %0, i32* %2, align 4
  call void @llvm.dbg.declare(metadata i32* %2, metadata !3609, metadata !3590), !dbg !3610
  %3 = load i32, i32* %2, align 4, !dbg !3611
  call void @_ZN7Runtime7afterMAEi(i32 %3), !dbg !3612
  ret void, !dbg !3613
}

; Function Attrs: nounwind readnone
declare void @llvm.dbg.declare(metadata, metadata, metadata) #5

declare void @_ZN7Runtime7afterMAEi(i32) #1

; Function Attrs: uwtable
define void @_Z10__beforeMAiPvli(i32, i8*, i64, i32) #0 !dbg !3614 {
  %5 = alloca i32, align 4
  %6 = alloca i8*, align 8
  %7 = alloca i64, align 8
  %8 = alloca i32, align 4
  store i32 %0, i32* %5, align 4
  call void @llvm.dbg.declare(metadata i32* %5, metadata !3617, metadata !3590), !dbg !3618
  store i8* %1, i8** %6, align 8
  call void @llvm.dbg.declare(metadata i8** %6, metadata !3619, metadata !3590), !dbg !3620
  store i64 %2, i64* %7, align 8
  call void @llvm.dbg.declare(metadata i64* %7, metadata !3621, metadata !3590), !dbg !3622
  store i32 %3, i32* %8, align 4
  call void @llvm.dbg.declare(metadata i32* %8, metadata !3623, metadata !3590), !dbg !3624
  %9 = load i32, i32* %5, align 4, !dbg !3625
  %10 = load i8*, i8** %6, align 8, !dbg !3626
  %11 = load i32, i32* %8, align 4, !dbg !3627
  %12 = icmp ne i32 %11, 0, !dbg !3627
  call void @_ZN7Runtime8beforeMAEiPvb(i32 %9, i8* %10, i1 zeroext %12), !dbg !3628
  ret void, !dbg !3629
}

declare void @_ZN7Runtime8beforeMAEiPvb(i32, i8*, i1 zeroext) #1

; Function Attrs: noinline uwtable
define linkonce_odr i32 @_ZN15readers_writers6Writer11getThreadIdEv(%"class.readers_writers::Writer"*) #6 comdat align 2 !dbg !3630 {
  %2 = alloca %"class.readers_writers::Writer"*, align 8
  store %"class.readers_writers::Writer"* %0, %"class.readers_writers::Writer"** %2, align 8
  call void @llvm.dbg.declare(metadata %"class.readers_writers::Writer"** %2, metadata !3631, metadata !3590), !dbg !3632
  %3 = load %"class.readers_writers::Writer"*, %"class.readers_writers::Writer"** %2, align 8
  %4 = getelementptr inbounds %"class.readers_writers::Writer", %"class.readers_writers::Writer"* %3, i32 0, i32 0, !dbg !3633
  %5 = call i32 @_ZNK9IrsThread6getTidEv(%class.IrsThread* %4), !dbg !3634
  ret i32 %5, !dbg !3635
}

; Function Attrs: nounwind uwtable
define linkonce_odr i32 @_ZNK9IrsThread6getTidEv(%class.IrsThread*) #4 comdat align 2 !dbg !3636 {
  %2 = alloca %class.IrsThread*, align 8
  store %class.IrsThread* %0, %class.IrsThread** %2, align 8
  call void @llvm.dbg.declare(metadata %class.IrsThread** %2, metadata !3637, metadata !3590), !dbg !3639
  %3 = load %class.IrsThread*, %class.IrsThread** %2, align 8
  %4 = getelementptr inbounds %class.IrsThread, %class.IrsThread* %3, i32 0, i32 1, !dbg !3640
  %5 = load i32, i32* %4, align 8, !dbg !3640
  ret i32 %5, !dbg !3641
}

; Function Attrs: noinline uwtable
define linkonce_odr i32 @_ZN15readers_writers6Reader11getThreadIdEv(%"class.readers_writers::Reader"*) #6 comdat align 2 !dbg !3642 {
  %2 = alloca %"class.readers_writers::Reader"*, align 8
  store %"class.readers_writers::Reader"* %0, %"class.readers_writers::Reader"** %2, align 8
  call void @llvm.dbg.declare(metadata %"class.readers_writers::Reader"** %2, metadata !3643, metadata !3590), !dbg !3644
  %3 = load %"class.readers_writers::Reader"*, %"class.readers_writers::Reader"** %2, align 8
  %4 = getelementptr inbounds %"class.readers_writers::Reader", %"class.readers_writers::Reader"* %3, i32 0, i32 0, !dbg !3645
  %5 = call i32 @_ZNK9IrsThread6getTidEv(%class.IrsThread* %4), !dbg !3646
  ret i32 %5, !dbg !3647
}

; Function Attrs: uwtable
define void @_ZN15readers_writers13run_benchmarkEv() #0 personality i8* bitcast (i32 (...)* @__gxx_personality_v0 to i8*) !dbg !3648 {
  %1 = alloca %"class.std::shared_ptr", align 8
  %2 = alloca i8*
  %3 = alloca i32
  %4 = alloca %"class.std::vector", align 8
  %5 = alloca i32, align 4
  %6 = alloca %"class.std::shared_ptr.0", align 8
  %7 = alloca %"struct.std::chrono::time_point", align 8
  %8 = alloca %"class.std::vector"*, align 8
  %9 = alloca %"class.__gnu_cxx::__normal_iterator", align 8
  %10 = alloca %"class.__gnu_cxx::__normal_iterator", align 8
  %11 = alloca %"class.std::shared_ptr.0"*, align 8
  %12 = alloca %"class.std::vector"*, align 8
  %13 = alloca %"class.__gnu_cxx::__normal_iterator", align 8
  %14 = alloca %"class.__gnu_cxx::__normal_iterator", align 8
  %15 = alloca %"class.std::shared_ptr.0"*, align 8
  %16 = alloca %"struct.std::chrono::time_point", align 8
  %17 = alloca i64, align 8
  %18 = alloca %"struct.std::chrono::duration", align 8
  %19 = alloca %"struct.std::chrono::duration.2", align 8
  store i32 0, i32* @_ZN15readers_writers7gSharedE, align 4, !dbg !3649
  call void @llvm.dbg.declare(metadata %"class.std::shared_ptr"* %1, metadata !3650, metadata !3590), !dbg !3651
  %20 = call i8* @_Znwm(i64 16) #15, !dbg !3652
  %21 = bitcast i8* %20 to %"class.readers_writers::Writer"*, !dbg !3652
  invoke void @_ZN15readers_writers6WriterC2Ei(%"class.readers_writers::Writer"* %21, i32 0)
          to label %22 unwind label %38, !dbg !3653

; <label>:22:                                     ; preds = %0
  call void @_ZNSt10shared_ptrIN15readers_writers6WriterEEC2IS1_EEPT_(%"class.std::shared_ptr"* %1, %"class.readers_writers::Writer"* %21), !dbg !3654
  call void @llvm.dbg.declare(metadata %"class.std::vector"* %4, metadata !3656, metadata !3590), !dbg !3657
  call void @_ZNSt6vectorISt10shared_ptrIN15readers_writers6ReaderEESaIS3_EEC2Ev(%"class.std::vector"* %4) #3, !dbg !3657
  call void @llvm.dbg.declare(metadata i32* %5, metadata !3658, metadata !3590), !dbg !3660
  store i32 1, i32* %5, align 4, !dbg !3660
  br label %23, !dbg !3661

; <label>:23:                                     ; preds = %35, %22
  %24 = load i32, i32* %5, align 4, !dbg !3662
  %25 = load i32, i32* @_ZN15readers_writers11threadCountE, align 4, !dbg !3665
  %26 = icmp slt i32 %24, %25, !dbg !3666
  br i1 %26, label %27, label %54, !dbg !3667

; <label>:27:                                     ; preds = %23
  %28 = invoke i8* @_Znwm(i64 16) #15
          to label %29 unwind label %42, !dbg !3668

; <label>:29:                                     ; preds = %27
  %30 = bitcast i8* %28 to %"class.readers_writers::Reader"*, !dbg !3669
  %31 = load i32, i32* %5, align 4, !dbg !3670
  invoke void @_ZN15readers_writers6ReaderC2Ei(%"class.readers_writers::Reader"* %30, i32 %31)
          to label %32 unwind label %46, !dbg !3671

; <label>:32:                                     ; preds = %29
  invoke void @_ZNSt10shared_ptrIN15readers_writers6ReaderEEC2IS1_EEPT_(%"class.std::shared_ptr.0"* %6, %"class.readers_writers::Reader"* %30)
          to label %33 unwind label %42, !dbg !3672

; <label>:33:                                     ; preds = %32
  invoke void @_ZNSt6vectorISt10shared_ptrIN15readers_writers6ReaderEESaIS3_EE12emplace_backIJS3_EEEvDpOT_(%"class.std::vector"* %4, %"class.std::shared_ptr.0"* dereferenceable(16) %6)
          to label %34 unwind label %50, !dbg !3674

; <label>:34:                                     ; preds = %33
  call void @_ZNSt10shared_ptrIN15readers_writers6ReaderEED2Ev(%"class.std::shared_ptr.0"* %6) #3, !dbg !3676
  br label %35, !dbg !3676

; <label>:35:                                     ; preds = %34
  %36 = load i32, i32* %5, align 4, !dbg !3678
  %37 = add nsw i32 %36, 1, !dbg !3678
  store i32 %37, i32* %5, align 4, !dbg !3678
  br label %23, !dbg !3679, !llvm.loop !3680

; <label>:38:                                     ; preds = %0
  %39 = landingpad { i8*, i32 }
          cleanup, !dbg !3682
  %40 = extractvalue { i8*, i32 } %39, 0, !dbg !3682
  store i8* %40, i8** %2, align 8, !dbg !3682
  %41 = extractvalue { i8*, i32 } %39, 1, !dbg !3682
  store i32 %41, i32* %3, align 4, !dbg !3682
  call void @_ZdlPv(i8* %20) #16, !dbg !3683
  br label %115, !dbg !3683

; <label>:42:                                     ; preds = %111, %108, %105, %102, %97, %89, %77, %69, %54, %32, %27
  %43 = landingpad { i8*, i32 }
          cleanup, !dbg !3685
  %44 = extractvalue { i8*, i32 } %43, 0, !dbg !3685
  store i8* %44, i8** %2, align 8, !dbg !3685
  %45 = extractvalue { i8*, i32 } %43, 1, !dbg !3685
  store i32 %45, i32* %3, align 4, !dbg !3685
  br label %114, !dbg !3685

; <label>:46:                                     ; preds = %29
  %47 = landingpad { i8*, i32 }
          cleanup, !dbg !3686
  %48 = extractvalue { i8*, i32 } %47, 0, !dbg !3686
  store i8* %48, i8** %2, align 8, !dbg !3686
  %49 = extractvalue { i8*, i32 } %47, 1, !dbg !3686
  store i32 %49, i32* %3, align 4, !dbg !3686
  call void @_ZdlPv(i8* %28) #16, !dbg !3687
  br label %114, !dbg !3687

; <label>:50:                                     ; preds = %33
  %51 = landingpad { i8*, i32 }
          cleanup, !dbg !3689
  %52 = extractvalue { i8*, i32 } %51, 0, !dbg !3689
  store i8* %52, i8** %2, align 8, !dbg !3689
  %53 = extractvalue { i8*, i32 } %51, 1, !dbg !3689
  store i32 %53, i32* %3, align 4, !dbg !3689
  call void @_ZNSt10shared_ptrIN15readers_writers6ReaderEED2Ev(%"class.std::shared_ptr.0"* %6) #3, !dbg !3690
  br label %114, !dbg !3690

; <label>:54:                                     ; preds = %23
  call void @llvm.dbg.declare(metadata %"struct.std::chrono::time_point"* %7, metadata !3692, metadata !3590), !dbg !3739
  %55 = call i64 @_ZNSt6chrono3_V212system_clock3nowEv() #3, !dbg !3739
  %56 = getelementptr inbounds %"struct.std::chrono::time_point", %"struct.std::chrono::time_point"* %7, i32 0, i32 0, !dbg !3739
  %57 = getelementptr inbounds %"struct.std::chrono::duration", %"struct.std::chrono::duration"* %56, i32 0, i32 0, !dbg !3739
  store i64 %55, i64* %57, align 8, !dbg !3739
  %58 = bitcast %"class.std::shared_ptr"* %1 to %"class.std::__shared_ptr"*, !dbg !3740
  %59 = call %"class.readers_writers::Writer"* @_ZNKSt12__shared_ptrIN15readers_writers6WriterELN9__gnu_cxx12_Lock_policyE2EEptEv(%"class.std::__shared_ptr"* %58) #3, !dbg !3740
  invoke void @_ZN15readers_writers6Writer5startEv(%"class.readers_writers::Writer"* %59)
          to label %60 unwind label %42, !dbg !3741

; <label>:60:                                     ; preds = %54
  call void @llvm.dbg.declare(metadata %"class.std::vector"** %8, metadata !3742, metadata !3590), !dbg !3744
  store %"class.std::vector"* %4, %"class.std::vector"** %8, align 8, !dbg !3745
  call void @llvm.dbg.declare(metadata %"class.__gnu_cxx::__normal_iterator"* %9, metadata !3746, metadata !3590), !dbg !3744
  %61 = load %"class.std::vector"*, %"class.std::vector"** %8, align 8, !dbg !3747
  %62 = call %"class.std::shared_ptr.0"* @_ZNSt6vectorISt10shared_ptrIN15readers_writers6ReaderEESaIS3_EE5beginEv(%"class.std::vector"* %61) #3, !dbg !3747
  %63 = getelementptr inbounds %"class.__gnu_cxx::__normal_iterator", %"class.__gnu_cxx::__normal_iterator"* %9, i32 0, i32 0, !dbg !3747
  store %"class.std::shared_ptr.0"* %62, %"class.std::shared_ptr.0"** %63, align 8, !dbg !3747
  call void @llvm.dbg.declare(metadata %"class.__gnu_cxx::__normal_iterator"* %10, metadata !3748, metadata !3590), !dbg !3744
  %64 = load %"class.std::vector"*, %"class.std::vector"** %8, align 8, !dbg !3747
  %65 = call %"class.std::shared_ptr.0"* @_ZNSt6vectorISt10shared_ptrIN15readers_writers6ReaderEESaIS3_EE3endEv(%"class.std::vector"* %64) #3, !dbg !3749
  %66 = getelementptr inbounds %"class.__gnu_cxx::__normal_iterator", %"class.__gnu_cxx::__normal_iterator"* %10, i32 0, i32 0, !dbg !3747
  store %"class.std::shared_ptr.0"* %65, %"class.std::shared_ptr.0"** %66, align 8, !dbg !3747
  br label %67, !dbg !3747

; <label>:67:                                     ; preds = %75, %60
  %68 = call zeroext i1 @_ZN9__gnu_cxxneIPSt10shared_ptrIN15readers_writers6ReaderEESt6vectorIS4_SaIS4_EEEEbRKNS_17__normal_iteratorIT_T0_EESE_(%"class.__gnu_cxx::__normal_iterator"* dereferenceable(8) %9, %"class.__gnu_cxx::__normal_iterator"* dereferenceable(8) %10) #3, !dbg !3751
  br i1 %68, label %69, label %77, !dbg !3751

; <label>:69:                                     ; preds = %67
  call void @llvm.dbg.declare(metadata %"class.std::shared_ptr.0"** %11, metadata !3753, metadata !3590), !dbg !3755
  %70 = call dereferenceable(16) %"class.std::shared_ptr.0"* @_ZNK9__gnu_cxx17__normal_iteratorIPSt10shared_ptrIN15readers_writers6ReaderEESt6vectorIS4_SaIS4_EEEdeEv(%"class.__gnu_cxx::__normal_iterator"* %9) #3, !dbg !3756
  store %"class.std::shared_ptr.0"* %70, %"class.std::shared_ptr.0"** %11, align 8, !dbg !3758
  %71 = load %"class.std::shared_ptr.0"*, %"class.std::shared_ptr.0"** %11, align 8, !dbg !3759
  %72 = bitcast %"class.std::shared_ptr.0"* %71 to %"class.std::__shared_ptr.1"*, !dbg !3759
  %73 = call %"class.readers_writers::Reader"* @_ZNKSt12__shared_ptrIN15readers_writers6ReaderELN9__gnu_cxx12_Lock_policyE2EEptEv(%"class.std::__shared_ptr.1"* %72) #3, !dbg !3759
  invoke void @_ZN15readers_writers6Reader5startEv(%"class.readers_writers::Reader"* %73)
          to label %74 unwind label %42, !dbg !3761

; <label>:74:                                     ; preds = %69
  br label %75, !dbg !3762

; <label>:75:                                     ; preds = %74
  %76 = call dereferenceable(8) %"class.__gnu_cxx::__normal_iterator"* @_ZN9__gnu_cxx17__normal_iteratorIPSt10shared_ptrIN15readers_writers6ReaderEESt6vectorIS4_SaIS4_EEEppEv(%"class.__gnu_cxx::__normal_iterator"* %9) #3, !dbg !3764
  br label %67, !dbg !3764, !llvm.loop !3766

; <label>:77:                                     ; preds = %67
  %78 = bitcast %"class.std::shared_ptr"* %1 to %"class.std::__shared_ptr"*, !dbg !3768
  %79 = call %"class.readers_writers::Writer"* @_ZNKSt12__shared_ptrIN15readers_writers6WriterELN9__gnu_cxx12_Lock_policyE2EEptEv(%"class.std::__shared_ptr"* %78) #3, !dbg !3768
  invoke void @_ZN15readers_writers6Writer4joinEv(%"class.readers_writers::Writer"* %79)
          to label %80 unwind label %42, !dbg !3769

; <label>:80:                                     ; preds = %77
  call void @llvm.dbg.declare(metadata %"class.std::vector"** %12, metadata !3770, metadata !3590), !dbg !3772
  store %"class.std::vector"* %4, %"class.std::vector"** %12, align 8, !dbg !3773
  call void @llvm.dbg.declare(metadata %"class.__gnu_cxx::__normal_iterator"* %13, metadata !3774, metadata !3590), !dbg !3772
  %81 = load %"class.std::vector"*, %"class.std::vector"** %12, align 8, !dbg !3775
  %82 = call %"class.std::shared_ptr.0"* @_ZNSt6vectorISt10shared_ptrIN15readers_writers6ReaderEESaIS3_EE5beginEv(%"class.std::vector"* %81) #3, !dbg !3775
  %83 = getelementptr inbounds %"class.__gnu_cxx::__normal_iterator", %"class.__gnu_cxx::__normal_iterator"* %13, i32 0, i32 0, !dbg !3775
  store %"class.std::shared_ptr.0"* %82, %"class.std::shared_ptr.0"** %83, align 8, !dbg !3775
  call void @llvm.dbg.declare(metadata %"class.__gnu_cxx::__normal_iterator"* %14, metadata !3776, metadata !3590), !dbg !3772
  %84 = load %"class.std::vector"*, %"class.std::vector"** %12, align 8, !dbg !3775
  %85 = call %"class.std::shared_ptr.0"* @_ZNSt6vectorISt10shared_ptrIN15readers_writers6ReaderEESaIS3_EE3endEv(%"class.std::vector"* %84) #3, !dbg !3777
  %86 = getelementptr inbounds %"class.__gnu_cxx::__normal_iterator", %"class.__gnu_cxx::__normal_iterator"* %14, i32 0, i32 0, !dbg !3775
  store %"class.std::shared_ptr.0"* %85, %"class.std::shared_ptr.0"** %86, align 8, !dbg !3775
  br label %87, !dbg !3775

; <label>:87:                                     ; preds = %95, %80
  %88 = call zeroext i1 @_ZN9__gnu_cxxneIPSt10shared_ptrIN15readers_writers6ReaderEESt6vectorIS4_SaIS4_EEEEbRKNS_17__normal_iteratorIT_T0_EESE_(%"class.__gnu_cxx::__normal_iterator"* dereferenceable(8) %13, %"class.__gnu_cxx::__normal_iterator"* dereferenceable(8) %14) #3, !dbg !3779
  br i1 %88, label %89, label %97, !dbg !3779

; <label>:89:                                     ; preds = %87
  call void @llvm.dbg.declare(metadata %"class.std::shared_ptr.0"** %15, metadata !3781, metadata !3590), !dbg !3783
  %90 = call dereferenceable(16) %"class.std::shared_ptr.0"* @_ZNK9__gnu_cxx17__normal_iteratorIPSt10shared_ptrIN15readers_writers6ReaderEESt6vectorIS4_SaIS4_EEEdeEv(%"class.__gnu_cxx::__normal_iterator"* %13) #3, !dbg !3784
  store %"class.std::shared_ptr.0"* %90, %"class.std::shared_ptr.0"** %15, align 8, !dbg !3786
  %91 = load %"class.std::shared_ptr.0"*, %"class.std::shared_ptr.0"** %15, align 8, !dbg !3787
  %92 = bitcast %"class.std::shared_ptr.0"* %91 to %"class.std::__shared_ptr.1"*, !dbg !3787
  %93 = call %"class.readers_writers::Reader"* @_ZNKSt12__shared_ptrIN15readers_writers6ReaderELN9__gnu_cxx12_Lock_policyE2EEptEv(%"class.std::__shared_ptr.1"* %92) #3, !dbg !3787
  invoke void @_ZN15readers_writers6Reader4joinEv(%"class.readers_writers::Reader"* %93)
          to label %94 unwind label %42, !dbg !3789

; <label>:94:                                     ; preds = %89
  br label %95, !dbg !3790

; <label>:95:                                     ; preds = %94
  %96 = call dereferenceable(8) %"class.__gnu_cxx::__normal_iterator"* @_ZN9__gnu_cxx17__normal_iteratorIPSt10shared_ptrIN15readers_writers6ReaderEESt6vectorIS4_SaIS4_EEEppEv(%"class.__gnu_cxx::__normal_iterator"* %13) #3, !dbg !3792
  br label %87, !dbg !3792, !llvm.loop !3794

; <label>:97:                                     ; preds = %87
  call void @llvm.dbg.declare(metadata %"struct.std::chrono::time_point"* %16, metadata !3796, metadata !3590), !dbg !3797
  %98 = call i64 @_ZNSt6chrono3_V212system_clock3nowEv() #3, !dbg !3797
  %99 = getelementptr inbounds %"struct.std::chrono::time_point", %"struct.std::chrono::time_point"* %16, i32 0, i32 0, !dbg !3797
  %100 = getelementptr inbounds %"struct.std::chrono::duration", %"struct.std::chrono::duration"* %99, i32 0, i32 0, !dbg !3797
  store i64 %98, i64* %100, align 8, !dbg !3797
  call void @llvm.dbg.declare(metadata i64* %17, metadata !3798, metadata !3590), !dbg !3797
  %101 = invoke i64 @_ZNSt6chronomiINS_3_V212system_clockENS_8durationIlSt5ratioILl1ELl1000000000EEEES6_EENSt11common_typeIJT0_T1_EE4typeERKNS_10time_pointIT_S8_EERKNSC_ISD_S9_EE(%"struct.std::chrono::time_point"* dereferenceable(8) %16, %"struct.std::chrono::time_point"* dereferenceable(8) %7)
          to label %102 unwind label %42, !dbg !3797

; <label>:102:                                    ; preds = %97
  %103 = getelementptr inbounds %"struct.std::chrono::duration", %"struct.std::chrono::duration"* %18, i32 0, i32 0, !dbg !3799
  store i64 %101, i64* %103, align 8, !dbg !3799
  %104 = invoke i64 @_ZNSt6chrono13duration_castINS_8durationIlSt5ratioILl1ELl1000000EEEElS2_ILl1ELl1000000000EEEENSt9enable_ifIXsr13__is_durationIT_EE5valueES7_E4typeERKNS1_IT0_T1_EE(%"struct.std::chrono::duration"* dereferenceable(8) %18)
          to label %105 unwind label %42, !dbg !3799

; <label>:105:                                    ; preds = %102
  %106 = getelementptr inbounds %"struct.std::chrono::duration.2", %"struct.std::chrono::duration.2"* %19, i32 0, i32 0, !dbg !3800
  store i64 %104, i64* %106, align 8, !dbg !3800
  %107 = invoke i64 @_ZNKSt6chrono8durationIlSt5ratioILl1ELl1000000EEE5countEv(%"struct.std::chrono::duration.2"* %19)
          to label %108 unwind label %42, !dbg !3800

; <label>:108:                                    ; preds = %105
  store i64 %107, i64* %17, align 8, !dbg !3801
  %109 = load i64, i64* %17, align 8, !dbg !3801
  %110 = invoke dereferenceable(272) %"class.std::basic_ostream"* @_ZNSolsEl(%"class.std::basic_ostream"* @_ZSt4cout, i64 %109)
          to label %111 unwind label %42, !dbg !3801

; <label>:111:                                    ; preds = %108
  %112 = invoke dereferenceable(272) %"class.std::basic_ostream"* @_ZNSolsEPFRSoS_E(%"class.std::basic_ostream"* %110, %"class.std::basic_ostream"* (%"class.std::basic_ostream"*)* @_ZSt4endlIcSt11char_traitsIcEERSt13basic_ostreamIT_T0_ES6_)
          to label %113 unwind label %42, !dbg !3803

; <label>:113:                                    ; preds = %111
  call void @_ZNSt6vectorISt10shared_ptrIN15readers_writers6ReaderEESaIS3_EED2Ev(%"class.std::vector"* %4) #3, !dbg !3805
  call void @_ZNSt10shared_ptrIN15readers_writers6WriterEED2Ev(%"class.std::shared_ptr"* %1) #3, !dbg !3806
  ret void, !dbg !3805

; <label>:114:                                    ; preds = %50, %46, %42
  call void @_ZNSt6vectorISt10shared_ptrIN15readers_writers6ReaderEESaIS3_EED2Ev(%"class.std::vector"* %4) #3, !dbg !3808
  call void @_ZNSt10shared_ptrIN15readers_writers6WriterEED2Ev(%"class.std::shared_ptr"* %1) #3, !dbg !3810
  br label %115, !dbg !3808

; <label>:115:                                    ; preds = %114, %38
  %116 = load i8*, i8** %2, align 8, !dbg !3812
  %117 = load i32, i32* %3, align 4, !dbg !3812
  %118 = insertvalue { i8*, i32 } undef, i8* %116, 0, !dbg !3812
  %119 = insertvalue { i8*, i32 } %118, i32 %117, 1, !dbg !3812
  resume { i8*, i32 } %119, !dbg !3812
}

; Function Attrs: nobuiltin
declare noalias i8* @_Znwm(i64) #7

; Function Attrs: uwtable
define linkonce_odr void @_ZN15readers_writers6WriterC2Ei(%"class.readers_writers::Writer"*, i32) unnamed_addr #0 comdat align 2 !dbg !3813 {
  %3 = alloca %"class.readers_writers::Writer"*, align 8
  %4 = alloca i32, align 4
  store %"class.readers_writers::Writer"* %0, %"class.readers_writers::Writer"** %3, align 8
  call void @llvm.dbg.declare(metadata %"class.readers_writers::Writer"** %3, metadata !3814, metadata !3590), !dbg !3815
  store i32 %1, i32* %4, align 4
  call void @llvm.dbg.declare(metadata i32* %4, metadata !3816, metadata !3590), !dbg !3817
  %5 = load %"class.readers_writers::Writer"*, %"class.readers_writers::Writer"** %3, align 8
  %6 = getelementptr inbounds %"class.readers_writers::Writer", %"class.readers_writers::Writer"* %5, i32 0, i32 0, !dbg !3818
  %7 = load i32, i32* %4, align 4, !dbg !3819
  call void @_ZN9IrsThreadC2Ei(%class.IrsThread* %6, i32 %7), !dbg !3818
  ret void, !dbg !3820
}

declare i32 @__gxx_personality_v0(...)

; Function Attrs: nobuiltin nounwind
declare void @_ZdlPv(i8*) #8

; Function Attrs: uwtable
define linkonce_odr void @_ZNSt10shared_ptrIN15readers_writers6WriterEEC2IS1_EEPT_(%"class.std::shared_ptr"*, %"class.readers_writers::Writer"*) unnamed_addr #0 comdat align 2 !dbg !3821 {
  %3 = alloca %"class.std::shared_ptr"*, align 8
  %4 = alloca %"class.readers_writers::Writer"*, align 8
  store %"class.std::shared_ptr"* %0, %"class.std::shared_ptr"** %3, align 8
  call void @llvm.dbg.declare(metadata %"class.std::shared_ptr"** %3, metadata !3827, metadata !3590), !dbg !3829
  store %"class.readers_writers::Writer"* %1, %"class.readers_writers::Writer"** %4, align 8
  call void @llvm.dbg.declare(metadata %"class.readers_writers::Writer"** %4, metadata !3830, metadata !3590), !dbg !3831
  %5 = load %"class.std::shared_ptr"*, %"class.std::shared_ptr"** %3, align 8
  %6 = bitcast %"class.std::shared_ptr"* %5 to %"class.std::__shared_ptr"*, !dbg !3832
  %7 = load %"class.readers_writers::Writer"*, %"class.readers_writers::Writer"** %4, align 8, !dbg !3833
  call void @_ZNSt12__shared_ptrIN15readers_writers6WriterELN9__gnu_cxx12_Lock_policyE2EEC2IS1_EEPT_(%"class.std::__shared_ptr"* %6, %"class.readers_writers::Writer"* %7), !dbg !3834
  ret void, !dbg !3835
}

; Function Attrs: nounwind uwtable
define linkonce_odr void @_ZNSt6vectorISt10shared_ptrIN15readers_writers6ReaderEESaIS3_EEC2Ev(%"class.std::vector"*) unnamed_addr #4 comdat align 2 personality i8* bitcast (i32 (...)* @__gxx_personality_v0 to i8*) !dbg !3836 {
  %2 = alloca %"class.std::vector"*, align 8
  store %"class.std::vector"* %0, %"class.std::vector"** %2, align 8
  call void @llvm.dbg.declare(metadata %"class.std::vector"** %2, metadata !3837, metadata !3590), !dbg !3839
  %3 = load %"class.std::vector"*, %"class.std::vector"** %2, align 8
  %4 = bitcast %"class.std::vector"* %3 to %"struct.std::_Vector_base"*, !dbg !3840
  invoke void @_ZNSt12_Vector_baseISt10shared_ptrIN15readers_writers6ReaderEESaIS3_EEC2Ev(%"struct.std::_Vector_base"* %4)
          to label %5 unwind label %6, !dbg !3841

; <label>:5:                                      ; preds = %1
  ret void, !dbg !3842

; <label>:6:                                      ; preds = %1
  %7 = landingpad { i8*, i32 }
          catch i8* null, !dbg !3844
  %8 = extractvalue { i8*, i32 } %7, 0, !dbg !3844
  call void @__clang_call_terminate(i8* %8) #14, !dbg !3844
  unreachable, !dbg !3844
}

; Function Attrs: uwtable
define linkonce_odr void @_ZNSt6vectorISt10shared_ptrIN15readers_writers6ReaderEESaIS3_EE12emplace_backIJS3_EEEvDpOT_(%"class.std::vector"*, %"class.std::shared_ptr.0"* dereferenceable(16)) #0 comdat align 2 !dbg !3846 {
  %3 = alloca %"class.std::vector"*, align 8
  %4 = alloca %"class.std::shared_ptr.0"*, align 8
  store %"class.std::vector"* %0, %"class.std::vector"** %3, align 8
  call void @llvm.dbg.declare(metadata %"class.std::vector"** %3, metadata !3855, metadata !3590), !dbg !3856
  store %"class.std::shared_ptr.0"* %1, %"class.std::shared_ptr.0"** %4, align 8
  call void @llvm.dbg.declare(metadata %"class.std::shared_ptr.0"** %4, metadata !3857, metadata !3590), !dbg !3858
  %5 = load %"class.std::vector"*, %"class.std::vector"** %3, align 8
  %6 = bitcast %"class.std::vector"* %5 to %"struct.std::_Vector_base"*, !dbg !3859
  %7 = getelementptr inbounds %"struct.std::_Vector_base", %"struct.std::_Vector_base"* %6, i32 0, i32 0, !dbg !3859
  %8 = getelementptr inbounds %"struct.std::_Vector_base<std::shared_ptr<readers_writers::Reader>, std::allocator<std::shared_ptr<readers_writers::Reader> > >::_Vector_impl", %"struct.std::_Vector_base<std::shared_ptr<readers_writers::Reader>, std::allocator<std::shared_ptr<readers_writers::Reader> > >::_Vector_impl"* %7, i32 0, i32 1, !dbg !3861
  %9 = load %"class.std::shared_ptr.0"*, %"class.std::shared_ptr.0"** %8, align 8, !dbg !3861
  %10 = bitcast %"class.std::vector"* %5 to %"struct.std::_Vector_base"*, !dbg !3862
  %11 = getelementptr inbounds %"struct.std::_Vector_base", %"struct.std::_Vector_base"* %10, i32 0, i32 0, !dbg !3862
  %12 = getelementptr inbounds %"struct.std::_Vector_base<std::shared_ptr<readers_writers::Reader>, std::allocator<std::shared_ptr<readers_writers::Reader> > >::_Vector_impl", %"struct.std::_Vector_base<std::shared_ptr<readers_writers::Reader>, std::allocator<std::shared_ptr<readers_writers::Reader> > >::_Vector_impl"* %11, i32 0, i32 2, !dbg !3863
  %13 = load %"class.std::shared_ptr.0"*, %"class.std::shared_ptr.0"** %12, align 8, !dbg !3863
  %14 = icmp ne %"class.std::shared_ptr.0"* %9, %13, !dbg !3864
  br i1 %14, label %15, label %30, !dbg !3865

; <label>:15:                                     ; preds = %2
  %16 = bitcast %"class.std::vector"* %5 to %"struct.std::_Vector_base"*, !dbg !3866
  %17 = getelementptr inbounds %"struct.std::_Vector_base", %"struct.std::_Vector_base"* %16, i32 0, i32 0, !dbg !3866
  %18 = bitcast %"struct.std::_Vector_base<std::shared_ptr<readers_writers::Reader>, std::allocator<std::shared_ptr<readers_writers::Reader> > >::_Vector_impl"* %17 to %"class.std::allocator"*, !dbg !3868
  %19 = bitcast %"class.std::vector"* %5 to %"struct.std::_Vector_base"*, !dbg !3869
  %20 = getelementptr inbounds %"struct.std::_Vector_base", %"struct.std::_Vector_base"* %19, i32 0, i32 0, !dbg !3869
  %21 = getelementptr inbounds %"struct.std::_Vector_base<std::shared_ptr<readers_writers::Reader>, std::allocator<std::shared_ptr<readers_writers::Reader> > >::_Vector_impl", %"struct.std::_Vector_base<std::shared_ptr<readers_writers::Reader>, std::allocator<std::shared_ptr<readers_writers::Reader> > >::_Vector_impl"* %20, i32 0, i32 1, !dbg !3870
  %22 = load %"class.std::shared_ptr.0"*, %"class.std::shared_ptr.0"** %21, align 8, !dbg !3870
  %23 = load %"class.std::shared_ptr.0"*, %"class.std::shared_ptr.0"** %4, align 8, !dbg !3871
  %24 = call dereferenceable(16) %"class.std::shared_ptr.0"* @_ZSt7forwardISt10shared_ptrIN15readers_writers6ReaderEEEOT_RNSt16remove_referenceIS4_E4typeE(%"class.std::shared_ptr.0"* dereferenceable(16) %23) #3, !dbg !3872
  call void @_ZNSt16allocator_traitsISaISt10shared_ptrIN15readers_writers6ReaderEEEE9constructIS3_JS3_EEEvRS4_PT_DpOT0_(%"class.std::allocator"* dereferenceable(1) %18, %"class.std::shared_ptr.0"* %22, %"class.std::shared_ptr.0"* dereferenceable(16) %24), !dbg !3873
  %25 = bitcast %"class.std::vector"* %5 to %"struct.std::_Vector_base"*, !dbg !3874
  %26 = getelementptr inbounds %"struct.std::_Vector_base", %"struct.std::_Vector_base"* %25, i32 0, i32 0, !dbg !3874
  %27 = getelementptr inbounds %"struct.std::_Vector_base<std::shared_ptr<readers_writers::Reader>, std::allocator<std::shared_ptr<readers_writers::Reader> > >::_Vector_impl", %"struct.std::_Vector_base<std::shared_ptr<readers_writers::Reader>, std::allocator<std::shared_ptr<readers_writers::Reader> > >::_Vector_impl"* %26, i32 0, i32 1, !dbg !3875
  %28 = load %"class.std::shared_ptr.0"*, %"class.std::shared_ptr.0"** %27, align 8, !dbg !3876
  %29 = getelementptr inbounds %"class.std::shared_ptr.0", %"class.std::shared_ptr.0"* %28, i32 1, !dbg !3876
  store %"class.std::shared_ptr.0"* %29, %"class.std::shared_ptr.0"** %27, align 8, !dbg !3876
  br label %33, !dbg !3877

; <label>:30:                                     ; preds = %2
  %31 = load %"class.std::shared_ptr.0"*, %"class.std::shared_ptr.0"** %4, align 8, !dbg !3878
  %32 = call dereferenceable(16) %"class.std::shared_ptr.0"* @_ZSt7forwardISt10shared_ptrIN15readers_writers6ReaderEEEOT_RNSt16remove_referenceIS4_E4typeE(%"class.std::shared_ptr.0"* dereferenceable(16) %31) #3, !dbg !3879
  call void @_ZNSt6vectorISt10shared_ptrIN15readers_writers6ReaderEESaIS3_EE19_M_emplace_back_auxIJS3_EEEvDpOT_(%"class.std::vector"* %5, %"class.std::shared_ptr.0"* dereferenceable(16) %32), !dbg !3880
  br label %33

; <label>:33:                                     ; preds = %30, %15
  ret void, !dbg !3882
}

; Function Attrs: uwtable
define linkonce_odr void @_ZN15readers_writers6ReaderC2Ei(%"class.readers_writers::Reader"*, i32) unnamed_addr #0 comdat align 2 !dbg !3883 {
  %3 = alloca %"class.readers_writers::Reader"*, align 8
  %4 = alloca i32, align 4
  store %"class.readers_writers::Reader"* %0, %"class.readers_writers::Reader"** %3, align 8
  call void @llvm.dbg.declare(metadata %"class.readers_writers::Reader"** %3, metadata !3884, metadata !3590), !dbg !3885
  store i32 %1, i32* %4, align 4
  call void @llvm.dbg.declare(metadata i32* %4, metadata !3886, metadata !3590), !dbg !3887
  %5 = load %"class.readers_writers::Reader"*, %"class.readers_writers::Reader"** %3, align 8
  %6 = getelementptr inbounds %"class.readers_writers::Reader", %"class.readers_writers::Reader"* %5, i32 0, i32 0, !dbg !3888
  %7 = load i32, i32* %4, align 4, !dbg !3889
  call void @_ZN9IrsThreadC2Ei(%class.IrsThread* %6, i32 %7), !dbg !3888
  ret void, !dbg !3890
}

; Function Attrs: uwtable
define linkonce_odr void @_ZNSt10shared_ptrIN15readers_writers6ReaderEEC2IS1_EEPT_(%"class.std::shared_ptr.0"*, %"class.readers_writers::Reader"*) unnamed_addr #0 comdat align 2 !dbg !3891 {
  %3 = alloca %"class.std::shared_ptr.0"*, align 8
  %4 = alloca %"class.readers_writers::Reader"*, align 8
  store %"class.std::shared_ptr.0"* %0, %"class.std::shared_ptr.0"** %3, align 8
  call void @llvm.dbg.declare(metadata %"class.std::shared_ptr.0"** %3, metadata !3897, metadata !3590), !dbg !3898
  store %"class.readers_writers::Reader"* %1, %"class.readers_writers::Reader"** %4, align 8
  call void @llvm.dbg.declare(metadata %"class.readers_writers::Reader"** %4, metadata !3899, metadata !3590), !dbg !3900
  %5 = load %"class.std::shared_ptr.0"*, %"class.std::shared_ptr.0"** %3, align 8
  %6 = bitcast %"class.std::shared_ptr.0"* %5 to %"class.std::__shared_ptr.1"*, !dbg !3901
  %7 = load %"class.readers_writers::Reader"*, %"class.readers_writers::Reader"** %4, align 8, !dbg !3902
  call void @_ZNSt12__shared_ptrIN15readers_writers6ReaderELN9__gnu_cxx12_Lock_policyE2EEC2IS1_EEPT_(%"class.std::__shared_ptr.1"* %6, %"class.readers_writers::Reader"* %7), !dbg !3903
  ret void, !dbg !3904
}

; Function Attrs: inlinehint nounwind uwtable
define linkonce_odr void @_ZNSt10shared_ptrIN15readers_writers6ReaderEED2Ev(%"class.std::shared_ptr.0"*) unnamed_addr #9 comdat align 2 !dbg !3905 {
  %2 = alloca %"class.std::shared_ptr.0"*, align 8
  store %"class.std::shared_ptr.0"* %0, %"class.std::shared_ptr.0"** %2, align 8
  call void @llvm.dbg.declare(metadata %"class.std::shared_ptr.0"** %2, metadata !3907, metadata !3590), !dbg !3908
  %3 = load %"class.std::shared_ptr.0"*, %"class.std::shared_ptr.0"** %2, align 8
  %4 = bitcast %"class.std::shared_ptr.0"* %3 to %"class.std::__shared_ptr.1"*, !dbg !3909
  call void @_ZNSt12__shared_ptrIN15readers_writers6ReaderELN9__gnu_cxx12_Lock_policyE2EED2Ev(%"class.std::__shared_ptr.1"* %4) #3, !dbg !3909
  ret void, !dbg !3911
}

; Function Attrs: nounwind
declare i64 @_ZNSt6chrono3_V212system_clock3nowEv() #2

; Function Attrs: nounwind uwtable
define linkonce_odr %"class.readers_writers::Writer"* @_ZNKSt12__shared_ptrIN15readers_writers6WriterELN9__gnu_cxx12_Lock_policyE2EEptEv(%"class.std::__shared_ptr"*) #4 comdat align 2 !dbg !3912 {
  %2 = alloca %"class.std::__shared_ptr"*, align 8
  store %"class.std::__shared_ptr"* %0, %"class.std::__shared_ptr"** %2, align 8
  call void @llvm.dbg.declare(metadata %"class.std::__shared_ptr"** %2, metadata !3913, metadata !3590), !dbg !3915
  %3 = load %"class.std::__shared_ptr"*, %"class.std::__shared_ptr"** %2, align 8
  %4 = getelementptr inbounds %"class.std::__shared_ptr", %"class.std::__shared_ptr"* %3, i32 0, i32 0, !dbg !3916
  %5 = load %"class.readers_writers::Writer"*, %"class.readers_writers::Writer"** %4, align 8, !dbg !3916
  ret %"class.readers_writers::Writer"* %5, !dbg !3917
}

; Function Attrs: uwtable
define linkonce_odr void @_ZN15readers_writers6Writer5startEv(%"class.readers_writers::Writer"*) #0 comdat align 2 !dbg !3918 {
  %2 = alloca %"class.readers_writers::Writer"*, align 8
  %3 = alloca { i64, i64 }, align 8
  %4 = alloca %"class.readers_writers::Writer"*, align 8
  store %"class.readers_writers::Writer"* %0, %"class.readers_writers::Writer"** %2, align 8
  call void @llvm.dbg.declare(metadata %"class.readers_writers::Writer"** %2, metadata !3919, metadata !3590), !dbg !3920
  %5 = load %"class.readers_writers::Writer"*, %"class.readers_writers::Writer"** %2, align 8
  %6 = getelementptr inbounds %"class.readers_writers::Writer", %"class.readers_writers::Writer"* %5, i32 0, i32 0, !dbg !3921
  store { i64, i64 } { i64 ptrtoint (void (%"class.readers_writers::Writer"*)* @_ZN15readers_writers6Writer4execEv to i64), i64 0 }, { i64, i64 }* %3, align 8, !dbg !3922
  store %"class.readers_writers::Writer"* %5, %"class.readers_writers::Writer"** %4, align 8, !dbg !3923
  call void @_ZN9IrsThreadclIJMN15readers_writers6WriterEFvvEPS2_EEEvDpOT_(%class.IrsThread* %6, { i64, i64 }* dereferenceable(16) %3, %"class.readers_writers::Writer"** dereferenceable(8) %4), !dbg !3921
  ret void, !dbg !3924
}

; Function Attrs: nounwind uwtable
define linkonce_odr %"class.std::shared_ptr.0"* @_ZNSt6vectorISt10shared_ptrIN15readers_writers6ReaderEESaIS3_EE5beginEv(%"class.std::vector"*) #4 comdat align 2 !dbg !3925 {
  %2 = alloca %"class.__gnu_cxx::__normal_iterator", align 8
  %3 = alloca %"class.std::vector"*, align 8
  store %"class.std::vector"* %0, %"class.std::vector"** %3, align 8
  call void @llvm.dbg.declare(metadata %"class.std::vector"** %3, metadata !3926, metadata !3590), !dbg !3927
  %4 = load %"class.std::vector"*, %"class.std::vector"** %3, align 8
  %5 = bitcast %"class.std::vector"* %4 to %"struct.std::_Vector_base"*, !dbg !3928
  %6 = getelementptr inbounds %"struct.std::_Vector_base", %"struct.std::_Vector_base"* %5, i32 0, i32 0, !dbg !3928
  %7 = getelementptr inbounds %"struct.std::_Vector_base<std::shared_ptr<readers_writers::Reader>, std::allocator<std::shared_ptr<readers_writers::Reader> > >::_Vector_impl", %"struct.std::_Vector_base<std::shared_ptr<readers_writers::Reader>, std::allocator<std::shared_ptr<readers_writers::Reader> > >::_Vector_impl"* %6, i32 0, i32 0, !dbg !3929
  call void @_ZN9__gnu_cxx17__normal_iteratorIPSt10shared_ptrIN15readers_writers6ReaderEESt6vectorIS4_SaIS4_EEEC2ERKS5_(%"class.__gnu_cxx::__normal_iterator"* %2, %"class.std::shared_ptr.0"** dereferenceable(8) %7) #3, !dbg !3930
  %8 = getelementptr inbounds %"class.__gnu_cxx::__normal_iterator", %"class.__gnu_cxx::__normal_iterator"* %2, i32 0, i32 0, !dbg !3931
  %9 = load %"class.std::shared_ptr.0"*, %"class.std::shared_ptr.0"** %8, align 8, !dbg !3931
  ret %"class.std::shared_ptr.0"* %9, !dbg !3931
}

; Function Attrs: nounwind uwtable
define linkonce_odr %"class.std::shared_ptr.0"* @_ZNSt6vectorISt10shared_ptrIN15readers_writers6ReaderEESaIS3_EE3endEv(%"class.std::vector"*) #4 comdat align 2 !dbg !3932 {
  %2 = alloca %"class.__gnu_cxx::__normal_iterator", align 8
  %3 = alloca %"class.std::vector"*, align 8
  store %"class.std::vector"* %0, %"class.std::vector"** %3, align 8
  call void @llvm.dbg.declare(metadata %"class.std::vector"** %3, metadata !3933, metadata !3590), !dbg !3934
  %4 = load %"class.std::vector"*, %"class.std::vector"** %3, align 8
  %5 = bitcast %"class.std::vector"* %4 to %"struct.std::_Vector_base"*, !dbg !3935
  %6 = getelementptr inbounds %"struct.std::_Vector_base", %"struct.std::_Vector_base"* %5, i32 0, i32 0, !dbg !3935
  %7 = getelementptr inbounds %"struct.std::_Vector_base<std::shared_ptr<readers_writers::Reader>, std::allocator<std::shared_ptr<readers_writers::Reader> > >::_Vector_impl", %"struct.std::_Vector_base<std::shared_ptr<readers_writers::Reader>, std::allocator<std::shared_ptr<readers_writers::Reader> > >::_Vector_impl"* %6, i32 0, i32 1, !dbg !3936
  call void @_ZN9__gnu_cxx17__normal_iteratorIPSt10shared_ptrIN15readers_writers6ReaderEESt6vectorIS4_SaIS4_EEEC2ERKS5_(%"class.__gnu_cxx::__normal_iterator"* %2, %"class.std::shared_ptr.0"** dereferenceable(8) %7) #3, !dbg !3937
  %8 = getelementptr inbounds %"class.__gnu_cxx::__normal_iterator", %"class.__gnu_cxx::__normal_iterator"* %2, i32 0, i32 0, !dbg !3938
  %9 = load %"class.std::shared_ptr.0"*, %"class.std::shared_ptr.0"** %8, align 8, !dbg !3938
  ret %"class.std::shared_ptr.0"* %9, !dbg !3938
}

; Function Attrs: inlinehint nounwind uwtable
define linkonce_odr zeroext i1 @_ZN9__gnu_cxxneIPSt10shared_ptrIN15readers_writers6ReaderEESt6vectorIS4_SaIS4_EEEEbRKNS_17__normal_iteratorIT_T0_EESE_(%"class.__gnu_cxx::__normal_iterator"* dereferenceable(8), %"class.__gnu_cxx::__normal_iterator"* dereferenceable(8)) #9 comdat !dbg !3939 {
  %3 = alloca %"class.__gnu_cxx::__normal_iterator"*, align 8
  %4 = alloca %"class.__gnu_cxx::__normal_iterator"*, align 8
  store %"class.__gnu_cxx::__normal_iterator"* %0, %"class.__gnu_cxx::__normal_iterator"** %3, align 8
  call void @llvm.dbg.declare(metadata %"class.__gnu_cxx::__normal_iterator"** %3, metadata !3943, metadata !3590), !dbg !3944
  store %"class.__gnu_cxx::__normal_iterator"* %1, %"class.__gnu_cxx::__normal_iterator"** %4, align 8
  call void @llvm.dbg.declare(metadata %"class.__gnu_cxx::__normal_iterator"** %4, metadata !3945, metadata !3590), !dbg !3946
  %5 = load %"class.__gnu_cxx::__normal_iterator"*, %"class.__gnu_cxx::__normal_iterator"** %3, align 8, !dbg !3947
  %6 = call dereferenceable(8) %"class.std::shared_ptr.0"** @_ZNK9__gnu_cxx17__normal_iteratorIPSt10shared_ptrIN15readers_writers6ReaderEESt6vectorIS4_SaIS4_EEE4baseEv(%"class.__gnu_cxx::__normal_iterator"* %5) #3, !dbg !3948
  %7 = load %"class.std::shared_ptr.0"*, %"class.std::shared_ptr.0"** %6, align 8, !dbg !3948
  %8 = load %"class.__gnu_cxx::__normal_iterator"*, %"class.__gnu_cxx::__normal_iterator"** %4, align 8, !dbg !3949
  %9 = call dereferenceable(8) %"class.std::shared_ptr.0"** @_ZNK9__gnu_cxx17__normal_iteratorIPSt10shared_ptrIN15readers_writers6ReaderEESt6vectorIS4_SaIS4_EEE4baseEv(%"class.__gnu_cxx::__normal_iterator"* %8) #3, !dbg !3950
  %10 = load %"class.std::shared_ptr.0"*, %"class.std::shared_ptr.0"** %9, align 8, !dbg !3952
  %11 = icmp ne %"class.std::shared_ptr.0"* %7, %10, !dbg !3953
  ret i1 %11, !dbg !3954
}

; Function Attrs: nounwind uwtable
define linkonce_odr dereferenceable(16) %"class.std::shared_ptr.0"* @_ZNK9__gnu_cxx17__normal_iteratorIPSt10shared_ptrIN15readers_writers6ReaderEESt6vectorIS4_SaIS4_EEEdeEv(%"class.__gnu_cxx::__normal_iterator"*) #4 comdat align 2 !dbg !3955 {
  %2 = alloca %"class.__gnu_cxx::__normal_iterator"*, align 8
  store %"class.__gnu_cxx::__normal_iterator"* %0, %"class.__gnu_cxx::__normal_iterator"** %2, align 8
  call void @llvm.dbg.declare(metadata %"class.__gnu_cxx::__normal_iterator"** %2, metadata !3956, metadata !3590), !dbg !3958
  %3 = load %"class.__gnu_cxx::__normal_iterator"*, %"class.__gnu_cxx::__normal_iterator"** %2, align 8
  %4 = getelementptr inbounds %"class.__gnu_cxx::__normal_iterator", %"class.__gnu_cxx::__normal_iterator"* %3, i32 0, i32 0, !dbg !3959
  %5 = load %"class.std::shared_ptr.0"*, %"class.std::shared_ptr.0"** %4, align 8, !dbg !3959
  ret %"class.std::shared_ptr.0"* %5, !dbg !3960
}

; Function Attrs: nounwind uwtable
define linkonce_odr %"class.readers_writers::Reader"* @_ZNKSt12__shared_ptrIN15readers_writers6ReaderELN9__gnu_cxx12_Lock_policyE2EEptEv(%"class.std::__shared_ptr.1"*) #4 comdat align 2 !dbg !3961 {
  %2 = alloca %"class.std::__shared_ptr.1"*, align 8
  store %"class.std::__shared_ptr.1"* %0, %"class.std::__shared_ptr.1"** %2, align 8
  call void @llvm.dbg.declare(metadata %"class.std::__shared_ptr.1"** %2, metadata !3962, metadata !3590), !dbg !3964
  %3 = load %"class.std::__shared_ptr.1"*, %"class.std::__shared_ptr.1"** %2, align 8
  %4 = getelementptr inbounds %"class.std::__shared_ptr.1", %"class.std::__shared_ptr.1"* %3, i32 0, i32 0, !dbg !3965
  %5 = load %"class.readers_writers::Reader"*, %"class.readers_writers::Reader"** %4, align 8, !dbg !3965
  ret %"class.readers_writers::Reader"* %5, !dbg !3966
}

; Function Attrs: uwtable
define linkonce_odr void @_ZN15readers_writers6Reader5startEv(%"class.readers_writers::Reader"*) #0 comdat align 2 !dbg !3967 {
  %2 = alloca %"class.readers_writers::Reader"*, align 8
  %3 = alloca { i64, i64 }, align 8
  %4 = alloca %"class.readers_writers::Reader"*, align 8
  store %"class.readers_writers::Reader"* %0, %"class.readers_writers::Reader"** %2, align 8
  call void @llvm.dbg.declare(metadata %"class.readers_writers::Reader"** %2, metadata !3968, metadata !3590), !dbg !3969
  %5 = load %"class.readers_writers::Reader"*, %"class.readers_writers::Reader"** %2, align 8
  %6 = getelementptr inbounds %"class.readers_writers::Reader", %"class.readers_writers::Reader"* %5, i32 0, i32 0, !dbg !3970
  store { i64, i64 } { i64 ptrtoint (void (%"class.readers_writers::Reader"*)* @_ZN15readers_writers6Reader4execEv to i64), i64 0 }, { i64, i64 }* %3, align 8, !dbg !3971
  store %"class.readers_writers::Reader"* %5, %"class.readers_writers::Reader"** %4, align 8, !dbg !3972
  call void @_ZN9IrsThreadclIJMN15readers_writers6ReaderEFvvEPS2_EEEvDpOT_(%class.IrsThread* %6, { i64, i64 }* dereferenceable(16) %3, %"class.readers_writers::Reader"** dereferenceable(8) %4), !dbg !3970
  ret void, !dbg !3973
}

; Function Attrs: nounwind uwtable
define linkonce_odr dereferenceable(8) %"class.__gnu_cxx::__normal_iterator"* @_ZN9__gnu_cxx17__normal_iteratorIPSt10shared_ptrIN15readers_writers6ReaderEESt6vectorIS4_SaIS4_EEEppEv(%"class.__gnu_cxx::__normal_iterator"*) #4 comdat align 2 !dbg !3974 {
  %2 = alloca %"class.__gnu_cxx::__normal_iterator"*, align 8
  store %"class.__gnu_cxx::__normal_iterator"* %0, %"class.__gnu_cxx::__normal_iterator"** %2, align 8
  call void @llvm.dbg.declare(metadata %"class.__gnu_cxx::__normal_iterator"** %2, metadata !3975, metadata !3590), !dbg !3977
  %3 = load %"class.__gnu_cxx::__normal_iterator"*, %"class.__gnu_cxx::__normal_iterator"** %2, align 8
  %4 = getelementptr inbounds %"class.__gnu_cxx::__normal_iterator", %"class.__gnu_cxx::__normal_iterator"* %3, i32 0, i32 0, !dbg !3978
  %5 = load %"class.std::shared_ptr.0"*, %"class.std::shared_ptr.0"** %4, align 8, !dbg !3979
  %6 = getelementptr inbounds %"class.std::shared_ptr.0", %"class.std::shared_ptr.0"* %5, i32 1, !dbg !3979
  store %"class.std::shared_ptr.0"* %6, %"class.std::shared_ptr.0"** %4, align 8, !dbg !3979
  ret %"class.__gnu_cxx::__normal_iterator"* %3, !dbg !3980
}

; Function Attrs: uwtable
define linkonce_odr void @_ZN15readers_writers6Writer4joinEv(%"class.readers_writers::Writer"*) #0 comdat align 2 !dbg !3981 {
  %2 = alloca %"class.readers_writers::Writer"*, align 8
  store %"class.readers_writers::Writer"* %0, %"class.readers_writers::Writer"** %2, align 8
  call void @llvm.dbg.declare(metadata %"class.readers_writers::Writer"** %2, metadata !3982, metadata !3590), !dbg !3983
  %3 = load %"class.readers_writers::Writer"*, %"class.readers_writers::Writer"** %2, align 8
  %4 = getelementptr inbounds %"class.readers_writers::Writer", %"class.readers_writers::Writer"* %3, i32 0, i32 0, !dbg !3984
  call void @_ZN9IrsThread4joinEv(%class.IrsThread* %4), !dbg !3985
  ret void, !dbg !3986
}

; Function Attrs: uwtable
define linkonce_odr void @_ZN15readers_writers6Reader4joinEv(%"class.readers_writers::Reader"*) #0 comdat align 2 !dbg !3987 {
  %2 = alloca %"class.readers_writers::Reader"*, align 8
  store %"class.readers_writers::Reader"* %0, %"class.readers_writers::Reader"** %2, align 8
  call void @llvm.dbg.declare(metadata %"class.readers_writers::Reader"** %2, metadata !3988, metadata !3590), !dbg !3989
  %3 = load %"class.readers_writers::Reader"*, %"class.readers_writers::Reader"** %2, align 8
  %4 = getelementptr inbounds %"class.readers_writers::Reader", %"class.readers_writers::Reader"* %3, i32 0, i32 0, !dbg !3990
  call void @_ZN9IrsThread4joinEv(%class.IrsThread* %4), !dbg !3991
  ret void, !dbg !3992
}

; Function Attrs: uwtable
define linkonce_odr i64 @_ZNSt6chrono13duration_castINS_8durationIlSt5ratioILl1ELl1000000EEEElS2_ILl1ELl1000000000EEEENSt9enable_ifIXsr13__is_durationIT_EE5valueES7_E4typeERKNS1_IT0_T1_EE(%"struct.std::chrono::duration"* dereferenceable(8)) #0 comdat !dbg !3993 {
  %2 = alloca %"struct.std::chrono::duration.2", align 8
  %3 = alloca %"struct.std::chrono::duration"*, align 8
  store %"struct.std::chrono::duration"* %0, %"struct.std::chrono::duration"** %3, align 8
  call void @llvm.dbg.declare(metadata %"struct.std::chrono::duration"** %3, metadata !4002, metadata !3590), !dbg !4003
  %4 = load %"struct.std::chrono::duration"*, %"struct.std::chrono::duration"** %3, align 8, !dbg !4004
  %5 = call i64 @_ZNSt6chrono20__duration_cast_implINS_8durationIlSt5ratioILl1ELl1000000EEEES2_ILl1ELl1000EElLb1ELb0EE6__castIlS2_ILl1ELl1000000000EEEES4_RKNS1_IT_T0_EE(%"struct.std::chrono::duration"* dereferenceable(8) %4), !dbg !4005
  %6 = getelementptr inbounds %"struct.std::chrono::duration.2", %"struct.std::chrono::duration.2"* %2, i32 0, i32 0, !dbg !4005
  store i64 %5, i64* %6, align 8, !dbg !4005
  %7 = getelementptr inbounds %"struct.std::chrono::duration.2", %"struct.std::chrono::duration.2"* %2, i32 0, i32 0, !dbg !4006
  %8 = load i64, i64* %7, align 8, !dbg !4006
  ret i64 %8, !dbg !4006
}

; Function Attrs: uwtable
define linkonce_odr i64 @_ZNSt6chronomiINS_3_V212system_clockENS_8durationIlSt5ratioILl1ELl1000000000EEEES6_EENSt11common_typeIJT0_T1_EE4typeERKNS_10time_pointIT_S8_EERKNSC_ISD_S9_EE(%"struct.std::chrono::time_point"* dereferenceable(8), %"struct.std::chrono::time_point"* dereferenceable(8)) #0 comdat !dbg !4007 {
  %3 = alloca %"struct.std::chrono::duration", align 8
  %4 = alloca %"struct.std::chrono::time_point"*, align 8
  %5 = alloca %"struct.std::chrono::time_point"*, align 8
  %6 = alloca %"struct.std::chrono::duration", align 8
  %7 = alloca %"struct.std::chrono::duration", align 8
  store %"struct.std::chrono::time_point"* %0, %"struct.std::chrono::time_point"** %4, align 8
  call void @llvm.dbg.declare(metadata %"struct.std::chrono::time_point"** %4, metadata !4014, metadata !3590), !dbg !4015
  store %"struct.std::chrono::time_point"* %1, %"struct.std::chrono::time_point"** %5, align 8
  call void @llvm.dbg.declare(metadata %"struct.std::chrono::time_point"** %5, metadata !4016, metadata !3590), !dbg !4017
  %8 = load %"struct.std::chrono::time_point"*, %"struct.std::chrono::time_point"** %4, align 8, !dbg !4018
  %9 = call i64 @_ZNKSt6chrono10time_pointINS_3_V212system_clockENS_8durationIlSt5ratioILl1ELl1000000000EEEEE16time_since_epochEv(%"struct.std::chrono::time_point"* %8), !dbg !4019
  %10 = getelementptr inbounds %"struct.std::chrono::duration", %"struct.std::chrono::duration"* %6, i32 0, i32 0, !dbg !4019
  store i64 %9, i64* %10, align 8, !dbg !4019
  %11 = load %"struct.std::chrono::time_point"*, %"struct.std::chrono::time_point"** %5, align 8, !dbg !4020
  %12 = call i64 @_ZNKSt6chrono10time_pointINS_3_V212system_clockENS_8durationIlSt5ratioILl1ELl1000000000EEEEE16time_since_epochEv(%"struct.std::chrono::time_point"* %11), !dbg !4021
  %13 = getelementptr inbounds %"struct.std::chrono::duration", %"struct.std::chrono::duration"* %7, i32 0, i32 0, !dbg !4023
  store i64 %12, i64* %13, align 8, !dbg !4023
  %14 = call i64 @_ZNSt6chronomiIlSt5ratioILl1ELl1000000000EElS2_EENSt11common_typeIJNS_8durationIT_T0_EENS4_IT1_T2_EEEE4typeERKS7_RKSA_(%"struct.std::chrono::duration"* dereferenceable(8) %6, %"struct.std::chrono::duration"* dereferenceable(8) %7), !dbg !4024
  %15 = getelementptr inbounds %"struct.std::chrono::duration", %"struct.std::chrono::duration"* %3, i32 0, i32 0, !dbg !4026
  store i64 %14, i64* %15, align 8, !dbg !4026
  %16 = getelementptr inbounds %"struct.std::chrono::duration", %"struct.std::chrono::duration"* %3, i32 0, i32 0, !dbg !4027
  %17 = load i64, i64* %16, align 8, !dbg !4027
  ret i64 %17, !dbg !4027
}

; Function Attrs: nounwind uwtable
define linkonce_odr i64 @_ZNKSt6chrono8durationIlSt5ratioILl1ELl1000000EEE5countEv(%"struct.std::chrono::duration.2"*) #4 comdat align 2 !dbg !4028 {
  %2 = alloca %"struct.std::chrono::duration.2"*, align 8
  store %"struct.std::chrono::duration.2"* %0, %"struct.std::chrono::duration.2"** %2, align 8
  call void @llvm.dbg.declare(metadata %"struct.std::chrono::duration.2"** %2, metadata !4029, metadata !3590), !dbg !4031
  %3 = load %"struct.std::chrono::duration.2"*, %"struct.std::chrono::duration.2"** %2, align 8
  %4 = getelementptr inbounds %"struct.std::chrono::duration.2", %"struct.std::chrono::duration.2"* %3, i32 0, i32 0, !dbg !4032
  %5 = load i64, i64* %4, align 8, !dbg !4032
  ret i64 %5, !dbg !4033
}

declare dereferenceable(272) %"class.std::basic_ostream"* @_ZNSolsEl(%"class.std::basic_ostream"*, i64) #1

declare dereferenceable(272) %"class.std::basic_ostream"* @_ZNSolsEPFRSoS_E(%"class.std::basic_ostream"*, %"class.std::basic_ostream"* (%"class.std::basic_ostream"*)*) #1

declare dereferenceable(272) %"class.std::basic_ostream"* @_ZSt4endlIcSt11char_traitsIcEERSt13basic_ostreamIT_T0_ES6_(%"class.std::basic_ostream"* dereferenceable(272)) #1

; Function Attrs: nounwind uwtable
define linkonce_odr void @_ZNSt6vectorISt10shared_ptrIN15readers_writers6ReaderEESaIS3_EED2Ev(%"class.std::vector"*) unnamed_addr #4 comdat align 2 personality i8* bitcast (i32 (...)* @__gxx_personality_v0 to i8*) !dbg !4034 {
  %2 = alloca %"class.std::vector"*, align 8
  %3 = alloca i8*
  %4 = alloca i32
  store %"class.std::vector"* %0, %"class.std::vector"** %2, align 8
  call void @llvm.dbg.declare(metadata %"class.std::vector"** %2, metadata !4035, metadata !3590), !dbg !4036
  %5 = load %"class.std::vector"*, %"class.std::vector"** %2, align 8
  %6 = bitcast %"class.std::vector"* %5 to %"struct.std::_Vector_base"*, !dbg !4037
  %7 = getelementptr inbounds %"struct.std::_Vector_base", %"struct.std::_Vector_base"* %6, i32 0, i32 0, !dbg !4037
  %8 = getelementptr inbounds %"struct.std::_Vector_base<std::shared_ptr<readers_writers::Reader>, std::allocator<std::shared_ptr<readers_writers::Reader> > >::_Vector_impl", %"struct.std::_Vector_base<std::shared_ptr<readers_writers::Reader>, std::allocator<std::shared_ptr<readers_writers::Reader> > >::_Vector_impl"* %7, i32 0, i32 0, !dbg !4039
  %9 = load %"class.std::shared_ptr.0"*, %"class.std::shared_ptr.0"** %8, align 8, !dbg !4039
  %10 = bitcast %"class.std::vector"* %5 to %"struct.std::_Vector_base"*, !dbg !4040
  %11 = getelementptr inbounds %"struct.std::_Vector_base", %"struct.std::_Vector_base"* %10, i32 0, i32 0, !dbg !4040
  %12 = getelementptr inbounds %"struct.std::_Vector_base<std::shared_ptr<readers_writers::Reader>, std::allocator<std::shared_ptr<readers_writers::Reader> > >::_Vector_impl", %"struct.std::_Vector_base<std::shared_ptr<readers_writers::Reader>, std::allocator<std::shared_ptr<readers_writers::Reader> > >::_Vector_impl"* %11, i32 0, i32 1, !dbg !4041
  %13 = load %"class.std::shared_ptr.0"*, %"class.std::shared_ptr.0"** %12, align 8, !dbg !4041
  %14 = bitcast %"class.std::vector"* %5 to %"struct.std::_Vector_base"*, !dbg !4042
  %15 = call dereferenceable(1) %"class.std::allocator"* @_ZNSt12_Vector_baseISt10shared_ptrIN15readers_writers6ReaderEESaIS3_EE19_M_get_Tp_allocatorEv(%"struct.std::_Vector_base"* %14) #3, !dbg !4042
  invoke void @_ZSt8_DestroyIPSt10shared_ptrIN15readers_writers6ReaderEES3_EvT_S5_RSaIT0_E(%"class.std::shared_ptr.0"* %9, %"class.std::shared_ptr.0"* %13, %"class.std::allocator"* dereferenceable(1) %15)
          to label %16 unwind label %18, !dbg !4043

; <label>:16:                                     ; preds = %1
  %17 = bitcast %"class.std::vector"* %5 to %"struct.std::_Vector_base"*, !dbg !4044
  call void @_ZNSt12_Vector_baseISt10shared_ptrIN15readers_writers6ReaderEESaIS3_EED2Ev(%"struct.std::_Vector_base"* %17) #3, !dbg !4044
  ret void, !dbg !4044

; <label>:18:                                     ; preds = %1
  %19 = landingpad { i8*, i32 }
          catch i8* null, !dbg !4046
  %20 = extractvalue { i8*, i32 } %19, 0, !dbg !4046
  store i8* %20, i8** %3, align 8, !dbg !4046
  %21 = extractvalue { i8*, i32 } %19, 1, !dbg !4046
  store i32 %21, i32* %4, align 4, !dbg !4046
  %22 = bitcast %"class.std::vector"* %5 to %"struct.std::_Vector_base"*, !dbg !4046
  call void @_ZNSt12_Vector_baseISt10shared_ptrIN15readers_writers6ReaderEESaIS3_EED2Ev(%"struct.std::_Vector_base"* %22) #3, !dbg !4046
  br label %23, !dbg !4046

; <label>:23:                                     ; preds = %18
  %24 = load i8*, i8** %3, align 8, !dbg !4048
  call void @__clang_call_terminate(i8* %24) #14, !dbg !4048
  unreachable, !dbg !4048
}

; Function Attrs: inlinehint nounwind uwtable
define linkonce_odr void @_ZNSt10shared_ptrIN15readers_writers6WriterEED2Ev(%"class.std::shared_ptr"*) unnamed_addr #9 comdat align 2 !dbg !4050 {
  %2 = alloca %"class.std::shared_ptr"*, align 8
  store %"class.std::shared_ptr"* %0, %"class.std::shared_ptr"** %2, align 8
  call void @llvm.dbg.declare(metadata %"class.std::shared_ptr"** %2, metadata !4052, metadata !3590), !dbg !4053
  %3 = load %"class.std::shared_ptr"*, %"class.std::shared_ptr"** %2, align 8
  %4 = bitcast %"class.std::shared_ptr"* %3 to %"class.std::__shared_ptr"*, !dbg !4054
  call void @_ZNSt12__shared_ptrIN15readers_writers6WriterELN9__gnu_cxx12_Lock_policyE2EED2Ev(%"class.std::__shared_ptr"* %4) #3, !dbg !4054
  ret void, !dbg !4056
}

; Function Attrs: nounwind uwtable
define linkonce_odr void @_ZN9IrsThreadC2Ei(%class.IrsThread*, i32) unnamed_addr #4 comdat align 2 !dbg !4057 {
  %3 = alloca %class.IrsThread*, align 8
  %4 = alloca i32, align 4
  store %class.IrsThread* %0, %class.IrsThread** %3, align 8
  call void @llvm.dbg.declare(metadata %class.IrsThread** %3, metadata !4058, metadata !3590), !dbg !4060
  store i32 %1, i32* %4, align 4
  call void @llvm.dbg.declare(metadata i32* %4, metadata !4061, metadata !3590), !dbg !4062
  %5 = load %class.IrsThread*, %class.IrsThread** %3, align 8
  %6 = getelementptr inbounds %class.IrsThread, %class.IrsThread* %5, i32 0, i32 0, !dbg !4063
  call void @_ZNSt6threadC2Ev(%"class.std::thread"* %6) #3, !dbg !4063
  %7 = getelementptr inbounds %class.IrsThread, %class.IrsThread* %5, i32 0, i32 1, !dbg !4064
  %8 = load i32, i32* %4, align 4, !dbg !4065
  store i32 %8, i32* %7, align 8, !dbg !4064
  ret void, !dbg !4066
}

; Function Attrs: nounwind uwtable
define linkonce_odr void @_ZNSt6threadC2Ev(%"class.std::thread"*) unnamed_addr #4 comdat align 2 !dbg !4067 {
  %2 = alloca %"class.std::thread"*, align 8
  store %"class.std::thread"* %0, %"class.std::thread"** %2, align 8
  call void @llvm.dbg.declare(metadata %"class.std::thread"** %2, metadata !4068, metadata !3590), !dbg !4070
  %3 = load %"class.std::thread"*, %"class.std::thread"** %2, align 8
  %4 = getelementptr inbounds %"class.std::thread", %"class.std::thread"* %3, i32 0, i32 0, !dbg !4071
  call void @_ZNSt6thread2idC2Ev(%"class.std::thread::id"* %4) #3, !dbg !4071
  ret void, !dbg !4072
}

; Function Attrs: nounwind uwtable
define linkonce_odr void @_ZNSt6thread2idC2Ev(%"class.std::thread::id"*) unnamed_addr #4 comdat align 2 !dbg !4073 {
  %2 = alloca %"class.std::thread::id"*, align 8
  store %"class.std::thread::id"* %0, %"class.std::thread::id"** %2, align 8
  call void @llvm.dbg.declare(metadata %"class.std::thread::id"** %2, metadata !4074, metadata !3590), !dbg !4076
  %3 = load %"class.std::thread::id"*, %"class.std::thread::id"** %2, align 8
  %4 = getelementptr inbounds %"class.std::thread::id", %"class.std::thread::id"* %3, i32 0, i32 0, !dbg !4077
  store i64 0, i64* %4, align 8, !dbg !4077
  ret void, !dbg !4078
}

; Function Attrs: nounwind uwtable
define linkonce_odr void @_ZNSt12__shared_ptrIN15readers_writers6ReaderELN9__gnu_cxx12_Lock_policyE2EED2Ev(%"class.std::__shared_ptr.1"*) unnamed_addr #4 comdat align 2 !dbg !4079 {
  %2 = alloca %"class.std::__shared_ptr.1"*, align 8
  store %"class.std::__shared_ptr.1"* %0, %"class.std::__shared_ptr.1"** %2, align 8
  call void @llvm.dbg.declare(metadata %"class.std::__shared_ptr.1"** %2, metadata !4080, metadata !3590), !dbg !4082
  %3 = load %"class.std::__shared_ptr.1"*, %"class.std::__shared_ptr.1"** %2, align 8
  %4 = getelementptr inbounds %"class.std::__shared_ptr.1", %"class.std::__shared_ptr.1"* %3, i32 0, i32 1, !dbg !4083
  call void @_ZNSt14__shared_countILN9__gnu_cxx12_Lock_policyE2EED2Ev(%"class.std::__shared_count"* %4) #3, !dbg !4083
  ret void, !dbg !4085
}

; Function Attrs: nounwind uwtable
define linkonce_odr void @_ZNSt14__shared_countILN9__gnu_cxx12_Lock_policyE2EED2Ev(%"class.std::__shared_count"*) unnamed_addr #4 comdat align 2 !dbg !4086 {
  %2 = alloca %"class.std::__shared_count"*, align 8
  store %"class.std::__shared_count"* %0, %"class.std::__shared_count"** %2, align 8
  call void @llvm.dbg.declare(metadata %"class.std::__shared_count"** %2, metadata !4087, metadata !3590), !dbg !4089
  %3 = load %"class.std::__shared_count"*, %"class.std::__shared_count"** %2, align 8
  %4 = getelementptr inbounds %"class.std::__shared_count", %"class.std::__shared_count"* %3, i32 0, i32 0, !dbg !4090
  %5 = load %"class.std::_Sp_counted_base"*, %"class.std::_Sp_counted_base"** %4, align 8, !dbg !4090
  %6 = icmp ne %"class.std::_Sp_counted_base"* %5, null, !dbg !4093
  br i1 %6, label %7, label %10, !dbg !4094

; <label>:7:                                      ; preds = %1
  %8 = getelementptr inbounds %"class.std::__shared_count", %"class.std::__shared_count"* %3, i32 0, i32 0, !dbg !4095
  %9 = load %"class.std::_Sp_counted_base"*, %"class.std::_Sp_counted_base"** %8, align 8, !dbg !4095
  call void @_ZNSt16_Sp_counted_baseILN9__gnu_cxx12_Lock_policyE2EE10_M_releaseEv(%"class.std::_Sp_counted_base"* %9) #3, !dbg !4096
  br label %10, !dbg !4095

; <label>:10:                                     ; preds = %7, %1
  ret void, !dbg !4097
}

; Function Attrs: nounwind uwtable
define linkonce_odr void @_ZNSt16_Sp_counted_baseILN9__gnu_cxx12_Lock_policyE2EE10_M_releaseEv(%"class.std::_Sp_counted_base"*) #4 comdat align 2 personality i8* bitcast (i32 (...)* @__gxx_personality_v0 to i8*) !dbg !4098 {
  %2 = alloca %"class.std::_Sp_counted_base"*, align 8
  store %"class.std::_Sp_counted_base"* %0, %"class.std::_Sp_counted_base"** %2, align 8
  call void @llvm.dbg.declare(metadata %"class.std::_Sp_counted_base"** %2, metadata !4099, metadata !3590), !dbg !4100
  %3 = load %"class.std::_Sp_counted_base"*, %"class.std::_Sp_counted_base"** %2, align 8
  %4 = getelementptr inbounds %"class.std::_Sp_counted_base", %"class.std::_Sp_counted_base"* %3, i32 0, i32 1, !dbg !4101
  %5 = invoke i32 @_ZN9__gnu_cxxL27__exchange_and_add_dispatchEPii(i32* %4, i32 -1)
          to label %6 unwind label %24, !dbg !4103

; <label>:6:                                      ; preds = %1
  %7 = icmp eq i32 %5, 1, !dbg !4104
  br i1 %7, label %8, label %23, !dbg !4106

; <label>:8:                                      ; preds = %6
  %9 = bitcast %"class.std::_Sp_counted_base"* %3 to void (%"class.std::_Sp_counted_base"*)***, !dbg !4107
  %10 = load void (%"class.std::_Sp_counted_base"*)**, void (%"class.std::_Sp_counted_base"*)*** %9, align 8, !dbg !4107
  %11 = getelementptr inbounds void (%"class.std::_Sp_counted_base"*)*, void (%"class.std::_Sp_counted_base"*)** %10, i64 2, !dbg !4107
  %12 = load void (%"class.std::_Sp_counted_base"*)*, void (%"class.std::_Sp_counted_base"*)** %11, align 8, !dbg !4107
  call void %12(%"class.std::_Sp_counted_base"* %3) #3, !dbg !4107
  %13 = getelementptr inbounds %"class.std::_Sp_counted_base", %"class.std::_Sp_counted_base"* %3, i32 0, i32 2, !dbg !4109
  %14 = invoke i32 @_ZN9__gnu_cxxL27__exchange_and_add_dispatchEPii(i32* %13, i32 -1)
          to label %15 unwind label %24, !dbg !4111

; <label>:15:                                     ; preds = %8
  %16 = icmp eq i32 %14, 1, !dbg !4112
  br i1 %16, label %17, label %22, !dbg !4113

; <label>:17:                                     ; preds = %15
  %18 = bitcast %"class.std::_Sp_counted_base"* %3 to void (%"class.std::_Sp_counted_base"*)***, !dbg !4115
  %19 = load void (%"class.std::_Sp_counted_base"*)**, void (%"class.std::_Sp_counted_base"*)*** %18, align 8, !dbg !4115
  %20 = getelementptr inbounds void (%"class.std::_Sp_counted_base"*)*, void (%"class.std::_Sp_counted_base"*)** %19, i64 3, !dbg !4115
  %21 = load void (%"class.std::_Sp_counted_base"*)*, void (%"class.std::_Sp_counted_base"*)** %20, align 8, !dbg !4115
  call void %21(%"class.std::_Sp_counted_base"* %3) #3, !dbg !4115
  br label %22, !dbg !4117

; <label>:22:                                     ; preds = %17, %15
  br label %23, !dbg !4118

; <label>:23:                                     ; preds = %22, %6
  ret void, !dbg !4119

; <label>:24:                                     ; preds = %8, %1
  %25 = landingpad { i8*, i32 }
          catch i8* null, !dbg !4120
  %26 = extractvalue { i8*, i32 } %25, 0, !dbg !4120
  call void @__clang_call_terminate(i8* %26) #14, !dbg !4120
  unreachable, !dbg !4120
}

; Function Attrs: inlinehint uwtable
define internal i32 @_ZN9__gnu_cxxL27__exchange_and_add_dispatchEPii(i32*, i32) #10 !dbg !4122 {
  %3 = alloca i32, align 4
  %4 = alloca i32*, align 8
  %5 = alloca i32, align 4
  store i32* %0, i32** %4, align 8
  call void @llvm.dbg.declare(metadata i32** %4, metadata !4127, metadata !3590), !dbg !4128
  store i32 %1, i32* %5, align 4
  call void @llvm.dbg.declare(metadata i32* %5, metadata !4129, metadata !3590), !dbg !4130
  %6 = call i32 @_ZL18__gthread_active_pv(), !dbg !4131
  %7 = icmp ne i32 %6, 0, !dbg !4131
  br i1 %7, label %8, label %12, !dbg !4133

; <label>:8:                                      ; preds = %2
  %9 = load i32*, i32** %4, align 8, !dbg !4134
  %10 = load i32, i32* %5, align 4, !dbg !4135
  %11 = call i32 @_ZN9__gnu_cxxL18__exchange_and_addEPVii(i32* %9, i32 %10), !dbg !4136
  store i32 %11, i32* %3, align 4, !dbg !4137
  br label %16, !dbg !4137

; <label>:12:                                     ; preds = %2
  %13 = load i32*, i32** %4, align 8, !dbg !4138
  %14 = load i32, i32* %5, align 4, !dbg !4139
  %15 = call i32 @_ZN9__gnu_cxxL25__exchange_and_add_singleEPii(i32* %13, i32 %14), !dbg !4140
  store i32 %15, i32* %3, align 4, !dbg !4141
  br label %16, !dbg !4141

; <label>:16:                                     ; preds = %12, %8
  %17 = load i32, i32* %3, align 4, !dbg !4142
  ret i32 %17, !dbg !4142
}

; Function Attrs: noinline noreturn nounwind
define linkonce_odr hidden void @__clang_call_terminate(i8*) #11 comdat {
  %2 = call i8* @__cxa_begin_catch(i8* %0) #3
  call void @_ZSt9terminatev() #14
  unreachable
}

declare i8* @__cxa_begin_catch(i8*)

declare void @_ZSt9terminatev()

; Function Attrs: inlinehint nounwind uwtable
define internal i32 @_ZL18__gthread_active_pv() #9 !dbg !1643 {
  %1 = load i8*, i8** @_ZZL18__gthread_active_pvE20__gthread_active_ptr, align 8, !dbg !4143
  %2 = icmp ne i8* %1, null, !dbg !4144
  %3 = zext i1 %2 to i32, !dbg !4143
  ret i32 %3, !dbg !4145
}

; Function Attrs: inlinehint nounwind uwtable
define internal i32 @_ZN9__gnu_cxxL18__exchange_and_addEPVii(i32*, i32) #9 !dbg !4146 {
  %3 = alloca i32*, align 8
  %4 = alloca i32, align 4
  %5 = alloca i32, align 4
  %6 = alloca i32, align 4
  store i32* %0, i32** %3, align 8
  call void @llvm.dbg.declare(metadata i32** %3, metadata !4151, metadata !3590), !dbg !4152
  store i32 %1, i32* %4, align 4
  call void @llvm.dbg.declare(metadata i32* %4, metadata !4153, metadata !3590), !dbg !4154
  %7 = load i32*, i32** %3, align 8, !dbg !4155
  %8 = load i32, i32* %4, align 4, !dbg !4156
  store i32 %8, i32* %5, align 4, !dbg !4157
  %9 = load i32, i32* %5, align 4, !dbg !4157
  %10 = atomicrmw volatile add i32* %7, i32 %9 acq_rel, !dbg !4157
  store i32 %10, i32* %6, align 4, !dbg !4157
  %11 = load i32, i32* %6, align 4, !dbg !4157
  ret i32 %11, !dbg !4158
}

; Function Attrs: inlinehint nounwind uwtable
define internal i32 @_ZN9__gnu_cxxL25__exchange_and_add_singleEPii(i32*, i32) #9 !dbg !4159 {
  %3 = alloca i32*, align 8
  %4 = alloca i32, align 4
  %5 = alloca i32, align 4
  store i32* %0, i32** %3, align 8
  call void @llvm.dbg.declare(metadata i32** %3, metadata !4160, metadata !3590), !dbg !4161
  store i32 %1, i32* %4, align 4
  call void @llvm.dbg.declare(metadata i32* %4, metadata !4162, metadata !3590), !dbg !4163
  call void @llvm.dbg.declare(metadata i32* %5, metadata !4164, metadata !3590), !dbg !4165
  %6 = load i32*, i32** %3, align 8, !dbg !4166
  %7 = load i32, i32* %6, align 4, !dbg !4167
  store i32 %7, i32* %5, align 4, !dbg !4165
  %8 = load i32, i32* %4, align 4, !dbg !4168
  %9 = load i32*, i32** %3, align 8, !dbg !4169
  %10 = load i32, i32* %9, align 4, !dbg !4170
  %11 = add nsw i32 %10, %8, !dbg !4170
  store i32 %11, i32* %9, align 4, !dbg !4170
  %12 = load i32, i32* %5, align 4, !dbg !4171
  ret i32 %12, !dbg !4172
}

; Function Attrs: nounwind
declare extern_weak i32 @__pthread_key_create(i32*, void (i8*)*) #2

; Function Attrs: uwtable
define linkonce_odr void @_ZN9IrsThreadclIJMN15readers_writers6WriterEFvvEPS2_EEEvDpOT_(%class.IrsThread*, { i64, i64 }* dereferenceable(16), %"class.readers_writers::Writer"** dereferenceable(8)) #0 comdat align 2 !dbg !4173 {
  %4 = alloca %class.IrsThread*, align 8
  %5 = alloca { i64, i64 }*, align 8
  %6 = alloca %"class.readers_writers::Writer"**, align 8
  %7 = alloca %"class.std::thread", align 8
  store %class.IrsThread* %0, %class.IrsThread** %4, align 8
  call void @llvm.dbg.declare(metadata %class.IrsThread** %4, metadata !4182, metadata !3590), !dbg !4183
  store { i64, i64 }* %1, { i64, i64 }** %5, align 8
  call void @llvm.dbg.declare(metadata { i64, i64 }** %5, metadata !4184, metadata !3590), !dbg !4185
  store %"class.readers_writers::Writer"** %2, %"class.readers_writers::Writer"*** %6, align 8
  call void @llvm.dbg.declare(metadata %"class.readers_writers::Writer"*** %6, metadata !4186, metadata !3590), !dbg !4185
  %8 = load %class.IrsThread*, %class.IrsThread** %4, align 8
  %9 = getelementptr inbounds %class.IrsThread, %class.IrsThread* %8, i32 0, i32 0, !dbg !4187
  %10 = load { i64, i64 }*, { i64, i64 }** %5, align 8, !dbg !4188
  %11 = call dereferenceable(16) { i64, i64 }* @_ZSt7forwardIMN15readers_writers6WriterEFvvEEOT_RNSt16remove_referenceIS4_E4typeE({ i64, i64 }* dereferenceable(16) %10) #3, !dbg !4189
  %12 = load %"class.readers_writers::Writer"**, %"class.readers_writers::Writer"*** %6, align 8, !dbg !4188
  %13 = call dereferenceable(8) %"class.readers_writers::Writer"** @_ZSt7forwardIPN15readers_writers6WriterEEOT_RNSt16remove_referenceIS3_E4typeE(%"class.readers_writers::Writer"** dereferenceable(8) %12) #3, !dbg !4190
  call void @_ZNSt6threadC2IMN15readers_writers6WriterEFvvEJPS2_EEEOT_DpOT0_(%"class.std::thread"* %7, { i64, i64 }* dereferenceable(16) %11, %"class.readers_writers::Writer"** dereferenceable(8) %13), !dbg !4192
  %14 = call dereferenceable(8) %"class.std::thread"* @_ZNSt6threadaSEOS_(%"class.std::thread"* %9, %"class.std::thread"* dereferenceable(8) %7) #3, !dbg !4194
  call void @_ZNSt6threadD2Ev(%"class.std::thread"* %7) #3, !dbg !4196
  ret void, !dbg !4198
}

; Function Attrs: nounwind uwtable
define linkonce_odr void @_ZN15readers_writers6Writer4execEv(%"class.readers_writers::Writer"*) #4 comdat align 2 !dbg !4199 {
  %2 = alloca %"class.readers_writers::Writer"*, align 8
  store %"class.readers_writers::Writer"* %0, %"class.readers_writers::Writer"** %2, align 8
  call void @llvm.dbg.declare(metadata %"class.readers_writers::Writer"** %2, metadata !4200, metadata !3590), !dbg !4201
  %3 = load %"class.readers_writers::Writer"*, %"class.readers_writers::Writer"** %2, align 8
  store i32 10, i32* @_ZN15readers_writers7gSharedE, align 4, !dbg !4202
  ret void, !dbg !4203
}

; Function Attrs: nounwind uwtable
define linkonce_odr dereferenceable(8) %"class.std::thread"* @_ZNSt6threadaSEOS_(%"class.std::thread"*, %"class.std::thread"* dereferenceable(8)) #4 comdat align 2 !dbg !4204 {
  %3 = alloca %"class.std::thread"*, align 8
  %4 = alloca %"class.std::thread"*, align 8
  store %"class.std::thread"* %0, %"class.std::thread"** %3, align 8
  call void @llvm.dbg.declare(metadata %"class.std::thread"** %3, metadata !4205, metadata !3590), !dbg !4206
  store %"class.std::thread"* %1, %"class.std::thread"** %4, align 8
  call void @llvm.dbg.declare(metadata %"class.std::thread"** %4, metadata !4207, metadata !3590), !dbg !4208
  %5 = load %"class.std::thread"*, %"class.std::thread"** %3, align 8
  %6 = call zeroext i1 @_ZNKSt6thread8joinableEv(%"class.std::thread"* %5) #3, !dbg !4209
  br i1 %6, label %7, label %8, !dbg !4211

; <label>:7:                                      ; preds = %2
  call void @_ZSt9terminatev() #14, !dbg !4212
  unreachable, !dbg !4212

; <label>:8:                                      ; preds = %2
  %9 = load %"class.std::thread"*, %"class.std::thread"** %4, align 8, !dbg !4213
  call void @_ZNSt6thread4swapERS_(%"class.std::thread"* %5, %"class.std::thread"* dereferenceable(8) %9) #3, !dbg !4214
  ret %"class.std::thread"* %5, !dbg !4215
}

; Function Attrs: nounwind uwtable
define linkonce_odr dereferenceable(16) { i64, i64 }* @_ZSt7forwardIMN15readers_writers6WriterEFvvEEOT_RNSt16remove_referenceIS4_E4typeE({ i64, i64 }* dereferenceable(16)) #4 comdat !dbg !4216 {
  %2 = alloca { i64, i64 }*, align 8
  store { i64, i64 }* %0, { i64, i64 }** %2, align 8
  call void @llvm.dbg.declare(metadata { i64, i64 }** %2, metadata !4223, metadata !3590), !dbg !4224
  %3 = load { i64, i64 }*, { i64, i64 }** %2, align 8, !dbg !4225
  ret { i64, i64 }* %3, !dbg !4226
}

; Function Attrs: nounwind uwtable
define linkonce_odr dereferenceable(8) %"class.readers_writers::Writer"** @_ZSt7forwardIPN15readers_writers6WriterEEOT_RNSt16remove_referenceIS3_E4typeE(%"class.readers_writers::Writer"** dereferenceable(8)) #4 comdat !dbg !4227 {
  %2 = alloca %"class.readers_writers::Writer"**, align 8
  store %"class.readers_writers::Writer"** %0, %"class.readers_writers::Writer"*** %2, align 8
  call void @llvm.dbg.declare(metadata %"class.readers_writers::Writer"*** %2, metadata !4235, metadata !3590), !dbg !4236
  %3 = load %"class.readers_writers::Writer"**, %"class.readers_writers::Writer"*** %2, align 8, !dbg !4237
  ret %"class.readers_writers::Writer"** %3, !dbg !4238
}

; Function Attrs: uwtable
define linkonce_odr void @_ZNSt6threadC2IMN15readers_writers6WriterEFvvEJPS2_EEEOT_DpOT0_(%"class.std::thread"*, { i64, i64 }* dereferenceable(16), %"class.readers_writers::Writer"** dereferenceable(8)) unnamed_addr #0 comdat align 2 personality i8* bitcast (i32 (...)* @__gxx_personality_v0 to i8*) !dbg !4239 {
  %4 = alloca %"class.std::thread"*, align 8
  %5 = alloca { i64, i64 }*, align 8
  %6 = alloca %"class.readers_writers::Writer"**, align 8
  %7 = alloca void ()*, align 8
  %8 = alloca %"class.std::unique_ptr", align 8
  %9 = alloca %"struct.std::_Bind_simple", align 8
  %10 = alloca i8*
  %11 = alloca i32
  store %"class.std::thread"* %0, %"class.std::thread"** %4, align 8
  call void @llvm.dbg.declare(metadata %"class.std::thread"** %4, metadata !4245, metadata !3590), !dbg !4246
  store { i64, i64 }* %1, { i64, i64 }** %5, align 8
  call void @llvm.dbg.declare(metadata { i64, i64 }** %5, metadata !4247, metadata !3590), !dbg !4248
  store %"class.readers_writers::Writer"** %2, %"class.readers_writers::Writer"*** %6, align 8
  call void @llvm.dbg.declare(metadata %"class.readers_writers::Writer"*** %6, metadata !4249, metadata !3590), !dbg !4250
  %12 = load %"class.std::thread"*, %"class.std::thread"** %4, align 8
  %13 = getelementptr inbounds %"class.std::thread", %"class.std::thread"* %12, i32 0, i32 0, !dbg !4251
  call void @_ZNSt6thread2idC2Ev(%"class.std::thread::id"* %13) #3, !dbg !4251
  call void @llvm.dbg.declare(metadata void ()** %7, metadata !4252, metadata !3590), !dbg !4254
  store void ()* bitcast (i32 (i64*, %union.pthread_attr_t*, i8* (i8*)*, i8*)* @pthread_create to void ()*), void ()** %7, align 8, !dbg !4254
  %14 = load { i64, i64 }*, { i64, i64 }** %5, align 8, !dbg !4255
  %15 = call dereferenceable(16) { i64, i64 }* @_ZSt7forwardIMN15readers_writers6WriterEFvvEEOT_RNSt16remove_referenceIS4_E4typeE({ i64, i64 }* dereferenceable(16) %14) #3, !dbg !4256
  %16 = load %"class.readers_writers::Writer"**, %"class.readers_writers::Writer"*** %6, align 8, !dbg !4257
  %17 = call dereferenceable(8) %"class.readers_writers::Writer"** @_ZSt7forwardIPN15readers_writers6WriterEEOT_RNSt16remove_referenceIS3_E4typeE(%"class.readers_writers::Writer"** dereferenceable(8) %16) #3, !dbg !4258
  call void @_ZSt13__bind_simpleIMN15readers_writers6WriterEFvvEJPS1_EENSt19_Bind_simple_helperIT_JDpT0_EE6__typeEOS6_DpOS7_(%"struct.std::_Bind_simple"* sret %9, { i64, i64 }* dereferenceable(16) %15, %"class.readers_writers::Writer"** dereferenceable(8) %17), !dbg !4259
  call void @_ZNSt6thread13_S_make_stateISt12_Bind_simpleIFSt7_Mem_fnIMN15readers_writers6WriterEFvvEEPS4_EEEESt10unique_ptrINS_6_StateESt14default_deleteISC_EEOT_(%"class.std::unique_ptr"* sret %8, %"struct.std::_Bind_simple"* dereferenceable(24) %9), !dbg !4261
  %18 = load void ()*, void ()** %7, align 8, !dbg !4262
  invoke void @_ZNSt6thread15_M_start_threadESt10unique_ptrINS_6_StateESt14default_deleteIS1_EEPFvvE(%"class.std::thread"* %12, %"class.std::unique_ptr"* %8, void ()* %18)
          to label %19 unwind label %20, !dbg !4263

; <label>:19:                                     ; preds = %3
  call void @_ZNSt10unique_ptrINSt6thread6_StateESt14default_deleteIS1_EED2Ev(%"class.std::unique_ptr"* %8) #3, !dbg !4264
  ret void, !dbg !4265

; <label>:20:                                     ; preds = %3
  %21 = landingpad { i8*, i32 }
          cleanup, !dbg !4266
  %22 = extractvalue { i8*, i32 } %21, 0, !dbg !4266
  store i8* %22, i8** %10, align 8, !dbg !4266
  %23 = extractvalue { i8*, i32 } %21, 1, !dbg !4266
  store i32 %23, i32* %11, align 4, !dbg !4266
  call void @_ZNSt10unique_ptrINSt6thread6_StateESt14default_deleteIS1_EED2Ev(%"class.std::unique_ptr"* %8) #3, !dbg !4267
  br label %24, !dbg !4267

; <label>:24:                                     ; preds = %20
  %25 = load i8*, i8** %10, align 8, !dbg !4269
  %26 = load i32, i32* %11, align 4, !dbg !4269
  %27 = insertvalue { i8*, i32 } undef, i8* %25, 0, !dbg !4269
  %28 = insertvalue { i8*, i32 } %27, i32 %26, 1, !dbg !4269
  resume { i8*, i32 } %28, !dbg !4269
}

; Function Attrs: nounwind uwtable
define linkonce_odr void @_ZNSt6threadD2Ev(%"class.std::thread"*) unnamed_addr #4 comdat align 2 !dbg !4271 {
  %2 = alloca %"class.std::thread"*, align 8
  store %"class.std::thread"* %0, %"class.std::thread"** %2, align 8
  call void @llvm.dbg.declare(metadata %"class.std::thread"** %2, metadata !4272, metadata !3590), !dbg !4273
  %3 = load %"class.std::thread"*, %"class.std::thread"** %2, align 8
  %4 = call zeroext i1 @_ZNKSt6thread8joinableEv(%"class.std::thread"* %3) #3, !dbg !4274
  br i1 %4, label %5, label %6, !dbg !4277

; <label>:5:                                      ; preds = %1
  call void @_ZSt9terminatev() #14, !dbg !4278
  unreachable, !dbg !4278

; <label>:6:                                      ; preds = %1
  ret void, !dbg !4279
}

; Function Attrs: nounwind uwtable
define linkonce_odr zeroext i1 @_ZNKSt6thread8joinableEv(%"class.std::thread"*) #4 comdat align 2 !dbg !4280 {
  %2 = alloca %"class.std::thread"*, align 8
  %3 = alloca %"class.std::thread::id", align 8
  %4 = alloca %"class.std::thread::id", align 8
  store %"class.std::thread"* %0, %"class.std::thread"** %2, align 8
  call void @llvm.dbg.declare(metadata %"class.std::thread"** %2, metadata !4281, metadata !3590), !dbg !4283
  %5 = load %"class.std::thread"*, %"class.std::thread"** %2, align 8
  %6 = getelementptr inbounds %"class.std::thread", %"class.std::thread"* %5, i32 0, i32 0, !dbg !4284
  %7 = bitcast %"class.std::thread::id"* %3 to i8*, !dbg !4284
  %8 = bitcast %"class.std::thread::id"* %6 to i8*, !dbg !4284
  call void @llvm.memcpy.p0i8.p0i8.i64(i8* %7, i8* %8, i64 8, i32 8, i1 false), !dbg !4284
  call void @_ZNSt6thread2idC2Ev(%"class.std::thread::id"* %4) #3, !dbg !4285
  %9 = getelementptr inbounds %"class.std::thread::id", %"class.std::thread::id"* %3, i32 0, i32 0, !dbg !4287
  %10 = load i64, i64* %9, align 8, !dbg !4287
  %11 = getelementptr inbounds %"class.std::thread::id", %"class.std::thread::id"* %4, i32 0, i32 0, !dbg !4287
  %12 = load i64, i64* %11, align 8, !dbg !4287
  %13 = call zeroext i1 @_ZSteqNSt6thread2idES0_(i64 %10, i64 %12) #3, !dbg !4288
  %14 = xor i1 %13, true, !dbg !4290
  ret i1 %14, !dbg !4291
}

; Function Attrs: nounwind uwtable
define linkonce_odr void @_ZNSt6thread4swapERS_(%"class.std::thread"*, %"class.std::thread"* dereferenceable(8)) #4 comdat align 2 !dbg !4292 {
  %3 = alloca %"class.std::thread"*, align 8
  %4 = alloca %"class.std::thread"*, align 8
  store %"class.std::thread"* %0, %"class.std::thread"** %3, align 8
  call void @llvm.dbg.declare(metadata %"class.std::thread"** %3, metadata !4293, metadata !3590), !dbg !4294
  store %"class.std::thread"* %1, %"class.std::thread"** %4, align 8
  call void @llvm.dbg.declare(metadata %"class.std::thread"** %4, metadata !4295, metadata !3590), !dbg !4296
  %5 = load %"class.std::thread"*, %"class.std::thread"** %3, align 8
  %6 = getelementptr inbounds %"class.std::thread", %"class.std::thread"* %5, i32 0, i32 0, !dbg !4297
  %7 = load %"class.std::thread"*, %"class.std::thread"** %4, align 8, !dbg !4298
  %8 = getelementptr inbounds %"class.std::thread", %"class.std::thread"* %7, i32 0, i32 0, !dbg !4299
  call void @_ZSt4swapINSt6thread2idEENSt9enable_ifIXsr6__and_ISt21is_move_constructibleIT_ESt18is_move_assignableIS4_EEE5valueEvE4typeERS4_SA_(%"class.std::thread::id"* dereferenceable(8) %6, %"class.std::thread::id"* dereferenceable(8) %8) #3, !dbg !4300
  ret void, !dbg !4301
}

; Function Attrs: nounwind uwtable
define linkonce_odr zeroext i1 @_ZSteqNSt6thread2idES0_(i64, i64) #4 comdat !dbg !4302 {
  %3 = alloca %"class.std::thread::id", align 8
  %4 = alloca %"class.std::thread::id", align 8
  %5 = getelementptr inbounds %"class.std::thread::id", %"class.std::thread::id"* %3, i32 0, i32 0
  store i64 %0, i64* %5, align 8
  %6 = getelementptr inbounds %"class.std::thread::id", %"class.std::thread::id"* %4, i32 0, i32 0
  store i64 %1, i64* %6, align 8
  call void @llvm.dbg.declare(metadata %"class.std::thread::id"* %3, metadata !4305, metadata !3590), !dbg !4306
  call void @llvm.dbg.declare(metadata %"class.std::thread::id"* %4, metadata !4307, metadata !3590), !dbg !4308
  %7 = getelementptr inbounds %"class.std::thread::id", %"class.std::thread::id"* %3, i32 0, i32 0, !dbg !4309
  %8 = load i64, i64* %7, align 8, !dbg !4309
  %9 = getelementptr inbounds %"class.std::thread::id", %"class.std::thread::id"* %4, i32 0, i32 0, !dbg !4310
  %10 = load i64, i64* %9, align 8, !dbg !4310
  %11 = icmp eq i64 %8, %10, !dbg !4311
  ret i1 %11, !dbg !4312
}

; Function Attrs: argmemonly nounwind
declare void @llvm.memcpy.p0i8.p0i8.i64(i8* nocapture writeonly, i8* nocapture readonly, i64, i32, i1) #12

; Function Attrs: inlinehint nounwind uwtable
define linkonce_odr void @_ZSt4swapINSt6thread2idEENSt9enable_ifIXsr6__and_ISt21is_move_constructibleIT_ESt18is_move_assignableIS4_EEE5valueEvE4typeERS4_SA_(%"class.std::thread::id"* dereferenceable(8), %"class.std::thread::id"* dereferenceable(8)) #9 comdat !dbg !4313 {
  %3 = alloca %"class.std::thread::id"*, align 8
  %4 = alloca %"class.std::thread::id"*, align 8
  %5 = alloca %"class.std::thread::id", align 8
  store %"class.std::thread::id"* %0, %"class.std::thread::id"** %3, align 8
  call void @llvm.dbg.declare(metadata %"class.std::thread::id"** %3, metadata !4322, metadata !3590), !dbg !4323
  store %"class.std::thread::id"* %1, %"class.std::thread::id"** %4, align 8
  call void @llvm.dbg.declare(metadata %"class.std::thread::id"** %4, metadata !4324, metadata !3590), !dbg !4325
  call void @llvm.dbg.declare(metadata %"class.std::thread::id"* %5, metadata !4326, metadata !3590), !dbg !4327
  %6 = load %"class.std::thread::id"*, %"class.std::thread::id"** %3, align 8, !dbg !4328
  %7 = call dereferenceable(8) %"class.std::thread::id"* @_ZSt4moveIRNSt6thread2idEEONSt16remove_referenceIT_E4typeEOS4_(%"class.std::thread::id"* dereferenceable(8) %6) #3, !dbg !4328
  %8 = bitcast %"class.std::thread::id"* %5 to i8*, !dbg !4328
  %9 = bitcast %"class.std::thread::id"* %7 to i8*, !dbg !4328
  call void @llvm.memcpy.p0i8.p0i8.i64(i8* %8, i8* %9, i64 8, i32 8, i1 false), !dbg !4329
  %10 = load %"class.std::thread::id"*, %"class.std::thread::id"** %3, align 8, !dbg !4331
  %11 = load %"class.std::thread::id"*, %"class.std::thread::id"** %4, align 8, !dbg !4332
  %12 = call dereferenceable(8) %"class.std::thread::id"* @_ZSt4moveIRNSt6thread2idEEONSt16remove_referenceIT_E4typeEOS4_(%"class.std::thread::id"* dereferenceable(8) %11) #3, !dbg !4332
  %13 = bitcast %"class.std::thread::id"* %10 to i8*, !dbg !4333
  %14 = bitcast %"class.std::thread::id"* %12 to i8*, !dbg !4333
  call void @llvm.memcpy.p0i8.p0i8.i64(i8* %13, i8* %14, i64 8, i32 8, i1 false), !dbg !4334
  %15 = load %"class.std::thread::id"*, %"class.std::thread::id"** %4, align 8, !dbg !4335
  %16 = call dereferenceable(8) %"class.std::thread::id"* @_ZSt4moveIRNSt6thread2idEEONSt16remove_referenceIT_E4typeEOS4_(%"class.std::thread::id"* dereferenceable(8) %5) #3, !dbg !4336
  %17 = bitcast %"class.std::thread::id"* %15 to i8*, !dbg !4337
  %18 = bitcast %"class.std::thread::id"* %16 to i8*, !dbg !4337
  call void @llvm.memcpy.p0i8.p0i8.i64(i8* %17, i8* %18, i64 8, i32 8, i1 false), !dbg !4338
  ret void, !dbg !4339
}

; Function Attrs: nounwind uwtable
define linkonce_odr dereferenceable(8) %"class.std::thread::id"* @_ZSt4moveIRNSt6thread2idEEONSt16remove_referenceIT_E4typeEOS4_(%"class.std::thread::id"* dereferenceable(8)) #4 comdat !dbg !4340 {
  %2 = alloca %"class.std::thread::id"*, align 8
  store %"class.std::thread::id"* %0, %"class.std::thread::id"** %2, align 8
  call void @llvm.dbg.declare(metadata %"class.std::thread::id"** %2, metadata !4348, metadata !3590), !dbg !4349
  %3 = load %"class.std::thread::id"*, %"class.std::thread::id"** %2, align 8, !dbg !4350
  ret %"class.std::thread::id"* %3, !dbg !4351
}

; Function Attrs: nounwind
declare i32 @pthread_create(i64*, %union.pthread_attr_t*, i8* (i8*)*, i8*) #2

declare void @_ZNSt6thread15_M_start_threadESt10unique_ptrINS_6_StateESt14default_deleteIS1_EEPFvvE(%"class.std::thread"*, %"class.std::unique_ptr"*, void ()*) #1

; Function Attrs: uwtable
define linkonce_odr void @_ZNSt6thread13_S_make_stateISt12_Bind_simpleIFSt7_Mem_fnIMN15readers_writers6WriterEFvvEEPS4_EEEESt10unique_ptrINS_6_StateESt14default_deleteISC_EEOT_(%"class.std::unique_ptr"* noalias sret, %"struct.std::_Bind_simple"* dereferenceable(24)) #0 comdat align 2 personality i8* bitcast (i32 (...)* @__gxx_personality_v0 to i8*) !dbg !4352 {
  %3 = alloca %"struct.std::_Bind_simple"*, align 8
  %4 = alloca i8*
  %5 = alloca i32
  store %"struct.std::_Bind_simple"* %1, %"struct.std::_Bind_simple"** %3, align 8
  call void @llvm.dbg.declare(metadata %"struct.std::_Bind_simple"** %3, metadata !4558, metadata !3590), !dbg !4559
  %6 = call i8* @_Znwm(i64 32) #15, !dbg !4560
  %7 = bitcast i8* %6 to %"struct.std::thread::_State_impl"*, !dbg !4560
  %8 = load %"struct.std::_Bind_simple"*, %"struct.std::_Bind_simple"** %3, align 8, !dbg !4561
  %9 = call dereferenceable(24) %"struct.std::_Bind_simple"* @_ZSt7forwardISt12_Bind_simpleIFSt7_Mem_fnIMN15readers_writers6WriterEFvvEEPS3_EEEOT_RNSt16remove_referenceISA_E4typeE(%"struct.std::_Bind_simple"* dereferenceable(24) %8) #3, !dbg !4562
  invoke void @_ZNSt6thread11_State_implISt12_Bind_simpleIFSt7_Mem_fnIMN15readers_writers6WriterEFvvEEPS4_EEEC2EOSA_(%"struct.std::thread::_State_impl"* %7, %"struct.std::_Bind_simple"* dereferenceable(24) %9)
          to label %10 unwind label %12, !dbg !4564

; <label>:10:                                     ; preds = %2
  %11 = bitcast %"struct.std::thread::_State_impl"* %7 to %"struct.std::thread::_State"*, !dbg !4565
  call void @_ZNSt10unique_ptrINSt6thread6_StateESt14default_deleteIS1_EEC2EPS1_(%"class.std::unique_ptr"* %0, %"struct.std::thread::_State"* %11) #3, !dbg !4567
  ret void, !dbg !4568

; <label>:12:                                     ; preds = %2
  %13 = landingpad { i8*, i32 }
          cleanup, !dbg !4569
  %14 = extractvalue { i8*, i32 } %13, 0, !dbg !4569
  store i8* %14, i8** %4, align 8, !dbg !4569
  %15 = extractvalue { i8*, i32 } %13, 1, !dbg !4569
  store i32 %15, i32* %5, align 4, !dbg !4569
  call void @_ZdlPv(i8* %6) #16, !dbg !4570
  br label %16, !dbg !4570

; <label>:16:                                     ; preds = %12
  %17 = load i8*, i8** %4, align 8, !dbg !4572
  %18 = load i32, i32* %5, align 4, !dbg !4572
  %19 = insertvalue { i8*, i32 } undef, i8* %17, 0, !dbg !4572
  %20 = insertvalue { i8*, i32 } %19, i32 %18, 1, !dbg !4572
  resume { i8*, i32 } %20, !dbg !4572
}

; Function Attrs: uwtable
define linkonce_odr void @_ZSt13__bind_simpleIMN15readers_writers6WriterEFvvEJPS1_EENSt19_Bind_simple_helperIT_JDpT0_EE6__typeEOS6_DpOS7_(%"struct.std::_Bind_simple"* noalias sret, { i64, i64 }* dereferenceable(16), %"class.readers_writers::Writer"** dereferenceable(8)) #0 comdat !dbg !4574 {
  %4 = alloca { i64, i64 }*, align 8
  %5 = alloca %"class.readers_writers::Writer"**, align 8
  %6 = alloca %"struct.std::_Mem_fn", align 8
  %7 = alloca { i64, i64 }, align 8
  store { i64, i64 }* %1, { i64, i64 }** %4, align 8
  call void @llvm.dbg.declare(metadata { i64, i64 }** %4, metadata !4585, metadata !3590), !dbg !4586
  store %"class.readers_writers::Writer"** %2, %"class.readers_writers::Writer"*** %5, align 8
  call void @llvm.dbg.declare(metadata %"class.readers_writers::Writer"*** %5, metadata !4587, metadata !3590), !dbg !4588
  %8 = load { i64, i64 }*, { i64, i64 }** %4, align 8, !dbg !4589
  %9 = call dereferenceable(16) { i64, i64 }* @_ZSt7forwardIMN15readers_writers6WriterEFvvEEOT_RNSt16remove_referenceIS4_E4typeE({ i64, i64 }* dereferenceable(16) %8) #3, !dbg !4590
  %10 = load { i64, i64 }, { i64, i64 }* %9, align 8, !dbg !4590
  store { i64, i64 } %10, { i64, i64 }* %7, align 8, !dbg !4591
  %11 = getelementptr inbounds { i64, i64 }, { i64, i64 }* %7, i32 0, i32 0, !dbg !4591
  %12 = load i64, i64* %11, align 8, !dbg !4591
  %13 = getelementptr inbounds { i64, i64 }, { i64, i64 }* %7, i32 0, i32 1, !dbg !4591
  %14 = load i64, i64* %13, align 8, !dbg !4591
  %15 = call { i64, i64 } @_ZNSt26_Maybe_wrap_member_pointerIMN15readers_writers6WriterEFvvEE9__do_wrapES3_(i64 %12, i64 %14), !dbg !4592
  %16 = getelementptr inbounds %"struct.std::_Mem_fn", %"struct.std::_Mem_fn"* %6, i32 0, i32 0, !dbg !4591
  %17 = getelementptr inbounds %"class.std::_Mem_fn_base", %"class.std::_Mem_fn_base"* %16, i32 0, i32 0, !dbg !4591
  %18 = getelementptr inbounds { i64, i64 }, { i64, i64 }* %17, i32 0, i32 0, !dbg !4591
  %19 = extractvalue { i64, i64 } %15, 0, !dbg !4591
  store i64 %19, i64* %18, align 8, !dbg !4591
  %20 = getelementptr inbounds { i64, i64 }, { i64, i64 }* %17, i32 0, i32 1, !dbg !4591
  %21 = extractvalue { i64, i64 } %15, 1, !dbg !4591
  store i64 %21, i64* %20, align 8, !dbg !4591
  %22 = load %"class.readers_writers::Writer"**, %"class.readers_writers::Writer"*** %5, align 8, !dbg !4594
  %23 = call dereferenceable(8) %"class.readers_writers::Writer"** @_ZSt7forwardIPN15readers_writers6WriterEEOT_RNSt16remove_referenceIS3_E4typeE(%"class.readers_writers::Writer"** dereferenceable(8) %22) #3, !dbg !4595
  call void @_ZNSt12_Bind_simpleIFSt7_Mem_fnIMN15readers_writers6WriterEFvvEEPS2_EEC2IS5_JS6_EEEOT_DpOT0_(%"struct.std::_Bind_simple"* %0, %"struct.std::_Mem_fn"* dereferenceable(16) %6, %"class.readers_writers::Writer"** dereferenceable(8) %23), !dbg !4596
  ret void, !dbg !4597
}

; Function Attrs: nounwind uwtable
define linkonce_odr void @_ZNSt10unique_ptrINSt6thread6_StateESt14default_deleteIS1_EED2Ev(%"class.std::unique_ptr"*) unnamed_addr #4 comdat align 2 personality i8* bitcast (i32 (...)* @__gxx_personality_v0 to i8*) !dbg !4598 {
  %2 = alloca %"class.std::unique_ptr"*, align 8
  %3 = alloca %"struct.std::thread::_State"**, align 8
  store %"class.std::unique_ptr"* %0, %"class.std::unique_ptr"** %2, align 8
  call void @llvm.dbg.declare(metadata %"class.std::unique_ptr"** %2, metadata !4599, metadata !3590), !dbg !4601
  %4 = load %"class.std::unique_ptr"*, %"class.std::unique_ptr"** %2, align 8
  call void @llvm.dbg.declare(metadata %"struct.std::thread::_State"*** %3, metadata !4602, metadata !3590), !dbg !4604
  %5 = getelementptr inbounds %"class.std::unique_ptr", %"class.std::unique_ptr"* %4, i32 0, i32 0, !dbg !4605
  %6 = call dereferenceable(8) %"struct.std::thread::_State"** @_ZSt3getILm0EJPNSt6thread6_StateESt14default_deleteIS1_EEERNSt13tuple_elementIXT_ESt5tupleIJDpT0_EEE4typeERS9_(%"class.std::tuple"* dereferenceable(8) %5) #3, !dbg !4606
  store %"struct.std::thread::_State"** %6, %"struct.std::thread::_State"*** %3, align 8, !dbg !4604
  %7 = load %"struct.std::thread::_State"**, %"struct.std::thread::_State"*** %3, align 8, !dbg !4607
  %8 = load %"struct.std::thread::_State"*, %"struct.std::thread::_State"** %7, align 8, !dbg !4607
  %9 = icmp ne %"struct.std::thread::_State"* %8, null, !dbg !4609
  br i1 %9, label %10, label %15, !dbg !4610

; <label>:10:                                     ; preds = %1
  %11 = call dereferenceable(1) %"struct.std::default_delete"* @_ZNSt10unique_ptrINSt6thread6_StateESt14default_deleteIS1_EE11get_deleterEv(%"class.std::unique_ptr"* %4) #3, !dbg !4611
  %12 = load %"struct.std::thread::_State"**, %"struct.std::thread::_State"*** %3, align 8, !dbg !4612
  %13 = load %"struct.std::thread::_State"*, %"struct.std::thread::_State"** %12, align 8, !dbg !4612
  invoke void @_ZNKSt14default_deleteINSt6thread6_StateEEclEPS1_(%"struct.std::default_delete"* %11, %"struct.std::thread::_State"* %13)
          to label %14 unwind label %17, !dbg !4611

; <label>:14:                                     ; preds = %10
  br label %15, !dbg !4613

; <label>:15:                                     ; preds = %14, %1
  %16 = load %"struct.std::thread::_State"**, %"struct.std::thread::_State"*** %3, align 8, !dbg !4615
  store %"struct.std::thread::_State"* null, %"struct.std::thread::_State"** %16, align 8, !dbg !4616
  ret void, !dbg !4617

; <label>:17:                                     ; preds = %10
  %18 = landingpad { i8*, i32 }
          catch i8* null, !dbg !4618
  %19 = extractvalue { i8*, i32 } %18, 0, !dbg !4618
  call void @__clang_call_terminate(i8* %19) #14, !dbg !4618
  unreachable, !dbg !4618
}

; Function Attrs: nounwind uwtable
define linkonce_odr dereferenceable(24) %"struct.std::_Bind_simple"* @_ZSt7forwardISt12_Bind_simpleIFSt7_Mem_fnIMN15readers_writers6WriterEFvvEEPS3_EEEOT_RNSt16remove_referenceISA_E4typeE(%"struct.std::_Bind_simple"* dereferenceable(24)) #4 comdat !dbg !4620 {
  %2 = alloca %"struct.std::_Bind_simple"*, align 8
  store %"struct.std::_Bind_simple"* %0, %"struct.std::_Bind_simple"** %2, align 8
  call void @llvm.dbg.declare(metadata %"struct.std::_Bind_simple"** %2, metadata !4628, metadata !3590), !dbg !4629
  %3 = load %"struct.std::_Bind_simple"*, %"struct.std::_Bind_simple"** %2, align 8, !dbg !4630
  ret %"struct.std::_Bind_simple"* %3, !dbg !4631
}

; Function Attrs: nounwind uwtable
define linkonce_odr void @_ZNSt6thread11_State_implISt12_Bind_simpleIFSt7_Mem_fnIMN15readers_writers6WriterEFvvEEPS4_EEEC2EOSA_(%"struct.std::thread::_State_impl"*, %"struct.std::_Bind_simple"* dereferenceable(24)) unnamed_addr #4 comdat align 2 !dbg !4632 {
  %3 = alloca %"struct.std::thread::_State_impl"*, align 8
  %4 = alloca %"struct.std::_Bind_simple"*, align 8
  store %"struct.std::thread::_State_impl"* %0, %"struct.std::thread::_State_impl"** %3, align 8
  call void @llvm.dbg.declare(metadata %"struct.std::thread::_State_impl"** %3, metadata !4644, metadata !3590), !dbg !4646
  store %"struct.std::_Bind_simple"* %1, %"struct.std::_Bind_simple"** %4, align 8
  call void @llvm.dbg.declare(metadata %"struct.std::_Bind_simple"** %4, metadata !4647, metadata !3590), !dbg !4648
  %5 = load %"struct.std::thread::_State_impl"*, %"struct.std::thread::_State_impl"** %3, align 8
  %6 = bitcast %"struct.std::thread::_State_impl"* %5 to %"struct.std::thread::_State"*, !dbg !4649
  call void @_ZNSt6thread6_StateC2Ev(%"struct.std::thread::_State"* %6) #3, !dbg !4650
  %7 = bitcast %"struct.std::thread::_State_impl"* %5 to i32 (...)***, !dbg !4649
  store i32 (...)** bitcast (i8** getelementptr inbounds ([5 x i8*], [5 x i8*]* @_ZTVNSt6thread11_State_implISt12_Bind_simpleIFSt7_Mem_fnIMN15readers_writers6WriterEFvvEEPS4_EEEE, i32 0, i32 2) to i32 (...)**), i32 (...)*** %7, align 8, !dbg !4649
  %8 = getelementptr inbounds %"struct.std::thread::_State_impl", %"struct.std::thread::_State_impl"* %5, i32 0, i32 1, !dbg !4651
  %9 = load %"struct.std::_Bind_simple"*, %"struct.std::_Bind_simple"** %4, align 8, !dbg !4652
  %10 = call dereferenceable(24) %"struct.std::_Bind_simple"* @_ZSt7forwardISt12_Bind_simpleIFSt7_Mem_fnIMN15readers_writers6WriterEFvvEEPS3_EEEOT_RNSt16remove_referenceISA_E4typeE(%"struct.std::_Bind_simple"* dereferenceable(24) %9) #3, !dbg !4653
  call void @_ZNSt12_Bind_simpleIFSt7_Mem_fnIMN15readers_writers6WriterEFvvEEPS2_EEC2EOS8_(%"struct.std::_Bind_simple"* %8, %"struct.std::_Bind_simple"* dereferenceable(24) %10) #3, !dbg !4655
  ret void, !dbg !4657
}

; Function Attrs: nounwind uwtable
define linkonce_odr void @_ZNSt10unique_ptrINSt6thread6_StateESt14default_deleteIS1_EEC2EPS1_(%"class.std::unique_ptr"*, %"struct.std::thread::_State"*) unnamed_addr #4 comdat align 2 personality i8* bitcast (i32 (...)* @__gxx_personality_v0 to i8*) !dbg !4658 {
  %3 = alloca %"class.std::unique_ptr"*, align 8
  %4 = alloca %"struct.std::thread::_State"*, align 8
  store %"class.std::unique_ptr"* %0, %"class.std::unique_ptr"** %3, align 8
  call void @llvm.dbg.declare(metadata %"class.std::unique_ptr"** %3, metadata !4659, metadata !3590), !dbg !4660
  store %"struct.std::thread::_State"* %1, %"struct.std::thread::_State"** %4, align 8
  call void @llvm.dbg.declare(metadata %"struct.std::thread::_State"** %4, metadata !4661, metadata !3590), !dbg !4662
  %5 = load %"class.std::unique_ptr"*, %"class.std::unique_ptr"** %3, align 8
  %6 = getelementptr inbounds %"class.std::unique_ptr", %"class.std::unique_ptr"* %5, i32 0, i32 0, !dbg !4663
  invoke void @_ZNSt5tupleIJPNSt6thread6_StateESt14default_deleteIS1_EEEC2IS2_S4_Lb1EEEv(%"class.std::tuple"* %6)
          to label %7 unwind label %11, !dbg !4663

; <label>:7:                                      ; preds = %2
  %8 = load %"struct.std::thread::_State"*, %"struct.std::thread::_State"** %4, align 8, !dbg !4664
  %9 = getelementptr inbounds %"class.std::unique_ptr", %"class.std::unique_ptr"* %5, i32 0, i32 0, !dbg !4666
  %10 = call dereferenceable(8) %"struct.std::thread::_State"** @_ZSt3getILm0EJPNSt6thread6_StateESt14default_deleteIS1_EEERNSt13tuple_elementIXT_ESt5tupleIJDpT0_EEE4typeERS9_(%"class.std::tuple"* dereferenceable(8) %9) #3, !dbg !4667
  store %"struct.std::thread::_State"* %8, %"struct.std::thread::_State"** %10, align 8, !dbg !4668
  ret void, !dbg !4669

; <label>:11:                                     ; preds = %2
  %12 = landingpad { i8*, i32 }
          catch i8* null, !dbg !4670
  %13 = extractvalue { i8*, i32 } %12, 0, !dbg !4670
  call void @__clang_call_terminate(i8* %13) #14, !dbg !4670
  unreachable, !dbg !4670
}

; Function Attrs: inlinehint nounwind uwtable
define linkonce_odr void @_ZNSt6thread6_StateC2Ev(%"struct.std::thread::_State"*) unnamed_addr #9 comdat align 2 !dbg !4672 {
  %2 = alloca %"struct.std::thread::_State"*, align 8
  store %"struct.std::thread::_State"* %0, %"struct.std::thread::_State"** %2, align 8
  call void @llvm.dbg.declare(metadata %"struct.std::thread::_State"** %2, metadata !4677, metadata !3590), !dbg !4678
  %3 = load %"struct.std::thread::_State"*, %"struct.std::thread::_State"** %2, align 8
  %4 = bitcast %"struct.std::thread::_State"* %3 to i32 (...)***, !dbg !4679
  store i32 (...)** bitcast (i8** getelementptr inbounds ([5 x i8*], [5 x i8*]* @_ZTVNSt6thread6_StateE, i32 0, i32 2) to i32 (...)**), i32 (...)*** %4, align 8, !dbg !4679
  ret void, !dbg !4679
}

; Function Attrs: nounwind uwtable
define linkonce_odr void @_ZNSt12_Bind_simpleIFSt7_Mem_fnIMN15readers_writers6WriterEFvvEEPS2_EEC2EOS8_(%"struct.std::_Bind_simple"*, %"struct.std::_Bind_simple"* dereferenceable(24)) unnamed_addr #4 comdat align 2 !dbg !4680 {
  %3 = alloca %"struct.std::_Bind_simple"*, align 8
  %4 = alloca %"struct.std::_Bind_simple"*, align 8
  store %"struct.std::_Bind_simple"* %0, %"struct.std::_Bind_simple"** %3, align 8
  call void @llvm.dbg.declare(metadata %"struct.std::_Bind_simple"** %3, metadata !4681, metadata !3590), !dbg !4683
  store %"struct.std::_Bind_simple"* %1, %"struct.std::_Bind_simple"** %4, align 8
  call void @llvm.dbg.declare(metadata %"struct.std::_Bind_simple"** %4, metadata !4684, metadata !3590), !dbg !4685
  %5 = load %"struct.std::_Bind_simple"*, %"struct.std::_Bind_simple"** %3, align 8
  %6 = getelementptr inbounds %"struct.std::_Bind_simple", %"struct.std::_Bind_simple"* %5, i32 0, i32 0, !dbg !4686
  %7 = load %"struct.std::_Bind_simple"*, %"struct.std::_Bind_simple"** %4, align 8, !dbg !4686
  %8 = getelementptr inbounds %"struct.std::_Bind_simple", %"struct.std::_Bind_simple"* %7, i32 0, i32 0, !dbg !4686
  call void @_ZNSt5tupleIJSt7_Mem_fnIMN15readers_writers6WriterEFvvEEPS2_EEC2EOS7_(%"class.std::tuple.5"* %6, %"class.std::tuple.5"* dereferenceable(24) %8) #3, !dbg !4686
  ret void, !dbg !4686
}

; Function Attrs: inlinehint nounwind uwtable
define linkonce_odr void @_ZNSt6thread11_State_implISt12_Bind_simpleIFSt7_Mem_fnIMN15readers_writers6WriterEFvvEEPS4_EEED2Ev(%"struct.std::thread::_State_impl"*) unnamed_addr #9 comdat align 2 !dbg !4687 {
  %2 = alloca %"struct.std::thread::_State_impl"*, align 8
  store %"struct.std::thread::_State_impl"* %0, %"struct.std::thread::_State_impl"** %2, align 8
  call void @llvm.dbg.declare(metadata %"struct.std::thread::_State_impl"** %2, metadata !4689, metadata !3590), !dbg !4690
  %3 = load %"struct.std::thread::_State_impl"*, %"struct.std::thread::_State_impl"** %2, align 8
  %4 = bitcast %"struct.std::thread::_State_impl"* %3 to %"struct.std::thread::_State"*, !dbg !4691
  call void @_ZNSt6thread6_StateD2Ev(%"struct.std::thread::_State"* %4) #3, !dbg !4691
  ret void, !dbg !4693
}

; Function Attrs: inlinehint nounwind uwtable
define linkonce_odr void @_ZNSt6thread11_State_implISt12_Bind_simpleIFSt7_Mem_fnIMN15readers_writers6WriterEFvvEEPS4_EEED0Ev(%"struct.std::thread::_State_impl"*) unnamed_addr #9 comdat align 2 !dbg !4694 {
  %2 = alloca %"struct.std::thread::_State_impl"*, align 8
  store %"struct.std::thread::_State_impl"* %0, %"struct.std::thread::_State_impl"** %2, align 8
  call void @llvm.dbg.declare(metadata %"struct.std::thread::_State_impl"** %2, metadata !4695, metadata !3590), !dbg !4696
  %3 = load %"struct.std::thread::_State_impl"*, %"struct.std::thread::_State_impl"** %2, align 8
  call void @_ZNSt6thread11_State_implISt12_Bind_simpleIFSt7_Mem_fnIMN15readers_writers6WriterEFvvEEPS4_EEED2Ev(%"struct.std::thread::_State_impl"* %3) #3, !dbg !4697
  %4 = bitcast %"struct.std::thread::_State_impl"* %3 to i8*, !dbg !4697
  call void @_ZdlPv(i8* %4) #16, !dbg !4698
  ret void, !dbg !4697
}

; Function Attrs: uwtable
define linkonce_odr void @_ZNSt6thread11_State_implISt12_Bind_simpleIFSt7_Mem_fnIMN15readers_writers6WriterEFvvEEPS4_EEE6_M_runEv(%"struct.std::thread::_State_impl"*) unnamed_addr #0 comdat align 2 !dbg !4700 {
  %2 = alloca %"struct.std::thread::_State_impl"*, align 8
  store %"struct.std::thread::_State_impl"* %0, %"struct.std::thread::_State_impl"** %2, align 8
  call void @llvm.dbg.declare(metadata %"struct.std::thread::_State_impl"** %2, metadata !4701, metadata !3590), !dbg !4702
  %3 = load %"struct.std::thread::_State_impl"*, %"struct.std::thread::_State_impl"** %2, align 8
  %4 = getelementptr inbounds %"struct.std::thread::_State_impl", %"struct.std::thread::_State_impl"* %3, i32 0, i32 1, !dbg !4703
  call void @_ZNSt12_Bind_simpleIFSt7_Mem_fnIMN15readers_writers6WriterEFvvEEPS2_EEclEv(%"struct.std::_Bind_simple"* %4), !dbg !4703
  ret void, !dbg !4704
}

; Function Attrs: nounwind uwtable
define linkonce_odr void @_ZNSt5tupleIJSt7_Mem_fnIMN15readers_writers6WriterEFvvEEPS2_EEC2EOS7_(%"class.std::tuple.5"*, %"class.std::tuple.5"* dereferenceable(24)) unnamed_addr #4 comdat align 2 !dbg !4705 {
  %3 = alloca %"class.std::tuple.5"*, align 8
  %4 = alloca %"class.std::tuple.5"*, align 8
  store %"class.std::tuple.5"* %0, %"class.std::tuple.5"** %3, align 8
  call void @llvm.dbg.declare(metadata %"class.std::tuple.5"** %3, metadata !4706, metadata !3590), !dbg !4708
  store %"class.std::tuple.5"* %1, %"class.std::tuple.5"** %4, align 8
  call void @llvm.dbg.declare(metadata %"class.std::tuple.5"** %4, metadata !4709, metadata !3590), !dbg !4710
  %5 = load %"class.std::tuple.5"*, %"class.std::tuple.5"** %3, align 8
  %6 = bitcast %"class.std::tuple.5"* %5 to %"struct.std::_Tuple_impl.6"*, !dbg !4711
  %7 = load %"class.std::tuple.5"*, %"class.std::tuple.5"** %4, align 8, !dbg !4711
  %8 = bitcast %"class.std::tuple.5"* %7 to %"struct.std::_Tuple_impl.6"*, !dbg !4711
  call void @_ZNSt11_Tuple_implILm0EJSt7_Mem_fnIMN15readers_writers6WriterEFvvEEPS2_EEC2EOS7_(%"struct.std::_Tuple_impl.6"* %6, %"struct.std::_Tuple_impl.6"* dereferenceable(24) %8) #3, !dbg !4711
  ret void, !dbg !4711
}

; Function Attrs: nounwind uwtable
define linkonce_odr void @_ZNSt11_Tuple_implILm0EJSt7_Mem_fnIMN15readers_writers6WriterEFvvEEPS2_EEC2EOS7_(%"struct.std::_Tuple_impl.6"*, %"struct.std::_Tuple_impl.6"* dereferenceable(24)) unnamed_addr #4 comdat align 2 personality i8* bitcast (i32 (...)* @__gxx_personality_v0 to i8*) !dbg !4712 {
  %3 = alloca %"struct.std::_Tuple_impl.6"*, align 8
  %4 = alloca %"struct.std::_Tuple_impl.6"*, align 8
  store %"struct.std::_Tuple_impl.6"* %0, %"struct.std::_Tuple_impl.6"** %3, align 8
  call void @llvm.dbg.declare(metadata %"struct.std::_Tuple_impl.6"** %3, metadata !4713, metadata !3590), !dbg !4715
  store %"struct.std::_Tuple_impl.6"* %1, %"struct.std::_Tuple_impl.6"** %4, align 8
  call void @llvm.dbg.declare(metadata %"struct.std::_Tuple_impl.6"** %4, metadata !4716, metadata !3590), !dbg !4717
  %5 = load %"struct.std::_Tuple_impl.6"*, %"struct.std::_Tuple_impl.6"** %3, align 8
  %6 = bitcast %"struct.std::_Tuple_impl.6"* %5 to %"struct.std::_Tuple_impl.7"*, !dbg !4718
  %7 = load %"struct.std::_Tuple_impl.6"*, %"struct.std::_Tuple_impl.6"** %4, align 8, !dbg !4719
  %8 = call dereferenceable(8) %"struct.std::_Tuple_impl.7"* @_ZNSt11_Tuple_implILm0EJSt7_Mem_fnIMN15readers_writers6WriterEFvvEEPS2_EE7_M_tailERS7_(%"struct.std::_Tuple_impl.6"* dereferenceable(24) %7) #3, !dbg !4720
  %9 = call dereferenceable(8) %"struct.std::_Tuple_impl.7"* @_ZSt4moveIRSt11_Tuple_implILm1EJPN15readers_writers6WriterEEEEONSt16remove_referenceIT_E4typeEOS7_(%"struct.std::_Tuple_impl.7"* dereferenceable(8) %8) #3, !dbg !4721
  call void @_ZNSt11_Tuple_implILm1EJPN15readers_writers6WriterEEEC2EOS3_(%"struct.std::_Tuple_impl.7"* %6, %"struct.std::_Tuple_impl.7"* dereferenceable(8) %9) #3, !dbg !4723
  %10 = bitcast %"struct.std::_Tuple_impl.6"* %5 to i8*, !dbg !4718
  %11 = getelementptr inbounds i8, i8* %10, i64 8, !dbg !4718
  %12 = bitcast i8* %11 to %"struct.std::_Head_base.9"*, !dbg !4718
  %13 = load %"struct.std::_Tuple_impl.6"*, %"struct.std::_Tuple_impl.6"** %4, align 8, !dbg !4725
  %14 = call dereferenceable(16) %"struct.std::_Mem_fn"* @_ZNSt11_Tuple_implILm0EJSt7_Mem_fnIMN15readers_writers6WriterEFvvEEPS2_EE7_M_headERS7_(%"struct.std::_Tuple_impl.6"* dereferenceable(24) %13) #3, !dbg !4726
  %15 = call dereferenceable(16) %"struct.std::_Mem_fn"* @_ZSt7forwardISt7_Mem_fnIMN15readers_writers6WriterEFvvEEEOT_RNSt16remove_referenceIS6_E4typeE(%"struct.std::_Mem_fn"* dereferenceable(16) %14) #3, !dbg !4727
  invoke void @_ZNSt10_Head_baseILm0ESt7_Mem_fnIMN15readers_writers6WriterEFvvEELb0EEC2IS5_EEOT_(%"struct.std::_Head_base.9"* %12, %"struct.std::_Mem_fn"* dereferenceable(16) %15)
          to label %16 unwind label %17, !dbg !4729

; <label>:16:                                     ; preds = %2
  ret void, !dbg !4730

; <label>:17:                                     ; preds = %2
  %18 = landingpad { i8*, i32 }
          catch i8* null, !dbg !4731
  %19 = extractvalue { i8*, i32 } %18, 0, !dbg !4731
  call void @__clang_call_terminate(i8* %19) #14, !dbg !4731
  unreachable, !dbg !4731
}

; Function Attrs: nounwind uwtable
define linkonce_odr dereferenceable(8) %"struct.std::_Tuple_impl.7"* @_ZSt4moveIRSt11_Tuple_implILm1EJPN15readers_writers6WriterEEEEONSt16remove_referenceIT_E4typeEOS7_(%"struct.std::_Tuple_impl.7"* dereferenceable(8)) #4 comdat !dbg !4732 {
  %2 = alloca %"struct.std::_Tuple_impl.7"*, align 8
  store %"struct.std::_Tuple_impl.7"* %0, %"struct.std::_Tuple_impl.7"** %2, align 8
  call void @llvm.dbg.declare(metadata %"struct.std::_Tuple_impl.7"** %2, metadata !4740, metadata !3590), !dbg !4741
  %3 = load %"struct.std::_Tuple_impl.7"*, %"struct.std::_Tuple_impl.7"** %2, align 8, !dbg !4742
  ret %"struct.std::_Tuple_impl.7"* %3, !dbg !4743
}

; Function Attrs: nounwind uwtable
define linkonce_odr dereferenceable(8) %"struct.std::_Tuple_impl.7"* @_ZNSt11_Tuple_implILm0EJSt7_Mem_fnIMN15readers_writers6WriterEFvvEEPS2_EE7_M_tailERS7_(%"struct.std::_Tuple_impl.6"* dereferenceable(24)) #4 comdat align 2 !dbg !4744 {
  %2 = alloca %"struct.std::_Tuple_impl.6"*, align 8
  store %"struct.std::_Tuple_impl.6"* %0, %"struct.std::_Tuple_impl.6"** %2, align 8
  call void @llvm.dbg.declare(metadata %"struct.std::_Tuple_impl.6"** %2, metadata !4745, metadata !3590), !dbg !4746
  %3 = load %"struct.std::_Tuple_impl.6"*, %"struct.std::_Tuple_impl.6"** %2, align 8, !dbg !4747
  %4 = bitcast %"struct.std::_Tuple_impl.6"* %3 to %"struct.std::_Tuple_impl.7"*, !dbg !4747
  ret %"struct.std::_Tuple_impl.7"* %4, !dbg !4748
}

; Function Attrs: nounwind uwtable
define linkonce_odr void @_ZNSt11_Tuple_implILm1EJPN15readers_writers6WriterEEEC2EOS3_(%"struct.std::_Tuple_impl.7"*, %"struct.std::_Tuple_impl.7"* dereferenceable(8)) unnamed_addr #4 comdat align 2 personality i8* bitcast (i32 (...)* @__gxx_personality_v0 to i8*) !dbg !4749 {
  %3 = alloca %"struct.std::_Tuple_impl.7"*, align 8
  %4 = alloca %"struct.std::_Tuple_impl.7"*, align 8
  store %"struct.std::_Tuple_impl.7"* %0, %"struct.std::_Tuple_impl.7"** %3, align 8
  call void @llvm.dbg.declare(metadata %"struct.std::_Tuple_impl.7"** %3, metadata !4750, metadata !3590), !dbg !4752
  store %"struct.std::_Tuple_impl.7"* %1, %"struct.std::_Tuple_impl.7"** %4, align 8
  call void @llvm.dbg.declare(metadata %"struct.std::_Tuple_impl.7"** %4, metadata !4753, metadata !3590), !dbg !4754
  %5 = load %"struct.std::_Tuple_impl.7"*, %"struct.std::_Tuple_impl.7"** %3, align 8
  %6 = bitcast %"struct.std::_Tuple_impl.7"* %5 to %"struct.std::_Head_base.8"*, !dbg !4755
  %7 = load %"struct.std::_Tuple_impl.7"*, %"struct.std::_Tuple_impl.7"** %4, align 8, !dbg !4756
  %8 = call dereferenceable(8) %"class.readers_writers::Writer"** @_ZNSt11_Tuple_implILm1EJPN15readers_writers6WriterEEE7_M_headERS3_(%"struct.std::_Tuple_impl.7"* dereferenceable(8) %7) #3, !dbg !4757
  %9 = call dereferenceable(8) %"class.readers_writers::Writer"** @_ZSt7forwardIPN15readers_writers6WriterEEOT_RNSt16remove_referenceIS3_E4typeE(%"class.readers_writers::Writer"** dereferenceable(8) %8) #3, !dbg !4758
  invoke void @_ZNSt10_Head_baseILm1EPN15readers_writers6WriterELb0EEC2IS2_EEOT_(%"struct.std::_Head_base.8"* %6, %"class.readers_writers::Writer"** dereferenceable(8) %9)
          to label %10 unwind label %11, !dbg !4760

; <label>:10:                                     ; preds = %2
  ret void, !dbg !4761

; <label>:11:                                     ; preds = %2
  %12 = landingpad { i8*, i32 }
          catch i8* null, !dbg !4763
  %13 = extractvalue { i8*, i32 } %12, 0, !dbg !4763
  call void @__clang_call_terminate(i8* %13) #14, !dbg !4763
  unreachable, !dbg !4763
}

; Function Attrs: nounwind uwtable
define linkonce_odr dereferenceable(16) %"struct.std::_Mem_fn"* @_ZSt7forwardISt7_Mem_fnIMN15readers_writers6WriterEFvvEEEOT_RNSt16remove_referenceIS6_E4typeE(%"struct.std::_Mem_fn"* dereferenceable(16)) #4 comdat !dbg !4765 {
  %2 = alloca %"struct.std::_Mem_fn"*, align 8
  store %"struct.std::_Mem_fn"* %0, %"struct.std::_Mem_fn"** %2, align 8
  call void @llvm.dbg.declare(metadata %"struct.std::_Mem_fn"** %2, metadata !4774, metadata !3590), !dbg !4775
  %3 = load %"struct.std::_Mem_fn"*, %"struct.std::_Mem_fn"** %2, align 8, !dbg !4776
  ret %"struct.std::_Mem_fn"* %3, !dbg !4777
}

; Function Attrs: nounwind uwtable
define linkonce_odr dereferenceable(16) %"struct.std::_Mem_fn"* @_ZNSt11_Tuple_implILm0EJSt7_Mem_fnIMN15readers_writers6WriterEFvvEEPS2_EE7_M_headERS7_(%"struct.std::_Tuple_impl.6"* dereferenceable(24)) #4 comdat align 2 !dbg !4778 {
  %2 = alloca %"struct.std::_Tuple_impl.6"*, align 8
  store %"struct.std::_Tuple_impl.6"* %0, %"struct.std::_Tuple_impl.6"** %2, align 8
  call void @llvm.dbg.declare(metadata %"struct.std::_Tuple_impl.6"** %2, metadata !4779, metadata !3590), !dbg !4780
  %3 = load %"struct.std::_Tuple_impl.6"*, %"struct.std::_Tuple_impl.6"** %2, align 8, !dbg !4781
  %4 = bitcast %"struct.std::_Tuple_impl.6"* %3 to i8*, !dbg !4781
  %5 = getelementptr inbounds i8, i8* %4, i64 8, !dbg !4781
  %6 = bitcast i8* %5 to %"struct.std::_Head_base.9"*, !dbg !4781
  %7 = call dereferenceable(16) %"struct.std::_Mem_fn"* @_ZNSt10_Head_baseILm0ESt7_Mem_fnIMN15readers_writers6WriterEFvvEELb0EE7_M_headERS6_(%"struct.std::_Head_base.9"* dereferenceable(16) %6) #3, !dbg !4782
  ret %"struct.std::_Mem_fn"* %7, !dbg !4783
}

; Function Attrs: nounwind uwtable
define linkonce_odr void @_ZNSt10_Head_baseILm0ESt7_Mem_fnIMN15readers_writers6WriterEFvvEELb0EEC2IS5_EEOT_(%"struct.std::_Head_base.9"*, %"struct.std::_Mem_fn"* dereferenceable(16)) unnamed_addr #4 comdat align 2 !dbg !4784 {
  %3 = alloca %"struct.std::_Head_base.9"*, align 8
  %4 = alloca %"struct.std::_Mem_fn"*, align 8
  store %"struct.std::_Head_base.9"* %0, %"struct.std::_Head_base.9"** %3, align 8
  call void @llvm.dbg.declare(metadata %"struct.std::_Head_base.9"** %3, metadata !4790, metadata !3590), !dbg !4792
  store %"struct.std::_Mem_fn"* %1, %"struct.std::_Mem_fn"** %4, align 8
  call void @llvm.dbg.declare(metadata %"struct.std::_Mem_fn"** %4, metadata !4793, metadata !3590), !dbg !4794
  %5 = load %"struct.std::_Head_base.9"*, %"struct.std::_Head_base.9"** %3, align 8
  %6 = getelementptr inbounds %"struct.std::_Head_base.9", %"struct.std::_Head_base.9"* %5, i32 0, i32 0, !dbg !4795
  %7 = load %"struct.std::_Mem_fn"*, %"struct.std::_Mem_fn"** %4, align 8, !dbg !4796
  %8 = call dereferenceable(16) %"struct.std::_Mem_fn"* @_ZSt7forwardISt7_Mem_fnIMN15readers_writers6WriterEFvvEEEOT_RNSt16remove_referenceIS6_E4typeE(%"struct.std::_Mem_fn"* dereferenceable(16) %7) #3, !dbg !4797
  %9 = bitcast %"struct.std::_Mem_fn"* %6 to i8*, !dbg !4795
  %10 = bitcast %"struct.std::_Mem_fn"* %8 to i8*, !dbg !4795
  call void @llvm.memcpy.p0i8.p0i8.i64(i8* %9, i8* %10, i64 16, i32 8, i1 false), !dbg !4798
  ret void, !dbg !4800
}

; Function Attrs: nounwind uwtable
define linkonce_odr dereferenceable(8) %"class.readers_writers::Writer"** @_ZNSt11_Tuple_implILm1EJPN15readers_writers6WriterEEE7_M_headERS3_(%"struct.std::_Tuple_impl.7"* dereferenceable(8)) #4 comdat align 2 !dbg !4801 {
  %2 = alloca %"struct.std::_Tuple_impl.7"*, align 8
  store %"struct.std::_Tuple_impl.7"* %0, %"struct.std::_Tuple_impl.7"** %2, align 8
  call void @llvm.dbg.declare(metadata %"struct.std::_Tuple_impl.7"** %2, metadata !4802, metadata !3590), !dbg !4803
  %3 = load %"struct.std::_Tuple_impl.7"*, %"struct.std::_Tuple_impl.7"** %2, align 8, !dbg !4804
  %4 = bitcast %"struct.std::_Tuple_impl.7"* %3 to %"struct.std::_Head_base.8"*, !dbg !4804
  %5 = call dereferenceable(8) %"class.readers_writers::Writer"** @_ZNSt10_Head_baseILm1EPN15readers_writers6WriterELb0EE7_M_headERS3_(%"struct.std::_Head_base.8"* dereferenceable(8) %4) #3, !dbg !4805
  ret %"class.readers_writers::Writer"** %5, !dbg !4806
}

; Function Attrs: nounwind uwtable
define linkonce_odr void @_ZNSt10_Head_baseILm1EPN15readers_writers6WriterELb0EEC2IS2_EEOT_(%"struct.std::_Head_base.8"*, %"class.readers_writers::Writer"** dereferenceable(8)) unnamed_addr #4 comdat align 2 !dbg !4807 {
  %3 = alloca %"struct.std::_Head_base.8"*, align 8
  %4 = alloca %"class.readers_writers::Writer"**, align 8
  store %"struct.std::_Head_base.8"* %0, %"struct.std::_Head_base.8"** %3, align 8
  call void @llvm.dbg.declare(metadata %"struct.std::_Head_base.8"** %3, metadata !4813, metadata !3590), !dbg !4815
  store %"class.readers_writers::Writer"** %1, %"class.readers_writers::Writer"*** %4, align 8
  call void @llvm.dbg.declare(metadata %"class.readers_writers::Writer"*** %4, metadata !4816, metadata !3590), !dbg !4817
  %5 = load %"struct.std::_Head_base.8"*, %"struct.std::_Head_base.8"** %3, align 8
  %6 = getelementptr inbounds %"struct.std::_Head_base.8", %"struct.std::_Head_base.8"* %5, i32 0, i32 0, !dbg !4818
  %7 = load %"class.readers_writers::Writer"**, %"class.readers_writers::Writer"*** %4, align 8, !dbg !4819
  %8 = call dereferenceable(8) %"class.readers_writers::Writer"** @_ZSt7forwardIPN15readers_writers6WriterEEOT_RNSt16remove_referenceIS3_E4typeE(%"class.readers_writers::Writer"** dereferenceable(8) %7) #3, !dbg !4820
  %9 = load %"class.readers_writers::Writer"*, %"class.readers_writers::Writer"** %8, align 8, !dbg !4820
  store %"class.readers_writers::Writer"* %9, %"class.readers_writers::Writer"** %6, align 8, !dbg !4818
  ret void, !dbg !4821
}

; Function Attrs: nounwind uwtable
define linkonce_odr dereferenceable(8) %"class.readers_writers::Writer"** @_ZNSt10_Head_baseILm1EPN15readers_writers6WriterELb0EE7_M_headERS3_(%"struct.std::_Head_base.8"* dereferenceable(8)) #4 comdat align 2 !dbg !4822 {
  %2 = alloca %"struct.std::_Head_base.8"*, align 8
  store %"struct.std::_Head_base.8"* %0, %"struct.std::_Head_base.8"** %2, align 8
  call void @llvm.dbg.declare(metadata %"struct.std::_Head_base.8"** %2, metadata !4823, metadata !3590), !dbg !4824
  %3 = load %"struct.std::_Head_base.8"*, %"struct.std::_Head_base.8"** %2, align 8, !dbg !4825
  %4 = getelementptr inbounds %"struct.std::_Head_base.8", %"struct.std::_Head_base.8"* %3, i32 0, i32 0, !dbg !4826
  ret %"class.readers_writers::Writer"** %4, !dbg !4827
}

; Function Attrs: nounwind uwtable
define linkonce_odr dereferenceable(16) %"struct.std::_Mem_fn"* @_ZNSt10_Head_baseILm0ESt7_Mem_fnIMN15readers_writers6WriterEFvvEELb0EE7_M_headERS6_(%"struct.std::_Head_base.9"* dereferenceable(16)) #4 comdat align 2 !dbg !4828 {
  %2 = alloca %"struct.std::_Head_base.9"*, align 8
  store %"struct.std::_Head_base.9"* %0, %"struct.std::_Head_base.9"** %2, align 8
  call void @llvm.dbg.declare(metadata %"struct.std::_Head_base.9"** %2, metadata !4829, metadata !3590), !dbg !4830
  %3 = load %"struct.std::_Head_base.9"*, %"struct.std::_Head_base.9"** %2, align 8, !dbg !4831
  %4 = getelementptr inbounds %"struct.std::_Head_base.9", %"struct.std::_Head_base.9"* %3, i32 0, i32 0, !dbg !4832
  ret %"struct.std::_Mem_fn"* %4, !dbg !4833
}

; Function Attrs: nounwind
declare void @_ZNSt6thread6_StateD2Ev(%"struct.std::thread::_State"*) unnamed_addr #2

; Function Attrs: uwtable
define linkonce_odr void @_ZNSt12_Bind_simpleIFSt7_Mem_fnIMN15readers_writers6WriterEFvvEEPS2_EEclEv(%"struct.std::_Bind_simple"*) #0 comdat align 2 !dbg !4834 {
  %2 = alloca %"struct.std::_Bind_simple"*, align 8
  %3 = alloca %"struct.std::_Index_tuple", align 1
  store %"struct.std::_Bind_simple"* %0, %"struct.std::_Bind_simple"** %2, align 8
  call void @llvm.dbg.declare(metadata %"struct.std::_Bind_simple"** %2, metadata !4835, metadata !3590), !dbg !4836
  %4 = load %"struct.std::_Bind_simple"*, %"struct.std::_Bind_simple"** %2, align 8
  call void @_ZNSt12_Bind_simpleIFSt7_Mem_fnIMN15readers_writers6WriterEFvvEEPS2_EE9_M_invokeIJLm0EEEEvSt12_Index_tupleIJXspT_EEE(%"struct.std::_Bind_simple"* %4), !dbg !4837
  ret void, !dbg !4838
}

; Function Attrs: uwtable
define linkonce_odr void @_ZNSt12_Bind_simpleIFSt7_Mem_fnIMN15readers_writers6WriterEFvvEEPS2_EE9_M_invokeIJLm0EEEEvSt12_Index_tupleIJXspT_EEE(%"struct.std::_Bind_simple"*) #0 comdat align 2 !dbg !4839 {
  %2 = alloca %"struct.std::_Index_tuple", align 1
  %3 = alloca %"struct.std::_Bind_simple"*, align 8
  store %"struct.std::_Bind_simple"* %0, %"struct.std::_Bind_simple"** %3, align 8
  call void @llvm.dbg.declare(metadata %"struct.std::_Bind_simple"** %3, metadata !4851, metadata !3590), !dbg !4852
  call void @llvm.dbg.declare(metadata %"struct.std::_Index_tuple"* %2, metadata !4853, metadata !3590), !dbg !4854
  %4 = load %"struct.std::_Bind_simple"*, %"struct.std::_Bind_simple"** %3, align 8
  %5 = getelementptr inbounds %"struct.std::_Bind_simple", %"struct.std::_Bind_simple"* %4, i32 0, i32 0, !dbg !4855
  %6 = call dereferenceable(16) %"struct.std::_Mem_fn"* @_ZSt3getILm0EJSt7_Mem_fnIMN15readers_writers6WriterEFvvEEPS2_EERNSt13tuple_elementIXT_ESt5tupleIJDpT0_EEE4typeERSB_(%"class.std::tuple.5"* dereferenceable(24) %5) #3, !dbg !4856
  %7 = call dereferenceable(16) %"struct.std::_Mem_fn"* @_ZSt7forwardISt7_Mem_fnIMN15readers_writers6WriterEFvvEEEOT_RNSt16remove_referenceIS6_E4typeE(%"struct.std::_Mem_fn"* dereferenceable(16) %6) #3, !dbg !4857
  %8 = bitcast %"struct.std::_Mem_fn"* %7 to %"class.std::_Mem_fn_base"*, !dbg !4859
  %9 = getelementptr inbounds %"struct.std::_Bind_simple", %"struct.std::_Bind_simple"* %4, i32 0, i32 0, !dbg !4860
  %10 = call dereferenceable(8) %"class.readers_writers::Writer"** @_ZSt3getILm1EJSt7_Mem_fnIMN15readers_writers6WriterEFvvEEPS2_EERNSt13tuple_elementIXT_ESt5tupleIJDpT0_EEE4typeERSB_(%"class.std::tuple.5"* dereferenceable(24) %9) #3, !dbg !4861
  %11 = call dereferenceable(8) %"class.readers_writers::Writer"** @_ZSt7forwardIPN15readers_writers6WriterEEOT_RNSt16remove_referenceIS3_E4typeE(%"class.readers_writers::Writer"** dereferenceable(8) %10) #3, !dbg !4862
  call void @_ZNKSt12_Mem_fn_baseIMN15readers_writers6WriterEFvvELb1EEclIJPS1_EEEDTclsr3stdE8__invokedtdefpT6_M_pmfspclsr3stdE7forwardIT_Efp_EEEDpOS7_(%"class.std::_Mem_fn_base"* %8, %"class.readers_writers::Writer"** dereferenceable(8) %11), !dbg !4863
  ret void, !dbg !4865
}

; Function Attrs: nounwind uwtable
define linkonce_odr dereferenceable(16) %"struct.std::_Mem_fn"* @_ZSt3getILm0EJSt7_Mem_fnIMN15readers_writers6WriterEFvvEEPS2_EERNSt13tuple_elementIXT_ESt5tupleIJDpT0_EEE4typeERSB_(%"class.std::tuple.5"* dereferenceable(24)) #4 comdat !dbg !4866 {
  %2 = alloca %"class.std::tuple.5"*, align 8
  store %"class.std::tuple.5"* %0, %"class.std::tuple.5"** %2, align 8
  call void @llvm.dbg.declare(metadata %"class.std::tuple.5"** %2, metadata !4878, metadata !3590), !dbg !4879
  %3 = load %"class.std::tuple.5"*, %"class.std::tuple.5"** %2, align 8, !dbg !4880
  %4 = bitcast %"class.std::tuple.5"* %3 to %"struct.std::_Tuple_impl.6"*, !dbg !4880
  %5 = call dereferenceable(16) %"struct.std::_Mem_fn"* @_ZSt12__get_helperILm0ESt7_Mem_fnIMN15readers_writers6WriterEFvvEEJPS2_EERT0_RSt11_Tuple_implIXT_EJS7_DpT1_EE(%"struct.std::_Tuple_impl.6"* dereferenceable(24) %4) #3, !dbg !4881
  ret %"struct.std::_Mem_fn"* %5, !dbg !4882
}

; Function Attrs: uwtable
define linkonce_odr void @_ZNKSt12_Mem_fn_baseIMN15readers_writers6WriterEFvvELb1EEclIJPS1_EEEDTclsr3stdE8__invokedtdefpT6_M_pmfspclsr3stdE7forwardIT_Efp_EEEDpOS7_(%"class.std::_Mem_fn_base"*, %"class.readers_writers::Writer"** dereferenceable(8)) #0 comdat align 2 !dbg !4883 {
  %3 = alloca %"class.std::_Mem_fn_base"*, align 8
  %4 = alloca %"class.readers_writers::Writer"**, align 8
  store %"class.std::_Mem_fn_base"* %0, %"class.std::_Mem_fn_base"** %3, align 8
  call void @llvm.dbg.declare(metadata %"class.std::_Mem_fn_base"** %3, metadata !4890, metadata !3590), !dbg !4892
  store %"class.readers_writers::Writer"** %1, %"class.readers_writers::Writer"*** %4, align 8
  call void @llvm.dbg.declare(metadata %"class.readers_writers::Writer"*** %4, metadata !4893, metadata !3590), !dbg !4894
  %5 = load %"class.std::_Mem_fn_base"*, %"class.std::_Mem_fn_base"** %3, align 8
  %6 = getelementptr inbounds %"class.std::_Mem_fn_base", %"class.std::_Mem_fn_base"* %5, i32 0, i32 0, !dbg !4895
  %7 = load %"class.readers_writers::Writer"**, %"class.readers_writers::Writer"*** %4, align 8, !dbg !4896
  %8 = call dereferenceable(8) %"class.readers_writers::Writer"** @_ZSt7forwardIPN15readers_writers6WriterEEOT_RNSt16remove_referenceIS3_E4typeE(%"class.readers_writers::Writer"** dereferenceable(8) %7) #3, !dbg !4897
  call void @_ZSt8__invokeIRKMN15readers_writers6WriterEFvvEJPS1_EENSt9result_ofIFOT_DpOT0_EE4typeES9_SC_({ i64, i64 }* dereferenceable(16) %6, %"class.readers_writers::Writer"** dereferenceable(8) %8), !dbg !4898
  ret void, !dbg !4900
}

; Function Attrs: nounwind uwtable
define linkonce_odr dereferenceable(8) %"class.readers_writers::Writer"** @_ZSt3getILm1EJSt7_Mem_fnIMN15readers_writers6WriterEFvvEEPS2_EERNSt13tuple_elementIXT_ESt5tupleIJDpT0_EEE4typeERSB_(%"class.std::tuple.5"* dereferenceable(24)) #4 comdat !dbg !4901 {
  %2 = alloca %"class.std::tuple.5"*, align 8
  store %"class.std::tuple.5"* %0, %"class.std::tuple.5"** %2, align 8
  call void @llvm.dbg.declare(metadata %"class.std::tuple.5"** %2, metadata !4913, metadata !3590), !dbg !4914
  %3 = load %"class.std::tuple.5"*, %"class.std::tuple.5"** %2, align 8, !dbg !4915
  %4 = bitcast %"class.std::tuple.5"* %3 to %"struct.std::_Tuple_impl.7"*, !dbg !4915
  %5 = call dereferenceable(8) %"class.readers_writers::Writer"** @_ZSt12__get_helperILm1EPN15readers_writers6WriterEJEERT0_RSt11_Tuple_implIXT_EJS3_DpT1_EE(%"struct.std::_Tuple_impl.7"* dereferenceable(8) %4) #3, !dbg !4916
  ret %"class.readers_writers::Writer"** %5, !dbg !4917
}

; Function Attrs: nounwind uwtable
define linkonce_odr dereferenceable(16) %"struct.std::_Mem_fn"* @_ZSt12__get_helperILm0ESt7_Mem_fnIMN15readers_writers6WriterEFvvEEJPS2_EERT0_RSt11_Tuple_implIXT_EJS7_DpT1_EE(%"struct.std::_Tuple_impl.6"* dereferenceable(24)) #4 comdat !dbg !4918 {
  %2 = alloca %"struct.std::_Tuple_impl.6"*, align 8
  store %"struct.std::_Tuple_impl.6"* %0, %"struct.std::_Tuple_impl.6"** %2, align 8
  call void @llvm.dbg.declare(metadata %"struct.std::_Tuple_impl.6"** %2, metadata !4921, metadata !3590), !dbg !4922
  %3 = load %"struct.std::_Tuple_impl.6"*, %"struct.std::_Tuple_impl.6"** %2, align 8, !dbg !4923
  %4 = call dereferenceable(16) %"struct.std::_Mem_fn"* @_ZNSt11_Tuple_implILm0EJSt7_Mem_fnIMN15readers_writers6WriterEFvvEEPS2_EE7_M_headERS7_(%"struct.std::_Tuple_impl.6"* dereferenceable(24) %3) #3, !dbg !4924
  ret %"struct.std::_Mem_fn"* %4, !dbg !4925
}

; Function Attrs: inlinehint uwtable
define linkonce_odr void @_ZSt8__invokeIRKMN15readers_writers6WriterEFvvEJPS1_EENSt9result_ofIFOT_DpOT0_EE4typeES9_SC_({ i64, i64 }* dereferenceable(16), %"class.readers_writers::Writer"** dereferenceable(8)) #10 comdat !dbg !827 {
  %3 = alloca { i64, i64 }*, align 8
  %4 = alloca %"class.readers_writers::Writer"**, align 8
  %5 = alloca %"struct.std::__invoke_memfun_deref", align 1
  store { i64, i64 }* %0, { i64, i64 }** %3, align 8
  call void @llvm.dbg.declare(metadata { i64, i64 }** %3, metadata !4926, metadata !3590), !dbg !4927
  store %"class.readers_writers::Writer"** %1, %"class.readers_writers::Writer"*** %4, align 8
  call void @llvm.dbg.declare(metadata %"class.readers_writers::Writer"*** %4, metadata !4928, metadata !3590), !dbg !4929
  %6 = load { i64, i64 }*, { i64, i64 }** %3, align 8, !dbg !4930
  %7 = call dereferenceable(16) { i64, i64 }* @_ZSt7forwardIRKMN15readers_writers6WriterEFvvEEOT_RNSt16remove_referenceIS6_E4typeE({ i64, i64 }* dereferenceable(16) %6) #3, !dbg !4931
  %8 = load %"class.readers_writers::Writer"**, %"class.readers_writers::Writer"*** %4, align 8, !dbg !4932
  %9 = call dereferenceable(8) %"class.readers_writers::Writer"** @_ZSt7forwardIPN15readers_writers6WriterEEOT_RNSt16remove_referenceIS3_E4typeE(%"class.readers_writers::Writer"** dereferenceable(8) %8) #3, !dbg !4933
  call void @_ZSt13__invoke_implIvRKMN15readers_writers6WriterEFvvEPS1_JEET_St21__invoke_memfun_derefOT0_OT1_DpOT2_({ i64, i64 }* dereferenceable(16) %7, %"class.readers_writers::Writer"** dereferenceable(8) %9), !dbg !4934
  ret void, !dbg !4936
}

; Function Attrs: inlinehint uwtable
define linkonce_odr void @_ZSt13__invoke_implIvRKMN15readers_writers6WriterEFvvEPS1_JEET_St21__invoke_memfun_derefOT0_OT1_DpOT2_({ i64, i64 }* dereferenceable(16), %"class.readers_writers::Writer"** dereferenceable(8)) #10 comdat !dbg !4937 {
  %3 = alloca %"struct.std::__invoke_memfun_deref", align 1
  %4 = alloca { i64, i64 }*, align 8
  %5 = alloca %"class.readers_writers::Writer"**, align 8
  call void @llvm.dbg.declare(metadata %"struct.std::__invoke_memfun_deref"* %3, metadata !4943, metadata !3590), !dbg !4944
  store { i64, i64 }* %0, { i64, i64 }** %4, align 8
  call void @llvm.dbg.declare(metadata { i64, i64 }** %4, metadata !4945, metadata !3590), !dbg !4946
  store %"class.readers_writers::Writer"** %1, %"class.readers_writers::Writer"*** %5, align 8
  call void @llvm.dbg.declare(metadata %"class.readers_writers::Writer"*** %5, metadata !4947, metadata !3590), !dbg !4948
  %6 = load { i64, i64 }*, { i64, i64 }** %4, align 8, !dbg !4949
  %7 = load { i64, i64 }, { i64, i64 }* %6, align 8, !dbg !4949
  %8 = load %"class.readers_writers::Writer"**, %"class.readers_writers::Writer"*** %5, align 8, !dbg !4950
  %9 = call dereferenceable(8) %"class.readers_writers::Writer"** @_ZSt7forwardIPN15readers_writers6WriterEEOT_RNSt16remove_referenceIS3_E4typeE(%"class.readers_writers::Writer"** dereferenceable(8) %8) #3, !dbg !4951
  %10 = load %"class.readers_writers::Writer"*, %"class.readers_writers::Writer"** %9, align 8, !dbg !4951
  %11 = extractvalue { i64, i64 } %7, 1, !dbg !4952
  %12 = bitcast %"class.readers_writers::Writer"* %10 to i8*, !dbg !4952
  %13 = getelementptr inbounds i8, i8* %12, i64 %11, !dbg !4952
  %14 = bitcast i8* %13 to %"class.readers_writers::Writer"*, !dbg !4952
  %15 = extractvalue { i64, i64 } %7, 0, !dbg !4952
  %16 = and i64 %15, 1, !dbg !4952
  %17 = icmp ne i64 %16, 0, !dbg !4952
  br i1 %17, label %18, label %25, !dbg !4952

; <label>:18:                                     ; preds = %2
  %19 = bitcast %"class.readers_writers::Writer"* %14 to i8**, !dbg !4953
  %20 = load i8*, i8** %19, align 8, !dbg !4953
  %21 = sub i64 %15, 1, !dbg !4953
  %22 = getelementptr i8, i8* %20, i64 %21, !dbg !4953
  %23 = bitcast i8* %22 to void (%"class.readers_writers::Writer"*)**, !dbg !4953
  %24 = load void (%"class.readers_writers::Writer"*)*, void (%"class.readers_writers::Writer"*)** %23, align 8, !dbg !4953
  br label %27, !dbg !4953

; <label>:25:                                     ; preds = %2
  %26 = inttoptr i64 %15 to void (%"class.readers_writers::Writer"*)*, !dbg !4955
  br label %27, !dbg !4955

; <label>:27:                                     ; preds = %25, %18
  %28 = phi void (%"class.readers_writers::Writer"*)* [ %24, %18 ], [ %26, %25 ], !dbg !4957
  call void %28(%"class.readers_writers::Writer"* %14), !dbg !4957
  ret void, !dbg !4959
}

; Function Attrs: nounwind uwtable
define linkonce_odr dereferenceable(16) { i64, i64 }* @_ZSt7forwardIRKMN15readers_writers6WriterEFvvEEOT_RNSt16remove_referenceIS6_E4typeE({ i64, i64 }* dereferenceable(16)) #4 comdat !dbg !4960 {
  %2 = alloca { i64, i64 }*, align 8
  store { i64, i64 }* %0, { i64, i64 }** %2, align 8
  call void @llvm.dbg.declare(metadata { i64, i64 }** %2, metadata !4968, metadata !3590), !dbg !4969
  %3 = load { i64, i64 }*, { i64, i64 }** %2, align 8, !dbg !4970
  ret { i64, i64 }* %3, !dbg !4971
}

; Function Attrs: nounwind uwtable
define linkonce_odr dereferenceable(8) %"class.readers_writers::Writer"** @_ZSt12__get_helperILm1EPN15readers_writers6WriterEJEERT0_RSt11_Tuple_implIXT_EJS3_DpT1_EE(%"struct.std::_Tuple_impl.7"* dereferenceable(8)) #4 comdat !dbg !4972 {
  %2 = alloca %"struct.std::_Tuple_impl.7"*, align 8
  store %"struct.std::_Tuple_impl.7"* %0, %"struct.std::_Tuple_impl.7"** %2, align 8
  call void @llvm.dbg.declare(metadata %"struct.std::_Tuple_impl.7"** %2, metadata !4975, metadata !3590), !dbg !4976
  %3 = load %"struct.std::_Tuple_impl.7"*, %"struct.std::_Tuple_impl.7"** %2, align 8, !dbg !4977
  %4 = call dereferenceable(8) %"class.readers_writers::Writer"** @_ZNSt11_Tuple_implILm1EJPN15readers_writers6WriterEEE7_M_headERS3_(%"struct.std::_Tuple_impl.7"* dereferenceable(8) %3) #3, !dbg !4978
  ret %"class.readers_writers::Writer"** %4, !dbg !4979
}

; Function Attrs: uwtable
define linkonce_odr void @_ZNSt5tupleIJPNSt6thread6_StateESt14default_deleteIS1_EEEC2IS2_S4_Lb1EEEv(%"class.std::tuple"*) unnamed_addr #0 comdat align 2 !dbg !4980 {
  %2 = alloca %"class.std::tuple"*, align 8
  store %"class.std::tuple"* %0, %"class.std::tuple"** %2, align 8
  call void @llvm.dbg.declare(metadata %"class.std::tuple"** %2, metadata !4987, metadata !3590), !dbg !4989
  %3 = load %"class.std::tuple"*, %"class.std::tuple"** %2, align 8
  %4 = bitcast %"class.std::tuple"* %3 to %"struct.std::_Tuple_impl"*, !dbg !4990
  call void @_ZNSt11_Tuple_implILm0EJPNSt6thread6_StateESt14default_deleteIS1_EEEC2Ev(%"struct.std::_Tuple_impl"* %4), !dbg !4991
  ret void, !dbg !4992
}

; Function Attrs: nounwind uwtable
define linkonce_odr dereferenceable(8) %"struct.std::thread::_State"** @_ZSt3getILm0EJPNSt6thread6_StateESt14default_deleteIS1_EEERNSt13tuple_elementIXT_ESt5tupleIJDpT0_EEE4typeERS9_(%"class.std::tuple"* dereferenceable(8)) #4 comdat !dbg !4993 {
  %2 = alloca %"class.std::tuple"*, align 8
  store %"class.std::tuple"* %0, %"class.std::tuple"** %2, align 8
  call void @llvm.dbg.declare(metadata %"class.std::tuple"** %2, metadata !5003, metadata !3590), !dbg !5004
  %3 = load %"class.std::tuple"*, %"class.std::tuple"** %2, align 8, !dbg !5005
  %4 = bitcast %"class.std::tuple"* %3 to %"struct.std::_Tuple_impl"*, !dbg !5005
  %5 = call dereferenceable(8) %"struct.std::thread::_State"** @_ZSt12__get_helperILm0EPNSt6thread6_StateEJSt14default_deleteIS1_EEERT0_RSt11_Tuple_implIXT_EJS5_DpT1_EE(%"struct.std::_Tuple_impl"* dereferenceable(8) %4) #3, !dbg !5006
  ret %"struct.std::thread::_State"** %5, !dbg !5007
}

; Function Attrs: uwtable
define linkonce_odr void @_ZNSt11_Tuple_implILm0EJPNSt6thread6_StateESt14default_deleteIS1_EEEC2Ev(%"struct.std::_Tuple_impl"*) unnamed_addr #0 comdat align 2 !dbg !5008 {
  %2 = alloca %"struct.std::_Tuple_impl"*, align 8
  store %"struct.std::_Tuple_impl"* %0, %"struct.std::_Tuple_impl"** %2, align 8
  call void @llvm.dbg.declare(metadata %"struct.std::_Tuple_impl"** %2, metadata !5009, metadata !3590), !dbg !5011
  %3 = load %"struct.std::_Tuple_impl"*, %"struct.std::_Tuple_impl"** %2, align 8
  %4 = bitcast %"struct.std::_Tuple_impl"* %3 to %"struct.std::_Tuple_impl.3"*, !dbg !5012
  call void @_ZNSt11_Tuple_implILm1EJSt14default_deleteINSt6thread6_StateEEEEC2Ev(%"struct.std::_Tuple_impl.3"* %4), !dbg !5013
  %5 = bitcast %"struct.std::_Tuple_impl"* %3 to %"struct.std::_Head_base.4"*, !dbg !5012
  call void @_ZNSt10_Head_baseILm0EPNSt6thread6_StateELb0EEC2Ev(%"struct.std::_Head_base.4"* %5), !dbg !5014
  ret void, !dbg !5016
}

; Function Attrs: uwtable
define linkonce_odr void @_ZNSt11_Tuple_implILm1EJSt14default_deleteINSt6thread6_StateEEEEC2Ev(%"struct.std::_Tuple_impl.3"*) unnamed_addr #0 comdat align 2 !dbg !5017 {
  %2 = alloca %"struct.std::_Tuple_impl.3"*, align 8
  store %"struct.std::_Tuple_impl.3"* %0, %"struct.std::_Tuple_impl.3"** %2, align 8
  call void @llvm.dbg.declare(metadata %"struct.std::_Tuple_impl.3"** %2, metadata !5018, metadata !3590), !dbg !5020
  %3 = load %"struct.std::_Tuple_impl.3"*, %"struct.std::_Tuple_impl.3"** %2, align 8
  %4 = bitcast %"struct.std::_Tuple_impl.3"* %3 to %"struct.std::_Head_base"*, !dbg !5021
  call void @_ZNSt10_Head_baseILm1ESt14default_deleteINSt6thread6_StateEELb1EEC2Ev(%"struct.std::_Head_base"* %4), !dbg !5022
  ret void, !dbg !5023
}

; Function Attrs: nounwind uwtable
define linkonce_odr void @_ZNSt10_Head_baseILm0EPNSt6thread6_StateELb0EEC2Ev(%"struct.std::_Head_base.4"*) unnamed_addr #4 comdat align 2 !dbg !5024 {
  %2 = alloca %"struct.std::_Head_base.4"*, align 8
  store %"struct.std::_Head_base.4"* %0, %"struct.std::_Head_base.4"** %2, align 8
  call void @llvm.dbg.declare(metadata %"struct.std::_Head_base.4"** %2, metadata !5025, metadata !3590), !dbg !5027
  %3 = load %"struct.std::_Head_base.4"*, %"struct.std::_Head_base.4"** %2, align 8
  %4 = getelementptr inbounds %"struct.std::_Head_base.4", %"struct.std::_Head_base.4"* %3, i32 0, i32 0, !dbg !5028
  store %"struct.std::thread::_State"* null, %"struct.std::thread::_State"** %4, align 8, !dbg !5028
  ret void, !dbg !5029
}

; Function Attrs: nounwind uwtable
define linkonce_odr void @_ZNSt10_Head_baseILm1ESt14default_deleteINSt6thread6_StateEELb1EEC2Ev(%"struct.std::_Head_base"*) unnamed_addr #4 comdat align 2 !dbg !5030 {
  %2 = alloca %"struct.std::_Head_base"*, align 8
  store %"struct.std::_Head_base"* %0, %"struct.std::_Head_base"** %2, align 8
  call void @llvm.dbg.declare(metadata %"struct.std::_Head_base"** %2, metadata !5031, metadata !3590), !dbg !5033
  %3 = load %"struct.std::_Head_base"*, %"struct.std::_Head_base"** %2, align 8
  %4 = bitcast %"struct.std::_Head_base"* %3 to %"struct.std::default_delete"*, !dbg !5034
  ret void, !dbg !5035
}

; Function Attrs: nounwind uwtable
define linkonce_odr dereferenceable(8) %"struct.std::thread::_State"** @_ZSt12__get_helperILm0EPNSt6thread6_StateEJSt14default_deleteIS1_EEERT0_RSt11_Tuple_implIXT_EJS5_DpT1_EE(%"struct.std::_Tuple_impl"* dereferenceable(8)) #4 comdat !dbg !5036 {
  %2 = alloca %"struct.std::_Tuple_impl"*, align 8
  store %"struct.std::_Tuple_impl"* %0, %"struct.std::_Tuple_impl"** %2, align 8
  call void @llvm.dbg.declare(metadata %"struct.std::_Tuple_impl"** %2, metadata !5039, metadata !3590), !dbg !5040
  %3 = load %"struct.std::_Tuple_impl"*, %"struct.std::_Tuple_impl"** %2, align 8, !dbg !5041
  %4 = call dereferenceable(8) %"struct.std::thread::_State"** @_ZNSt11_Tuple_implILm0EJPNSt6thread6_StateESt14default_deleteIS1_EEE7_M_headERS5_(%"struct.std::_Tuple_impl"* dereferenceable(8) %3) #3, !dbg !5042
  ret %"struct.std::thread::_State"** %4, !dbg !5043
}

; Function Attrs: nounwind uwtable
define linkonce_odr dereferenceable(8) %"struct.std::thread::_State"** @_ZNSt11_Tuple_implILm0EJPNSt6thread6_StateESt14default_deleteIS1_EEE7_M_headERS5_(%"struct.std::_Tuple_impl"* dereferenceable(8)) #4 comdat align 2 !dbg !5044 {
  %2 = alloca %"struct.std::_Tuple_impl"*, align 8
  store %"struct.std::_Tuple_impl"* %0, %"struct.std::_Tuple_impl"** %2, align 8
  call void @llvm.dbg.declare(metadata %"struct.std::_Tuple_impl"** %2, metadata !5045, metadata !3590), !dbg !5046
  %3 = load %"struct.std::_Tuple_impl"*, %"struct.std::_Tuple_impl"** %2, align 8, !dbg !5047
  %4 = bitcast %"struct.std::_Tuple_impl"* %3 to %"struct.std::_Head_base.4"*, !dbg !5047
  %5 = call dereferenceable(8) %"struct.std::thread::_State"** @_ZNSt10_Head_baseILm0EPNSt6thread6_StateELb0EE7_M_headERS3_(%"struct.std::_Head_base.4"* dereferenceable(8) %4) #3, !dbg !5048
  ret %"struct.std::thread::_State"** %5, !dbg !5049
}

; Function Attrs: nounwind uwtable
define linkonce_odr dereferenceable(8) %"struct.std::thread::_State"** @_ZNSt10_Head_baseILm0EPNSt6thread6_StateELb0EE7_M_headERS3_(%"struct.std::_Head_base.4"* dereferenceable(8)) #4 comdat align 2 !dbg !5050 {
  %2 = alloca %"struct.std::_Head_base.4"*, align 8
  store %"struct.std::_Head_base.4"* %0, %"struct.std::_Head_base.4"** %2, align 8
  call void @llvm.dbg.declare(metadata %"struct.std::_Head_base.4"** %2, metadata !5051, metadata !3590), !dbg !5052
  %3 = load %"struct.std::_Head_base.4"*, %"struct.std::_Head_base.4"** %2, align 8, !dbg !5053
  %4 = getelementptr inbounds %"struct.std::_Head_base.4", %"struct.std::_Head_base.4"* %3, i32 0, i32 0, !dbg !5054
  ret %"struct.std::thread::_State"** %4, !dbg !5055
}

; Function Attrs: nounwind uwtable
define linkonce_odr { i64, i64 } @_ZNSt26_Maybe_wrap_member_pointerIMN15readers_writers6WriterEFvvEE9__do_wrapES3_(i64, i64) #4 comdat align 2 !dbg !5056 {
  %3 = alloca %"struct.std::_Mem_fn", align 8
  %4 = alloca { i64, i64 }, align 8
  %5 = alloca { i64, i64 }, align 8
  %6 = alloca { i64, i64 }, align 8
  %7 = getelementptr inbounds { i64, i64 }, { i64, i64 }* %4, i32 0, i32 0
  store i64 %0, i64* %7, align 8
  %8 = getelementptr inbounds { i64, i64 }, { i64, i64 }* %4, i32 0, i32 1
  store i64 %1, i64* %8, align 8
  %9 = load { i64, i64 }, { i64, i64 }* %4, align 8
  store { i64, i64 } %9, { i64, i64 }* %5, align 8
  call void @llvm.dbg.declare(metadata { i64, i64 }* %5, metadata !5057, metadata !3590), !dbg !5058
  %10 = load { i64, i64 }, { i64, i64 }* %5, align 8, !dbg !5059
  store { i64, i64 } %10, { i64, i64 }* %6, align 8, !dbg !5060
  %11 = getelementptr inbounds { i64, i64 }, { i64, i64 }* %6, i32 0, i32 0, !dbg !5060
  %12 = load i64, i64* %11, align 8, !dbg !5060
  %13 = getelementptr inbounds { i64, i64 }, { i64, i64 }* %6, i32 0, i32 1, !dbg !5060
  %14 = load i64, i64* %13, align 8, !dbg !5060
  call void @_ZNSt7_Mem_fnIMN15readers_writers6WriterEFvvEECI2St12_Mem_fn_baseIS3_Lb1EEES3_(%"struct.std::_Mem_fn"* %3, i64 %12, i64 %14) #3, !dbg !5060
  %15 = getelementptr inbounds %"struct.std::_Mem_fn", %"struct.std::_Mem_fn"* %3, i32 0, i32 0, !dbg !5061
  %16 = getelementptr inbounds %"class.std::_Mem_fn_base", %"class.std::_Mem_fn_base"* %15, i32 0, i32 0, !dbg !5061
  %17 = load { i64, i64 }, { i64, i64 }* %16, align 8, !dbg !5061
  ret { i64, i64 } %17, !dbg !5061
}

; Function Attrs: uwtable
define linkonce_odr void @_ZNSt12_Bind_simpleIFSt7_Mem_fnIMN15readers_writers6WriterEFvvEEPS2_EEC2IS5_JS6_EEEOT_DpOT0_(%"struct.std::_Bind_simple"*, %"struct.std::_Mem_fn"* dereferenceable(16), %"class.readers_writers::Writer"** dereferenceable(8)) unnamed_addr #0 comdat align 2 !dbg !5062 {
  %4 = alloca %"struct.std::_Bind_simple"*, align 8
  %5 = alloca %"struct.std::_Mem_fn"*, align 8
  %6 = alloca %"class.readers_writers::Writer"**, align 8
  store %"struct.std::_Bind_simple"* %0, %"struct.std::_Bind_simple"** %4, align 8
  call void @llvm.dbg.declare(metadata %"struct.std::_Bind_simple"** %4, metadata !5068, metadata !3590), !dbg !5069
  store %"struct.std::_Mem_fn"* %1, %"struct.std::_Mem_fn"** %5, align 8
  call void @llvm.dbg.declare(metadata %"struct.std::_Mem_fn"** %5, metadata !5070, metadata !3590), !dbg !5071
  store %"class.readers_writers::Writer"** %2, %"class.readers_writers::Writer"*** %6, align 8
  call void @llvm.dbg.declare(metadata %"class.readers_writers::Writer"*** %6, metadata !5072, metadata !3590), !dbg !5073
  %7 = load %"struct.std::_Bind_simple"*, %"struct.std::_Bind_simple"** %4, align 8
  %8 = getelementptr inbounds %"struct.std::_Bind_simple", %"struct.std::_Bind_simple"* %7, i32 0, i32 0, !dbg !5074
  %9 = load %"struct.std::_Mem_fn"*, %"struct.std::_Mem_fn"** %5, align 8, !dbg !5075
  %10 = call dereferenceable(16) %"struct.std::_Mem_fn"* @_ZSt7forwardISt7_Mem_fnIMN15readers_writers6WriterEFvvEEEOT_RNSt16remove_referenceIS6_E4typeE(%"struct.std::_Mem_fn"* dereferenceable(16) %9) #3, !dbg !5076
  %11 = load %"class.readers_writers::Writer"**, %"class.readers_writers::Writer"*** %6, align 8, !dbg !5077
  %12 = call dereferenceable(8) %"class.readers_writers::Writer"** @_ZSt7forwardIPN15readers_writers6WriterEEOT_RNSt16remove_referenceIS3_E4typeE(%"class.readers_writers::Writer"** dereferenceable(8) %11) #3, !dbg !5078
  call void @_ZNSt5tupleIJSt7_Mem_fnIMN15readers_writers6WriterEFvvEEPS2_EEC2IS5_S6_Lb1EEEOT_OT0_(%"class.std::tuple.5"* %8, %"struct.std::_Mem_fn"* dereferenceable(16) %10, %"class.readers_writers::Writer"** dereferenceable(8) %12), !dbg !5080
  ret void, !dbg !5082
}

; Function Attrs: inlinehint nounwind uwtable
define linkonce_odr void @_ZNSt7_Mem_fnIMN15readers_writers6WriterEFvvEECI2St12_Mem_fn_baseIS3_Lb1EEES3_(%"struct.std::_Mem_fn"*, i64, i64) unnamed_addr #9 comdat align 2 !dbg !5083 {
  %4 = alloca { i64, i64 }, align 8
  %5 = alloca %"struct.std::_Mem_fn"*, align 8
  %6 = alloca { i64, i64 }, align 8
  %7 = alloca { i64, i64 }, align 8
  %8 = getelementptr inbounds { i64, i64 }, { i64, i64 }* %4, i32 0, i32 0
  store i64 %1, i64* %8, align 8
  %9 = getelementptr inbounds { i64, i64 }, { i64, i64 }* %4, i32 0, i32 1
  store i64 %2, i64* %9, align 8
  %10 = load { i64, i64 }, { i64, i64 }* %4, align 8
  store %"struct.std::_Mem_fn"* %0, %"struct.std::_Mem_fn"** %5, align 8
  call void @llvm.dbg.declare(metadata %"struct.std::_Mem_fn"** %5, metadata !5088, metadata !3590), !dbg !5090
  store { i64, i64 } %10, { i64, i64 }* %6, align 8
  call void @llvm.dbg.declare(metadata { i64, i64 }* %6, metadata !5091, metadata !3590), !dbg !5090
  %11 = load %"struct.std::_Mem_fn"*, %"struct.std::_Mem_fn"** %5, align 8
  %12 = bitcast %"struct.std::_Mem_fn"* %11 to %"class.std::_Mem_fn_base"*, !dbg !5092
  %13 = load { i64, i64 }, { i64, i64 }* %6, align 8, !dbg !5092
  store { i64, i64 } %13, { i64, i64 }* %7, align 8, !dbg !5092
  %14 = getelementptr inbounds { i64, i64 }, { i64, i64 }* %7, i32 0, i32 0, !dbg !5092
  %15 = load i64, i64* %14, align 8, !dbg !5092
  %16 = getelementptr inbounds { i64, i64 }, { i64, i64 }* %7, i32 0, i32 1, !dbg !5092
  %17 = load i64, i64* %16, align 8, !dbg !5092
  call void @_ZNSt12_Mem_fn_baseIMN15readers_writers6WriterEFvvELb1EEC2ES3_(%"class.std::_Mem_fn_base"* %12, i64 %15, i64 %17) #3, !dbg !5092
  ret void, !dbg !5092
}

; Function Attrs: nounwind uwtable
define linkonce_odr void @_ZNSt12_Mem_fn_baseIMN15readers_writers6WriterEFvvELb1EEC2ES3_(%"class.std::_Mem_fn_base"*, i64, i64) unnamed_addr #4 comdat align 2 !dbg !5093 {
  %4 = alloca { i64, i64 }, align 8
  %5 = alloca %"class.std::_Mem_fn_base"*, align 8
  %6 = alloca { i64, i64 }, align 8
  %7 = getelementptr inbounds { i64, i64 }, { i64, i64 }* %4, i32 0, i32 0
  store i64 %1, i64* %7, align 8
  %8 = getelementptr inbounds { i64, i64 }, { i64, i64 }* %4, i32 0, i32 1
  store i64 %2, i64* %8, align 8
  %9 = load { i64, i64 }, { i64, i64 }* %4, align 8
  store %"class.std::_Mem_fn_base"* %0, %"class.std::_Mem_fn_base"** %5, align 8
  call void @llvm.dbg.declare(metadata %"class.std::_Mem_fn_base"** %5, metadata !5094, metadata !3590), !dbg !5096
  store { i64, i64 } %9, { i64, i64 }* %6, align 8
  call void @llvm.dbg.declare(metadata { i64, i64 }* %6, metadata !5097, metadata !3590), !dbg !5098
  %10 = load %"class.std::_Mem_fn_base"*, %"class.std::_Mem_fn_base"** %5, align 8
  %11 = bitcast %"class.std::_Mem_fn_base"* %10 to %"struct.std::_Maybe_unary_or_binary_function"*, !dbg !5099
  %12 = getelementptr inbounds %"class.std::_Mem_fn_base", %"class.std::_Mem_fn_base"* %10, i32 0, i32 0, !dbg !5100
  %13 = load { i64, i64 }, { i64, i64 }* %6, align 8, !dbg !5101
  store { i64, i64 } %13, { i64, i64 }* %12, align 8, !dbg !5100
  ret void, !dbg !5102
}

; Function Attrs: uwtable
define linkonce_odr void @_ZNSt5tupleIJSt7_Mem_fnIMN15readers_writers6WriterEFvvEEPS2_EEC2IS5_S6_Lb1EEEOT_OT0_(%"class.std::tuple.5"*, %"struct.std::_Mem_fn"* dereferenceable(16), %"class.readers_writers::Writer"** dereferenceable(8)) unnamed_addr #0 comdat align 2 !dbg !5103 {
  %4 = alloca %"class.std::tuple.5"*, align 8
  %5 = alloca %"struct.std::_Mem_fn"*, align 8
  %6 = alloca %"class.readers_writers::Writer"**, align 8
  store %"class.std::tuple.5"* %0, %"class.std::tuple.5"** %4, align 8
  call void @llvm.dbg.declare(metadata %"class.std::tuple.5"** %4, metadata !5110, metadata !3590), !dbg !5111
  store %"struct.std::_Mem_fn"* %1, %"struct.std::_Mem_fn"** %5, align 8
  call void @llvm.dbg.declare(metadata %"struct.std::_Mem_fn"** %5, metadata !5112, metadata !3590), !dbg !5113
  store %"class.readers_writers::Writer"** %2, %"class.readers_writers::Writer"*** %6, align 8
  call void @llvm.dbg.declare(metadata %"class.readers_writers::Writer"*** %6, metadata !5114, metadata !3590), !dbg !5115
  %7 = load %"class.std::tuple.5"*, %"class.std::tuple.5"** %4, align 8
  %8 = bitcast %"class.std::tuple.5"* %7 to %"struct.std::_Tuple_impl.6"*, !dbg !5116
  %9 = load %"struct.std::_Mem_fn"*, %"struct.std::_Mem_fn"** %5, align 8, !dbg !5117
  %10 = call dereferenceable(16) %"struct.std::_Mem_fn"* @_ZSt7forwardISt7_Mem_fnIMN15readers_writers6WriterEFvvEEEOT_RNSt16remove_referenceIS6_E4typeE(%"struct.std::_Mem_fn"* dereferenceable(16) %9) #3, !dbg !5118
  %11 = load %"class.readers_writers::Writer"**, %"class.readers_writers::Writer"*** %6, align 8, !dbg !5119
  %12 = call dereferenceable(8) %"class.readers_writers::Writer"** @_ZSt7forwardIPN15readers_writers6WriterEEOT_RNSt16remove_referenceIS3_E4typeE(%"class.readers_writers::Writer"** dereferenceable(8) %11) #3, !dbg !5120
  call void @_ZNSt11_Tuple_implILm0EJSt7_Mem_fnIMN15readers_writers6WriterEFvvEEPS2_EEC2IS5_JS6_EvEEOT_DpOT0_(%"struct.std::_Tuple_impl.6"* %8, %"struct.std::_Mem_fn"* dereferenceable(16) %10, %"class.readers_writers::Writer"** dereferenceable(8) %12), !dbg !5122
  ret void, !dbg !5124
}

; Function Attrs: uwtable
define linkonce_odr void @_ZNSt11_Tuple_implILm0EJSt7_Mem_fnIMN15readers_writers6WriterEFvvEEPS2_EEC2IS5_JS6_EvEEOT_DpOT0_(%"struct.std::_Tuple_impl.6"*, %"struct.std::_Mem_fn"* dereferenceable(16), %"class.readers_writers::Writer"** dereferenceable(8)) unnamed_addr #0 comdat align 2 !dbg !5125 {
  %4 = alloca %"struct.std::_Tuple_impl.6"*, align 8
  %5 = alloca %"struct.std::_Mem_fn"*, align 8
  %6 = alloca %"class.readers_writers::Writer"**, align 8
  store %"struct.std::_Tuple_impl.6"* %0, %"struct.std::_Tuple_impl.6"** %4, align 8
  call void @llvm.dbg.declare(metadata %"struct.std::_Tuple_impl.6"** %4, metadata !5132, metadata !3590), !dbg !5133
  store %"struct.std::_Mem_fn"* %1, %"struct.std::_Mem_fn"** %5, align 8
  call void @llvm.dbg.declare(metadata %"struct.std::_Mem_fn"** %5, metadata !5134, metadata !3590), !dbg !5135
  store %"class.readers_writers::Writer"** %2, %"class.readers_writers::Writer"*** %6, align 8
  call void @llvm.dbg.declare(metadata %"class.readers_writers::Writer"*** %6, metadata !5136, metadata !3590), !dbg !5137
  %7 = load %"struct.std::_Tuple_impl.6"*, %"struct.std::_Tuple_impl.6"** %4, align 8
  %8 = bitcast %"struct.std::_Tuple_impl.6"* %7 to %"struct.std::_Tuple_impl.7"*, !dbg !5138
  %9 = load %"class.readers_writers::Writer"**, %"class.readers_writers::Writer"*** %6, align 8, !dbg !5139
  %10 = call dereferenceable(8) %"class.readers_writers::Writer"** @_ZSt7forwardIPN15readers_writers6WriterEEOT_RNSt16remove_referenceIS3_E4typeE(%"class.readers_writers::Writer"** dereferenceable(8) %9) #3, !dbg !5140
  call void @_ZNSt11_Tuple_implILm1EJPN15readers_writers6WriterEEEC2IS2_EEOT_(%"struct.std::_Tuple_impl.7"* %8, %"class.readers_writers::Writer"** dereferenceable(8) %10), !dbg !5141
  %11 = bitcast %"struct.std::_Tuple_impl.6"* %7 to i8*, !dbg !5138
  %12 = getelementptr inbounds i8, i8* %11, i64 8, !dbg !5138
  %13 = bitcast i8* %12 to %"struct.std::_Head_base.9"*, !dbg !5138
  %14 = load %"struct.std::_Mem_fn"*, %"struct.std::_Mem_fn"** %5, align 8, !dbg !5143
  %15 = call dereferenceable(16) %"struct.std::_Mem_fn"* @_ZSt7forwardISt7_Mem_fnIMN15readers_writers6WriterEFvvEEEOT_RNSt16remove_referenceIS6_E4typeE(%"struct.std::_Mem_fn"* dereferenceable(16) %14) #3, !dbg !5144
  call void @_ZNSt10_Head_baseILm0ESt7_Mem_fnIMN15readers_writers6WriterEFvvEELb0EEC2IS5_EEOT_(%"struct.std::_Head_base.9"* %13, %"struct.std::_Mem_fn"* dereferenceable(16) %15), !dbg !5145
  ret void, !dbg !5146
}

; Function Attrs: nounwind uwtable
define linkonce_odr void @_ZNSt11_Tuple_implILm1EJPN15readers_writers6WriterEEEC2IS2_EEOT_(%"struct.std::_Tuple_impl.7"*, %"class.readers_writers::Writer"** dereferenceable(8)) unnamed_addr #4 comdat align 2 !dbg !5147 {
  %3 = alloca %"struct.std::_Tuple_impl.7"*, align 8
  %4 = alloca %"class.readers_writers::Writer"**, align 8
  store %"struct.std::_Tuple_impl.7"* %0, %"struct.std::_Tuple_impl.7"** %3, align 8
  call void @llvm.dbg.declare(metadata %"struct.std::_Tuple_impl.7"** %3, metadata !5151, metadata !3590), !dbg !5152
  store %"class.readers_writers::Writer"** %1, %"class.readers_writers::Writer"*** %4, align 8
  call void @llvm.dbg.declare(metadata %"class.readers_writers::Writer"*** %4, metadata !5153, metadata !3590), !dbg !5154
  %5 = load %"struct.std::_Tuple_impl.7"*, %"struct.std::_Tuple_impl.7"** %3, align 8
  %6 = bitcast %"struct.std::_Tuple_impl.7"* %5 to %"struct.std::_Head_base.8"*, !dbg !5155
  %7 = load %"class.readers_writers::Writer"**, %"class.readers_writers::Writer"*** %4, align 8, !dbg !5156
  %8 = call dereferenceable(8) %"class.readers_writers::Writer"** @_ZSt7forwardIPN15readers_writers6WriterEEOT_RNSt16remove_referenceIS3_E4typeE(%"class.readers_writers::Writer"** dereferenceable(8) %7) #3, !dbg !5157
  call void @_ZNSt10_Head_baseILm1EPN15readers_writers6WriterELb0EEC2IS2_EEOT_(%"struct.std::_Head_base.8"* %6, %"class.readers_writers::Writer"** dereferenceable(8) %8), !dbg !5158
  ret void, !dbg !5160
}

; Function Attrs: nounwind uwtable
define linkonce_odr dereferenceable(1) %"struct.std::default_delete"* @_ZNSt10unique_ptrINSt6thread6_StateESt14default_deleteIS1_EE11get_deleterEv(%"class.std::unique_ptr"*) #4 comdat align 2 !dbg !5161 {
  %2 = alloca %"class.std::unique_ptr"*, align 8
  store %"class.std::unique_ptr"* %0, %"class.std::unique_ptr"** %2, align 8
  call void @llvm.dbg.declare(metadata %"class.std::unique_ptr"** %2, metadata !5162, metadata !3590), !dbg !5163
  %3 = load %"class.std::unique_ptr"*, %"class.std::unique_ptr"** %2, align 8
  %4 = getelementptr inbounds %"class.std::unique_ptr", %"class.std::unique_ptr"* %3, i32 0, i32 0, !dbg !5164
  %5 = call dereferenceable(1) %"struct.std::default_delete"* @_ZSt3getILm1EJPNSt6thread6_StateESt14default_deleteIS1_EEERNSt13tuple_elementIXT_ESt5tupleIJDpT0_EEE4typeERS9_(%"class.std::tuple"* dereferenceable(8) %4) #3, !dbg !5165
  ret %"struct.std::default_delete"* %5, !dbg !5166
}

; Function Attrs: nounwind uwtable
define linkonce_odr void @_ZNKSt14default_deleteINSt6thread6_StateEEclEPS1_(%"struct.std::default_delete"*, %"struct.std::thread::_State"*) #4 comdat align 2 !dbg !5167 {
  %3 = alloca %"struct.std::default_delete"*, align 8
  %4 = alloca %"struct.std::thread::_State"*, align 8
  store %"struct.std::default_delete"* %0, %"struct.std::default_delete"** %3, align 8
  call void @llvm.dbg.declare(metadata %"struct.std::default_delete"** %3, metadata !5168, metadata !3590), !dbg !5170
  store %"struct.std::thread::_State"* %1, %"struct.std::thread::_State"** %4, align 8
  call void @llvm.dbg.declare(metadata %"struct.std::thread::_State"** %4, metadata !5171, metadata !3590), !dbg !5172
  %5 = load %"struct.std::default_delete"*, %"struct.std::default_delete"** %3, align 8
  %6 = load %"struct.std::thread::_State"*, %"struct.std::thread::_State"** %4, align 8, !dbg !5173
  %7 = icmp eq %"struct.std::thread::_State"* %6, null, !dbg !5174
  br i1 %7, label %13, label %8, !dbg !5174

; <label>:8:                                      ; preds = %2
  %9 = bitcast %"struct.std::thread::_State"* %6 to void (%"struct.std::thread::_State"*)***, !dbg !5175
  %10 = load void (%"struct.std::thread::_State"*)**, void (%"struct.std::thread::_State"*)*** %9, align 8, !dbg !5175
  %11 = getelementptr inbounds void (%"struct.std::thread::_State"*)*, void (%"struct.std::thread::_State"*)** %10, i64 1, !dbg !5175
  %12 = load void (%"struct.std::thread::_State"*)*, void (%"struct.std::thread::_State"*)** %11, align 8, !dbg !5175
  call void %12(%"struct.std::thread::_State"* %6) #3, !dbg !5175
  br label %13, !dbg !5175

; <label>:13:                                     ; preds = %8, %2
  ret void, !dbg !5177
}

; Function Attrs: nounwind uwtable
define linkonce_odr dereferenceable(1) %"struct.std::default_delete"* @_ZSt3getILm1EJPNSt6thread6_StateESt14default_deleteIS1_EEERNSt13tuple_elementIXT_ESt5tupleIJDpT0_EEE4typeERS9_(%"class.std::tuple"* dereferenceable(8)) #4 comdat !dbg !5178 {
  %2 = alloca %"class.std::tuple"*, align 8
  store %"class.std::tuple"* %0, %"class.std::tuple"** %2, align 8
  call void @llvm.dbg.declare(metadata %"class.std::tuple"** %2, metadata !5189, metadata !3590), !dbg !5190
  %3 = load %"class.std::tuple"*, %"class.std::tuple"** %2, align 8, !dbg !5191
  %4 = bitcast %"class.std::tuple"* %3 to %"struct.std::_Tuple_impl.3"*, !dbg !5191
  %5 = call dereferenceable(1) %"struct.std::default_delete"* @_ZSt12__get_helperILm1ESt14default_deleteINSt6thread6_StateEEJEERT0_RSt11_Tuple_implIXT_EJS4_DpT1_EE(%"struct.std::_Tuple_impl.3"* dereferenceable(1) %4) #3, !dbg !5192
  ret %"struct.std::default_delete"* %5, !dbg !5193
}

; Function Attrs: nounwind uwtable
define linkonce_odr dereferenceable(1) %"struct.std::default_delete"* @_ZSt12__get_helperILm1ESt14default_deleteINSt6thread6_StateEEJEERT0_RSt11_Tuple_implIXT_EJS4_DpT1_EE(%"struct.std::_Tuple_impl.3"* dereferenceable(1)) #4 comdat !dbg !5194 {
  %2 = alloca %"struct.std::_Tuple_impl.3"*, align 8
  store %"struct.std::_Tuple_impl.3"* %0, %"struct.std::_Tuple_impl.3"** %2, align 8
  call void @llvm.dbg.declare(metadata %"struct.std::_Tuple_impl.3"** %2, metadata !5196, metadata !3590), !dbg !5197
  %3 = load %"struct.std::_Tuple_impl.3"*, %"struct.std::_Tuple_impl.3"** %2, align 8, !dbg !5198
  %4 = call dereferenceable(1) %"struct.std::default_delete"* @_ZNSt11_Tuple_implILm1EJSt14default_deleteINSt6thread6_StateEEEE7_M_headERS4_(%"struct.std::_Tuple_impl.3"* dereferenceable(1) %3) #3, !dbg !5199
  ret %"struct.std::default_delete"* %4, !dbg !5200
}

; Function Attrs: nounwind uwtable
define linkonce_odr dereferenceable(1) %"struct.std::default_delete"* @_ZNSt11_Tuple_implILm1EJSt14default_deleteINSt6thread6_StateEEEE7_M_headERS4_(%"struct.std::_Tuple_impl.3"* dereferenceable(1)) #4 comdat align 2 !dbg !5201 {
  %2 = alloca %"struct.std::_Tuple_impl.3"*, align 8
  store %"struct.std::_Tuple_impl.3"* %0, %"struct.std::_Tuple_impl.3"** %2, align 8
  call void @llvm.dbg.declare(metadata %"struct.std::_Tuple_impl.3"** %2, metadata !5202, metadata !3590), !dbg !5203
  %3 = load %"struct.std::_Tuple_impl.3"*, %"struct.std::_Tuple_impl.3"** %2, align 8, !dbg !5204
  %4 = bitcast %"struct.std::_Tuple_impl.3"* %3 to %"struct.std::_Head_base"*, !dbg !5204
  %5 = call dereferenceable(1) %"struct.std::default_delete"* @_ZNSt10_Head_baseILm1ESt14default_deleteINSt6thread6_StateEELb1EE7_M_headERS4_(%"struct.std::_Head_base"* dereferenceable(1) %4) #3, !dbg !5205
  ret %"struct.std::default_delete"* %5, !dbg !5206
}

; Function Attrs: nounwind uwtable
define linkonce_odr dereferenceable(1) %"struct.std::default_delete"* @_ZNSt10_Head_baseILm1ESt14default_deleteINSt6thread6_StateEELb1EE7_M_headERS4_(%"struct.std::_Head_base"* dereferenceable(1)) #4 comdat align 2 !dbg !5207 {
  %2 = alloca %"struct.std::_Head_base"*, align 8
  store %"struct.std::_Head_base"* %0, %"struct.std::_Head_base"** %2, align 8
  call void @llvm.dbg.declare(metadata %"struct.std::_Head_base"** %2, metadata !5208, metadata !3590), !dbg !5209
  %3 = load %"struct.std::_Head_base"*, %"struct.std::_Head_base"** %2, align 8, !dbg !5210
  %4 = bitcast %"struct.std::_Head_base"* %3 to %"struct.std::default_delete"*, !dbg !5210
  ret %"struct.std::default_delete"* %4, !dbg !5211
}

; Function Attrs: uwtable
define linkonce_odr void @_ZN9IrsThreadclIJMN15readers_writers6ReaderEFvvEPS2_EEEvDpOT_(%class.IrsThread*, { i64, i64 }* dereferenceable(16), %"class.readers_writers::Reader"** dereferenceable(8)) #0 comdat align 2 !dbg !5212 {
  %4 = alloca %class.IrsThread*, align 8
  %5 = alloca { i64, i64 }*, align 8
  %6 = alloca %"class.readers_writers::Reader"**, align 8
  %7 = alloca %"class.std::thread", align 8
  store %class.IrsThread* %0, %class.IrsThread** %4, align 8
  call void @llvm.dbg.declare(metadata %class.IrsThread** %4, metadata !5221, metadata !3590), !dbg !5222
  store { i64, i64 }* %1, { i64, i64 }** %5, align 8
  call void @llvm.dbg.declare(metadata { i64, i64 }** %5, metadata !5223, metadata !3590), !dbg !5224
  store %"class.readers_writers::Reader"** %2, %"class.readers_writers::Reader"*** %6, align 8
  call void @llvm.dbg.declare(metadata %"class.readers_writers::Reader"*** %6, metadata !5225, metadata !3590), !dbg !5224
  %8 = load %class.IrsThread*, %class.IrsThread** %4, align 8
  %9 = getelementptr inbounds %class.IrsThread, %class.IrsThread* %8, i32 0, i32 0, !dbg !5226
  %10 = load { i64, i64 }*, { i64, i64 }** %5, align 8, !dbg !5227
  %11 = call dereferenceable(16) { i64, i64 }* @_ZSt7forwardIMN15readers_writers6ReaderEFvvEEOT_RNSt16remove_referenceIS4_E4typeE({ i64, i64 }* dereferenceable(16) %10) #3, !dbg !5228
  %12 = load %"class.readers_writers::Reader"**, %"class.readers_writers::Reader"*** %6, align 8, !dbg !5227
  %13 = call dereferenceable(8) %"class.readers_writers::Reader"** @_ZSt7forwardIPN15readers_writers6ReaderEEOT_RNSt16remove_referenceIS3_E4typeE(%"class.readers_writers::Reader"** dereferenceable(8) %12) #3, !dbg !5229
  call void @_ZNSt6threadC2IMN15readers_writers6ReaderEFvvEJPS2_EEEOT_DpOT0_(%"class.std::thread"* %7, { i64, i64 }* dereferenceable(16) %11, %"class.readers_writers::Reader"** dereferenceable(8) %13), !dbg !5231
  %14 = call dereferenceable(8) %"class.std::thread"* @_ZNSt6threadaSEOS_(%"class.std::thread"* %9, %"class.std::thread"* dereferenceable(8) %7) #3, !dbg !5233
  call void @_ZNSt6threadD2Ev(%"class.std::thread"* %7) #3, !dbg !5235
  ret void, !dbg !5237
}

; Function Attrs: uwtable
define linkonce_odr void @_ZN15readers_writers6Reader4execEv(%"class.readers_writers::Reader"*) #0 comdat align 2 !dbg !5238 {
  %2 = alloca %"class.readers_writers::Reader"*, align 8
  %3 = alloca i32, align 4
  store %"class.readers_writers::Reader"* %0, %"class.readers_writers::Reader"** %2, align 8
  call void @llvm.dbg.declare(metadata %"class.readers_writers::Reader"** %2, metadata !5239, metadata !3590), !dbg !5240
  %4 = load %"class.readers_writers::Reader"*, %"class.readers_writers::Reader"** %2, align 8
  call void @llvm.dbg.declare(metadata i32* %3, metadata !5241, metadata !3590), !dbg !5242
  %5 = load i32, i32* @_ZN15readers_writers7gSharedE, align 4, !dbg !5243
  store i32 %5, i32* %3, align 4, !dbg !5242
  %6 = call i32 @_ZN15readers_writers6Reader11getThreadIdEv(%"class.readers_writers::Reader"* %4), !dbg !5244
  call void @_ZN7Runtime14threadFinishedEi(i32 %6), !dbg !5245
  ret void, !dbg !5247
}

; Function Attrs: nounwind uwtable
define linkonce_odr dereferenceable(16) { i64, i64 }* @_ZSt7forwardIMN15readers_writers6ReaderEFvvEEOT_RNSt16remove_referenceIS4_E4typeE({ i64, i64 }* dereferenceable(16)) #4 comdat !dbg !5248 {
  %2 = alloca { i64, i64 }*, align 8
  store { i64, i64 }* %0, { i64, i64 }** %2, align 8
  call void @llvm.dbg.declare(metadata { i64, i64 }** %2, metadata !5254, metadata !3590), !dbg !5255
  %3 = load { i64, i64 }*, { i64, i64 }** %2, align 8, !dbg !5256
  ret { i64, i64 }* %3, !dbg !5257
}

; Function Attrs: nounwind uwtable
define linkonce_odr dereferenceable(8) %"class.readers_writers::Reader"** @_ZSt7forwardIPN15readers_writers6ReaderEEOT_RNSt16remove_referenceIS3_E4typeE(%"class.readers_writers::Reader"** dereferenceable(8)) #4 comdat !dbg !5258 {
  %2 = alloca %"class.readers_writers::Reader"**, align 8
  store %"class.readers_writers::Reader"** %0, %"class.readers_writers::Reader"*** %2, align 8
  call void @llvm.dbg.declare(metadata %"class.readers_writers::Reader"*** %2, metadata !5266, metadata !3590), !dbg !5267
  %3 = load %"class.readers_writers::Reader"**, %"class.readers_writers::Reader"*** %2, align 8, !dbg !5268
  ret %"class.readers_writers::Reader"** %3, !dbg !5269
}

; Function Attrs: uwtable
define linkonce_odr void @_ZNSt6threadC2IMN15readers_writers6ReaderEFvvEJPS2_EEEOT_DpOT0_(%"class.std::thread"*, { i64, i64 }* dereferenceable(16), %"class.readers_writers::Reader"** dereferenceable(8)) unnamed_addr #0 comdat align 2 personality i8* bitcast (i32 (...)* @__gxx_personality_v0 to i8*) !dbg !5270 {
  %4 = alloca %"class.std::thread"*, align 8
  %5 = alloca { i64, i64 }*, align 8
  %6 = alloca %"class.readers_writers::Reader"**, align 8
  %7 = alloca void ()*, align 8
  %8 = alloca %"class.std::unique_ptr", align 8
  %9 = alloca %"struct.std::_Bind_simple.10", align 8
  %10 = alloca i8*
  %11 = alloca i32
  store %"class.std::thread"* %0, %"class.std::thread"** %4, align 8
  call void @llvm.dbg.declare(metadata %"class.std::thread"** %4, metadata !5276, metadata !3590), !dbg !5277
  store { i64, i64 }* %1, { i64, i64 }** %5, align 8
  call void @llvm.dbg.declare(metadata { i64, i64 }** %5, metadata !5278, metadata !3590), !dbg !5279
  store %"class.readers_writers::Reader"** %2, %"class.readers_writers::Reader"*** %6, align 8
  call void @llvm.dbg.declare(metadata %"class.readers_writers::Reader"*** %6, metadata !5280, metadata !3590), !dbg !5281
  %12 = load %"class.std::thread"*, %"class.std::thread"** %4, align 8
  %13 = getelementptr inbounds %"class.std::thread", %"class.std::thread"* %12, i32 0, i32 0, !dbg !5282
  call void @_ZNSt6thread2idC2Ev(%"class.std::thread::id"* %13) #3, !dbg !5282
  call void @llvm.dbg.declare(metadata void ()** %7, metadata !5283, metadata !3590), !dbg !5285
  store void ()* bitcast (i32 (i64*, %union.pthread_attr_t*, i8* (i8*)*, i8*)* @pthread_create to void ()*), void ()** %7, align 8, !dbg !5285
  %14 = load { i64, i64 }*, { i64, i64 }** %5, align 8, !dbg !5286
  %15 = call dereferenceable(16) { i64, i64 }* @_ZSt7forwardIMN15readers_writers6ReaderEFvvEEOT_RNSt16remove_referenceIS4_E4typeE({ i64, i64 }* dereferenceable(16) %14) #3, !dbg !5287
  %16 = load %"class.readers_writers::Reader"**, %"class.readers_writers::Reader"*** %6, align 8, !dbg !5288
  %17 = call dereferenceable(8) %"class.readers_writers::Reader"** @_ZSt7forwardIPN15readers_writers6ReaderEEOT_RNSt16remove_referenceIS3_E4typeE(%"class.readers_writers::Reader"** dereferenceable(8) %16) #3, !dbg !5289
  call void @_ZSt13__bind_simpleIMN15readers_writers6ReaderEFvvEJPS1_EENSt19_Bind_simple_helperIT_JDpT0_EE6__typeEOS6_DpOS7_(%"struct.std::_Bind_simple.10"* sret %9, { i64, i64 }* dereferenceable(16) %15, %"class.readers_writers::Reader"** dereferenceable(8) %17), !dbg !5290
  call void @_ZNSt6thread13_S_make_stateISt12_Bind_simpleIFSt7_Mem_fnIMN15readers_writers6ReaderEFvvEEPS4_EEEESt10unique_ptrINS_6_StateESt14default_deleteISC_EEOT_(%"class.std::unique_ptr"* sret %8, %"struct.std::_Bind_simple.10"* dereferenceable(24) %9), !dbg !5292
  %18 = load void ()*, void ()** %7, align 8, !dbg !5293
  invoke void @_ZNSt6thread15_M_start_threadESt10unique_ptrINS_6_StateESt14default_deleteIS1_EEPFvvE(%"class.std::thread"* %12, %"class.std::unique_ptr"* %8, void ()* %18)
          to label %19 unwind label %20, !dbg !5294

; <label>:19:                                     ; preds = %3
  call void @_ZNSt10unique_ptrINSt6thread6_StateESt14default_deleteIS1_EED2Ev(%"class.std::unique_ptr"* %8) #3, !dbg !5295
  ret void, !dbg !5296

; <label>:20:                                     ; preds = %3
  %21 = landingpad { i8*, i32 }
          cleanup, !dbg !5297
  %22 = extractvalue { i8*, i32 } %21, 0, !dbg !5297
  store i8* %22, i8** %10, align 8, !dbg !5297
  %23 = extractvalue { i8*, i32 } %21, 1, !dbg !5297
  store i32 %23, i32* %11, align 4, !dbg !5297
  call void @_ZNSt10unique_ptrINSt6thread6_StateESt14default_deleteIS1_EED2Ev(%"class.std::unique_ptr"* %8) #3, !dbg !5298
  br label %24, !dbg !5298

; <label>:24:                                     ; preds = %20
  %25 = load i8*, i8** %10, align 8, !dbg !5300
  %26 = load i32, i32* %11, align 4, !dbg !5300
  %27 = insertvalue { i8*, i32 } undef, i8* %25, 0, !dbg !5300
  %28 = insertvalue { i8*, i32 } %27, i32 %26, 1, !dbg !5300
  resume { i8*, i32 } %28, !dbg !5300
}

; Function Attrs: uwtable
define linkonce_odr void @_ZNSt6thread13_S_make_stateISt12_Bind_simpleIFSt7_Mem_fnIMN15readers_writers6ReaderEFvvEEPS4_EEEESt10unique_ptrINS_6_StateESt14default_deleteISC_EEOT_(%"class.std::unique_ptr"* noalias sret, %"struct.std::_Bind_simple.10"* dereferenceable(24)) #0 comdat align 2 personality i8* bitcast (i32 (...)* @__gxx_personality_v0 to i8*) !dbg !5302 {
  %3 = alloca %"struct.std::_Bind_simple.10"*, align 8
  %4 = alloca i8*
  %5 = alloca i32
  store %"struct.std::_Bind_simple.10"* %1, %"struct.std::_Bind_simple.10"** %3, align 8
  call void @llvm.dbg.declare(metadata %"struct.std::_Bind_simple.10"** %3, metadata !5508, metadata !3590), !dbg !5509
  %6 = call i8* @_Znwm(i64 32) #15, !dbg !5510
  %7 = bitcast i8* %6 to %"struct.std::thread::_State_impl.20"*, !dbg !5510
  %8 = load %"struct.std::_Bind_simple.10"*, %"struct.std::_Bind_simple.10"** %3, align 8, !dbg !5511
  %9 = call dereferenceable(24) %"struct.std::_Bind_simple.10"* @_ZSt7forwardISt12_Bind_simpleIFSt7_Mem_fnIMN15readers_writers6ReaderEFvvEEPS3_EEEOT_RNSt16remove_referenceISA_E4typeE(%"struct.std::_Bind_simple.10"* dereferenceable(24) %8) #3, !dbg !5512
  invoke void @_ZNSt6thread11_State_implISt12_Bind_simpleIFSt7_Mem_fnIMN15readers_writers6ReaderEFvvEEPS4_EEEC2EOSA_(%"struct.std::thread::_State_impl.20"* %7, %"struct.std::_Bind_simple.10"* dereferenceable(24) %9)
          to label %10 unwind label %12, !dbg !5514

; <label>:10:                                     ; preds = %2
  %11 = bitcast %"struct.std::thread::_State_impl.20"* %7 to %"struct.std::thread::_State"*, !dbg !5515
  call void @_ZNSt10unique_ptrINSt6thread6_StateESt14default_deleteIS1_EEC2EPS1_(%"class.std::unique_ptr"* %0, %"struct.std::thread::_State"* %11) #3, !dbg !5517
  ret void, !dbg !5518

; <label>:12:                                     ; preds = %2
  %13 = landingpad { i8*, i32 }
          cleanup, !dbg !5519
  %14 = extractvalue { i8*, i32 } %13, 0, !dbg !5519
  store i8* %14, i8** %4, align 8, !dbg !5519
  %15 = extractvalue { i8*, i32 } %13, 1, !dbg !5519
  store i32 %15, i32* %5, align 4, !dbg !5519
  call void @_ZdlPv(i8* %6) #16, !dbg !5520
  br label %16, !dbg !5520

; <label>:16:                                     ; preds = %12
  %17 = load i8*, i8** %4, align 8, !dbg !5522
  %18 = load i32, i32* %5, align 4, !dbg !5522
  %19 = insertvalue { i8*, i32 } undef, i8* %17, 0, !dbg !5522
  %20 = insertvalue { i8*, i32 } %19, i32 %18, 1, !dbg !5522
  resume { i8*, i32 } %20, !dbg !5522
}

; Function Attrs: uwtable
define linkonce_odr void @_ZSt13__bind_simpleIMN15readers_writers6ReaderEFvvEJPS1_EENSt19_Bind_simple_helperIT_JDpT0_EE6__typeEOS6_DpOS7_(%"struct.std::_Bind_simple.10"* noalias sret, { i64, i64 }* dereferenceable(16), %"class.readers_writers::Reader"** dereferenceable(8)) #0 comdat !dbg !5524 {
  %4 = alloca { i64, i64 }*, align 8
  %5 = alloca %"class.readers_writers::Reader"**, align 8
  %6 = alloca %"struct.std::_Mem_fn.16", align 8
  %7 = alloca { i64, i64 }, align 8
  store { i64, i64 }* %1, { i64, i64 }** %4, align 8
  call void @llvm.dbg.declare(metadata { i64, i64 }** %4, metadata !5535, metadata !3590), !dbg !5536
  store %"class.readers_writers::Reader"** %2, %"class.readers_writers::Reader"*** %5, align 8
  call void @llvm.dbg.declare(metadata %"class.readers_writers::Reader"*** %5, metadata !5537, metadata !3590), !dbg !5538
  %8 = load { i64, i64 }*, { i64, i64 }** %4, align 8, !dbg !5539
  %9 = call dereferenceable(16) { i64, i64 }* @_ZSt7forwardIMN15readers_writers6ReaderEFvvEEOT_RNSt16remove_referenceIS4_E4typeE({ i64, i64 }* dereferenceable(16) %8) #3, !dbg !5540
  %10 = load { i64, i64 }, { i64, i64 }* %9, align 8, !dbg !5540
  store { i64, i64 } %10, { i64, i64 }* %7, align 8, !dbg !5541
  %11 = getelementptr inbounds { i64, i64 }, { i64, i64 }* %7, i32 0, i32 0, !dbg !5541
  %12 = load i64, i64* %11, align 8, !dbg !5541
  %13 = getelementptr inbounds { i64, i64 }, { i64, i64 }* %7, i32 0, i32 1, !dbg !5541
  %14 = load i64, i64* %13, align 8, !dbg !5541
  %15 = call { i64, i64 } @_ZNSt26_Maybe_wrap_member_pointerIMN15readers_writers6ReaderEFvvEE9__do_wrapES3_(i64 %12, i64 %14), !dbg !5542
  %16 = getelementptr inbounds %"struct.std::_Mem_fn.16", %"struct.std::_Mem_fn.16"* %6, i32 0, i32 0, !dbg !5541
  %17 = getelementptr inbounds %"class.std::_Mem_fn_base.17", %"class.std::_Mem_fn_base.17"* %16, i32 0, i32 0, !dbg !5541
  %18 = getelementptr inbounds { i64, i64 }, { i64, i64 }* %17, i32 0, i32 0, !dbg !5541
  %19 = extractvalue { i64, i64 } %15, 0, !dbg !5541
  store i64 %19, i64* %18, align 8, !dbg !5541
  %20 = getelementptr inbounds { i64, i64 }, { i64, i64 }* %17, i32 0, i32 1, !dbg !5541
  %21 = extractvalue { i64, i64 } %15, 1, !dbg !5541
  store i64 %21, i64* %20, align 8, !dbg !5541
  %22 = load %"class.readers_writers::Reader"**, %"class.readers_writers::Reader"*** %5, align 8, !dbg !5544
  %23 = call dereferenceable(8) %"class.readers_writers::Reader"** @_ZSt7forwardIPN15readers_writers6ReaderEEOT_RNSt16remove_referenceIS3_E4typeE(%"class.readers_writers::Reader"** dereferenceable(8) %22) #3, !dbg !5545
  call void @_ZNSt12_Bind_simpleIFSt7_Mem_fnIMN15readers_writers6ReaderEFvvEEPS2_EEC2IS5_JS6_EEEOT_DpOT0_(%"struct.std::_Bind_simple.10"* %0, %"struct.std::_Mem_fn.16"* dereferenceable(16) %6, %"class.readers_writers::Reader"** dereferenceable(8) %23), !dbg !5546
  ret void, !dbg !5547
}

; Function Attrs: nounwind uwtable
define linkonce_odr dereferenceable(24) %"struct.std::_Bind_simple.10"* @_ZSt7forwardISt12_Bind_simpleIFSt7_Mem_fnIMN15readers_writers6ReaderEFvvEEPS3_EEEOT_RNSt16remove_referenceISA_E4typeE(%"struct.std::_Bind_simple.10"* dereferenceable(24)) #4 comdat !dbg !5548 {
  %2 = alloca %"struct.std::_Bind_simple.10"*, align 8
  store %"struct.std::_Bind_simple.10"* %0, %"struct.std::_Bind_simple.10"** %2, align 8
  call void @llvm.dbg.declare(metadata %"struct.std::_Bind_simple.10"** %2, metadata !5556, metadata !3590), !dbg !5557
  %3 = load %"struct.std::_Bind_simple.10"*, %"struct.std::_Bind_simple.10"** %2, align 8, !dbg !5558
  ret %"struct.std::_Bind_simple.10"* %3, !dbg !5559
}

; Function Attrs: nounwind uwtable
define linkonce_odr void @_ZNSt6thread11_State_implISt12_Bind_simpleIFSt7_Mem_fnIMN15readers_writers6ReaderEFvvEEPS4_EEEC2EOSA_(%"struct.std::thread::_State_impl.20"*, %"struct.std::_Bind_simple.10"* dereferenceable(24)) unnamed_addr #4 comdat align 2 !dbg !5560 {
  %3 = alloca %"struct.std::thread::_State_impl.20"*, align 8
  %4 = alloca %"struct.std::_Bind_simple.10"*, align 8
  store %"struct.std::thread::_State_impl.20"* %0, %"struct.std::thread::_State_impl.20"** %3, align 8
  call void @llvm.dbg.declare(metadata %"struct.std::thread::_State_impl.20"** %3, metadata !5572, metadata !3590), !dbg !5574
  store %"struct.std::_Bind_simple.10"* %1, %"struct.std::_Bind_simple.10"** %4, align 8
  call void @llvm.dbg.declare(metadata %"struct.std::_Bind_simple.10"** %4, metadata !5575, metadata !3590), !dbg !5576
  %5 = load %"struct.std::thread::_State_impl.20"*, %"struct.std::thread::_State_impl.20"** %3, align 8
  %6 = bitcast %"struct.std::thread::_State_impl.20"* %5 to %"struct.std::thread::_State"*, !dbg !5577
  call void @_ZNSt6thread6_StateC2Ev(%"struct.std::thread::_State"* %6) #3, !dbg !5578
  %7 = bitcast %"struct.std::thread::_State_impl.20"* %5 to i32 (...)***, !dbg !5577
  store i32 (...)** bitcast (i8** getelementptr inbounds ([5 x i8*], [5 x i8*]* @_ZTVNSt6thread11_State_implISt12_Bind_simpleIFSt7_Mem_fnIMN15readers_writers6ReaderEFvvEEPS4_EEEE, i32 0, i32 2) to i32 (...)**), i32 (...)*** %7, align 8, !dbg !5577
  %8 = getelementptr inbounds %"struct.std::thread::_State_impl.20", %"struct.std::thread::_State_impl.20"* %5, i32 0, i32 1, !dbg !5579
  %9 = load %"struct.std::_Bind_simple.10"*, %"struct.std::_Bind_simple.10"** %4, align 8, !dbg !5580
  %10 = call dereferenceable(24) %"struct.std::_Bind_simple.10"* @_ZSt7forwardISt12_Bind_simpleIFSt7_Mem_fnIMN15readers_writers6ReaderEFvvEEPS3_EEEOT_RNSt16remove_referenceISA_E4typeE(%"struct.std::_Bind_simple.10"* dereferenceable(24) %9) #3, !dbg !5581
  call void @_ZNSt12_Bind_simpleIFSt7_Mem_fnIMN15readers_writers6ReaderEFvvEEPS2_EEC2EOS8_(%"struct.std::_Bind_simple.10"* %8, %"struct.std::_Bind_simple.10"* dereferenceable(24) %10) #3, !dbg !5583
  ret void, !dbg !5585
}

; Function Attrs: nounwind uwtable
define linkonce_odr void @_ZNSt12_Bind_simpleIFSt7_Mem_fnIMN15readers_writers6ReaderEFvvEEPS2_EEC2EOS8_(%"struct.std::_Bind_simple.10"*, %"struct.std::_Bind_simple.10"* dereferenceable(24)) unnamed_addr #4 comdat align 2 !dbg !5586 {
  %3 = alloca %"struct.std::_Bind_simple.10"*, align 8
  %4 = alloca %"struct.std::_Bind_simple.10"*, align 8
  store %"struct.std::_Bind_simple.10"* %0, %"struct.std::_Bind_simple.10"** %3, align 8
  call void @llvm.dbg.declare(metadata %"struct.std::_Bind_simple.10"** %3, metadata !5587, metadata !3590), !dbg !5589
  store %"struct.std::_Bind_simple.10"* %1, %"struct.std::_Bind_simple.10"** %4, align 8
  call void @llvm.dbg.declare(metadata %"struct.std::_Bind_simple.10"** %4, metadata !5590, metadata !3590), !dbg !5591
  %5 = load %"struct.std::_Bind_simple.10"*, %"struct.std::_Bind_simple.10"** %3, align 8
  %6 = getelementptr inbounds %"struct.std::_Bind_simple.10", %"struct.std::_Bind_simple.10"* %5, i32 0, i32 0, !dbg !5592
  %7 = load %"struct.std::_Bind_simple.10"*, %"struct.std::_Bind_simple.10"** %4, align 8, !dbg !5592
  %8 = getelementptr inbounds %"struct.std::_Bind_simple.10", %"struct.std::_Bind_simple.10"* %7, i32 0, i32 0, !dbg !5592
  call void @_ZNSt5tupleIJSt7_Mem_fnIMN15readers_writers6ReaderEFvvEEPS2_EEC2EOS7_(%"class.std::tuple.11"* %6, %"class.std::tuple.11"* dereferenceable(24) %8) #3, !dbg !5592
  ret void, !dbg !5592
}

; Function Attrs: inlinehint nounwind uwtable
define linkonce_odr void @_ZNSt6thread11_State_implISt12_Bind_simpleIFSt7_Mem_fnIMN15readers_writers6ReaderEFvvEEPS4_EEED2Ev(%"struct.std::thread::_State_impl.20"*) unnamed_addr #9 comdat align 2 !dbg !5593 {
  %2 = alloca %"struct.std::thread::_State_impl.20"*, align 8
  store %"struct.std::thread::_State_impl.20"* %0, %"struct.std::thread::_State_impl.20"** %2, align 8
  call void @llvm.dbg.declare(metadata %"struct.std::thread::_State_impl.20"** %2, metadata !5595, metadata !3590), !dbg !5596
  %3 = load %"struct.std::thread::_State_impl.20"*, %"struct.std::thread::_State_impl.20"** %2, align 8
  %4 = bitcast %"struct.std::thread::_State_impl.20"* %3 to %"struct.std::thread::_State"*, !dbg !5597
  call void @_ZNSt6thread6_StateD2Ev(%"struct.std::thread::_State"* %4) #3, !dbg !5597
  ret void, !dbg !5599
}

; Function Attrs: inlinehint nounwind uwtable
define linkonce_odr void @_ZNSt6thread11_State_implISt12_Bind_simpleIFSt7_Mem_fnIMN15readers_writers6ReaderEFvvEEPS4_EEED0Ev(%"struct.std::thread::_State_impl.20"*) unnamed_addr #9 comdat align 2 !dbg !5600 {
  %2 = alloca %"struct.std::thread::_State_impl.20"*, align 8
  store %"struct.std::thread::_State_impl.20"* %0, %"struct.std::thread::_State_impl.20"** %2, align 8
  call void @llvm.dbg.declare(metadata %"struct.std::thread::_State_impl.20"** %2, metadata !5601, metadata !3590), !dbg !5602
  %3 = load %"struct.std::thread::_State_impl.20"*, %"struct.std::thread::_State_impl.20"** %2, align 8
  call void @_ZNSt6thread11_State_implISt12_Bind_simpleIFSt7_Mem_fnIMN15readers_writers6ReaderEFvvEEPS4_EEED2Ev(%"struct.std::thread::_State_impl.20"* %3) #3, !dbg !5603
  %4 = bitcast %"struct.std::thread::_State_impl.20"* %3 to i8*, !dbg !5603
  call void @_ZdlPv(i8* %4) #16, !dbg !5604
  ret void, !dbg !5603
}

; Function Attrs: uwtable
define linkonce_odr void @_ZNSt6thread11_State_implISt12_Bind_simpleIFSt7_Mem_fnIMN15readers_writers6ReaderEFvvEEPS4_EEE6_M_runEv(%"struct.std::thread::_State_impl.20"*) unnamed_addr #0 comdat align 2 !dbg !5606 {
  %2 = alloca %"struct.std::thread::_State_impl.20"*, align 8
  store %"struct.std::thread::_State_impl.20"* %0, %"struct.std::thread::_State_impl.20"** %2, align 8
  call void @llvm.dbg.declare(metadata %"struct.std::thread::_State_impl.20"** %2, metadata !5607, metadata !3590), !dbg !5608
  %3 = load %"struct.std::thread::_State_impl.20"*, %"struct.std::thread::_State_impl.20"** %2, align 8
  %4 = getelementptr inbounds %"struct.std::thread::_State_impl.20", %"struct.std::thread::_State_impl.20"* %3, i32 0, i32 1, !dbg !5609
  call void @_ZNSt12_Bind_simpleIFSt7_Mem_fnIMN15readers_writers6ReaderEFvvEEPS2_EEclEv(%"struct.std::_Bind_simple.10"* %4), !dbg !5609
  ret void, !dbg !5610
}

; Function Attrs: nounwind uwtable
define linkonce_odr void @_ZNSt5tupleIJSt7_Mem_fnIMN15readers_writers6ReaderEFvvEEPS2_EEC2EOS7_(%"class.std::tuple.11"*, %"class.std::tuple.11"* dereferenceable(24)) unnamed_addr #4 comdat align 2 !dbg !5611 {
  %3 = alloca %"class.std::tuple.11"*, align 8
  %4 = alloca %"class.std::tuple.11"*, align 8
  store %"class.std::tuple.11"* %0, %"class.std::tuple.11"** %3, align 8
  call void @llvm.dbg.declare(metadata %"class.std::tuple.11"** %3, metadata !5612, metadata !3590), !dbg !5614
  store %"class.std::tuple.11"* %1, %"class.std::tuple.11"** %4, align 8
  call void @llvm.dbg.declare(metadata %"class.std::tuple.11"** %4, metadata !5615, metadata !3590), !dbg !5616
  %5 = load %"class.std::tuple.11"*, %"class.std::tuple.11"** %3, align 8
  %6 = bitcast %"class.std::tuple.11"* %5 to %"struct.std::_Tuple_impl.12"*, !dbg !5617
  %7 = load %"class.std::tuple.11"*, %"class.std::tuple.11"** %4, align 8, !dbg !5617
  %8 = bitcast %"class.std::tuple.11"* %7 to %"struct.std::_Tuple_impl.12"*, !dbg !5617
  call void @_ZNSt11_Tuple_implILm0EJSt7_Mem_fnIMN15readers_writers6ReaderEFvvEEPS2_EEC2EOS7_(%"struct.std::_Tuple_impl.12"* %6, %"struct.std::_Tuple_impl.12"* dereferenceable(24) %8) #3, !dbg !5617
  ret void, !dbg !5617
}

; Function Attrs: nounwind uwtable
define linkonce_odr void @_ZNSt11_Tuple_implILm0EJSt7_Mem_fnIMN15readers_writers6ReaderEFvvEEPS2_EEC2EOS7_(%"struct.std::_Tuple_impl.12"*, %"struct.std::_Tuple_impl.12"* dereferenceable(24)) unnamed_addr #4 comdat align 2 personality i8* bitcast (i32 (...)* @__gxx_personality_v0 to i8*) !dbg !5618 {
  %3 = alloca %"struct.std::_Tuple_impl.12"*, align 8
  %4 = alloca %"struct.std::_Tuple_impl.12"*, align 8
  store %"struct.std::_Tuple_impl.12"* %0, %"struct.std::_Tuple_impl.12"** %3, align 8
  call void @llvm.dbg.declare(metadata %"struct.std::_Tuple_impl.12"** %3, metadata !5619, metadata !3590), !dbg !5621
  store %"struct.std::_Tuple_impl.12"* %1, %"struct.std::_Tuple_impl.12"** %4, align 8
  call void @llvm.dbg.declare(metadata %"struct.std::_Tuple_impl.12"** %4, metadata !5622, metadata !3590), !dbg !5623
  %5 = load %"struct.std::_Tuple_impl.12"*, %"struct.std::_Tuple_impl.12"** %3, align 8
  %6 = bitcast %"struct.std::_Tuple_impl.12"* %5 to %"struct.std::_Tuple_impl.13"*, !dbg !5624
  %7 = load %"struct.std::_Tuple_impl.12"*, %"struct.std::_Tuple_impl.12"** %4, align 8, !dbg !5625
  %8 = call dereferenceable(8) %"struct.std::_Tuple_impl.13"* @_ZNSt11_Tuple_implILm0EJSt7_Mem_fnIMN15readers_writers6ReaderEFvvEEPS2_EE7_M_tailERS7_(%"struct.std::_Tuple_impl.12"* dereferenceable(24) %7) #3, !dbg !5626
  %9 = call dereferenceable(8) %"struct.std::_Tuple_impl.13"* @_ZSt4moveIRSt11_Tuple_implILm1EJPN15readers_writers6ReaderEEEEONSt16remove_referenceIT_E4typeEOS7_(%"struct.std::_Tuple_impl.13"* dereferenceable(8) %8) #3, !dbg !5627
  call void @_ZNSt11_Tuple_implILm1EJPN15readers_writers6ReaderEEEC2EOS3_(%"struct.std::_Tuple_impl.13"* %6, %"struct.std::_Tuple_impl.13"* dereferenceable(8) %9) #3, !dbg !5629
  %10 = bitcast %"struct.std::_Tuple_impl.12"* %5 to i8*, !dbg !5624
  %11 = getelementptr inbounds i8, i8* %10, i64 8, !dbg !5624
  %12 = bitcast i8* %11 to %"struct.std::_Head_base.15"*, !dbg !5624
  %13 = load %"struct.std::_Tuple_impl.12"*, %"struct.std::_Tuple_impl.12"** %4, align 8, !dbg !5631
  %14 = call dereferenceable(16) %"struct.std::_Mem_fn.16"* @_ZNSt11_Tuple_implILm0EJSt7_Mem_fnIMN15readers_writers6ReaderEFvvEEPS2_EE7_M_headERS7_(%"struct.std::_Tuple_impl.12"* dereferenceable(24) %13) #3, !dbg !5632
  %15 = call dereferenceable(16) %"struct.std::_Mem_fn.16"* @_ZSt7forwardISt7_Mem_fnIMN15readers_writers6ReaderEFvvEEEOT_RNSt16remove_referenceIS6_E4typeE(%"struct.std::_Mem_fn.16"* dereferenceable(16) %14) #3, !dbg !5633
  invoke void @_ZNSt10_Head_baseILm0ESt7_Mem_fnIMN15readers_writers6ReaderEFvvEELb0EEC2IS5_EEOT_(%"struct.std::_Head_base.15"* %12, %"struct.std::_Mem_fn.16"* dereferenceable(16) %15)
          to label %16 unwind label %17, !dbg !5635

; <label>:16:                                     ; preds = %2
  ret void, !dbg !5636

; <label>:17:                                     ; preds = %2
  %18 = landingpad { i8*, i32 }
          catch i8* null, !dbg !5637
  %19 = extractvalue { i8*, i32 } %18, 0, !dbg !5637
  call void @__clang_call_terminate(i8* %19) #14, !dbg !5637
  unreachable, !dbg !5637
}

; Function Attrs: nounwind uwtable
define linkonce_odr dereferenceable(8) %"struct.std::_Tuple_impl.13"* @_ZSt4moveIRSt11_Tuple_implILm1EJPN15readers_writers6ReaderEEEEONSt16remove_referenceIT_E4typeEOS7_(%"struct.std::_Tuple_impl.13"* dereferenceable(8)) #4 comdat !dbg !5638 {
  %2 = alloca %"struct.std::_Tuple_impl.13"*, align 8
  store %"struct.std::_Tuple_impl.13"* %0, %"struct.std::_Tuple_impl.13"** %2, align 8
  call void @llvm.dbg.declare(metadata %"struct.std::_Tuple_impl.13"** %2, metadata !5646, metadata !3590), !dbg !5647
  %3 = load %"struct.std::_Tuple_impl.13"*, %"struct.std::_Tuple_impl.13"** %2, align 8, !dbg !5648
  ret %"struct.std::_Tuple_impl.13"* %3, !dbg !5649
}

; Function Attrs: nounwind uwtable
define linkonce_odr dereferenceable(8) %"struct.std::_Tuple_impl.13"* @_ZNSt11_Tuple_implILm0EJSt7_Mem_fnIMN15readers_writers6ReaderEFvvEEPS2_EE7_M_tailERS7_(%"struct.std::_Tuple_impl.12"* dereferenceable(24)) #4 comdat align 2 !dbg !5650 {
  %2 = alloca %"struct.std::_Tuple_impl.12"*, align 8
  store %"struct.std::_Tuple_impl.12"* %0, %"struct.std::_Tuple_impl.12"** %2, align 8
  call void @llvm.dbg.declare(metadata %"struct.std::_Tuple_impl.12"** %2, metadata !5651, metadata !3590), !dbg !5652
  %3 = load %"struct.std::_Tuple_impl.12"*, %"struct.std::_Tuple_impl.12"** %2, align 8, !dbg !5653
  %4 = bitcast %"struct.std::_Tuple_impl.12"* %3 to %"struct.std::_Tuple_impl.13"*, !dbg !5653
  ret %"struct.std::_Tuple_impl.13"* %4, !dbg !5654
}

; Function Attrs: nounwind uwtable
define linkonce_odr void @_ZNSt11_Tuple_implILm1EJPN15readers_writers6ReaderEEEC2EOS3_(%"struct.std::_Tuple_impl.13"*, %"struct.std::_Tuple_impl.13"* dereferenceable(8)) unnamed_addr #4 comdat align 2 personality i8* bitcast (i32 (...)* @__gxx_personality_v0 to i8*) !dbg !5655 {
  %3 = alloca %"struct.std::_Tuple_impl.13"*, align 8
  %4 = alloca %"struct.std::_Tuple_impl.13"*, align 8
  store %"struct.std::_Tuple_impl.13"* %0, %"struct.std::_Tuple_impl.13"** %3, align 8
  call void @llvm.dbg.declare(metadata %"struct.std::_Tuple_impl.13"** %3, metadata !5656, metadata !3590), !dbg !5658
  store %"struct.std::_Tuple_impl.13"* %1, %"struct.std::_Tuple_impl.13"** %4, align 8
  call void @llvm.dbg.declare(metadata %"struct.std::_Tuple_impl.13"** %4, metadata !5659, metadata !3590), !dbg !5660
  %5 = load %"struct.std::_Tuple_impl.13"*, %"struct.std::_Tuple_impl.13"** %3, align 8
  %6 = bitcast %"struct.std::_Tuple_impl.13"* %5 to %"struct.std::_Head_base.14"*, !dbg !5661
  %7 = load %"struct.std::_Tuple_impl.13"*, %"struct.std::_Tuple_impl.13"** %4, align 8, !dbg !5662
  %8 = call dereferenceable(8) %"class.readers_writers::Reader"** @_ZNSt11_Tuple_implILm1EJPN15readers_writers6ReaderEEE7_M_headERS3_(%"struct.std::_Tuple_impl.13"* dereferenceable(8) %7) #3, !dbg !5663
  %9 = call dereferenceable(8) %"class.readers_writers::Reader"** @_ZSt7forwardIPN15readers_writers6ReaderEEOT_RNSt16remove_referenceIS3_E4typeE(%"class.readers_writers::Reader"** dereferenceable(8) %8) #3, !dbg !5664
  invoke void @_ZNSt10_Head_baseILm1EPN15readers_writers6ReaderELb0EEC2IS2_EEOT_(%"struct.std::_Head_base.14"* %6, %"class.readers_writers::Reader"** dereferenceable(8) %9)
          to label %10 unwind label %11, !dbg !5666

; <label>:10:                                     ; preds = %2
  ret void, !dbg !5667

; <label>:11:                                     ; preds = %2
  %12 = landingpad { i8*, i32 }
          catch i8* null, !dbg !5669
  %13 = extractvalue { i8*, i32 } %12, 0, !dbg !5669
  call void @__clang_call_terminate(i8* %13) #14, !dbg !5669
  unreachable, !dbg !5669
}

; Function Attrs: nounwind uwtable
define linkonce_odr dereferenceable(16) %"struct.std::_Mem_fn.16"* @_ZSt7forwardISt7_Mem_fnIMN15readers_writers6ReaderEFvvEEEOT_RNSt16remove_referenceIS6_E4typeE(%"struct.std::_Mem_fn.16"* dereferenceable(16)) #4 comdat !dbg !5671 {
  %2 = alloca %"struct.std::_Mem_fn.16"*, align 8
  store %"struct.std::_Mem_fn.16"* %0, %"struct.std::_Mem_fn.16"** %2, align 8
  call void @llvm.dbg.declare(metadata %"struct.std::_Mem_fn.16"** %2, metadata !5680, metadata !3590), !dbg !5681
  %3 = load %"struct.std::_Mem_fn.16"*, %"struct.std::_Mem_fn.16"** %2, align 8, !dbg !5682
  ret %"struct.std::_Mem_fn.16"* %3, !dbg !5683
}

; Function Attrs: nounwind uwtable
define linkonce_odr dereferenceable(16) %"struct.std::_Mem_fn.16"* @_ZNSt11_Tuple_implILm0EJSt7_Mem_fnIMN15readers_writers6ReaderEFvvEEPS2_EE7_M_headERS7_(%"struct.std::_Tuple_impl.12"* dereferenceable(24)) #4 comdat align 2 !dbg !5684 {
  %2 = alloca %"struct.std::_Tuple_impl.12"*, align 8
  store %"struct.std::_Tuple_impl.12"* %0, %"struct.std::_Tuple_impl.12"** %2, align 8
  call void @llvm.dbg.declare(metadata %"struct.std::_Tuple_impl.12"** %2, metadata !5685, metadata !3590), !dbg !5686
  %3 = load %"struct.std::_Tuple_impl.12"*, %"struct.std::_Tuple_impl.12"** %2, align 8, !dbg !5687
  %4 = bitcast %"struct.std::_Tuple_impl.12"* %3 to i8*, !dbg !5687
  %5 = getelementptr inbounds i8, i8* %4, i64 8, !dbg !5687
  %6 = bitcast i8* %5 to %"struct.std::_Head_base.15"*, !dbg !5687
  %7 = call dereferenceable(16) %"struct.std::_Mem_fn.16"* @_ZNSt10_Head_baseILm0ESt7_Mem_fnIMN15readers_writers6ReaderEFvvEELb0EE7_M_headERS6_(%"struct.std::_Head_base.15"* dereferenceable(16) %6) #3, !dbg !5688
  ret %"struct.std::_Mem_fn.16"* %7, !dbg !5689
}

; Function Attrs: nounwind uwtable
define linkonce_odr void @_ZNSt10_Head_baseILm0ESt7_Mem_fnIMN15readers_writers6ReaderEFvvEELb0EEC2IS5_EEOT_(%"struct.std::_Head_base.15"*, %"struct.std::_Mem_fn.16"* dereferenceable(16)) unnamed_addr #4 comdat align 2 !dbg !5690 {
  %3 = alloca %"struct.std::_Head_base.15"*, align 8
  %4 = alloca %"struct.std::_Mem_fn.16"*, align 8
  store %"struct.std::_Head_base.15"* %0, %"struct.std::_Head_base.15"** %3, align 8
  call void @llvm.dbg.declare(metadata %"struct.std::_Head_base.15"** %3, metadata !5696, metadata !3590), !dbg !5698
  store %"struct.std::_Mem_fn.16"* %1, %"struct.std::_Mem_fn.16"** %4, align 8
  call void @llvm.dbg.declare(metadata %"struct.std::_Mem_fn.16"** %4, metadata !5699, metadata !3590), !dbg !5700
  %5 = load %"struct.std::_Head_base.15"*, %"struct.std::_Head_base.15"** %3, align 8
  %6 = getelementptr inbounds %"struct.std::_Head_base.15", %"struct.std::_Head_base.15"* %5, i32 0, i32 0, !dbg !5701
  %7 = load %"struct.std::_Mem_fn.16"*, %"struct.std::_Mem_fn.16"** %4, align 8, !dbg !5702
  %8 = call dereferenceable(16) %"struct.std::_Mem_fn.16"* @_ZSt7forwardISt7_Mem_fnIMN15readers_writers6ReaderEFvvEEEOT_RNSt16remove_referenceIS6_E4typeE(%"struct.std::_Mem_fn.16"* dereferenceable(16) %7) #3, !dbg !5703
  %9 = bitcast %"struct.std::_Mem_fn.16"* %6 to i8*, !dbg !5701
  %10 = bitcast %"struct.std::_Mem_fn.16"* %8 to i8*, !dbg !5701
  call void @llvm.memcpy.p0i8.p0i8.i64(i8* %9, i8* %10, i64 16, i32 8, i1 false), !dbg !5704
  ret void, !dbg !5706
}

; Function Attrs: nounwind uwtable
define linkonce_odr dereferenceable(8) %"class.readers_writers::Reader"** @_ZNSt11_Tuple_implILm1EJPN15readers_writers6ReaderEEE7_M_headERS3_(%"struct.std::_Tuple_impl.13"* dereferenceable(8)) #4 comdat align 2 !dbg !5707 {
  %2 = alloca %"struct.std::_Tuple_impl.13"*, align 8
  store %"struct.std::_Tuple_impl.13"* %0, %"struct.std::_Tuple_impl.13"** %2, align 8
  call void @llvm.dbg.declare(metadata %"struct.std::_Tuple_impl.13"** %2, metadata !5708, metadata !3590), !dbg !5709
  %3 = load %"struct.std::_Tuple_impl.13"*, %"struct.std::_Tuple_impl.13"** %2, align 8, !dbg !5710
  %4 = bitcast %"struct.std::_Tuple_impl.13"* %3 to %"struct.std::_Head_base.14"*, !dbg !5710
  %5 = call dereferenceable(8) %"class.readers_writers::Reader"** @_ZNSt10_Head_baseILm1EPN15readers_writers6ReaderELb0EE7_M_headERS3_(%"struct.std::_Head_base.14"* dereferenceable(8) %4) #3, !dbg !5711
  ret %"class.readers_writers::Reader"** %5, !dbg !5712
}

; Function Attrs: nounwind uwtable
define linkonce_odr void @_ZNSt10_Head_baseILm1EPN15readers_writers6ReaderELb0EEC2IS2_EEOT_(%"struct.std::_Head_base.14"*, %"class.readers_writers::Reader"** dereferenceable(8)) unnamed_addr #4 comdat align 2 !dbg !5713 {
  %3 = alloca %"struct.std::_Head_base.14"*, align 8
  %4 = alloca %"class.readers_writers::Reader"**, align 8
  store %"struct.std::_Head_base.14"* %0, %"struct.std::_Head_base.14"** %3, align 8
  call void @llvm.dbg.declare(metadata %"struct.std::_Head_base.14"** %3, metadata !5719, metadata !3590), !dbg !5721
  store %"class.readers_writers::Reader"** %1, %"class.readers_writers::Reader"*** %4, align 8
  call void @llvm.dbg.declare(metadata %"class.readers_writers::Reader"*** %4, metadata !5722, metadata !3590), !dbg !5723
  %5 = load %"struct.std::_Head_base.14"*, %"struct.std::_Head_base.14"** %3, align 8
  %6 = getelementptr inbounds %"struct.std::_Head_base.14", %"struct.std::_Head_base.14"* %5, i32 0, i32 0, !dbg !5724
  %7 = load %"class.readers_writers::Reader"**, %"class.readers_writers::Reader"*** %4, align 8, !dbg !5725
  %8 = call dereferenceable(8) %"class.readers_writers::Reader"** @_ZSt7forwardIPN15readers_writers6ReaderEEOT_RNSt16remove_referenceIS3_E4typeE(%"class.readers_writers::Reader"** dereferenceable(8) %7) #3, !dbg !5726
  %9 = load %"class.readers_writers::Reader"*, %"class.readers_writers::Reader"** %8, align 8, !dbg !5726
  store %"class.readers_writers::Reader"* %9, %"class.readers_writers::Reader"** %6, align 8, !dbg !5724
  ret void, !dbg !5727
}

; Function Attrs: nounwind uwtable
define linkonce_odr dereferenceable(8) %"class.readers_writers::Reader"** @_ZNSt10_Head_baseILm1EPN15readers_writers6ReaderELb0EE7_M_headERS3_(%"struct.std::_Head_base.14"* dereferenceable(8)) #4 comdat align 2 !dbg !5728 {
  %2 = alloca %"struct.std::_Head_base.14"*, align 8
  store %"struct.std::_Head_base.14"* %0, %"struct.std::_Head_base.14"** %2, align 8
  call void @llvm.dbg.declare(metadata %"struct.std::_Head_base.14"** %2, metadata !5729, metadata !3590), !dbg !5730
  %3 = load %"struct.std::_Head_base.14"*, %"struct.std::_Head_base.14"** %2, align 8, !dbg !5731
  %4 = getelementptr inbounds %"struct.std::_Head_base.14", %"struct.std::_Head_base.14"* %3, i32 0, i32 0, !dbg !5732
  ret %"class.readers_writers::Reader"** %4, !dbg !5733
}

; Function Attrs: nounwind uwtable
define linkonce_odr dereferenceable(16) %"struct.std::_Mem_fn.16"* @_ZNSt10_Head_baseILm0ESt7_Mem_fnIMN15readers_writers6ReaderEFvvEELb0EE7_M_headERS6_(%"struct.std::_Head_base.15"* dereferenceable(16)) #4 comdat align 2 !dbg !5734 {
  %2 = alloca %"struct.std::_Head_base.15"*, align 8
  store %"struct.std::_Head_base.15"* %0, %"struct.std::_Head_base.15"** %2, align 8
  call void @llvm.dbg.declare(metadata %"struct.std::_Head_base.15"** %2, metadata !5735, metadata !3590), !dbg !5736
  %3 = load %"struct.std::_Head_base.15"*, %"struct.std::_Head_base.15"** %2, align 8, !dbg !5737
  %4 = getelementptr inbounds %"struct.std::_Head_base.15", %"struct.std::_Head_base.15"* %3, i32 0, i32 0, !dbg !5738
  ret %"struct.std::_Mem_fn.16"* %4, !dbg !5739
}

; Function Attrs: uwtable
define linkonce_odr void @_ZNSt12_Bind_simpleIFSt7_Mem_fnIMN15readers_writers6ReaderEFvvEEPS2_EEclEv(%"struct.std::_Bind_simple.10"*) #0 comdat align 2 !dbg !5740 {
  %2 = alloca %"struct.std::_Bind_simple.10"*, align 8
  %3 = alloca %"struct.std::_Index_tuple", align 1
  store %"struct.std::_Bind_simple.10"* %0, %"struct.std::_Bind_simple.10"** %2, align 8
  call void @llvm.dbg.declare(metadata %"struct.std::_Bind_simple.10"** %2, metadata !5741, metadata !3590), !dbg !5742
  %4 = load %"struct.std::_Bind_simple.10"*, %"struct.std::_Bind_simple.10"** %2, align 8
  call void @_ZNSt12_Bind_simpleIFSt7_Mem_fnIMN15readers_writers6ReaderEFvvEEPS2_EE9_M_invokeIJLm0EEEEvSt12_Index_tupleIJXspT_EEE(%"struct.std::_Bind_simple.10"* %4), !dbg !5743
  ret void, !dbg !5744
}

; Function Attrs: uwtable
define linkonce_odr void @_ZNSt12_Bind_simpleIFSt7_Mem_fnIMN15readers_writers6ReaderEFvvEEPS2_EE9_M_invokeIJLm0EEEEvSt12_Index_tupleIJXspT_EEE(%"struct.std::_Bind_simple.10"*) #0 comdat align 2 !dbg !5745 {
  %2 = alloca %"struct.std::_Index_tuple", align 1
  %3 = alloca %"struct.std::_Bind_simple.10"*, align 8
  store %"struct.std::_Bind_simple.10"* %0, %"struct.std::_Bind_simple.10"** %3, align 8
  call void @llvm.dbg.declare(metadata %"struct.std::_Bind_simple.10"** %3, metadata !5749, metadata !3590), !dbg !5750
  call void @llvm.dbg.declare(metadata %"struct.std::_Index_tuple"* %2, metadata !5751, metadata !3590), !dbg !5752
  %4 = load %"struct.std::_Bind_simple.10"*, %"struct.std::_Bind_simple.10"** %3, align 8
  %5 = getelementptr inbounds %"struct.std::_Bind_simple.10", %"struct.std::_Bind_simple.10"* %4, i32 0, i32 0, !dbg !5753
  %6 = call dereferenceable(16) %"struct.std::_Mem_fn.16"* @_ZSt3getILm0EJSt7_Mem_fnIMN15readers_writers6ReaderEFvvEEPS2_EERNSt13tuple_elementIXT_ESt5tupleIJDpT0_EEE4typeERSB_(%"class.std::tuple.11"* dereferenceable(24) %5) #3, !dbg !5754
  %7 = call dereferenceable(16) %"struct.std::_Mem_fn.16"* @_ZSt7forwardISt7_Mem_fnIMN15readers_writers6ReaderEFvvEEEOT_RNSt16remove_referenceIS6_E4typeE(%"struct.std::_Mem_fn.16"* dereferenceable(16) %6) #3, !dbg !5755
  %8 = bitcast %"struct.std::_Mem_fn.16"* %7 to %"class.std::_Mem_fn_base.17"*, !dbg !5757
  %9 = getelementptr inbounds %"struct.std::_Bind_simple.10", %"struct.std::_Bind_simple.10"* %4, i32 0, i32 0, !dbg !5758
  %10 = call dereferenceable(8) %"class.readers_writers::Reader"** @_ZSt3getILm1EJSt7_Mem_fnIMN15readers_writers6ReaderEFvvEEPS2_EERNSt13tuple_elementIXT_ESt5tupleIJDpT0_EEE4typeERSB_(%"class.std::tuple.11"* dereferenceable(24) %9) #3, !dbg !5759
  %11 = call dereferenceable(8) %"class.readers_writers::Reader"** @_ZSt7forwardIPN15readers_writers6ReaderEEOT_RNSt16remove_referenceIS3_E4typeE(%"class.readers_writers::Reader"** dereferenceable(8) %10) #3, !dbg !5760
  call void @_ZNKSt12_Mem_fn_baseIMN15readers_writers6ReaderEFvvELb1EEclIJPS1_EEEDTclsr3stdE8__invokedtdefpT6_M_pmfspclsr3stdE7forwardIT_Efp_EEEDpOS7_(%"class.std::_Mem_fn_base.17"* %8, %"class.readers_writers::Reader"** dereferenceable(8) %11), !dbg !5761
  ret void, !dbg !5763
}

; Function Attrs: nounwind uwtable
define linkonce_odr dereferenceable(16) %"struct.std::_Mem_fn.16"* @_ZSt3getILm0EJSt7_Mem_fnIMN15readers_writers6ReaderEFvvEEPS2_EERNSt13tuple_elementIXT_ESt5tupleIJDpT0_EEE4typeERSB_(%"class.std::tuple.11"* dereferenceable(24)) #4 comdat !dbg !5764 {
  %2 = alloca %"class.std::tuple.11"*, align 8
  store %"class.std::tuple.11"* %0, %"class.std::tuple.11"** %2, align 8
  call void @llvm.dbg.declare(metadata %"class.std::tuple.11"** %2, metadata !5774, metadata !3590), !dbg !5775
  %3 = load %"class.std::tuple.11"*, %"class.std::tuple.11"** %2, align 8, !dbg !5776
  %4 = bitcast %"class.std::tuple.11"* %3 to %"struct.std::_Tuple_impl.12"*, !dbg !5776
  %5 = call dereferenceable(16) %"struct.std::_Mem_fn.16"* @_ZSt12__get_helperILm0ESt7_Mem_fnIMN15readers_writers6ReaderEFvvEEJPS2_EERT0_RSt11_Tuple_implIXT_EJS7_DpT1_EE(%"struct.std::_Tuple_impl.12"* dereferenceable(24) %4) #3, !dbg !5777
  ret %"struct.std::_Mem_fn.16"* %5, !dbg !5778
}

; Function Attrs: uwtable
define linkonce_odr void @_ZNKSt12_Mem_fn_baseIMN15readers_writers6ReaderEFvvELb1EEclIJPS1_EEEDTclsr3stdE8__invokedtdefpT6_M_pmfspclsr3stdE7forwardIT_Efp_EEEDpOS7_(%"class.std::_Mem_fn_base.17"*, %"class.readers_writers::Reader"** dereferenceable(8)) #0 comdat align 2 !dbg !5779 {
  %3 = alloca %"class.std::_Mem_fn_base.17"*, align 8
  %4 = alloca %"class.readers_writers::Reader"**, align 8
  store %"class.std::_Mem_fn_base.17"* %0, %"class.std::_Mem_fn_base.17"** %3, align 8
  call void @llvm.dbg.declare(metadata %"class.std::_Mem_fn_base.17"** %3, metadata !5786, metadata !3590), !dbg !5788
  store %"class.readers_writers::Reader"** %1, %"class.readers_writers::Reader"*** %4, align 8
  call void @llvm.dbg.declare(metadata %"class.readers_writers::Reader"*** %4, metadata !5789, metadata !3590), !dbg !5790
  %5 = load %"class.std::_Mem_fn_base.17"*, %"class.std::_Mem_fn_base.17"** %3, align 8
  %6 = getelementptr inbounds %"class.std::_Mem_fn_base.17", %"class.std::_Mem_fn_base.17"* %5, i32 0, i32 0, !dbg !5791
  %7 = load %"class.readers_writers::Reader"**, %"class.readers_writers::Reader"*** %4, align 8, !dbg !5792
  %8 = call dereferenceable(8) %"class.readers_writers::Reader"** @_ZSt7forwardIPN15readers_writers6ReaderEEOT_RNSt16remove_referenceIS3_E4typeE(%"class.readers_writers::Reader"** dereferenceable(8) %7) #3, !dbg !5793
  call void @_ZSt8__invokeIRKMN15readers_writers6ReaderEFvvEJPS1_EENSt9result_ofIFOT_DpOT0_EE4typeES9_SC_({ i64, i64 }* dereferenceable(16) %6, %"class.readers_writers::Reader"** dereferenceable(8) %8), !dbg !5794
  ret void, !dbg !5796
}

; Function Attrs: nounwind uwtable
define linkonce_odr dereferenceable(8) %"class.readers_writers::Reader"** @_ZSt3getILm1EJSt7_Mem_fnIMN15readers_writers6ReaderEFvvEEPS2_EERNSt13tuple_elementIXT_ESt5tupleIJDpT0_EEE4typeERSB_(%"class.std::tuple.11"* dereferenceable(24)) #4 comdat !dbg !5797 {
  %2 = alloca %"class.std::tuple.11"*, align 8
  store %"class.std::tuple.11"* %0, %"class.std::tuple.11"** %2, align 8
  call void @llvm.dbg.declare(metadata %"class.std::tuple.11"** %2, metadata !5808, metadata !3590), !dbg !5809
  %3 = load %"class.std::tuple.11"*, %"class.std::tuple.11"** %2, align 8, !dbg !5810
  %4 = bitcast %"class.std::tuple.11"* %3 to %"struct.std::_Tuple_impl.13"*, !dbg !5810
  %5 = call dereferenceable(8) %"class.readers_writers::Reader"** @_ZSt12__get_helperILm1EPN15readers_writers6ReaderEJEERT0_RSt11_Tuple_implIXT_EJS3_DpT1_EE(%"struct.std::_Tuple_impl.13"* dereferenceable(8) %4) #3, !dbg !5811
  ret %"class.readers_writers::Reader"** %5, !dbg !5812
}

; Function Attrs: nounwind uwtable
define linkonce_odr dereferenceable(16) %"struct.std::_Mem_fn.16"* @_ZSt12__get_helperILm0ESt7_Mem_fnIMN15readers_writers6ReaderEFvvEEJPS2_EERT0_RSt11_Tuple_implIXT_EJS7_DpT1_EE(%"struct.std::_Tuple_impl.12"* dereferenceable(24)) #4 comdat !dbg !5813 {
  %2 = alloca %"struct.std::_Tuple_impl.12"*, align 8
  store %"struct.std::_Tuple_impl.12"* %0, %"struct.std::_Tuple_impl.12"** %2, align 8
  call void @llvm.dbg.declare(metadata %"struct.std::_Tuple_impl.12"** %2, metadata !5816, metadata !3590), !dbg !5817
  %3 = load %"struct.std::_Tuple_impl.12"*, %"struct.std::_Tuple_impl.12"** %2, align 8, !dbg !5818
  %4 = call dereferenceable(16) %"struct.std::_Mem_fn.16"* @_ZNSt11_Tuple_implILm0EJSt7_Mem_fnIMN15readers_writers6ReaderEFvvEEPS2_EE7_M_headERS7_(%"struct.std::_Tuple_impl.12"* dereferenceable(24) %3) #3, !dbg !5819
  ret %"struct.std::_Mem_fn.16"* %4, !dbg !5820
}

; Function Attrs: inlinehint uwtable
define linkonce_odr void @_ZSt8__invokeIRKMN15readers_writers6ReaderEFvvEJPS1_EENSt9result_ofIFOT_DpOT0_EE4typeES9_SC_({ i64, i64 }* dereferenceable(16), %"class.readers_writers::Reader"** dereferenceable(8)) #10 comdat !dbg !891 {
  %3 = alloca { i64, i64 }*, align 8
  %4 = alloca %"class.readers_writers::Reader"**, align 8
  %5 = alloca %"struct.std::__invoke_memfun_deref", align 1
  store { i64, i64 }* %0, { i64, i64 }** %3, align 8
  call void @llvm.dbg.declare(metadata { i64, i64 }** %3, metadata !5821, metadata !3590), !dbg !5822
  store %"class.readers_writers::Reader"** %1, %"class.readers_writers::Reader"*** %4, align 8
  call void @llvm.dbg.declare(metadata %"class.readers_writers::Reader"*** %4, metadata !5823, metadata !3590), !dbg !5824
  %6 = load { i64, i64 }*, { i64, i64 }** %3, align 8, !dbg !5825
  %7 = call dereferenceable(16) { i64, i64 }* @_ZSt7forwardIRKMN15readers_writers6ReaderEFvvEEOT_RNSt16remove_referenceIS6_E4typeE({ i64, i64 }* dereferenceable(16) %6) #3, !dbg !5826
  %8 = load %"class.readers_writers::Reader"**, %"class.readers_writers::Reader"*** %4, align 8, !dbg !5827
  %9 = call dereferenceable(8) %"class.readers_writers::Reader"** @_ZSt7forwardIPN15readers_writers6ReaderEEOT_RNSt16remove_referenceIS3_E4typeE(%"class.readers_writers::Reader"** dereferenceable(8) %8) #3, !dbg !5828
  call void @_ZSt13__invoke_implIvRKMN15readers_writers6ReaderEFvvEPS1_JEET_St21__invoke_memfun_derefOT0_OT1_DpOT2_({ i64, i64 }* dereferenceable(16) %7, %"class.readers_writers::Reader"** dereferenceable(8) %9), !dbg !5829
  ret void, !dbg !5831
}

; Function Attrs: inlinehint uwtable
define linkonce_odr void @_ZSt13__invoke_implIvRKMN15readers_writers6ReaderEFvvEPS1_JEET_St21__invoke_memfun_derefOT0_OT1_DpOT2_({ i64, i64 }* dereferenceable(16), %"class.readers_writers::Reader"** dereferenceable(8)) #10 comdat !dbg !5832 {
  %3 = alloca %"struct.std::__invoke_memfun_deref", align 1
  %4 = alloca { i64, i64 }*, align 8
  %5 = alloca %"class.readers_writers::Reader"**, align 8
  call void @llvm.dbg.declare(metadata %"struct.std::__invoke_memfun_deref"* %3, metadata !5837, metadata !3590), !dbg !5838
  store { i64, i64 }* %0, { i64, i64 }** %4, align 8
  call void @llvm.dbg.declare(metadata { i64, i64 }** %4, metadata !5839, metadata !3590), !dbg !5840
  store %"class.readers_writers::Reader"** %1, %"class.readers_writers::Reader"*** %5, align 8
  call void @llvm.dbg.declare(metadata %"class.readers_writers::Reader"*** %5, metadata !5841, metadata !3590), !dbg !5842
  %6 = load { i64, i64 }*, { i64, i64 }** %4, align 8, !dbg !5843
  %7 = load { i64, i64 }, { i64, i64 }* %6, align 8, !dbg !5843
  %8 = load %"class.readers_writers::Reader"**, %"class.readers_writers::Reader"*** %5, align 8, !dbg !5844
  %9 = call dereferenceable(8) %"class.readers_writers::Reader"** @_ZSt7forwardIPN15readers_writers6ReaderEEOT_RNSt16remove_referenceIS3_E4typeE(%"class.readers_writers::Reader"** dereferenceable(8) %8) #3, !dbg !5845
  %10 = load %"class.readers_writers::Reader"*, %"class.readers_writers::Reader"** %9, align 8, !dbg !5845
  %11 = extractvalue { i64, i64 } %7, 1, !dbg !5846
  %12 = bitcast %"class.readers_writers::Reader"* %10 to i8*, !dbg !5846
  %13 = getelementptr inbounds i8, i8* %12, i64 %11, !dbg !5846
