; ModuleID = '/home/sreeram/Dev/mastersthesis/userspace_implementation_thesis_ver/MemoryCheck/build/gen/shared_pointer.bc'
source_filename = "/home/sreeram/Dev/mastersthesis/userspace_implementation_thesis_ver/MemoryCheck/src/Benchmark/shared_pointer.cpp"
target datalayout = "e-m:e-i64:64-f80:128-n8:16:32:64-S128"
target triple = "x86_64-pc-linux-gnu"

%"class.std::ios_base::Init" = type { i8 }
%"struct.boost::none_t" = type { i8 }
%"class.boost::detail::make_property_map_from_arg_pack_gen" = type { i32 }
%"class.std::basic_ostream" = type { i32 (...)**, %"class.std::basic_ios" }
%"class.std::basic_ios" = type { %"class.std::ios_base", %"class.std::basic_ostream"*, i8, i8, %"class.std::basic_streambuf"*, %"class.std::ctype"*, %"class.std::num_put"*, %"class.std::num_get"* }
%"class.std::ios_base" = type { i32 (...)**, i64, i64, i32, i32, i32, %"struct.std::ios_base::_Callback_list"*, %"struct.std::ios_base::_Words", [8 x %"struct.std::ios_base::_Words"], i32, %"struct.std::ios_base::_Words"*, %"class.std::locale" }
%"struct.std::ios_base::_Callback_list" = type { %"struct.std::ios_base::_Callback_list"*, void (i32, %"class.std::ios_base"*, i32)*, i32, i32 }
%"struct.std::ios_base::_Words" = type { i8*, i64 }
%"class.std::locale" = type { %"class.std::locale::_Impl"* }
%"class.std::locale::_Impl" = type { i32, %"class.std::locale::facet"**, i64, %"class.std::locale::facet"**, i8** }
%"class.std::locale::facet" = type <{ i32 (...)**, i32, [4 x i8] }>
%"class.std::basic_streambuf" = type { i32 (...)**, i8*, i8*, i8*, i8*, i8*, i8*, %"class.std::locale" }
%"class.std::ctype" = type <{ %"class.std::locale::facet.base", [4 x i8], %struct.__locale_struct*, i8, [7 x i8], i32*, i32*, i16*, i8, [256 x i8], [256 x i8], i8, [6 x i8] }>
%"class.std::locale::facet.base" = type <{ i32 (...)**, i32 }>
%struct.__locale_struct = type { [13 x %struct.__locale_data*], i16*, i32*, i32*, [13 x i8*] }
%struct.__locale_data = type opaque
%"class.std::num_put" = type { %"class.std::locale::facet.base", [4 x i8] }
%"class.std::num_get" = type { %"class.std::locale::facet.base", [4 x i8] }
%"struct.boost::none_t::init_tag" = type { i8 }
%"class.shared_pointer::Thread1" = type { %class.IrsThread }
%class.IrsThread = type <{ %"class.std::thread", i32, [4 x i8] }>
%"class.std::thread" = type { %"class.std::thread::id" }
%"class.std::thread::id" = type { i64 }
%"class.shared_pointer::Thread2" = type { %class.IrsThread }
%"struct.std::chrono::time_point" = type { %"struct.std::chrono::duration" }
%"struct.std::chrono::duration" = type { i64 }
%"struct.std::chrono::duration.0" = type { i64 }
%"class.std::unique_ptr" = type { %"class.std::tuple" }
%"class.std::tuple" = type { %"struct.std::_Tuple_impl" }
%"struct.std::_Tuple_impl" = type { %"struct.std::_Head_base.2" }
%"struct.std::_Head_base.2" = type { %"struct.std::thread::_State"* }
%"struct.std::thread::_State" = type { i32 (...)** }
%"struct.std::_Bind_simple" = type { %"class.std::tuple.3" }
%"class.std::tuple.3" = type { %"struct.std::_Tuple_impl.4" }
%"struct.std::_Tuple_impl.4" = type { %"struct.std::_Tuple_impl.5", %"struct.std::_Head_base.7" }
%"struct.std::_Tuple_impl.5" = type { %"struct.std::_Head_base.6" }
%"struct.std::_Head_base.6" = type { %"class.shared_pointer::Thread1"* }
%"struct.std::_Head_base.7" = type { %"struct.std::_Mem_fn" }
%"struct.std::_Mem_fn" = type { %"class.std::_Mem_fn_base" }
%"class.std::_Mem_fn_base" = type { { i64, i64 } }
%union.pthread_attr_t = type { i64, [48 x i8] }
%"struct.std::thread::_State_impl" = type { %"struct.std::thread::_State", %"struct.std::_Bind_simple" }
%"struct.std::default_delete" = type { i8 }
%"struct.std::_Index_tuple" = type { i8 }
%"struct.std::__invoke_memfun_deref" = type { i8 }
%"struct.std::_Tuple_impl.1" = type { i8 }
%"struct.std::_Head_base" = type { i8 }
%"struct.std::_Maybe_unary_or_binary_function" = type { i8 }
%"struct.std::_Bind_simple.8" = type { %"class.std::tuple.9" }
%"class.std::tuple.9" = type { %"struct.std::_Tuple_impl.10" }
%"struct.std::_Tuple_impl.10" = type { %"struct.std::_Tuple_impl.11", %"struct.std::_Head_base.13" }
%"struct.std::_Tuple_impl.11" = type { %"struct.std::_Head_base.12" }
%"struct.std::_Head_base.12" = type { %"class.shared_pointer::Thread2"* }
%"struct.std::_Head_base.13" = type { %"struct.std::_Mem_fn.14" }
%"struct.std::_Mem_fn.14" = type { %"class.std::_Mem_fn_base.15" }
%"class.std::_Mem_fn_base.15" = type { { i64, i64 } }
%"struct.std::thread::_State_impl.18" = type { %"struct.std::thread::_State", %"struct.std::_Bind_simple.8" }
%"struct.std::_Maybe_unary_or_binary_function.16" = type { i8 }

$_ZN5boost6none_tC2ENS0_8init_tagE = comdat any

$_ZN5boost6detail35make_property_map_from_arg_pack_genINS_5graph8keywords3tag9color_mapENS_18default_color_typeEEC2ES6_ = comdat any

$_ZN14shared_pointer7Thread111getThreadIdEv = comdat any

$_ZNK9IrsThread6getTidEv = comdat any

$_ZN14shared_pointer7Thread211getThreadIdEv = comdat any

$_ZN14shared_pointer7Thread1C2Ei = comdat any

$_ZN14shared_pointer7Thread15startEv = comdat any

$_ZN14shared_pointer7Thread2C2Ei = comdat any

$_ZN14shared_pointer7Thread25startEv = comdat any

$_ZN14shared_pointer7Thread14joinEv = comdat any

$_ZN14shared_pointer7Thread24joinEv = comdat any

$_ZNSt6chrono13duration_castINS_8durationIlSt5ratioILl1ELl1000000EEEElS2_ILl1ELl1000000000EEEENSt9enable_ifIXsr13__is_durationIT_EE5valueES7_E4typeERKNS1_IT0_T1_EE = comdat any

$_ZNSt6chronomiINS_3_V212system_clockENS_8durationIlSt5ratioILl1ELl1000000000EEEES6_EENSt11common_typeIJT0_T1_EE4typeERKNS_10time_pointIT_S8_EERKNSC_ISD_S9_EE = comdat any

$_ZNKSt6chrono8durationIlSt5ratioILl1ELl1000000EEE5countEv = comdat any

$_ZN14shared_pointer7Thread2D2Ev = comdat any

$_ZN14shared_pointer7Thread1D2Ev = comdat any

$_ZN9IrsThreadC2Ei = comdat any

$_ZNSt6threadC2Ev = comdat any

$_ZNSt6thread2idC2Ev = comdat any

$_ZN9IrsThreadclIJMN14shared_pointer7Thread1EFvvEPS2_EEEvDpOT_ = comdat any

$_ZN14shared_pointer7Thread14execEv = comdat any

$_ZNSt6threadaSEOS_ = comdat any

$_ZSt7forwardIMN14shared_pointer7Thread1EFvvEEOT_RNSt16remove_referenceIS4_E4typeE = comdat any

$_ZSt7forwardIPN14shared_pointer7Thread1EEOT_RNSt16remove_referenceIS3_E4typeE = comdat any

$_ZNSt6threadC2IMN14shared_pointer7Thread1EFvvEJPS2_EEEOT_DpOT0_ = comdat any

$_ZNSt6threadD2Ev = comdat any

$_ZNKSt6thread8joinableEv = comdat any

$_ZNSt6thread4swapERS_ = comdat any

$_ZSteqNSt6thread2idES0_ = comdat any

$_ZSt4swapINSt6thread2idEENSt9enable_ifIXsr6__and_ISt21is_move_constructibleIT_ESt18is_move_assignableIS4_EEE5valueEvE4typeERS4_SA_ = comdat any

$_ZSt4moveIRNSt6thread2idEEONSt16remove_referenceIT_E4typeEOS4_ = comdat any

$_ZNSt6thread13_S_make_stateISt12_Bind_simpleIFSt7_Mem_fnIMN14shared_pointer7Thread1EFvvEEPS4_EEEESt10unique_ptrINS_6_StateESt14default_deleteISC_EEOT_ = comdat any

$_ZSt13__bind_simpleIMN14shared_pointer7Thread1EFvvEJPS1_EENSt19_Bind_simple_helperIT_JDpT0_EE6__typeEOS6_DpOS7_ = comdat any

$_ZNSt10unique_ptrINSt6thread6_StateESt14default_deleteIS1_EED2Ev = comdat any

$_ZSt7forwardISt12_Bind_simpleIFSt7_Mem_fnIMN14shared_pointer7Thread1EFvvEEPS3_EEEOT_RNSt16remove_referenceISA_E4typeE = comdat any

$_ZNSt6thread11_State_implISt12_Bind_simpleIFSt7_Mem_fnIMN14shared_pointer7Thread1EFvvEEPS4_EEEC2EOSA_ = comdat any

$_ZNSt10unique_ptrINSt6thread6_StateESt14default_deleteIS1_EEC2EPS1_ = comdat any

$_ZNSt6thread6_StateC2Ev = comdat any

$_ZNSt12_Bind_simpleIFSt7_Mem_fnIMN14shared_pointer7Thread1EFvvEEPS2_EEC2EOS8_ = comdat any

$_ZNSt6thread11_State_implISt12_Bind_simpleIFSt7_Mem_fnIMN14shared_pointer7Thread1EFvvEEPS4_EEED2Ev = comdat any

$_ZNSt6thread11_State_implISt12_Bind_simpleIFSt7_Mem_fnIMN14shared_pointer7Thread1EFvvEEPS4_EEED0Ev = comdat any

$_ZNSt6thread11_State_implISt12_Bind_simpleIFSt7_Mem_fnIMN14shared_pointer7Thread1EFvvEEPS4_EEE6_M_runEv = comdat any

$_ZNSt5tupleIJSt7_Mem_fnIMN14shared_pointer7Thread1EFvvEEPS2_EEC2EOS7_ = comdat any

$_ZNSt11_Tuple_implILm0EJSt7_Mem_fnIMN14shared_pointer7Thread1EFvvEEPS2_EEC2EOS7_ = comdat any

$_ZSt4moveIRSt11_Tuple_implILm1EJPN14shared_pointer7Thread1EEEEONSt16remove_referenceIT_E4typeEOS7_ = comdat any

$_ZNSt11_Tuple_implILm0EJSt7_Mem_fnIMN14shared_pointer7Thread1EFvvEEPS2_EE7_M_tailERS7_ = comdat any

$_ZNSt11_Tuple_implILm1EJPN14shared_pointer7Thread1EEEC2EOS3_ = comdat any

$_ZSt7forwardISt7_Mem_fnIMN14shared_pointer7Thread1EFvvEEEOT_RNSt16remove_referenceIS6_E4typeE = comdat any

$_ZNSt11_Tuple_implILm0EJSt7_Mem_fnIMN14shared_pointer7Thread1EFvvEEPS2_EE7_M_headERS7_ = comdat any

$_ZNSt10_Head_baseILm0ESt7_Mem_fnIMN14shared_pointer7Thread1EFvvEELb0EEC2IS5_EEOT_ = comdat any

$__clang_call_terminate = comdat any

$_ZNSt11_Tuple_implILm1EJPN14shared_pointer7Thread1EEE7_M_headERS3_ = comdat any

$_ZNSt10_Head_baseILm1EPN14shared_pointer7Thread1ELb0EEC2IS2_EEOT_ = comdat any

$_ZNSt10_Head_baseILm1EPN14shared_pointer7Thread1ELb0EE7_M_headERS3_ = comdat any

$_ZNSt10_Head_baseILm0ESt7_Mem_fnIMN14shared_pointer7Thread1EFvvEELb0EE7_M_headERS6_ = comdat any

$_ZNSt12_Bind_simpleIFSt7_Mem_fnIMN14shared_pointer7Thread1EFvvEEPS2_EEclEv = comdat any

$_ZNSt12_Bind_simpleIFSt7_Mem_fnIMN14shared_pointer7Thread1EFvvEEPS2_EE9_M_invokeIJLm0EEEEvSt12_Index_tupleIJXspT_EEE = comdat any

$_ZSt3getILm0EJSt7_Mem_fnIMN14shared_pointer7Thread1EFvvEEPS2_EERNSt13tuple_elementIXT_ESt5tupleIJDpT0_EEE4typeERSB_ = comdat any

$_ZNKSt12_Mem_fn_baseIMN14shared_pointer7Thread1EFvvELb1EEclIJPS1_EEEDTclsr3stdE8__invokedtdefpT6_M_pmfspclsr3stdE7forwardIT_Efp_EEEDpOS7_ = comdat any

$_ZSt3getILm1EJSt7_Mem_fnIMN14shared_pointer7Thread1EFvvEEPS2_EERNSt13tuple_elementIXT_ESt5tupleIJDpT0_EEE4typeERSB_ = comdat any

$_ZSt12__get_helperILm0ESt7_Mem_fnIMN14shared_pointer7Thread1EFvvEEJPS2_EERT0_RSt11_Tuple_implIXT_EJS7_DpT1_EE = comdat any

$_ZSt8__invokeIRKMN14shared_pointer7Thread1EFvvEJPS1_EENSt9result_ofIFOT_DpOT0_EE4typeES9_SC_ = comdat any

$_ZSt13__invoke_implIvRKMN14shared_pointer7Thread1EFvvEPS1_JEET_St21__invoke_memfun_derefOT0_OT1_DpOT2_ = comdat any

$_ZSt7forwardIRKMN14shared_pointer7Thread1EFvvEEOT_RNSt16remove_referenceIS6_E4typeE = comdat any

$_ZSt12__get_helperILm1EPN14shared_pointer7Thread1EJEERT0_RSt11_Tuple_implIXT_EJS3_DpT1_EE = comdat any

$_ZNSt5tupleIJPNSt6thread6_StateESt14default_deleteIS1_EEEC2IS2_S4_Lb1EEEv = comdat any

$_ZSt3getILm0EJPNSt6thread6_StateESt14default_deleteIS1_EEERNSt13tuple_elementIXT_ESt5tupleIJDpT0_EEE4typeERS9_ = comdat any

$_ZNSt11_Tuple_implILm0EJPNSt6thread6_StateESt14default_deleteIS1_EEEC2Ev = comdat any

$_ZNSt11_Tuple_implILm1EJSt14default_deleteINSt6thread6_StateEEEEC2Ev = comdat any

$_ZNSt10_Head_baseILm0EPNSt6thread6_StateELb0EEC2Ev = comdat any

$_ZNSt10_Head_baseILm1ESt14default_deleteINSt6thread6_StateEELb1EEC2Ev = comdat any

$_ZSt12__get_helperILm0EPNSt6thread6_StateEJSt14default_deleteIS1_EEERT0_RSt11_Tuple_implIXT_EJS5_DpT1_EE = comdat any

$_ZNSt11_Tuple_implILm0EJPNSt6thread6_StateESt14default_deleteIS1_EEE7_M_headERS5_ = comdat any

$_ZNSt10_Head_baseILm0EPNSt6thread6_StateELb0EE7_M_headERS3_ = comdat any

$_ZNSt26_Maybe_wrap_member_pointerIMN14shared_pointer7Thread1EFvvEE9__do_wrapES3_ = comdat any

$_ZNSt12_Bind_simpleIFSt7_Mem_fnIMN14shared_pointer7Thread1EFvvEEPS2_EEC2IS5_JS6_EEEOT_DpOT0_ = comdat any

$_ZNSt7_Mem_fnIMN14shared_pointer7Thread1EFvvEECI2St12_Mem_fn_baseIS3_Lb1EEES3_ = comdat any

$_ZNSt12_Mem_fn_baseIMN14shared_pointer7Thread1EFvvELb1EEC2ES3_ = comdat any

$_ZNSt5tupleIJSt7_Mem_fnIMN14shared_pointer7Thread1EFvvEEPS2_EEC2IS5_S6_Lb1EEEOT_OT0_ = comdat any

$_ZNSt11_Tuple_implILm0EJSt7_Mem_fnIMN14shared_pointer7Thread1EFvvEEPS2_EEC2IS5_JS6_EvEEOT_DpOT0_ = comdat any

$_ZNSt11_Tuple_implILm1EJPN14shared_pointer7Thread1EEEC2IS2_EEOT_ = comdat any

$_ZNSt10unique_ptrINSt6thread6_StateESt14default_deleteIS1_EE11get_deleterEv = comdat any

$_ZNKSt14default_deleteINSt6thread6_StateEEclEPS1_ = comdat any

$_ZSt3getILm1EJPNSt6thread6_StateESt14default_deleteIS1_EEERNSt13tuple_elementIXT_ESt5tupleIJDpT0_EEE4typeERS9_ = comdat any

$_ZSt12__get_helperILm1ESt14default_deleteINSt6thread6_StateEEJEERT0_RSt11_Tuple_implIXT_EJS4_DpT1_EE = comdat any

$_ZNSt11_Tuple_implILm1EJSt14default_deleteINSt6thread6_StateEEEE7_M_headERS4_ = comdat any

$_ZNSt10_Head_baseILm1ESt14default_deleteINSt6thread6_StateEELb1EE7_M_headERS4_ = comdat any

$_ZN9IrsThreadclIJMN14shared_pointer7Thread2EFvvEPS2_EEEvDpOT_ = comdat any

$_ZN14shared_pointer7Thread24execEv = comdat any

$_ZSt7forwardIMN14shared_pointer7Thread2EFvvEEOT_RNSt16remove_referenceIS4_E4typeE = comdat any

$_ZSt7forwardIPN14shared_pointer7Thread2EEOT_RNSt16remove_referenceIS3_E4typeE = comdat any

$_ZNSt6threadC2IMN14shared_pointer7Thread2EFvvEJPS2_EEEOT_DpOT0_ = comdat any

$_ZNSt6thread13_S_make_stateISt12_Bind_simpleIFSt7_Mem_fnIMN14shared_pointer7Thread2EFvvEEPS4_EEEESt10unique_ptrINS_6_StateESt14default_deleteISC_EEOT_ = comdat any

$_ZSt13__bind_simpleIMN14shared_pointer7Thread2EFvvEJPS1_EENSt19_Bind_simple_helperIT_JDpT0_EE6__typeEOS6_DpOS7_ = comdat any

$_ZSt7forwardISt12_Bind_simpleIFSt7_Mem_fnIMN14shared_pointer7Thread2EFvvEEPS3_EEEOT_RNSt16remove_referenceISA_E4typeE = comdat any

$_ZNSt6thread11_State_implISt12_Bind_simpleIFSt7_Mem_fnIMN14shared_pointer7Thread2EFvvEEPS4_EEEC2EOSA_ = comdat any

$_ZNSt12_Bind_simpleIFSt7_Mem_fnIMN14shared_pointer7Thread2EFvvEEPS2_EEC2EOS8_ = comdat any

$_ZNSt6thread11_State_implISt12_Bind_simpleIFSt7_Mem_fnIMN14shared_pointer7Thread2EFvvEEPS4_EEED2Ev = comdat any

$_ZNSt6thread11_State_implISt12_Bind_simpleIFSt7_Mem_fnIMN14shared_pointer7Thread2EFvvEEPS4_EEED0Ev = comdat any

$_ZNSt6thread11_State_implISt12_Bind_simpleIFSt7_Mem_fnIMN14shared_pointer7Thread2EFvvEEPS4_EEE6_M_runEv = comdat any

$_ZNSt5tupleIJSt7_Mem_fnIMN14shared_pointer7Thread2EFvvEEPS2_EEC2EOS7_ = comdat any

$_ZNSt11_Tuple_implILm0EJSt7_Mem_fnIMN14shared_pointer7Thread2EFvvEEPS2_EEC2EOS7_ = comdat any

$_ZSt4moveIRSt11_Tuple_implILm1EJPN14shared_pointer7Thread2EEEEONSt16remove_referenceIT_E4typeEOS7_ = comdat any

$_ZNSt11_Tuple_implILm0EJSt7_Mem_fnIMN14shared_pointer7Thread2EFvvEEPS2_EE7_M_tailERS7_ = comdat any

$_ZNSt11_Tuple_implILm1EJPN14shared_pointer7Thread2EEEC2EOS3_ = comdat any

$_ZSt7forwardISt7_Mem_fnIMN14shared_pointer7Thread2EFvvEEEOT_RNSt16remove_referenceIS6_E4typeE = comdat any

$_ZNSt11_Tuple_implILm0EJSt7_Mem_fnIMN14shared_pointer7Thread2EFvvEEPS2_EE7_M_headERS7_ = comdat any

$_ZNSt10_Head_baseILm0ESt7_Mem_fnIMN14shared_pointer7Thread2EFvvEELb0EEC2IS5_EEOT_ = comdat any

$_ZNSt11_Tuple_implILm1EJPN14shared_pointer7Thread2EEE7_M_headERS3_ = comdat any

$_ZNSt10_Head_baseILm1EPN14shared_pointer7Thread2ELb0EEC2IS2_EEOT_ = comdat any

$_ZNSt10_Head_baseILm1EPN14shared_pointer7Thread2ELb0EE7_M_headERS3_ = comdat any

$_ZNSt10_Head_baseILm0ESt7_Mem_fnIMN14shared_pointer7Thread2EFvvEELb0EE7_M_headERS6_ = comdat any

$_ZNSt12_Bind_simpleIFSt7_Mem_fnIMN14shared_pointer7Thread2EFvvEEPS2_EEclEv = comdat any

$_ZNSt12_Bind_simpleIFSt7_Mem_fnIMN14shared_pointer7Thread2EFvvEEPS2_EE9_M_invokeIJLm0EEEEvSt12_Index_tupleIJXspT_EEE = comdat any

$_ZSt3getILm0EJSt7_Mem_fnIMN14shared_pointer7Thread2EFvvEEPS2_EERNSt13tuple_elementIXT_ESt5tupleIJDpT0_EEE4typeERSB_ = comdat any

$_ZNKSt12_Mem_fn_baseIMN14shared_pointer7Thread2EFvvELb1EEclIJPS1_EEEDTclsr3stdE8__invokedtdefpT6_M_pmfspclsr3stdE7forwardIT_Efp_EEEDpOS7_ = comdat any

$_ZSt3getILm1EJSt7_Mem_fnIMN14shared_pointer7Thread2EFvvEEPS2_EERNSt13tuple_elementIXT_ESt5tupleIJDpT0_EEE4typeERSB_ = comdat any

$_ZSt12__get_helperILm0ESt7_Mem_fnIMN14shared_pointer7Thread2EFvvEEJPS2_EERT0_RSt11_Tuple_implIXT_EJS7_DpT1_EE = comdat any

$_ZSt8__invokeIRKMN14shared_pointer7Thread2EFvvEJPS1_EENSt9result_ofIFOT_DpOT0_EE4typeES9_SC_ = comdat any

$_ZSt13__invoke_implIvRKMN14shared_pointer7Thread2EFvvEPS1_JEET_St21__invoke_memfun_derefOT0_OT1_DpOT2_ = comdat any

$_ZSt7forwardIRKMN14shared_pointer7Thread2EFvvEEOT_RNSt16remove_referenceIS6_E4typeE = comdat any

$_ZSt12__get_helperILm1EPN14shared_pointer7Thread2EJEERT0_RSt11_Tuple_implIXT_EJS3_DpT1_EE = comdat any

$_ZNSt26_Maybe_wrap_member_pointerIMN14shared_pointer7Thread2EFvvEE9__do_wrapES3_ = comdat any

$_ZNSt12_Bind_simpleIFSt7_Mem_fnIMN14shared_pointer7Thread2EFvvEEPS2_EEC2IS5_JS6_EEEOT_DpOT0_ = comdat any

$_ZNSt7_Mem_fnIMN14shared_pointer7Thread2EFvvEECI2St12_Mem_fn_baseIS3_Lb1EEES3_ = comdat any

$_ZNSt12_Mem_fn_baseIMN14shared_pointer7Thread2EFvvELb1EEC2ES3_ = comdat any

$_ZNSt5tupleIJSt7_Mem_fnIMN14shared_pointer7Thread2EFvvEEPS2_EEC2IS5_S6_Lb1EEEOT_OT0_ = comdat any

$_ZNSt11_Tuple_implILm0EJSt7_Mem_fnIMN14shared_pointer7Thread2EFvvEEPS2_EEC2IS5_JS6_EvEEOT_DpOT0_ = comdat any

$_ZNSt11_Tuple_implILm1EJPN14shared_pointer7Thread2EEEC2IS2_EEOT_ = comdat any

$_ZN9IrsThread4joinEv = comdat any

$_ZNSt6chrono20__duration_cast_implINS_8durationIlSt5ratioILl1ELl1000000EEEES2_ILl1ELl1000EElLb1ELb0EE6__castIlS2_ILl1ELl1000000000EEEES4_RKNS1_IT_T0_EE = comdat any

$_ZNKSt6chrono8durationIlSt5ratioILl1ELl1000000000EEE5countEv = comdat any

$_ZNSt6chrono8durationIlSt5ratioILl1ELl1000000EEEC2IlvEERKT_ = comdat any

$_ZNSt6chronomiIlSt5ratioILl1ELl1000000000EElS2_EENSt11common_typeIJNS_8durationIT_T0_EENS4_IT1_T2_EEEE4typeERKS7_RKSA_ = comdat any

$_ZNKSt6chrono10time_pointINS_3_V212system_clockENS_8durationIlSt5ratioILl1ELl1000000000EEEEE16time_since_epochEv = comdat any

$_ZNSt6chrono8durationIlSt5ratioILl1ELl1000000000EEEC2IlvEERKT_ = comdat any

$_ZN9IrsThreadD2Ev = comdat any

$_ZTVNSt6thread11_State_implISt12_Bind_simpleIFSt7_Mem_fnIMN14shared_pointer7Thread1EFvvEEPS4_EEEE = comdat any

$_ZTSNSt6thread11_State_implISt12_Bind_simpleIFSt7_Mem_fnIMN14shared_pointer7Thread1EFvvEEPS4_EEEE = comdat any

$_ZTINSt6thread11_State_implISt12_Bind_simpleIFSt7_Mem_fnIMN14shared_pointer7Thread1EFvvEEPS4_EEEE = comdat any

$_ZTVNSt6thread11_State_implISt12_Bind_simpleIFSt7_Mem_fnIMN14shared_pointer7Thread2EFvvEEPS4_EEEE = comdat any

$_ZTSNSt6thread11_State_implISt12_Bind_simpleIFSt7_Mem_fnIMN14shared_pointer7Thread2EFvvEEPS4_EEEE = comdat any

$_ZTINSt6thread11_State_implISt12_Bind_simpleIFSt7_Mem_fnIMN14shared_pointer7Thread2EFvvEEPS4_EEEE = comdat any

@_ZStL8__ioinit = internal global %"class.std::ios_base::Init" zeroinitializer, align 1
@__dso_handle = external global i8
@_ZN5boostL4noneE = internal global %"struct.boost::none_t" zeroinitializer, align 1
@_ZN5boost6detailL28make_color_map_from_arg_packE = internal global %"class.boost::detail::make_property_map_from_arg_pack_gen" zeroinitializer, align 4
@.str = private unnamed_addr constant [15 x i8] c"after_callback\00", section "llvm.metadata"
@.str.3 = private unnamed_addr constant [130 x i8] c"/home/sreeram/Dev/mastersthesis/userspace_implementation_thesis_ver/MemoryCheck/src/Benchmark/../../include/Benchmark/benchmark.h\00", section "llvm.metadata"
@.str.4 = private unnamed_addr constant [16 x i8] c"before_callback\00", section "llvm.metadata"
@_ZN14shared_pointer1xE = global i32 0, align 4
@.str.5 = private unnamed_addr constant [5 x i8] c"gvar\00", section "llvm.metadata"
@.str.6 = private unnamed_addr constant [113 x i8] c"/home/sreeram/Dev/mastersthesis/userspace_implementation_thesis_ver/MemoryCheck/src/Benchmark/shared_pointer.cpp\00", section "llvm.metadata"
@_ZN14shared_pointer1yE = global i32 0, align 4
@_ZN14shared_pointer2c1E = global i32 0, align 4
@_ZN14shared_pointer2c2E = global i32 0, align 4
@_ZN14shared_pointer1pE = global i32* null, align 8
@_ZN14shared_pointer12THREAD_COUNTE = constant i32 2, align 4
@_ZSt4cout = external global %"class.std::basic_ostream", align 8
@.str.7 = private unnamed_addr constant [5 x i8] c"ignr\00", section "llvm.metadata"
@_ZTVNSt6thread11_State_implISt12_Bind_simpleIFSt7_Mem_fnIMN14shared_pointer7Thread1EFvvEEPS4_EEEE = linkonce_odr unnamed_addr constant [5 x i8*] [i8* null, i8* bitcast ({ i8*, i8*, i8* }* @_ZTINSt6thread11_State_implISt12_Bind_simpleIFSt7_Mem_fnIMN14shared_pointer7Thread1EFvvEEPS4_EEEE to i8*), i8* bitcast (void (%"struct.std::thread::_State_impl"*)* @_ZNSt6thread11_State_implISt12_Bind_simpleIFSt7_Mem_fnIMN14shared_pointer7Thread1EFvvEEPS4_EEED2Ev to i8*), i8* bitcast (void (%"struct.std::thread::_State_impl"*)* @_ZNSt6thread11_State_implISt12_Bind_simpleIFSt7_Mem_fnIMN14shared_pointer7Thread1EFvvEEPS4_EEED0Ev to i8*), i8* bitcast (void (%"struct.std::thread::_State_impl"*)* @_ZNSt6thread11_State_implISt12_Bind_simpleIFSt7_Mem_fnIMN14shared_pointer7Thread1EFvvEEPS4_EEE6_M_runEv to i8*)], comdat, align 8
@_ZTVN10__cxxabiv120__si_class_type_infoE = external global i8*
@_ZTSNSt6thread11_State_implISt12_Bind_simpleIFSt7_Mem_fnIMN14shared_pointer7Thread1EFvvEEPS4_EEEE = linkonce_odr constant [94 x i8] c"NSt6thread11_State_implISt12_Bind_simpleIFSt7_Mem_fnIMN14shared_pointer7Thread1EFvvEEPS4_EEEE\00", comdat
@_ZTINSt6thread6_StateE = external constant i8*
@_ZTINSt6thread11_State_implISt12_Bind_simpleIFSt7_Mem_fnIMN14shared_pointer7Thread1EFvvEEPS4_EEEE = linkonce_odr constant { i8*, i8*, i8* } { i8* bitcast (i8** getelementptr inbounds (i8*, i8** @_ZTVN10__cxxabiv120__si_class_type_infoE, i64 2) to i8*), i8* getelementptr inbounds ([94 x i8], [94 x i8]* @_ZTSNSt6thread11_State_implISt12_Bind_simpleIFSt7_Mem_fnIMN14shared_pointer7Thread1EFvvEEPS4_EEEE, i32 0, i32 0), i8* bitcast (i8** @_ZTINSt6thread6_StateE to i8*) }, comdat
@_ZTVNSt6thread6_StateE = external unnamed_addr constant [5 x i8*]
@.str.8 = private unnamed_addr constant [17 x i8] c"3 <= x && y <= 9\00", align 1
@.str.9 = private unnamed_addr constant [113 x i8] c"/home/sreeram/Dev/mastersthesis/userspace_implementation_thesis_ver/MemoryCheck/src/Benchmark/shared_pointer.cpp\00", align 1
@__PRETTY_FUNCTION__._ZN14shared_pointer7Thread14execEv = private unnamed_addr constant [37 x i8] c"void shared_pointer::Thread1::exec()\00", align 1
@_ZTVNSt6thread11_State_implISt12_Bind_simpleIFSt7_Mem_fnIMN14shared_pointer7Thread2EFvvEEPS4_EEEE = linkonce_odr unnamed_addr constant [5 x i8*] [i8* null, i8* bitcast ({ i8*, i8*, i8* }* @_ZTINSt6thread11_State_implISt12_Bind_simpleIFSt7_Mem_fnIMN14shared_pointer7Thread2EFvvEEPS4_EEEE to i8*), i8* bitcast (void (%"struct.std::thread::_State_impl.18"*)* @_ZNSt6thread11_State_implISt12_Bind_simpleIFSt7_Mem_fnIMN14shared_pointer7Thread2EFvvEEPS4_EEED2Ev to i8*), i8* bitcast (void (%"struct.std::thread::_State_impl.18"*)* @_ZNSt6thread11_State_implISt12_Bind_simpleIFSt7_Mem_fnIMN14shared_pointer7Thread2EFvvEEPS4_EEED0Ev to i8*), i8* bitcast (void (%"struct.std::thread::_State_impl.18"*)* @_ZNSt6thread11_State_implISt12_Bind_simpleIFSt7_Mem_fnIMN14shared_pointer7Thread2EFvvEEPS4_EEE6_M_runEv to i8*)], comdat, align 8
@_ZTSNSt6thread11_State_implISt12_Bind_simpleIFSt7_Mem_fnIMN14shared_pointer7Thread2EFvvEEPS4_EEEE = linkonce_odr constant [94 x i8] c"NSt6thread11_State_implISt12_Bind_simpleIFSt7_Mem_fnIMN14shared_pointer7Thread2EFvvEEPS4_EEEE\00", comdat
@_ZTINSt6thread11_State_implISt12_Bind_simpleIFSt7_Mem_fnIMN14shared_pointer7Thread2EFvvEEPS4_EEEE = linkonce_odr constant { i8*, i8*, i8* } { i8* bitcast (i8** getelementptr inbounds (i8*, i8** @_ZTVN10__cxxabiv120__si_class_type_infoE, i64 2) to i8*), i8* getelementptr inbounds ([94 x i8], [94 x i8]* @_ZTSNSt6thread11_State_implISt12_Bind_simpleIFSt7_Mem_fnIMN14shared_pointer7Thread2EFvvEEPS4_EEEE, i32 0, i32 0), i8* bitcast (i8** @_ZTINSt6thread6_StateE to i8*) }, comdat
@__PRETTY_FUNCTION__._ZN14shared_pointer7Thread24execEv = private unnamed_addr constant [37 x i8] c"void shared_pointer::Thread2::exec()\00", align 1
@llvm.global_ctors = appending global [1 x { i32, void ()*, i8* }] [{ i32, void ()*, i8* } { i32 65535, void ()* @_GLOBAL__sub_I_shared_pointer.cpp, i8* null }]
@llvm.global.annotations = appending global [6 x { i8*, i8*, i8*, i32 }] [{ i8*, i8*, i8*, i32 } { i8* bitcast (void (i32)* @_Z9__afterMAi to i8*), i8* getelementptr inbounds ([15 x i8], [15 x i8]* @.str, i32 0, i32 0), i8* getelementptr inbounds ([130 x i8], [130 x i8]* @.str.3, i32 0, i32 0), i32 23 }, { i8*, i8*, i8*, i32 } { i8* bitcast (void (i32, i8*, i64, i32)* @_Z10__beforeMAiPvli to i8*), i8* getelementptr inbounds ([16 x i8], [16 x i8]* @.str.4, i32 0, i32 0), i8* getelementptr inbounds ([130 x i8], [130 x i8]* @.str.3, i32 0, i32 0), i32 26 }, { i8*, i8*, i8*, i32 } { i8* bitcast (i32* @_ZN14shared_pointer1xE to i8*), i8* getelementptr inbounds ([5 x i8], [5 x i8]* @.str.5, i32 0, i32 0), i8* getelementptr inbounds ([113 x i8], [113 x i8]* @.str.6, i32 0, i32 0), i32 12 }, { i8*, i8*, i8*, i32 } { i8* bitcast (i32* @_ZN14shared_pointer1yE to i8*), i8* getelementptr inbounds ([5 x i8], [5 x i8]* @.str.5, i32 0, i32 0), i8* getelementptr inbounds ([113 x i8], [113 x i8]* @.str.6, i32 0, i32 0), i32 13 }, { i8*, i8*, i8*, i32 } { i8* bitcast (i32** @_ZN14shared_pointer1pE to i8*), i8* getelementptr inbounds ([5 x i8], [5 x i8]* @.str.5, i32 0, i32 0), i8* getelementptr inbounds ([113 x i8], [113 x i8]* @.str.6, i32 0, i32 0), i32 16 }, { i8*, i8*, i8*, i32 } { i8* bitcast (void ()* @_ZN14shared_pointer13run_benchmarkEv to i8*), i8* getelementptr inbounds ([5 x i8], [5 x i8]* @.str.7, i32 0, i32 0), i8* getelementptr inbounds ([113 x i8], [113 x i8]* @.str.6, i32 0, i32 0), i32 66 }], section "llvm.metadata"
@llvm.used = appending global [2 x i8*] [i8* bitcast (i32 (%"class.shared_pointer::Thread1"*)* @_ZN14shared_pointer7Thread111getThreadIdEv to i8*), i8* bitcast (i32 (%"class.shared_pointer::Thread2"*)* @_ZN14shared_pointer7Thread211getThreadIdEv to i8*)], section "llvm.metadata"

; Function Attrs: uwtable
define internal void @__cxx_global_var_init() #0 section ".text.startup" !dbg !2766 {
  call void @_ZNSt8ios_base4InitC1Ev(%"class.std::ios_base::Init"* @_ZStL8__ioinit), !dbg !2767
  %1 = call i32 @__cxa_atexit(void (i8*)* bitcast (void (%"class.std::ios_base::Init"*)* @_ZNSt8ios_base4InitD1Ev to void (i8*)*), i8* getelementptr inbounds (%"class.std::ios_base::Init", %"class.std::ios_base::Init"* @_ZStL8__ioinit, i32 0, i32 0), i8* @__dso_handle) #3, !dbg !2768
  ret void, !dbg !2767
}

declare void @_ZNSt8ios_base4InitC1Ev(%"class.std::ios_base::Init"*) unnamed_addr #1

; Function Attrs: nounwind
declare void @_ZNSt8ios_base4InitD1Ev(%"class.std::ios_base::Init"*) unnamed_addr #2

; Function Attrs: nounwind
declare i32 @__cxa_atexit(void (i8*)*, i8*, i8*) #3

; Function Attrs: uwtable
define internal void @__cxx_global_var_init.1() #0 section ".text.startup" !dbg !2770 {
  %1 = alloca %"struct.boost::none_t::init_tag", align 1
  call void @_ZN5boost6none_tC2ENS0_8init_tagE(%"struct.boost::none_t"* @_ZN5boostL4noneE), !dbg !2771
  ret void, !dbg !2772
}

; Function Attrs: nounwind uwtable
define linkonce_odr void @_ZN5boost6none_tC2ENS0_8init_tagE(%"struct.boost::none_t"*) unnamed_addr #4 comdat align 2 !dbg !2773 {
  %2 = alloca %"struct.boost::none_t::init_tag", align 1
  %3 = alloca %"struct.boost::none_t"*, align 8
  store %"struct.boost::none_t"* %0, %"struct.boost::none_t"** %3, align 8
  call void @llvm.dbg.declare(metadata %"struct.boost::none_t"** %3, metadata !2774, metadata !2776), !dbg !2777
  call void @llvm.dbg.declare(metadata %"struct.boost::none_t::init_tag"* %2, metadata !2778, metadata !2776), !dbg !2779
  %4 = load %"struct.boost::none_t"*, %"struct.boost::none_t"** %3, align 8
  ret void, !dbg !2780
}

; Function Attrs: uwtable
define internal void @__cxx_global_var_init.2() #0 section ".text.startup" !dbg !2781 {
  call void @_ZN5boost6detail35make_property_map_from_arg_pack_genINS_5graph8keywords3tag9color_mapENS_18default_color_typeEEC2ES6_(%"class.boost::detail::make_property_map_from_arg_pack_gen"* @_ZN5boost6detailL28make_color_map_from_arg_packE, i32 0), !dbg !2782
  ret void, !dbg !2783
}

; Function Attrs: nounwind uwtable
define linkonce_odr void @_ZN5boost6detail35make_property_map_from_arg_pack_genINS_5graph8keywords3tag9color_mapENS_18default_color_typeEEC2ES6_(%"class.boost::detail::make_property_map_from_arg_pack_gen"*, i32) unnamed_addr #4 comdat align 2 !dbg !2784 {
  %3 = alloca %"class.boost::detail::make_property_map_from_arg_pack_gen"*, align 8
  %4 = alloca i32, align 4
  store %"class.boost::detail::make_property_map_from_arg_pack_gen"* %0, %"class.boost::detail::make_property_map_from_arg_pack_gen"** %3, align 8
  call void @llvm.dbg.declare(metadata %"class.boost::detail::make_property_map_from_arg_pack_gen"** %3, metadata !2785, metadata !2776), !dbg !2787
  store i32 %1, i32* %4, align 4
  call void @llvm.dbg.declare(metadata i32* %4, metadata !2788, metadata !2776), !dbg !2789
  %5 = load %"class.boost::detail::make_property_map_from_arg_pack_gen"*, %"class.boost::detail::make_property_map_from_arg_pack_gen"** %3, align 8
  %6 = getelementptr inbounds %"class.boost::detail::make_property_map_from_arg_pack_gen", %"class.boost::detail::make_property_map_from_arg_pack_gen"* %5, i32 0, i32 0, !dbg !2790
  %7 = load i32, i32* %4, align 4, !dbg !2791
  store i32 %7, i32* %6, align 4, !dbg !2790
  ret void, !dbg !2792
}

; Function Attrs: uwtable
define void @_Z9__afterMAi(i32) #0 !dbg !2793 {
  %2 = alloca i32, align 4
  store i32 %0, i32* %2, align 4
  call void @llvm.dbg.declare(metadata i32* %2, metadata !2795, metadata !2776), !dbg !2796
  %3 = load i32, i32* %2, align 4, !dbg !2797
  call void @_ZN7Runtime7afterMAEi(i32 %3), !dbg !2798
  ret void, !dbg !2799
}

; Function Attrs: nounwind readnone
declare void @llvm.dbg.declare(metadata, metadata, metadata) #5

declare void @_ZN7Runtime7afterMAEi(i32) #1

; Function Attrs: uwtable
define void @_Z10__beforeMAiPvli(i32, i8*, i64, i32) #0 !dbg !2800 {
  %5 = alloca i32, align 4
  %6 = alloca i8*, align 8
  %7 = alloca i64, align 8
  %8 = alloca i32, align 4
  store i32 %0, i32* %5, align 4
  call void @llvm.dbg.declare(metadata i32* %5, metadata !2803, metadata !2776), !dbg !2804
  store i8* %1, i8** %6, align 8
  call void @llvm.dbg.declare(metadata i8** %6, metadata !2805, metadata !2776), !dbg !2806
  store i64 %2, i64* %7, align 8
  call void @llvm.dbg.declare(metadata i64* %7, metadata !2807, metadata !2776), !dbg !2808
  store i32 %3, i32* %8, align 4
  call void @llvm.dbg.declare(metadata i32* %8, metadata !2809, metadata !2776), !dbg !2810
  %9 = load i32, i32* %5, align 4, !dbg !2811
  %10 = load i8*, i8** %6, align 8, !dbg !2812
  %11 = load i32, i32* %8, align 4, !dbg !2813
  %12 = icmp ne i32 %11, 0, !dbg !2813
  call void @_ZN7Runtime8beforeMAEiPvb(i32 %9, i8* %10, i1 zeroext %12), !dbg !2814
  ret void, !dbg !2815
}

declare void @_ZN7Runtime8beforeMAEiPvb(i32, i8*, i1 zeroext) #1

; Function Attrs: noinline uwtable
define linkonce_odr i32 @_ZN14shared_pointer7Thread111getThreadIdEv(%"class.shared_pointer::Thread1"*) #6 comdat align 2 !dbg !2816 {
  %2 = alloca %"class.shared_pointer::Thread1"*, align 8
  store %"class.shared_pointer::Thread1"* %0, %"class.shared_pointer::Thread1"** %2, align 8
  call void @llvm.dbg.declare(metadata %"class.shared_pointer::Thread1"** %2, metadata !2817, metadata !2776), !dbg !2818
  %3 = load %"class.shared_pointer::Thread1"*, %"class.shared_pointer::Thread1"** %2, align 8
  %4 = getelementptr inbounds %"class.shared_pointer::Thread1", %"class.shared_pointer::Thread1"* %3, i32 0, i32 0, !dbg !2819
  %5 = call i32 @_ZNK9IrsThread6getTidEv(%class.IrsThread* %4), !dbg !2820
  ret i32 %5, !dbg !2821
}

; Function Attrs: nounwind uwtable
define linkonce_odr i32 @_ZNK9IrsThread6getTidEv(%class.IrsThread*) #4 comdat align 2 !dbg !2822 {
  %2 = alloca %class.IrsThread*, align 8
  store %class.IrsThread* %0, %class.IrsThread** %2, align 8
  call void @llvm.dbg.declare(metadata %class.IrsThread** %2, metadata !2823, metadata !2776), !dbg !2825
  %3 = load %class.IrsThread*, %class.IrsThread** %2, align 8
  %4 = getelementptr inbounds %class.IrsThread, %class.IrsThread* %3, i32 0, i32 1, !dbg !2826
  %5 = load i32, i32* %4, align 8, !dbg !2826
  ret i32 %5, !dbg !2827
}

; Function Attrs: noinline uwtable
define linkonce_odr i32 @_ZN14shared_pointer7Thread211getThreadIdEv(%"class.shared_pointer::Thread2"*) #6 comdat align 2 !dbg !2828 {
  %2 = alloca %"class.shared_pointer::Thread2"*, align 8
  store %"class.shared_pointer::Thread2"* %0, %"class.shared_pointer::Thread2"** %2, align 8
  call void @llvm.dbg.declare(metadata %"class.shared_pointer::Thread2"** %2, metadata !2829, metadata !2776), !dbg !2830
  %3 = load %"class.shared_pointer::Thread2"*, %"class.shared_pointer::Thread2"** %2, align 8
  %4 = getelementptr inbounds %"class.shared_pointer::Thread2", %"class.shared_pointer::Thread2"* %3, i32 0, i32 0, !dbg !2831
  %5 = call i32 @_ZNK9IrsThread6getTidEv(%class.IrsThread* %4), !dbg !2832
  ret i32 %5, !dbg !2833
}

; Function Attrs: uwtable
define void @_ZN14shared_pointer13run_benchmarkEv() #0 personality i8* bitcast (i32 (...)* @__gxx_personality_v0 to i8*) !dbg !2834 {
  %1 = alloca %"struct.std::chrono::time_point", align 8
  %2 = alloca %"class.shared_pointer::Thread1", align 8
  %3 = alloca i8*
  %4 = alloca i32
  %5 = alloca %"class.shared_pointer::Thread2", align 8
  %6 = alloca %"struct.std::chrono::time_point", align 8
  %7 = alloca i64, align 8
  %8 = alloca %"struct.std::chrono::duration", align 8
  %9 = alloca %"struct.std::chrono::duration.0", align 8
  store i32 3, i32* @_ZN14shared_pointer1xE, align 4, !dbg !2835
  store i32 4, i32* @_ZN14shared_pointer1yE, align 4, !dbg !2836
  store i32 0, i32* @_ZN14shared_pointer2c1E, align 4, !dbg !2837
  store i32 0, i32* @_ZN14shared_pointer2c2E, align 4, !dbg !2838
  call void @llvm.dbg.declare(metadata %"struct.std::chrono::time_point"* %1, metadata !2839, metadata !2776), !dbg !2886
  %10 = call i64 @_ZNSt6chrono3_V212system_clock3nowEv() #3, !dbg !2886
  %11 = getelementptr inbounds %"struct.std::chrono::time_point", %"struct.std::chrono::time_point"* %1, i32 0, i32 0, !dbg !2886
  %12 = getelementptr inbounds %"struct.std::chrono::duration", %"struct.std::chrono::duration"* %11, i32 0, i32 0, !dbg !2886
  store i64 %10, i64* %12, align 8, !dbg !2886
  call void @llvm.dbg.declare(metadata %"class.shared_pointer::Thread1"* %2, metadata !2887, metadata !2776), !dbg !2888
  call void @_ZN14shared_pointer7Thread1C2Ei(%"class.shared_pointer::Thread1"* %2, i32 0), !dbg !2888
  invoke void @_ZN14shared_pointer7Thread15startEv(%"class.shared_pointer::Thread1"* %2)
          to label %13 unwind label %34, !dbg !2889

; <label>:13:                                     ; preds = %0
  call void @llvm.dbg.declare(metadata %"class.shared_pointer::Thread2"* %5, metadata !2890, metadata !2776), !dbg !2891
  invoke void @_ZN14shared_pointer7Thread2C2Ei(%"class.shared_pointer::Thread2"* %5, i32 1)
          to label %14 unwind label %34, !dbg !2891

; <label>:14:                                     ; preds = %13
  invoke void @_ZN14shared_pointer7Thread25startEv(%"class.shared_pointer::Thread2"* %5)
          to label %15 unwind label %38, !dbg !2892

; <label>:15:                                     ; preds = %14
  invoke void @_ZN14shared_pointer7Thread14joinEv(%"class.shared_pointer::Thread1"* %2)
          to label %16 unwind label %38, !dbg !2893

; <label>:16:                                     ; preds = %15
  invoke void @_ZN14shared_pointer7Thread24joinEv(%"class.shared_pointer::Thread2"* %5)
          to label %17 unwind label %38, !dbg !2894

; <label>:17:                                     ; preds = %16
  call void @llvm.dbg.declare(metadata %"struct.std::chrono::time_point"* %6, metadata !2895, metadata !2776), !dbg !2896
  %18 = call i64 @_ZNSt6chrono3_V212system_clock3nowEv() #3, !dbg !2896
  %19 = getelementptr inbounds %"struct.std::chrono::time_point", %"struct.std::chrono::time_point"* %6, i32 0, i32 0, !dbg !2896
  %20 = getelementptr inbounds %"struct.std::chrono::duration", %"struct.std::chrono::duration"* %19, i32 0, i32 0, !dbg !2896
  store i64 %18, i64* %20, align 8, !dbg !2896
  call void @llvm.dbg.declare(metadata i64* %7, metadata !2897, metadata !2776), !dbg !2896
  %21 = invoke i64 @_ZNSt6chronomiINS_3_V212system_clockENS_8durationIlSt5ratioILl1ELl1000000000EEEES6_EENSt11common_typeIJT0_T1_EE4typeERKNS_10time_pointIT_S8_EERKNSC_ISD_S9_EE(%"struct.std::chrono::time_point"* dereferenceable(8) %6, %"struct.std::chrono::time_point"* dereferenceable(8) %1)
          to label %22 unwind label %38, !dbg !2896

; <label>:22:                                     ; preds = %17
  %23 = getelementptr inbounds %"struct.std::chrono::duration", %"struct.std::chrono::duration"* %8, i32 0, i32 0, !dbg !2898
  store i64 %21, i64* %23, align 8, !dbg !2898
  %24 = invoke i64 @_ZNSt6chrono13duration_castINS_8durationIlSt5ratioILl1ELl1000000EEEElS2_ILl1ELl1000000000EEEENSt9enable_ifIXsr13__is_durationIT_EE5valueES7_E4typeERKNS1_IT0_T1_EE(%"struct.std::chrono::duration"* dereferenceable(8) %8)
          to label %25 unwind label %38, !dbg !2898

; <label>:25:                                     ; preds = %22
  %26 = getelementptr inbounds %"struct.std::chrono::duration.0", %"struct.std::chrono::duration.0"* %9, i32 0, i32 0, !dbg !2900
  store i64 %24, i64* %26, align 8, !dbg !2900
  %27 = invoke i64 @_ZNKSt6chrono8durationIlSt5ratioILl1ELl1000000EEE5countEv(%"struct.std::chrono::duration.0"* %9)
          to label %28 unwind label %38, !dbg !2900

; <label>:28:                                     ; preds = %25
  store i64 %27, i64* %7, align 8, !dbg !2902
  %29 = load i64, i64* %7, align 8, !dbg !2902
  %30 = invoke dereferenceable(272) %"class.std::basic_ostream"* @_ZNSolsEl(%"class.std::basic_ostream"* @_ZSt4cout, i64 %29)
          to label %31 unwind label %38, !dbg !2902

; <label>:31:                                     ; preds = %28
  %32 = invoke dereferenceable(272) %"class.std::basic_ostream"* @_ZNSolsEPFRSoS_E(%"class.std::basic_ostream"* %30, %"class.std::basic_ostream"* (%"class.std::basic_ostream"*)* @_ZSt4endlIcSt11char_traitsIcEERSt13basic_ostreamIT_T0_ES6_)
          to label %33 unwind label %38, !dbg !2904

; <label>:33:                                     ; preds = %31
  call void @_ZN14shared_pointer7Thread2D2Ev(%"class.shared_pointer::Thread2"* %5) #3, !dbg !2906
  call void @_ZN14shared_pointer7Thread1D2Ev(%"class.shared_pointer::Thread1"* %2) #3, !dbg !2907
  ret void, !dbg !2906

; <label>:34:                                     ; preds = %13, %0
  %35 = landingpad { i8*, i32 }
          cleanup, !dbg !2909
  %36 = extractvalue { i8*, i32 } %35, 0, !dbg !2909
  store i8* %36, i8** %3, align 8, !dbg !2909
  %37 = extractvalue { i8*, i32 } %35, 1, !dbg !2909
  store i32 %37, i32* %4, align 4, !dbg !2909
  br label %42, !dbg !2909

; <label>:38:                                     ; preds = %31, %28, %25, %22, %17, %16, %15, %14
  %39 = landingpad { i8*, i32 }
          cleanup, !dbg !2910
  %40 = extractvalue { i8*, i32 } %39, 0, !dbg !2910
  store i8* %40, i8** %3, align 8, !dbg !2910
  %41 = extractvalue { i8*, i32 } %39, 1, !dbg !2910
  store i32 %41, i32* %4, align 4, !dbg !2910
  call void @_ZN14shared_pointer7Thread2D2Ev(%"class.shared_pointer::Thread2"* %5) #3, !dbg !2910
  br label %42, !dbg !2910

; <label>:42:                                     ; preds = %38, %34
  call void @_ZN14shared_pointer7Thread1D2Ev(%"class.shared_pointer::Thread1"* %2) #3, !dbg !2911
  br label %43, !dbg !2911

; <label>:43:                                     ; preds = %42
  %44 = load i8*, i8** %3, align 8, !dbg !2912
  %45 = load i32, i32* %4, align 4, !dbg !2912
  %46 = insertvalue { i8*, i32 } undef, i8* %44, 0, !dbg !2912
  %47 = insertvalue { i8*, i32 } %46, i32 %45, 1, !dbg !2912
  resume { i8*, i32 } %47, !dbg !2912
}

; Function Attrs: nounwind
declare i64 @_ZNSt6chrono3_V212system_clock3nowEv() #2

; Function Attrs: uwtable
define linkonce_odr void @_ZN14shared_pointer7Thread1C2Ei(%"class.shared_pointer::Thread1"*, i32) unnamed_addr #0 comdat align 2 !dbg !2913 {
  %3 = alloca %"class.shared_pointer::Thread1"*, align 8
  %4 = alloca i32, align 4
  store %"class.shared_pointer::Thread1"* %0, %"class.shared_pointer::Thread1"** %3, align 8
  call void @llvm.dbg.declare(metadata %"class.shared_pointer::Thread1"** %3, metadata !2914, metadata !2776), !dbg !2915
  store i32 %1, i32* %4, align 4
  call void @llvm.dbg.declare(metadata i32* %4, metadata !2916, metadata !2776), !dbg !2917
  %5 = load %"class.shared_pointer::Thread1"*, %"class.shared_pointer::Thread1"** %3, align 8
  %6 = getelementptr inbounds %"class.shared_pointer::Thread1", %"class.shared_pointer::Thread1"* %5, i32 0, i32 0, !dbg !2918
  %7 = load i32, i32* %4, align 4, !dbg !2919
  call void @_ZN9IrsThreadC2Ei(%class.IrsThread* %6, i32 %7), !dbg !2918
  ret void, !dbg !2920
}

; Function Attrs: uwtable
define linkonce_odr void @_ZN14shared_pointer7Thread15startEv(%"class.shared_pointer::Thread1"*) #0 comdat align 2 !dbg !2921 {
  %2 = alloca %"class.shared_pointer::Thread1"*, align 8
  %3 = alloca { i64, i64 }, align 8
  %4 = alloca %"class.shared_pointer::Thread1"*, align 8
  store %"class.shared_pointer::Thread1"* %0, %"class.shared_pointer::Thread1"** %2, align 8
  call void @llvm.dbg.declare(metadata %"class.shared_pointer::Thread1"** %2, metadata !2922, metadata !2776), !dbg !2923
  %5 = load %"class.shared_pointer::Thread1"*, %"class.shared_pointer::Thread1"** %2, align 8
  %6 = getelementptr inbounds %"class.shared_pointer::Thread1", %"class.shared_pointer::Thread1"* %5, i32 0, i32 0, !dbg !2924
  store { i64, i64 } { i64 ptrtoint (void (%"class.shared_pointer::Thread1"*)* @_ZN14shared_pointer7Thread14execEv to i64), i64 0 }, { i64, i64 }* %3, align 8, !dbg !2925
  store %"class.shared_pointer::Thread1"* %5, %"class.shared_pointer::Thread1"** %4, align 8, !dbg !2926
  call void @_ZN9IrsThreadclIJMN14shared_pointer7Thread1EFvvEPS2_EEEvDpOT_(%class.IrsThread* %6, { i64, i64 }* dereferenceable(16) %3, %"class.shared_pointer::Thread1"** dereferenceable(8) %4), !dbg !2924
  ret void, !dbg !2927
}

declare i32 @__gxx_personality_v0(...)

; Function Attrs: uwtable
define linkonce_odr void @_ZN14shared_pointer7Thread2C2Ei(%"class.shared_pointer::Thread2"*, i32) unnamed_addr #0 comdat align 2 !dbg !2928 {
  %3 = alloca %"class.shared_pointer::Thread2"*, align 8
  %4 = alloca i32, align 4
  store %"class.shared_pointer::Thread2"* %0, %"class.shared_pointer::Thread2"** %3, align 8
  call void @llvm.dbg.declare(metadata %"class.shared_pointer::Thread2"** %3, metadata !2929, metadata !2776), !dbg !2930
  store i32 %1, i32* %4, align 4
  call void @llvm.dbg.declare(metadata i32* %4, metadata !2931, metadata !2776), !dbg !2932
  %5 = load %"class.shared_pointer::Thread2"*, %"class.shared_pointer::Thread2"** %3, align 8
  %6 = getelementptr inbounds %"class.shared_pointer::Thread2", %"class.shared_pointer::Thread2"* %5, i32 0, i32 0, !dbg !2933
  %7 = load i32, i32* %4, align 4, !dbg !2934
  call void @_ZN9IrsThreadC2Ei(%class.IrsThread* %6, i32 %7), !dbg !2933
  ret void, !dbg !2935
}

; Function Attrs: uwtable
define linkonce_odr void @_ZN14shared_pointer7Thread25startEv(%"class.shared_pointer::Thread2"*) #0 comdat align 2 !dbg !2936 {
  %2 = alloca %"class.shared_pointer::Thread2"*, align 8
  %3 = alloca { i64, i64 }, align 8
  %4 = alloca %"class.shared_pointer::Thread2"*, align 8
  store %"class.shared_pointer::Thread2"* %0, %"class.shared_pointer::Thread2"** %2, align 8
  call void @llvm.dbg.declare(metadata %"class.shared_pointer::Thread2"** %2, metadata !2937, metadata !2776), !dbg !2938
  %5 = load %"class.shared_pointer::Thread2"*, %"class.shared_pointer::Thread2"** %2, align 8
  %6 = getelementptr inbounds %"class.shared_pointer::Thread2", %"class.shared_pointer::Thread2"* %5, i32 0, i32 0, !dbg !2939
  store { i64, i64 } { i64 ptrtoint (void (%"class.shared_pointer::Thread2"*)* @_ZN14shared_pointer7Thread24execEv to i64), i64 0 }, { i64, i64 }* %3, align 8, !dbg !2940
  store %"class.shared_pointer::Thread2"* %5, %"class.shared_pointer::Thread2"** %4, align 8, !dbg !2941
  call void @_ZN9IrsThreadclIJMN14shared_pointer7Thread2EFvvEPS2_EEEvDpOT_(%class.IrsThread* %6, { i64, i64 }* dereferenceable(16) %3, %"class.shared_pointer::Thread2"** dereferenceable(8) %4), !dbg !2939
  ret void, !dbg !2942
}

; Function Attrs: uwtable
define linkonce_odr void @_ZN14shared_pointer7Thread14joinEv(%"class.shared_pointer::Thread1"*) #0 comdat align 2 !dbg !2943 {
  %2 = alloca %"class.shared_pointer::Thread1"*, align 8
  store %"class.shared_pointer::Thread1"* %0, %"class.shared_pointer::Thread1"** %2, align 8
  call void @llvm.dbg.declare(metadata %"class.shared_pointer::Thread1"** %2, metadata !2944, metadata !2776), !dbg !2945
  %3 = load %"class.shared_pointer::Thread1"*, %"class.shared_pointer::Thread1"** %2, align 8
  %4 = getelementptr inbounds %"class.shared_pointer::Thread1", %"class.shared_pointer::Thread1"* %3, i32 0, i32 0, !dbg !2946
  call void @_ZN9IrsThread4joinEv(%class.IrsThread* %4), !dbg !2947
  ret void, !dbg !2948
}

; Function Attrs: uwtable
define linkonce_odr void @_ZN14shared_pointer7Thread24joinEv(%"class.shared_pointer::Thread2"*) #0 comdat align 2 !dbg !2949 {
  %2 = alloca %"class.shared_pointer::Thread2"*, align 8
  store %"class.shared_pointer::Thread2"* %0, %"class.shared_pointer::Thread2"** %2, align 8
  call void @llvm.dbg.declare(metadata %"class.shared_pointer::Thread2"** %2, metadata !2950, metadata !2776), !dbg !2951
  %3 = load %"class.shared_pointer::Thread2"*, %"class.shared_pointer::Thread2"** %2, align 8
  %4 = getelementptr inbounds %"class.shared_pointer::Thread2", %"class.shared_pointer::Thread2"* %3, i32 0, i32 0, !dbg !2952
  call void @_ZN9IrsThread4joinEv(%class.IrsThread* %4), !dbg !2953
  ret void, !dbg !2954
}

; Function Attrs: uwtable
define linkonce_odr i64 @_ZNSt6chrono13duration_castINS_8durationIlSt5ratioILl1ELl1000000EEEElS2_ILl1ELl1000000000EEEENSt9enable_ifIXsr13__is_durationIT_EE5valueES7_E4typeERKNS1_IT0_T1_EE(%"struct.std::chrono::duration"* dereferenceable(8)) #0 comdat !dbg !2955 {
  %2 = alloca %"struct.std::chrono::duration.0", align 8
  %3 = alloca %"struct.std::chrono::duration"*, align 8
  store %"struct.std::chrono::duration"* %0, %"struct.std::chrono::duration"** %3, align 8
  call void @llvm.dbg.declare(metadata %"struct.std::chrono::duration"** %3, metadata !2964, metadata !2776), !dbg !2965
  %4 = load %"struct.std::chrono::duration"*, %"struct.std::chrono::duration"** %3, align 8, !dbg !2966
  %5 = call i64 @_ZNSt6chrono20__duration_cast_implINS_8durationIlSt5ratioILl1ELl1000000EEEES2_ILl1ELl1000EElLb1ELb0EE6__castIlS2_ILl1ELl1000000000EEEES4_RKNS1_IT_T0_EE(%"struct.std::chrono::duration"* dereferenceable(8) %4), !dbg !2967
  %6 = getelementptr inbounds %"struct.std::chrono::duration.0", %"struct.std::chrono::duration.0"* %2, i32 0, i32 0, !dbg !2967
  store i64 %5, i64* %6, align 8, !dbg !2967
  %7 = getelementptr inbounds %"struct.std::chrono::duration.0", %"struct.std::chrono::duration.0"* %2, i32 0, i32 0, !dbg !2968
  %8 = load i64, i64* %7, align 8, !dbg !2968
  ret i64 %8, !dbg !2968
}

; Function Attrs: uwtable
define linkonce_odr i64 @_ZNSt6chronomiINS_3_V212system_clockENS_8durationIlSt5ratioILl1ELl1000000000EEEES6_EENSt11common_typeIJT0_T1_EE4typeERKNS_10time_pointIT_S8_EERKNSC_ISD_S9_EE(%"struct.std::chrono::time_point"* dereferenceable(8), %"struct.std::chrono::time_point"* dereferenceable(8)) #0 comdat !dbg !2969 {
  %3 = alloca %"struct.std::chrono::duration", align 8
  %4 = alloca %"struct.std::chrono::time_point"*, align 8
  %5 = alloca %"struct.std::chrono::time_point"*, align 8
  %6 = alloca %"struct.std::chrono::duration", align 8
  %7 = alloca %"struct.std::chrono::duration", align 8
  store %"struct.std::chrono::time_point"* %0, %"struct.std::chrono::time_point"** %4, align 8
  call void @llvm.dbg.declare(metadata %"struct.std::chrono::time_point"** %4, metadata !2976, metadata !2776), !dbg !2977
  store %"struct.std::chrono::time_point"* %1, %"struct.std::chrono::time_point"** %5, align 8
  call void @llvm.dbg.declare(metadata %"struct.std::chrono::time_point"** %5, metadata !2978, metadata !2776), !dbg !2979
  %8 = load %"struct.std::chrono::time_point"*, %"struct.std::chrono::time_point"** %4, align 8, !dbg !2980
  %9 = call i64 @_ZNKSt6chrono10time_pointINS_3_V212system_clockENS_8durationIlSt5ratioILl1ELl1000000000EEEEE16time_since_epochEv(%"struct.std::chrono::time_point"* %8), !dbg !2981
  %10 = getelementptr inbounds %"struct.std::chrono::duration", %"struct.std::chrono::duration"* %6, i32 0, i32 0, !dbg !2981
  store i64 %9, i64* %10, align 8, !dbg !2981
  %11 = load %"struct.std::chrono::time_point"*, %"struct.std::chrono::time_point"** %5, align 8, !dbg !2982
  %12 = call i64 @_ZNKSt6chrono10time_pointINS_3_V212system_clockENS_8durationIlSt5ratioILl1ELl1000000000EEEEE16time_since_epochEv(%"struct.std::chrono::time_point"* %11), !dbg !2983
  %13 = getelementptr inbounds %"struct.std::chrono::duration", %"struct.std::chrono::duration"* %7, i32 0, i32 0, !dbg !2985
  store i64 %12, i64* %13, align 8, !dbg !2985
  %14 = call i64 @_ZNSt6chronomiIlSt5ratioILl1ELl1000000000EElS2_EENSt11common_typeIJNS_8durationIT_T0_EENS4_IT1_T2_EEEE4typeERKS7_RKSA_(%"struct.std::chrono::duration"* dereferenceable(8) %6, %"struct.std::chrono::duration"* dereferenceable(8) %7), !dbg !2986
  %15 = getelementptr inbounds %"struct.std::chrono::duration", %"struct.std::chrono::duration"* %3, i32 0, i32 0, !dbg !2988
  store i64 %14, i64* %15, align 8, !dbg !2988
  %16 = getelementptr inbounds %"struct.std::chrono::duration", %"struct.std::chrono::duration"* %3, i32 0, i32 0, !dbg !2989
  %17 = load i64, i64* %16, align 8, !dbg !2989
  ret i64 %17, !dbg !2989
}

; Function Attrs: nounwind uwtable
define linkonce_odr i64 @_ZNKSt6chrono8durationIlSt5ratioILl1ELl1000000EEE5countEv(%"struct.std::chrono::duration.0"*) #4 comdat align 2 !dbg !2990 {
  %2 = alloca %"struct.std::chrono::duration.0"*, align 8
  store %"struct.std::chrono::duration.0"* %0, %"struct.std::chrono::duration.0"** %2, align 8
  call void @llvm.dbg.declare(metadata %"struct.std::chrono::duration.0"** %2, metadata !2991, metadata !2776), !dbg !2993
  %3 = load %"struct.std::chrono::duration.0"*, %"struct.std::chrono::duration.0"** %2, align 8
  %4 = getelementptr inbounds %"struct.std::chrono::duration.0", %"struct.std::chrono::duration.0"* %3, i32 0, i32 0, !dbg !2994
  %5 = load i64, i64* %4, align 8, !dbg !2994
  ret i64 %5, !dbg !2995
}

declare dereferenceable(272) %"class.std::basic_ostream"* @_ZNSolsEl(%"class.std::basic_ostream"*, i64) #1

declare dereferenceable(272) %"class.std::basic_ostream"* @_ZNSolsEPFRSoS_E(%"class.std::basic_ostream"*, %"class.std::basic_ostream"* (%"class.std::basic_ostream"*)*) #1

declare dereferenceable(272) %"class.std::basic_ostream"* @_ZSt4endlIcSt11char_traitsIcEERSt13basic_ostreamIT_T0_ES6_(%"class.std::basic_ostream"* dereferenceable(272)) #1

; Function Attrs: inlinehint nounwind uwtable
define linkonce_odr void @_ZN14shared_pointer7Thread2D2Ev(%"class.shared_pointer::Thread2"*) unnamed_addr #7 comdat align 2 !dbg !2996 {
  %2 = alloca %"class.shared_pointer::Thread2"*, align 8
  store %"class.shared_pointer::Thread2"* %0, %"class.shared_pointer::Thread2"** %2, align 8
  call void @llvm.dbg.declare(metadata %"class.shared_pointer::Thread2"** %2, metadata !2998, metadata !2776), !dbg !2999
  %3 = load %"class.shared_pointer::Thread2"*, %"class.shared_pointer::Thread2"** %2, align 8
  %4 = getelementptr inbounds %"class.shared_pointer::Thread2", %"class.shared_pointer::Thread2"* %3, i32 0, i32 0, !dbg !3000
  call void @_ZN9IrsThreadD2Ev(%class.IrsThread* %4) #3, !dbg !3000
  ret void, !dbg !3002
}

; Function Attrs: inlinehint nounwind uwtable
define linkonce_odr void @_ZN14shared_pointer7Thread1D2Ev(%"class.shared_pointer::Thread1"*) unnamed_addr #7 comdat align 2 !dbg !3003 {
  %2 = alloca %"class.shared_pointer::Thread1"*, align 8
  store %"class.shared_pointer::Thread1"* %0, %"class.shared_pointer::Thread1"** %2, align 8
  call void @llvm.dbg.declare(metadata %"class.shared_pointer::Thread1"** %2, metadata !3005, metadata !2776), !dbg !3006
  %3 = load %"class.shared_pointer::Thread1"*, %"class.shared_pointer::Thread1"** %2, align 8
  %4 = getelementptr inbounds %"class.shared_pointer::Thread1", %"class.shared_pointer::Thread1"* %3, i32 0, i32 0, !dbg !3007
  call void @_ZN9IrsThreadD2Ev(%class.IrsThread* %4) #3, !dbg !3007
  ret void, !dbg !3009
}

; Function Attrs: nounwind uwtable
define linkonce_odr void @_ZN9IrsThreadC2Ei(%class.IrsThread*, i32) unnamed_addr #4 comdat align 2 !dbg !3010 {
  %3 = alloca %class.IrsThread*, align 8
  %4 = alloca i32, align 4
  store %class.IrsThread* %0, %class.IrsThread** %3, align 8
  call void @llvm.dbg.declare(metadata %class.IrsThread** %3, metadata !3011, metadata !2776), !dbg !3013
  store i32 %1, i32* %4, align 4
  call void @llvm.dbg.declare(metadata i32* %4, metadata !3014, metadata !2776), !dbg !3015
  %5 = load %class.IrsThread*, %class.IrsThread** %3, align 8
  %6 = getelementptr inbounds %class.IrsThread, %class.IrsThread* %5, i32 0, i32 0, !dbg !3016
  call void @_ZNSt6threadC2Ev(%"class.std::thread"* %6) #3, !dbg !3016
  %7 = getelementptr inbounds %class.IrsThread, %class.IrsThread* %5, i32 0, i32 1, !dbg !3017
  %8 = load i32, i32* %4, align 4, !dbg !3018
  store i32 %8, i32* %7, align 8, !dbg !3017
  ret void, !dbg !3019
}

; Function Attrs: nounwind uwtable
define linkonce_odr void @_ZNSt6threadC2Ev(%"class.std::thread"*) unnamed_addr #4 comdat align 2 !dbg !3020 {
  %2 = alloca %"class.std::thread"*, align 8
  store %"class.std::thread"* %0, %"class.std::thread"** %2, align 8
  call void @llvm.dbg.declare(metadata %"class.std::thread"** %2, metadata !3021, metadata !2776), !dbg !3023
  %3 = load %"class.std::thread"*, %"class.std::thread"** %2, align 8
  %4 = getelementptr inbounds %"class.std::thread", %"class.std::thread"* %3, i32 0, i32 0, !dbg !3024
  call void @_ZNSt6thread2idC2Ev(%"class.std::thread::id"* %4) #3, !dbg !3024
  ret void, !dbg !3025
}

; Function Attrs: nounwind uwtable
define linkonce_odr void @_ZNSt6thread2idC2Ev(%"class.std::thread::id"*) unnamed_addr #4 comdat align 2 !dbg !3026 {
  %2 = alloca %"class.std::thread::id"*, align 8
  store %"class.std::thread::id"* %0, %"class.std::thread::id"** %2, align 8
  call void @llvm.dbg.declare(metadata %"class.std::thread::id"** %2, metadata !3027, metadata !2776), !dbg !3029
  %3 = load %"class.std::thread::id"*, %"class.std::thread::id"** %2, align 8
  %4 = getelementptr inbounds %"class.std::thread::id", %"class.std::thread::id"* %3, i32 0, i32 0, !dbg !3030
  store i64 0, i64* %4, align 8, !dbg !3030
  ret void, !dbg !3031
}

; Function Attrs: uwtable
define linkonce_odr void @_ZN9IrsThreadclIJMN14shared_pointer7Thread1EFvvEPS2_EEEvDpOT_(%class.IrsThread*, { i64, i64 }* dereferenceable(16), %"class.shared_pointer::Thread1"** dereferenceable(8)) #0 comdat align 2 !dbg !3032 {
  %4 = alloca %class.IrsThread*, align 8
  %5 = alloca { i64, i64 }*, align 8
  %6 = alloca %"class.shared_pointer::Thread1"**, align 8
  %7 = alloca %"class.std::thread", align 8
  store %class.IrsThread* %0, %class.IrsThread** %4, align 8
  call void @llvm.dbg.declare(metadata %class.IrsThread** %4, metadata !3041, metadata !2776), !dbg !3042
  store { i64, i64 }* %1, { i64, i64 }** %5, align 8
  call void @llvm.dbg.declare(metadata { i64, i64 }** %5, metadata !3043, metadata !2776), !dbg !3044
  store %"class.shared_pointer::Thread1"** %2, %"class.shared_pointer::Thread1"*** %6, align 8
  call void @llvm.dbg.declare(metadata %"class.shared_pointer::Thread1"*** %6, metadata !3045, metadata !2776), !dbg !3044
  %8 = load %class.IrsThread*, %class.IrsThread** %4, align 8
  %9 = getelementptr inbounds %class.IrsThread, %class.IrsThread* %8, i32 0, i32 0, !dbg !3046
  %10 = load { i64, i64 }*, { i64, i64 }** %5, align 8, !dbg !3047
  %11 = call dereferenceable(16) { i64, i64 }* @_ZSt7forwardIMN14shared_pointer7Thread1EFvvEEOT_RNSt16remove_referenceIS4_E4typeE({ i64, i64 }* dereferenceable(16) %10) #3, !dbg !3048
  %12 = load %"class.shared_pointer::Thread1"**, %"class.shared_pointer::Thread1"*** %6, align 8, !dbg !3047
  %13 = call dereferenceable(8) %"class.shared_pointer::Thread1"** @_ZSt7forwardIPN14shared_pointer7Thread1EEOT_RNSt16remove_referenceIS3_E4typeE(%"class.shared_pointer::Thread1"** dereferenceable(8) %12) #3, !dbg !3049
  call void @_ZNSt6threadC2IMN14shared_pointer7Thread1EFvvEJPS2_EEEOT_DpOT0_(%"class.std::thread"* %7, { i64, i64 }* dereferenceable(16) %11, %"class.shared_pointer::Thread1"** dereferenceable(8) %13), !dbg !3051
  %14 = call dereferenceable(8) %"class.std::thread"* @_ZNSt6threadaSEOS_(%"class.std::thread"* %9, %"class.std::thread"* dereferenceable(8) %7) #3, !dbg !3053
  call void @_ZNSt6threadD2Ev(%"class.std::thread"* %7) #3, !dbg !3055
  ret void, !dbg !3057
}

; Function Attrs: nounwind uwtable
define linkonce_odr void @_ZN14shared_pointer7Thread14execEv(%"class.shared_pointer::Thread1"*) #4 comdat align 2 !dbg !3058 {
  %2 = alloca %"class.shared_pointer::Thread1"*, align 8
  %3 = alloca i32, align 4
  store %"class.shared_pointer::Thread1"* %0, %"class.shared_pointer::Thread1"** %2, align 8
  call void @llvm.dbg.declare(metadata %"class.shared_pointer::Thread1"** %2, metadata !3059, metadata !2776), !dbg !3060
  %4 = load %"class.shared_pointer::Thread1"*, %"class.shared_pointer::Thread1"** %2, align 8
  %5 = call i32 @_ZN14shared_pointer7Thread111getThreadIdEv(%"class.shared_pointer::Thread1"* %0), !dbg !3061
  %6 = alloca i32, !dbg !3061
  store i32 %5, i32* %6, !dbg !3061
  %7 = load i32, i32* %6, !dbg !3061
  call void @_Z10__beforeMAiPvli(i32 %7, i8* bitcast (i32** @_ZN14shared_pointer1pE to i8*), i64 8, i32 1), !dbg !3061
  store i32* @_ZN14shared_pointer1yE, i32** @_ZN14shared_pointer1pE, align 8, !dbg !3061
  call void @_Z9__afterMAi(i32 %7), !dbg !3061
  call void @llvm.dbg.declare(metadata i32* %3, metadata !3062, metadata !2776), !dbg !3064
  store i32 0, i32* %3, align 4, !dbg !3064
  br label %8, !dbg !3065

; <label>:8:                                      ; preds = %18, %1
  %9 = load i32, i32* %3, align 4, !dbg !3066
  %10 = icmp slt i32 %9, 100, !dbg !3069
  br i1 %10, label %11, label %21, !dbg !3070

; <label>:11:                                     ; preds = %8
  %12 = call i32 @_ZN14shared_pointer7Thread111getThreadIdEv(%"class.shared_pointer::Thread1"* %0), !dbg !3071
  %13 = alloca i32, !dbg !3071
  store i32 %12, i32* %13, !dbg !3071
  %14 = load i32, i32* %13, !dbg !3071
  call void @_Z10__beforeMAiPvli(i32 %14, i8* bitcast (i32* @_ZN14shared_pointer1xE to i8*), i64 4, i32 0), !dbg !3071
  %15 = load i32, i32* @_ZN14shared_pointer1xE, align 4, !dbg !3071
  call void @_Z9__afterMAi(i32 %14), !dbg !3071
  %16 = load i32, i32* @_ZN14shared_pointer2c1E, align 4, !dbg !3073
  %17 = add nsw i32 %16, %15, !dbg !3073
  store i32 %17, i32* @_ZN14shared_pointer2c1E, align 4, !dbg !3073
  br label %18, !dbg !3074

; <label>:18:                                     ; preds = %11
  %19 = load i32, i32* %3, align 4, !dbg !3075
  %20 = add nsw i32 %19, 1, !dbg !3075
  store i32 %20, i32* %3, align 4, !dbg !3075
  br label %8, !dbg !3077, !llvm.loop !3078

; <label>:21:                                     ; preds = %8
  %22 = call i32 @_ZN14shared_pointer7Thread111getThreadIdEv(%"class.shared_pointer::Thread1"* %0), !dbg !3080
  %23 = alloca i32, !dbg !3080
  store i32 %22, i32* %23, !dbg !3080
  %24 = load i32, i32* %23, !dbg !3080
  call void @_Z10__beforeMAiPvli(i32 %24, i8* bitcast (i32** @_ZN14shared_pointer1pE to i8*), i64 8, i32 0), !dbg !3080
  %25 = load i32*, i32** @_ZN14shared_pointer1pE, align 8, !dbg !3080
  call void @_Z9__afterMAi(i32 %24), !dbg !3080
  %26 = load i32, i32* %25, align 4, !dbg !3081
  %27 = add nsw i32 %26, 3, !dbg !3081
  store i32 %27, i32* %25, align 4, !dbg !3081
  %28 = call i32 @_ZN14shared_pointer7Thread111getThreadIdEv(%"class.shared_pointer::Thread1"* %0), !dbg !3082
  %29 = alloca i32, !dbg !3082
  store i32 %28, i32* %29, !dbg !3082
  %30 = load i32, i32* %29, !dbg !3082
  call void @_Z10__beforeMAiPvli(i32 %30, i8* bitcast (i32* @_ZN14shared_pointer1xE to i8*), i64 4, i32 0), !dbg !3082
  %31 = load i32, i32* @_ZN14shared_pointer1xE, align 4, !dbg !3082
  call void @_Z9__afterMAi(i32 %30), !dbg !3082
  %32 = icmp sle i32 3, %31, !dbg !3082
  br i1 %32, label %33, label %40, !dbg !3082

; <label>:33:                                     ; preds = %21
  %34 = call i32 @_ZN14shared_pointer7Thread111getThreadIdEv(%"class.shared_pointer::Thread1"* %0), !dbg !3083
  %35 = alloca i32, !dbg !3083
  store i32 %34, i32* %35, !dbg !3083
  %36 = load i32, i32* %35, !dbg !3083
  call void @_Z10__beforeMAiPvli(i32 %36, i8* bitcast (i32* @_ZN14shared_pointer1yE to i8*), i64 4, i32 0), !dbg !3083
  %37 = load i32, i32* @_ZN14shared_pointer1yE, align 4, !dbg !3083
  call void @_Z9__afterMAi(i32 %36), !dbg !3083
  %38 = icmp sle i32 %37, 9, !dbg !3083
  br i1 %38, label %39, label %40, !dbg !3083

; <label>:39:                                     ; preds = %33
  br label %42, !dbg !3085

; <label>:40:                                     ; preds = %33, %21
  call void @__assert_fail(i8* getelementptr inbounds ([17 x i8], [17 x i8]* @.str.8, i32 0, i32 0), i8* getelementptr inbounds ([113 x i8], [113 x i8]* @.str.9, i32 0, i32 0), i32 32, i8* getelementptr inbounds ([37 x i8], [37 x i8]* @__PRETTY_FUNCTION__._ZN14shared_pointer7Thread14execEv, i32 0, i32 0)) #14, !dbg !3087
  unreachable, !dbg !3087
                                                  ; No predecessors!
  br label %42, !dbg !3089

; <label>:42:                                     ; preds = %41, %39
  ret void, !dbg !3091
}

; Function Attrs: nounwind uwtable
define linkonce_odr dereferenceable(8) %"class.std::thread"* @_ZNSt6threadaSEOS_(%"class.std::thread"*, %"class.std::thread"* dereferenceable(8)) #4 comdat align 2 !dbg !3092 {
  %3 = alloca %"class.std::thread"*, align 8
  %4 = alloca %"class.std::thread"*, align 8
  store %"class.std::thread"* %0, %"class.std::thread"** %3, align 8
  call void @llvm.dbg.declare(metadata %"class.std::thread"** %3, metadata !3093, metadata !2776), !dbg !3094
  store %"class.std::thread"* %1, %"class.std::thread"** %4, align 8
  call void @llvm.dbg.declare(metadata %"class.std::thread"** %4, metadata !3095, metadata !2776), !dbg !3096
  %5 = load %"class.std::thread"*, %"class.std::thread"** %3, align 8
  %6 = call zeroext i1 @_ZNKSt6thread8joinableEv(%"class.std::thread"* %5) #3, !dbg !3097
  br i1 %6, label %7, label %8, !dbg !3099

; <label>:7:                                      ; preds = %2
  call void @_ZSt9terminatev() #14, !dbg !3100
  unreachable, !dbg !3100

; <label>:8:                                      ; preds = %2
  %9 = load %"class.std::thread"*, %"class.std::thread"** %4, align 8, !dbg !3101
  call void @_ZNSt6thread4swapERS_(%"class.std::thread"* %5, %"class.std::thread"* dereferenceable(8) %9) #3, !dbg !3102
  ret %"class.std::thread"* %5, !dbg !3103
}

; Function Attrs: nounwind uwtable
define linkonce_odr dereferenceable(16) { i64, i64 }* @_ZSt7forwardIMN14shared_pointer7Thread1EFvvEEOT_RNSt16remove_referenceIS4_E4typeE({ i64, i64 }* dereferenceable(16)) #4 comdat !dbg !3104 {
  %2 = alloca { i64, i64 }*, align 8
  store { i64, i64 }* %0, { i64, i64 }** %2, align 8
  call void @llvm.dbg.declare(metadata { i64, i64 }** %2, metadata !3111, metadata !2776), !dbg !3112
  %3 = load { i64, i64 }*, { i64, i64 }** %2, align 8, !dbg !3113
  ret { i64, i64 }* %3, !dbg !3114
}

; Function Attrs: nounwind uwtable
define linkonce_odr dereferenceable(8) %"class.shared_pointer::Thread1"** @_ZSt7forwardIPN14shared_pointer7Thread1EEOT_RNSt16remove_referenceIS3_E4typeE(%"class.shared_pointer::Thread1"** dereferenceable(8)) #4 comdat !dbg !3115 {
  %2 = alloca %"class.shared_pointer::Thread1"**, align 8
  store %"class.shared_pointer::Thread1"** %0, %"class.shared_pointer::Thread1"*** %2, align 8
  call void @llvm.dbg.declare(metadata %"class.shared_pointer::Thread1"*** %2, metadata !3123, metadata !2776), !dbg !3124
  %3 = load %"class.shared_pointer::Thread1"**, %"class.shared_pointer::Thread1"*** %2, align 8, !dbg !3125
  ret %"class.shared_pointer::Thread1"** %3, !dbg !3126
}

; Function Attrs: uwtable
define linkonce_odr void @_ZNSt6threadC2IMN14shared_pointer7Thread1EFvvEJPS2_EEEOT_DpOT0_(%"class.std::thread"*, { i64, i64 }* dereferenceable(16), %"class.shared_pointer::Thread1"** dereferenceable(8)) unnamed_addr #0 comdat align 2 personality i8* bitcast (i32 (...)* @__gxx_personality_v0 to i8*) !dbg !3127 {
  %4 = alloca %"class.std::thread"*, align 8
  %5 = alloca { i64, i64 }*, align 8
  %6 = alloca %"class.shared_pointer::Thread1"**, align 8
  %7 = alloca void ()*, align 8
  %8 = alloca %"class.std::unique_ptr", align 8
  %9 = alloca %"struct.std::_Bind_simple", align 8
  %10 = alloca i8*
  %11 = alloca i32
  store %"class.std::thread"* %0, %"class.std::thread"** %4, align 8
  call void @llvm.dbg.declare(metadata %"class.std::thread"** %4, metadata !3133, metadata !2776), !dbg !3134
  store { i64, i64 }* %1, { i64, i64 }** %5, align 8
  call void @llvm.dbg.declare(metadata { i64, i64 }** %5, metadata !3135, metadata !2776), !dbg !3136
  store %"class.shared_pointer::Thread1"** %2, %"class.shared_pointer::Thread1"*** %6, align 8
  call void @llvm.dbg.declare(metadata %"class.shared_pointer::Thread1"*** %6, metadata !3137, metadata !2776), !dbg !3138
  %12 = load %"class.std::thread"*, %"class.std::thread"** %4, align 8
  %13 = getelementptr inbounds %"class.std::thread", %"class.std::thread"* %12, i32 0, i32 0, !dbg !3139
  call void @_ZNSt6thread2idC2Ev(%"class.std::thread::id"* %13) #3, !dbg !3139
  call void @llvm.dbg.declare(metadata void ()** %7, metadata !3140, metadata !2776), !dbg !3142
  store void ()* bitcast (i32 (i64*, %union.pthread_attr_t*, i8* (i8*)*, i8*)* @pthread_create to void ()*), void ()** %7, align 8, !dbg !3142
  %14 = load { i64, i64 }*, { i64, i64 }** %5, align 8, !dbg !3143
  %15 = call dereferenceable(16) { i64, i64 }* @_ZSt7forwardIMN14shared_pointer7Thread1EFvvEEOT_RNSt16remove_referenceIS4_E4typeE({ i64, i64 }* dereferenceable(16) %14) #3, !dbg !3144
  %16 = load %"class.shared_pointer::Thread1"**, %"class.shared_pointer::Thread1"*** %6, align 8, !dbg !3145
  %17 = call dereferenceable(8) %"class.shared_pointer::Thread1"** @_ZSt7forwardIPN14shared_pointer7Thread1EEOT_RNSt16remove_referenceIS3_E4typeE(%"class.shared_pointer::Thread1"** dereferenceable(8) %16) #3, !dbg !3146
  call void @_ZSt13__bind_simpleIMN14shared_pointer7Thread1EFvvEJPS1_EENSt19_Bind_simple_helperIT_JDpT0_EE6__typeEOS6_DpOS7_(%"struct.std::_Bind_simple"* sret %9, { i64, i64 }* dereferenceable(16) %15, %"class.shared_pointer::Thread1"** dereferenceable(8) %17), !dbg !3147
  call void @_ZNSt6thread13_S_make_stateISt12_Bind_simpleIFSt7_Mem_fnIMN14shared_pointer7Thread1EFvvEEPS4_EEEESt10unique_ptrINS_6_StateESt14default_deleteISC_EEOT_(%"class.std::unique_ptr"* sret %8, %"struct.std::_Bind_simple"* dereferenceable(24) %9), !dbg !3149
  %18 = load void ()*, void ()** %7, align 8, !dbg !3150
  invoke void @_ZNSt6thread15_M_start_threadESt10unique_ptrINS_6_StateESt14default_deleteIS1_EEPFvvE(%"class.std::thread"* %12, %"class.std::unique_ptr"* %8, void ()* %18)
          to label %19 unwind label %20, !dbg !3151

; <label>:19:                                     ; preds = %3
  call void @_ZNSt10unique_ptrINSt6thread6_StateESt14default_deleteIS1_EED2Ev(%"class.std::unique_ptr"* %8) #3, !dbg !3152
  ret void, !dbg !3153

; <label>:20:                                     ; preds = %3
  %21 = landingpad { i8*, i32 }
          cleanup, !dbg !3154
  %22 = extractvalue { i8*, i32 } %21, 0, !dbg !3154
  store i8* %22, i8** %10, align 8, !dbg !3154
  %23 = extractvalue { i8*, i32 } %21, 1, !dbg !3154
  store i32 %23, i32* %11, align 4, !dbg !3154
  call void @_ZNSt10unique_ptrINSt6thread6_StateESt14default_deleteIS1_EED2Ev(%"class.std::unique_ptr"* %8) #3, !dbg !3155
  br label %24, !dbg !3155

; <label>:24:                                     ; preds = %20
  %25 = load i8*, i8** %10, align 8, !dbg !3157
  %26 = load i32, i32* %11, align 4, !dbg !3157
  %27 = insertvalue { i8*, i32 } undef, i8* %25, 0, !dbg !3157
  %28 = insertvalue { i8*, i32 } %27, i32 %26, 1, !dbg !3157
  resume { i8*, i32 } %28, !dbg !3157
}

; Function Attrs: nounwind uwtable
define linkonce_odr void @_ZNSt6threadD2Ev(%"class.std::thread"*) unnamed_addr #4 comdat align 2 !dbg !3159 {
  %2 = alloca %"class.std::thread"*, align 8
  store %"class.std::thread"* %0, %"class.std::thread"** %2, align 8
  call void @llvm.dbg.declare(metadata %"class.std::thread"** %2, metadata !3160, metadata !2776), !dbg !3161
  %3 = load %"class.std::thread"*, %"class.std::thread"** %2, align 8
  %4 = call zeroext i1 @_ZNKSt6thread8joinableEv(%"class.std::thread"* %3) #3, !dbg !3162
  br i1 %4, label %5, label %6, !dbg !3165

; <label>:5:                                      ; preds = %1
  call void @_ZSt9terminatev() #14, !dbg !3166
  unreachable, !dbg !3166

; <label>:6:                                      ; preds = %1
  ret void, !dbg !3167
}

; Function Attrs: nounwind uwtable
define linkonce_odr zeroext i1 @_ZNKSt6thread8joinableEv(%"class.std::thread"*) #4 comdat align 2 !dbg !3168 {
  %2 = alloca %"class.std::thread"*, align 8
  %3 = alloca %"class.std::thread::id", align 8
  %4 = alloca %"class.std::thread::id", align 8
  store %"class.std::thread"* %0, %"class.std::thread"** %2, align 8
  call void @llvm.dbg.declare(metadata %"class.std::thread"** %2, metadata !3169, metadata !2776), !dbg !3171
  %5 = load %"class.std::thread"*, %"class.std::thread"** %2, align 8
  %6 = getelementptr inbounds %"class.std::thread", %"class.std::thread"* %5, i32 0, i32 0, !dbg !3172
  %7 = bitcast %"class.std::thread::id"* %3 to i8*, !dbg !3172
  %8 = bitcast %"class.std::thread::id"* %6 to i8*, !dbg !3172
  call void @llvm.memcpy.p0i8.p0i8.i64(i8* %7, i8* %8, i64 8, i32 8, i1 false), !dbg !3172
  call void @_ZNSt6thread2idC2Ev(%"class.std::thread::id"* %4) #3, !dbg !3173
  %9 = getelementptr inbounds %"class.std::thread::id", %"class.std::thread::id"* %3, i32 0, i32 0, !dbg !3175
  %10 = load i64, i64* %9, align 8, !dbg !3175
  %11 = getelementptr inbounds %"class.std::thread::id", %"class.std::thread::id"* %4, i32 0, i32 0, !dbg !3175
  %12 = load i64, i64* %11, align 8, !dbg !3175
  %13 = call zeroext i1 @_ZSteqNSt6thread2idES0_(i64 %10, i64 %12) #3, !dbg !3176
  %14 = xor i1 %13, true, !dbg !3178
  ret i1 %14, !dbg !3179
}

; Function Attrs: noreturn nounwind
declare void @_ZSt9terminatev() #8

; Function Attrs: nounwind uwtable
define linkonce_odr void @_ZNSt6thread4swapERS_(%"class.std::thread"*, %"class.std::thread"* dereferenceable(8)) #4 comdat align 2 !dbg !3180 {
  %3 = alloca %"class.std::thread"*, align 8
  %4 = alloca %"class.std::thread"*, align 8
  store %"class.std::thread"* %0, %"class.std::thread"** %3, align 8
  call void @llvm.dbg.declare(metadata %"class.std::thread"** %3, metadata !3181, metadata !2776), !dbg !3182
  store %"class.std::thread"* %1, %"class.std::thread"** %4, align 8
  call void @llvm.dbg.declare(metadata %"class.std::thread"** %4, metadata !3183, metadata !2776), !dbg !3184
  %5 = load %"class.std::thread"*, %"class.std::thread"** %3, align 8
  %6 = getelementptr inbounds %"class.std::thread", %"class.std::thread"* %5, i32 0, i32 0, !dbg !3185
  %7 = load %"class.std::thread"*, %"class.std::thread"** %4, align 8, !dbg !3186
  %8 = getelementptr inbounds %"class.std::thread", %"class.std::thread"* %7, i32 0, i32 0, !dbg !3187
  call void @_ZSt4swapINSt6thread2idEENSt9enable_ifIXsr6__and_ISt21is_move_constructibleIT_ESt18is_move_assignableIS4_EEE5valueEvE4typeERS4_SA_(%"class.std::thread::id"* dereferenceable(8) %6, %"class.std::thread::id"* dereferenceable(8) %8) #3, !dbg !3188
  ret void, !dbg !3189
}

; Function Attrs: nounwind uwtable
define linkonce_odr zeroext i1 @_ZSteqNSt6thread2idES0_(i64, i64) #4 comdat !dbg !3190 {
  %3 = alloca %"class.std::thread::id", align 8
  %4 = alloca %"class.std::thread::id", align 8
  %5 = getelementptr inbounds %"class.std::thread::id", %"class.std::thread::id"* %3, i32 0, i32 0
  store i64 %0, i64* %5, align 8
  %6 = getelementptr inbounds %"class.std::thread::id", %"class.std::thread::id"* %4, i32 0, i32 0
  store i64 %1, i64* %6, align 8
  call void @llvm.dbg.declare(metadata %"class.std::thread::id"* %3, metadata !3193, metadata !2776), !dbg !3194
  call void @llvm.dbg.declare(metadata %"class.std::thread::id"* %4, metadata !3195, metadata !2776), !dbg !3196
  %7 = getelementptr inbounds %"class.std::thread::id", %"class.std::thread::id"* %3, i32 0, i32 0, !dbg !3197
  %8 = load i64, i64* %7, align 8, !dbg !3197
  %9 = getelementptr inbounds %"class.std::thread::id", %"class.std::thread::id"* %4, i32 0, i32 0, !dbg !3198
  %10 = load i64, i64* %9, align 8, !dbg !3198
  %11 = icmp eq i64 %8, %10, !dbg !3199
  ret i1 %11, !dbg !3200
}

; Function Attrs: argmemonly nounwind
declare void @llvm.memcpy.p0i8.p0i8.i64(i8* nocapture writeonly, i8* nocapture readonly, i64, i32, i1) #9

; Function Attrs: inlinehint nounwind uwtable
define linkonce_odr void @_ZSt4swapINSt6thread2idEENSt9enable_ifIXsr6__and_ISt21is_move_constructibleIT_ESt18is_move_assignableIS4_EEE5valueEvE4typeERS4_SA_(%"class.std::thread::id"* dereferenceable(8), %"class.std::thread::id"* dereferenceable(8)) #7 comdat !dbg !3201 {
  %3 = alloca %"class.std::thread::id"*, align 8
  %4 = alloca %"class.std::thread::id"*, align 8
  %5 = alloca %"class.std::thread::id", align 8
  store %"class.std::thread::id"* %0, %"class.std::thread::id"** %3, align 8
  call void @llvm.dbg.declare(metadata %"class.std::thread::id"** %3, metadata !3210, metadata !2776), !dbg !3211
  store %"class.std::thread::id"* %1, %"class.std::thread::id"** %4, align 8
  call void @llvm.dbg.declare(metadata %"class.std::thread::id"** %4, metadata !3212, metadata !2776), !dbg !3213
  call void @llvm.dbg.declare(metadata %"class.std::thread::id"* %5, metadata !3214, metadata !2776), !dbg !3215
  %6 = load %"class.std::thread::id"*, %"class.std::thread::id"** %3, align 8, !dbg !3216
  %7 = call dereferenceable(8) %"class.std::thread::id"* @_ZSt4moveIRNSt6thread2idEEONSt16remove_referenceIT_E4typeEOS4_(%"class.std::thread::id"* dereferenceable(8) %6) #3, !dbg !3216
  %8 = bitcast %"class.std::thread::id"* %5 to i8*, !dbg !3216
  %9 = bitcast %"class.std::thread::id"* %7 to i8*, !dbg !3216
  call void @llvm.memcpy.p0i8.p0i8.i64(i8* %8, i8* %9, i64 8, i32 8, i1 false), !dbg !3217
  %10 = load %"class.std::thread::id"*, %"class.std::thread::id"** %3, align 8, !dbg !3219
  %11 = load %"class.std::thread::id"*, %"class.std::thread::id"** %4, align 8, !dbg !3220
  %12 = call dereferenceable(8) %"class.std::thread::id"* @_ZSt4moveIRNSt6thread2idEEONSt16remove_referenceIT_E4typeEOS4_(%"class.std::thread::id"* dereferenceable(8) %11) #3, !dbg !3220
  %13 = bitcast %"class.std::thread::id"* %10 to i8*, !dbg !3221
  %14 = bitcast %"class.std::thread::id"* %12 to i8*, !dbg !3221
  call void @llvm.memcpy.p0i8.p0i8.i64(i8* %13, i8* %14, i64 8, i32 8, i1 false), !dbg !3222
  %15 = load %"class.std::thread::id"*, %"class.std::thread::id"** %4, align 8, !dbg !3223
  %16 = call dereferenceable(8) %"class.std::thread::id"* @_ZSt4moveIRNSt6thread2idEEONSt16remove_referenceIT_E4typeEOS4_(%"class.std::thread::id"* dereferenceable(8) %5) #3, !dbg !3224
  %17 = bitcast %"class.std::thread::id"* %15 to i8*, !dbg !3225
  %18 = bitcast %"class.std::thread::id"* %16 to i8*, !dbg !3225
  call void @llvm.memcpy.p0i8.p0i8.i64(i8* %17, i8* %18, i64 8, i32 8, i1 false), !dbg !3226
  ret void, !dbg !3227
}

; Function Attrs: nounwind uwtable
define linkonce_odr dereferenceable(8) %"class.std::thread::id"* @_ZSt4moveIRNSt6thread2idEEONSt16remove_referenceIT_E4typeEOS4_(%"class.std::thread::id"* dereferenceable(8)) #4 comdat !dbg !3228 {
  %2 = alloca %"class.std::thread::id"*, align 8
  store %"class.std::thread::id"* %0, %"class.std::thread::id"** %2, align 8
  call void @llvm.dbg.declare(metadata %"class.std::thread::id"** %2, metadata !3236, metadata !2776), !dbg !3237
  %3 = load %"class.std::thread::id"*, %"class.std::thread::id"** %2, align 8, !dbg !3238
  ret %"class.std::thread::id"* %3, !dbg !3239
}

; Function Attrs: nounwind
declare i32 @pthread_create(i64*, %union.pthread_attr_t*, i8* (i8*)*, i8*) #2

declare void @_ZNSt6thread15_M_start_threadESt10unique_ptrINS_6_StateESt14default_deleteIS1_EEPFvvE(%"class.std::thread"*, %"class.std::unique_ptr"*, void ()*) #1

; Function Attrs: uwtable
define linkonce_odr void @_ZNSt6thread13_S_make_stateISt12_Bind_simpleIFSt7_Mem_fnIMN14shared_pointer7Thread1EFvvEEPS4_EEEESt10unique_ptrINS_6_StateESt14default_deleteISC_EEOT_(%"class.std::unique_ptr"* noalias sret, %"struct.std::_Bind_simple"* dereferenceable(24)) #0 comdat align 2 personality i8* bitcast (i32 (...)* @__gxx_personality_v0 to i8*) !dbg !3240 {
  %3 = alloca %"struct.std::_Bind_simple"*, align 8
  %4 = alloca i8*
  %5 = alloca i32
  store %"struct.std::_Bind_simple"* %1, %"struct.std::_Bind_simple"** %3, align 8
  call void @llvm.dbg.declare(metadata %"struct.std::_Bind_simple"** %3, metadata !3446, metadata !2776), !dbg !3447
  %6 = call i8* @_Znwm(i64 32) #15, !dbg !3448
  %7 = bitcast i8* %6 to %"struct.std::thread::_State_impl"*, !dbg !3448
  %8 = load %"struct.std::_Bind_simple"*, %"struct.std::_Bind_simple"** %3, align 8, !dbg !3449
  %9 = call dereferenceable(24) %"struct.std::_Bind_simple"* @_ZSt7forwardISt12_Bind_simpleIFSt7_Mem_fnIMN14shared_pointer7Thread1EFvvEEPS3_EEEOT_RNSt16remove_referenceISA_E4typeE(%"struct.std::_Bind_simple"* dereferenceable(24) %8) #3, !dbg !3450
  invoke void @_ZNSt6thread11_State_implISt12_Bind_simpleIFSt7_Mem_fnIMN14shared_pointer7Thread1EFvvEEPS4_EEEC2EOSA_(%"struct.std::thread::_State_impl"* %7, %"struct.std::_Bind_simple"* dereferenceable(24) %9)
          to label %10 unwind label %12, !dbg !3452

; <label>:10:                                     ; preds = %2
  %11 = bitcast %"struct.std::thread::_State_impl"* %7 to %"struct.std::thread::_State"*, !dbg !3453
  call void @_ZNSt10unique_ptrINSt6thread6_StateESt14default_deleteIS1_EEC2EPS1_(%"class.std::unique_ptr"* %0, %"struct.std::thread::_State"* %11) #3, !dbg !3455
  ret void, !dbg !3456

; <label>:12:                                     ; preds = %2
  %13 = landingpad { i8*, i32 }
          cleanup, !dbg !3457
  %14 = extractvalue { i8*, i32 } %13, 0, !dbg !3457
  store i8* %14, i8** %4, align 8, !dbg !3457
  %15 = extractvalue { i8*, i32 } %13, 1, !dbg !3457
  store i32 %15, i32* %5, align 4, !dbg !3457
  call void @_ZdlPv(i8* %6) #16, !dbg !3458
  br label %16, !dbg !3458

; <label>:16:                                     ; preds = %12
  %17 = load i8*, i8** %4, align 8, !dbg !3460
  %18 = load i32, i32* %5, align 4, !dbg !3460
  %19 = insertvalue { i8*, i32 } undef, i8* %17, 0, !dbg !3460
  %20 = insertvalue { i8*, i32 } %19, i32 %18, 1, !dbg !3460
  resume { i8*, i32 } %20, !dbg !3460
}

; Function Attrs: uwtable
define linkonce_odr void @_ZSt13__bind_simpleIMN14shared_pointer7Thread1EFvvEJPS1_EENSt19_Bind_simple_helperIT_JDpT0_EE6__typeEOS6_DpOS7_(%"struct.std::_Bind_simple"* noalias sret, { i64, i64 }* dereferenceable(16), %"class.shared_pointer::Thread1"** dereferenceable(8)) #0 comdat !dbg !3462 {
  %4 = alloca { i64, i64 }*, align 8
  %5 = alloca %"class.shared_pointer::Thread1"**, align 8
  %6 = alloca %"struct.std::_Mem_fn", align 8
  %7 = alloca { i64, i64 }, align 8
  store { i64, i64 }* %1, { i64, i64 }** %4, align 8
  call void @llvm.dbg.declare(metadata { i64, i64 }** %4, metadata !3473, metadata !2776), !dbg !3474
  store %"class.shared_pointer::Thread1"** %2, %"class.shared_pointer::Thread1"*** %5, align 8
  call void @llvm.dbg.declare(metadata %"class.shared_pointer::Thread1"*** %5, metadata !3475, metadata !2776), !dbg !3476
  %8 = load { i64, i64 }*, { i64, i64 }** %4, align 8, !dbg !3477
  %9 = call dereferenceable(16) { i64, i64 }* @_ZSt7forwardIMN14shared_pointer7Thread1EFvvEEOT_RNSt16remove_referenceIS4_E4typeE({ i64, i64 }* dereferenceable(16) %8) #3, !dbg !3478
  %10 = load { i64, i64 }, { i64, i64 }* %9, align 8, !dbg !3478
  store { i64, i64 } %10, { i64, i64 }* %7, align 8, !dbg !3479
  %11 = getelementptr inbounds { i64, i64 }, { i64, i64 }* %7, i32 0, i32 0, !dbg !3479
  %12 = load i64, i64* %11, align 8, !dbg !3479
  %13 = getelementptr inbounds { i64, i64 }, { i64, i64 }* %7, i32 0, i32 1, !dbg !3479
  %14 = load i64, i64* %13, align 8, !dbg !3479
  %15 = call { i64, i64 } @_ZNSt26_Maybe_wrap_member_pointerIMN14shared_pointer7Thread1EFvvEE9__do_wrapES3_(i64 %12, i64 %14), !dbg !3480
  %16 = getelementptr inbounds %"struct.std::_Mem_fn", %"struct.std::_Mem_fn"* %6, i32 0, i32 0, !dbg !3479
  %17 = getelementptr inbounds %"class.std::_Mem_fn_base", %"class.std::_Mem_fn_base"* %16, i32 0, i32 0, !dbg !3479
  %18 = getelementptr inbounds { i64, i64 }, { i64, i64 }* %17, i32 0, i32 0, !dbg !3479
  %19 = extractvalue { i64, i64 } %15, 0, !dbg !3479
  store i64 %19, i64* %18, align 8, !dbg !3479
  %20 = getelementptr inbounds { i64, i64 }, { i64, i64 }* %17, i32 0, i32 1, !dbg !3479
  %21 = extractvalue { i64, i64 } %15, 1, !dbg !3479
  store i64 %21, i64* %20, align 8, !dbg !3479
  %22 = load %"class.shared_pointer::Thread1"**, %"class.shared_pointer::Thread1"*** %5, align 8, !dbg !3482
  %23 = call dereferenceable(8) %"class.shared_pointer::Thread1"** @_ZSt7forwardIPN14shared_pointer7Thread1EEOT_RNSt16remove_referenceIS3_E4typeE(%"class.shared_pointer::Thread1"** dereferenceable(8) %22) #3, !dbg !3483
  call void @_ZNSt12_Bind_simpleIFSt7_Mem_fnIMN14shared_pointer7Thread1EFvvEEPS2_EEC2IS5_JS6_EEEOT_DpOT0_(%"struct.std::_Bind_simple"* %0, %"struct.std::_Mem_fn"* dereferenceable(16) %6, %"class.shared_pointer::Thread1"** dereferenceable(8) %23), !dbg !3484
  ret void, !dbg !3485
}

; Function Attrs: nounwind uwtable
define linkonce_odr void @_ZNSt10unique_ptrINSt6thread6_StateESt14default_deleteIS1_EED2Ev(%"class.std::unique_ptr"*) unnamed_addr #4 comdat align 2 personality i8* bitcast (i32 (...)* @__gxx_personality_v0 to i8*) !dbg !3486 {
  %2 = alloca %"class.std::unique_ptr"*, align 8
  %3 = alloca %"struct.std::thread::_State"**, align 8
  store %"class.std::unique_ptr"* %0, %"class.std::unique_ptr"** %2, align 8
  call void @llvm.dbg.declare(metadata %"class.std::unique_ptr"** %2, metadata !3487, metadata !2776), !dbg !3489
  %4 = load %"class.std::unique_ptr"*, %"class.std::unique_ptr"** %2, align 8
  call void @llvm.dbg.declare(metadata %"struct.std::thread::_State"*** %3, metadata !3490, metadata !2776), !dbg !3492
  %5 = getelementptr inbounds %"class.std::unique_ptr", %"class.std::unique_ptr"* %4, i32 0, i32 0, !dbg !3493
  %6 = call dereferenceable(8) %"struct.std::thread::_State"** @_ZSt3getILm0EJPNSt6thread6_StateESt14default_deleteIS1_EEERNSt13tuple_elementIXT_ESt5tupleIJDpT0_EEE4typeERS9_(%"class.std::tuple"* dereferenceable(8) %5) #3, !dbg !3494
  store %"struct.std::thread::_State"** %6, %"struct.std::thread::_State"*** %3, align 8, !dbg !3492
  %7 = load %"struct.std::thread::_State"**, %"struct.std::thread::_State"*** %3, align 8, !dbg !3495
  %8 = load %"struct.std::thread::_State"*, %"struct.std::thread::_State"** %7, align 8, !dbg !3495
  %9 = icmp ne %"struct.std::thread::_State"* %8, null, !dbg !3497
  br i1 %9, label %10, label %15, !dbg !3498

; <label>:10:                                     ; preds = %1
  %11 = call dereferenceable(1) %"struct.std::default_delete"* @_ZNSt10unique_ptrINSt6thread6_StateESt14default_deleteIS1_EE11get_deleterEv(%"class.std::unique_ptr"* %4) #3, !dbg !3499
  %12 = load %"struct.std::thread::_State"**, %"struct.std::thread::_State"*** %3, align 8, !dbg !3500
  %13 = load %"struct.std::thread::_State"*, %"struct.std::thread::_State"** %12, align 8, !dbg !3500
  invoke void @_ZNKSt14default_deleteINSt6thread6_StateEEclEPS1_(%"struct.std::default_delete"* %11, %"struct.std::thread::_State"* %13)
          to label %14 unwind label %17, !dbg !3499

; <label>:14:                                     ; preds = %10
  br label %15, !dbg !3501

; <label>:15:                                     ; preds = %14, %1
  %16 = load %"struct.std::thread::_State"**, %"struct.std::thread::_State"*** %3, align 8, !dbg !3503
  store %"struct.std::thread::_State"* null, %"struct.std::thread::_State"** %16, align 8, !dbg !3504
  ret void, !dbg !3505

; <label>:17:                                     ; preds = %10
  %18 = landingpad { i8*, i32 }
          catch i8* null, !dbg !3506
  %19 = extractvalue { i8*, i32 } %18, 0, !dbg !3506
  call void @__clang_call_terminate(i8* %19) #14, !dbg !3506
  unreachable, !dbg !3506
}

; Function Attrs: nobuiltin
declare noalias i8* @_Znwm(i64) #10

; Function Attrs: nounwind uwtable
define linkonce_odr dereferenceable(24) %"struct.std::_Bind_simple"* @_ZSt7forwardISt12_Bind_simpleIFSt7_Mem_fnIMN14shared_pointer7Thread1EFvvEEPS3_EEEOT_RNSt16remove_referenceISA_E4typeE(%"struct.std::_Bind_simple"* dereferenceable(24)) #4 comdat !dbg !3508 {
  %2 = alloca %"struct.std::_Bind_simple"*, align 8
  store %"struct.std::_Bind_simple"* %0, %"struct.std::_Bind_simple"** %2, align 8
  call void @llvm.dbg.declare(metadata %"struct.std::_Bind_simple"** %2, metadata !3516, metadata !2776), !dbg !3517
  %3 = load %"struct.std::_Bind_simple"*, %"struct.std::_Bind_simple"** %2, align 8, !dbg !3518
  ret %"struct.std::_Bind_simple"* %3, !dbg !3519
}

; Function Attrs: nounwind uwtable
define linkonce_odr void @_ZNSt6thread11_State_implISt12_Bind_simpleIFSt7_Mem_fnIMN14shared_pointer7Thread1EFvvEEPS4_EEEC2EOSA_(%"struct.std::thread::_State_impl"*, %"struct.std::_Bind_simple"* dereferenceable(24)) unnamed_addr #4 comdat align 2 !dbg !3520 {
  %3 = alloca %"struct.std::thread::_State_impl"*, align 8
  %4 = alloca %"struct.std::_Bind_simple"*, align 8
  store %"struct.std::thread::_State_impl"* %0, %"struct.std::thread::_State_impl"** %3, align 8
  call void @llvm.dbg.declare(metadata %"struct.std::thread::_State_impl"** %3, metadata !3532, metadata !2776), !dbg !3534
  store %"struct.std::_Bind_simple"* %1, %"struct.std::_Bind_simple"** %4, align 8
  call void @llvm.dbg.declare(metadata %"struct.std::_Bind_simple"** %4, metadata !3535, metadata !2776), !dbg !3536
  %5 = load %"struct.std::thread::_State_impl"*, %"struct.std::thread::_State_impl"** %3, align 8
  %6 = bitcast %"struct.std::thread::_State_impl"* %5 to %"struct.std::thread::_State"*, !dbg !3537
  call void @_ZNSt6thread6_StateC2Ev(%"struct.std::thread::_State"* %6) #3, !dbg !3538
  %7 = bitcast %"struct.std::thread::_State_impl"* %5 to i32 (...)***, !dbg !3537
  store i32 (...)** bitcast (i8** getelementptr inbounds ([5 x i8*], [5 x i8*]* @_ZTVNSt6thread11_State_implISt12_Bind_simpleIFSt7_Mem_fnIMN14shared_pointer7Thread1EFvvEEPS4_EEEE, i32 0, i32 2) to i32 (...)**), i32 (...)*** %7, align 8, !dbg !3537
  %8 = getelementptr inbounds %"struct.std::thread::_State_impl", %"struct.std::thread::_State_impl"* %5, i32 0, i32 1, !dbg !3539
  %9 = load %"struct.std::_Bind_simple"*, %"struct.std::_Bind_simple"** %4, align 8, !dbg !3540
  %10 = call dereferenceable(24) %"struct.std::_Bind_simple"* @_ZSt7forwardISt12_Bind_simpleIFSt7_Mem_fnIMN14shared_pointer7Thread1EFvvEEPS3_EEEOT_RNSt16remove_referenceISA_E4typeE(%"struct.std::_Bind_simple"* dereferenceable(24) %9) #3, !dbg !3541
  call void @_ZNSt12_Bind_simpleIFSt7_Mem_fnIMN14shared_pointer7Thread1EFvvEEPS2_EEC2EOS8_(%"struct.std::_Bind_simple"* %8, %"struct.std::_Bind_simple"* dereferenceable(24) %10) #3, !dbg !3543
  ret void, !dbg !3545
}

; Function Attrs: nobuiltin nounwind
declare void @_ZdlPv(i8*) #11

; Function Attrs: nounwind uwtable
define linkonce_odr void @_ZNSt10unique_ptrINSt6thread6_StateESt14default_deleteIS1_EEC2EPS1_(%"class.std::unique_ptr"*, %"struct.std::thread::_State"*) unnamed_addr #4 comdat align 2 personality i8* bitcast (i32 (...)* @__gxx_personality_v0 to i8*) !dbg !3546 {
  %3 = alloca %"class.std::unique_ptr"*, align 8
  %4 = alloca %"struct.std::thread::_State"*, align 8
  store %"class.std::unique_ptr"* %0, %"class.std::unique_ptr"** %3, align 8
  call void @llvm.dbg.declare(metadata %"class.std::unique_ptr"** %3, metadata !3547, metadata !2776), !dbg !3548
  store %"struct.std::thread::_State"* %1, %"struct.std::thread::_State"** %4, align 8
  call void @llvm.dbg.declare(metadata %"struct.std::thread::_State"** %4, metadata !3549, metadata !2776), !dbg !3550
  %5 = load %"class.std::unique_ptr"*, %"class.std::unique_ptr"** %3, align 8
  %6 = getelementptr inbounds %"class.std::unique_ptr", %"class.std::unique_ptr"* %5, i32 0, i32 0, !dbg !3551
  invoke void @_ZNSt5tupleIJPNSt6thread6_StateESt14default_deleteIS1_EEEC2IS2_S4_Lb1EEEv(%"class.std::tuple"* %6)
          to label %7 unwind label %11, !dbg !3551

; <label>:7:                                      ; preds = %2
  %8 = load %"struct.std::thread::_State"*, %"struct.std::thread::_State"** %4, align 8, !dbg !3552
  %9 = getelementptr inbounds %"class.std::unique_ptr", %"class.std::unique_ptr"* %5, i32 0, i32 0, !dbg !3554
  %10 = call dereferenceable(8) %"struct.std::thread::_State"** @_ZSt3getILm0EJPNSt6thread6_StateESt14default_deleteIS1_EEERNSt13tuple_elementIXT_ESt5tupleIJDpT0_EEE4typeERS9_(%"class.std::tuple"* dereferenceable(8) %9) #3, !dbg !3555
  store %"struct.std::thread::_State"* %8, %"struct.std::thread::_State"** %10, align 8, !dbg !3556
  ret void, !dbg !3557

; <label>:11:                                     ; preds = %2
  %12 = landingpad { i8*, i32 }
          catch i8* null, !dbg !3558
  %13 = extractvalue { i8*, i32 } %12, 0, !dbg !3558
  call void @__clang_call_terminate(i8* %13) #14, !dbg !3558
  unreachable, !dbg !3558
}

; Function Attrs: inlinehint nounwind uwtable
define linkonce_odr void @_ZNSt6thread6_StateC2Ev(%"struct.std::thread::_State"*) unnamed_addr #7 comdat align 2 !dbg !3560 {
  %2 = alloca %"struct.std::thread::_State"*, align 8
  store %"struct.std::thread::_State"* %0, %"struct.std::thread::_State"** %2, align 8
  call void @llvm.dbg.declare(metadata %"struct.std::thread::_State"** %2, metadata !3565, metadata !2776), !dbg !3566
  %3 = load %"struct.std::thread::_State"*, %"struct.std::thread::_State"** %2, align 8
  %4 = bitcast %"struct.std::thread::_State"* %3 to i32 (...)***, !dbg !3567
  store i32 (...)** bitcast (i8** getelementptr inbounds ([5 x i8*], [5 x i8*]* @_ZTVNSt6thread6_StateE, i32 0, i32 2) to i32 (...)**), i32 (...)*** %4, align 8, !dbg !3567
  ret void, !dbg !3567
}

; Function Attrs: nounwind uwtable
define linkonce_odr void @_ZNSt12_Bind_simpleIFSt7_Mem_fnIMN14shared_pointer7Thread1EFvvEEPS2_EEC2EOS8_(%"struct.std::_Bind_simple"*, %"struct.std::_Bind_simple"* dereferenceable(24)) unnamed_addr #4 comdat align 2 !dbg !3568 {
  %3 = alloca %"struct.std::_Bind_simple"*, align 8
  %4 = alloca %"struct.std::_Bind_simple"*, align 8
  store %"struct.std::_Bind_simple"* %0, %"struct.std::_Bind_simple"** %3, align 8
  call void @llvm.dbg.declare(metadata %"struct.std::_Bind_simple"** %3, metadata !3569, metadata !2776), !dbg !3571
  store %"struct.std::_Bind_simple"* %1, %"struct.std::_Bind_simple"** %4, align 8
  call void @llvm.dbg.declare(metadata %"struct.std::_Bind_simple"** %4, metadata !3572, metadata !2776), !dbg !3573
  %5 = load %"struct.std::_Bind_simple"*, %"struct.std::_Bind_simple"** %3, align 8
  %6 = getelementptr inbounds %"struct.std::_Bind_simple", %"struct.std::_Bind_simple"* %5, i32 0, i32 0, !dbg !3574
  %7 = load %"struct.std::_Bind_simple"*, %"struct.std::_Bind_simple"** %4, align 8, !dbg !3574
  %8 = getelementptr inbounds %"struct.std::_Bind_simple", %"struct.std::_Bind_simple"* %7, i32 0, i32 0, !dbg !3574
  call void @_ZNSt5tupleIJSt7_Mem_fnIMN14shared_pointer7Thread1EFvvEEPS2_EEC2EOS7_(%"class.std::tuple.3"* %6, %"class.std::tuple.3"* dereferenceable(24) %8) #3, !dbg !3574
  ret void, !dbg !3574
}

; Function Attrs: inlinehint nounwind uwtable
define linkonce_odr void @_ZNSt6thread11_State_implISt12_Bind_simpleIFSt7_Mem_fnIMN14shared_pointer7Thread1EFvvEEPS4_EEED2Ev(%"struct.std::thread::_State_impl"*) unnamed_addr #7 comdat align 2 !dbg !3575 {
  %2 = alloca %"struct.std::thread::_State_impl"*, align 8
  store %"struct.std::thread::_State_impl"* %0, %"struct.std::thread::_State_impl"** %2, align 8
  call void @llvm.dbg.declare(metadata %"struct.std::thread::_State_impl"** %2, metadata !3577, metadata !2776), !dbg !3578
  %3 = load %"struct.std::thread::_State_impl"*, %"struct.std::thread::_State_impl"** %2, align 8
  %4 = bitcast %"struct.std::thread::_State_impl"* %3 to %"struct.std::thread::_State"*, !dbg !3579
  call void @_ZNSt6thread6_StateD2Ev(%"struct.std::thread::_State"* %4) #3, !dbg !3579
  ret void, !dbg !3581
}

; Function Attrs: inlinehint nounwind uwtable
define linkonce_odr void @_ZNSt6thread11_State_implISt12_Bind_simpleIFSt7_Mem_fnIMN14shared_pointer7Thread1EFvvEEPS4_EEED0Ev(%"struct.std::thread::_State_impl"*) unnamed_addr #7 comdat align 2 !dbg !3582 {
  %2 = alloca %"struct.std::thread::_State_impl"*, align 8
  store %"struct.std::thread::_State_impl"* %0, %"struct.std::thread::_State_impl"** %2, align 8
  call void @llvm.dbg.declare(metadata %"struct.std::thread::_State_impl"** %2, metadata !3583, metadata !2776), !dbg !3584
  %3 = load %"struct.std::thread::_State_impl"*, %"struct.std::thread::_State_impl"** %2, align 8
  call void @_ZNSt6thread11_State_implISt12_Bind_simpleIFSt7_Mem_fnIMN14shared_pointer7Thread1EFvvEEPS4_EEED2Ev(%"struct.std::thread::_State_impl"* %3) #3, !dbg !3585
  %4 = bitcast %"struct.std::thread::_State_impl"* %3 to i8*, !dbg !3585
  call void @_ZdlPv(i8* %4) #16, !dbg !3586
  ret void, !dbg !3585
}

; Function Attrs: uwtable
define linkonce_odr void @_ZNSt6thread11_State_implISt12_Bind_simpleIFSt7_Mem_fnIMN14shared_pointer7Thread1EFvvEEPS4_EEE6_M_runEv(%"struct.std::thread::_State_impl"*) unnamed_addr #0 comdat align 2 !dbg !3588 {
  %2 = alloca %"struct.std::thread::_State_impl"*, align 8
  store %"struct.std::thread::_State_impl"* %0, %"struct.std::thread::_State_impl"** %2, align 8
  call void @llvm.dbg.declare(metadata %"struct.std::thread::_State_impl"** %2, metadata !3589, metadata !2776), !dbg !3590
  %3 = load %"struct.std::thread::_State_impl"*, %"struct.std::thread::_State_impl"** %2, align 8
  %4 = getelementptr inbounds %"struct.std::thread::_State_impl", %"struct.std::thread::_State_impl"* %3, i32 0, i32 1, !dbg !3591
  call void @_ZNSt12_Bind_simpleIFSt7_Mem_fnIMN14shared_pointer7Thread1EFvvEEPS2_EEclEv(%"struct.std::_Bind_simple"* %4), !dbg !3591
  ret void, !dbg !3592
}

; Function Attrs: nounwind uwtable
define linkonce_odr void @_ZNSt5tupleIJSt7_Mem_fnIMN14shared_pointer7Thread1EFvvEEPS2_EEC2EOS7_(%"class.std::tuple.3"*, %"class.std::tuple.3"* dereferenceable(24)) unnamed_addr #4 comdat align 2 !dbg !3593 {
  %3 = alloca %"class.std::tuple.3"*, align 8
  %4 = alloca %"class.std::tuple.3"*, align 8
  store %"class.std::tuple.3"* %0, %"class.std::tuple.3"** %3, align 8
  call void @llvm.dbg.declare(metadata %"class.std::tuple.3"** %3, metadata !3594, metadata !2776), !dbg !3596
  store %"class.std::tuple.3"* %1, %"class.std::tuple.3"** %4, align 8
  call void @llvm.dbg.declare(metadata %"class.std::tuple.3"** %4, metadata !3597, metadata !2776), !dbg !3598
  %5 = load %"class.std::tuple.3"*, %"class.std::tuple.3"** %3, align 8
  %6 = bitcast %"class.std::tuple.3"* %5 to %"struct.std::_Tuple_impl.4"*, !dbg !3599
  %7 = load %"class.std::tuple.3"*, %"class.std::tuple.3"** %4, align 8, !dbg !3599
  %8 = bitcast %"class.std::tuple.3"* %7 to %"struct.std::_Tuple_impl.4"*, !dbg !3599
  call void @_ZNSt11_Tuple_implILm0EJSt7_Mem_fnIMN14shared_pointer7Thread1EFvvEEPS2_EEC2EOS7_(%"struct.std::_Tuple_impl.4"* %6, %"struct.std::_Tuple_impl.4"* dereferenceable(24) %8) #3, !dbg !3599
  ret void, !dbg !3599
}

; Function Attrs: nounwind uwtable
define linkonce_odr void @_ZNSt11_Tuple_implILm0EJSt7_Mem_fnIMN14shared_pointer7Thread1EFvvEEPS2_EEC2EOS7_(%"struct.std::_Tuple_impl.4"*, %"struct.std::_Tuple_impl.4"* dereferenceable(24)) unnamed_addr #4 comdat align 2 personality i8* bitcast (i32 (...)* @__gxx_personality_v0 to i8*) !dbg !3600 {
  %3 = alloca %"struct.std::_Tuple_impl.4"*, align 8
  %4 = alloca %"struct.std::_Tuple_impl.4"*, align 8
  store %"struct.std::_Tuple_impl.4"* %0, %"struct.std::_Tuple_impl.4"** %3, align 8
  call void @llvm.dbg.declare(metadata %"struct.std::_Tuple_impl.4"** %3, metadata !3601, metadata !2776), !dbg !3603
  store %"struct.std::_Tuple_impl.4"* %1, %"struct.std::_Tuple_impl.4"** %4, align 8
  call void @llvm.dbg.declare(metadata %"struct.std::_Tuple_impl.4"** %4, metadata !3604, metadata !2776), !dbg !3605
  %5 = load %"struct.std::_Tuple_impl.4"*, %"struct.std::_Tuple_impl.4"** %3, align 8
  %6 = bitcast %"struct.std::_Tuple_impl.4"* %5 to %"struct.std::_Tuple_impl.5"*, !dbg !3606
  %7 = load %"struct.std::_Tuple_impl.4"*, %"struct.std::_Tuple_impl.4"** %4, align 8, !dbg !3607
  %8 = call dereferenceable(8) %"struct.std::_Tuple_impl.5"* @_ZNSt11_Tuple_implILm0EJSt7_Mem_fnIMN14shared_pointer7Thread1EFvvEEPS2_EE7_M_tailERS7_(%"struct.std::_Tuple_impl.4"* dereferenceable(24) %7) #3, !dbg !3608
  %9 = call dereferenceable(8) %"struct.std::_Tuple_impl.5"* @_ZSt4moveIRSt11_Tuple_implILm1EJPN14shared_pointer7Thread1EEEEONSt16remove_referenceIT_E4typeEOS7_(%"struct.std::_Tuple_impl.5"* dereferenceable(8) %8) #3, !dbg !3609
  call void @_ZNSt11_Tuple_implILm1EJPN14shared_pointer7Thread1EEEC2EOS3_(%"struct.std::_Tuple_impl.5"* %6, %"struct.std::_Tuple_impl.5"* dereferenceable(8) %9) #3, !dbg !3611
  %10 = bitcast %"struct.std::_Tuple_impl.4"* %5 to i8*, !dbg !3606
  %11 = getelementptr inbounds i8, i8* %10, i64 8, !dbg !3606
  %12 = bitcast i8* %11 to %"struct.std::_Head_base.7"*, !dbg !3606
  %13 = load %"struct.std::_Tuple_impl.4"*, %"struct.std::_Tuple_impl.4"** %4, align 8, !dbg !3613
  %14 = call dereferenceable(16) %"struct.std::_Mem_fn"* @_ZNSt11_Tuple_implILm0EJSt7_Mem_fnIMN14shared_pointer7Thread1EFvvEEPS2_EE7_M_headERS7_(%"struct.std::_Tuple_impl.4"* dereferenceable(24) %13) #3, !dbg !3614
  %15 = call dereferenceable(16) %"struct.std::_Mem_fn"* @_ZSt7forwardISt7_Mem_fnIMN14shared_pointer7Thread1EFvvEEEOT_RNSt16remove_referenceIS6_E4typeE(%"struct.std::_Mem_fn"* dereferenceable(16) %14) #3, !dbg !3615
  invoke void @_ZNSt10_Head_baseILm0ESt7_Mem_fnIMN14shared_pointer7Thread1EFvvEELb0EEC2IS5_EEOT_(%"struct.std::_Head_base.7"* %12, %"struct.std::_Mem_fn"* dereferenceable(16) %15)
          to label %16 unwind label %17, !dbg !3617

; <label>:16:                                     ; preds = %2
  ret void, !dbg !3618

; <label>:17:                                     ; preds = %2
  %18 = landingpad { i8*, i32 }
          catch i8* null, !dbg !3619
  %19 = extractvalue { i8*, i32 } %18, 0, !dbg !3619
  call void @__clang_call_terminate(i8* %19) #14, !dbg !3619
  unreachable, !dbg !3619
}

; Function Attrs: nounwind uwtable
define linkonce_odr dereferenceable(8) %"struct.std::_Tuple_impl.5"* @_ZSt4moveIRSt11_Tuple_implILm1EJPN14shared_pointer7Thread1EEEEONSt16remove_referenceIT_E4typeEOS7_(%"struct.std::_Tuple_impl.5"* dereferenceable(8)) #4 comdat !dbg !3620 {
  %2 = alloca %"struct.std::_Tuple_impl.5"*, align 8
  store %"struct.std::_Tuple_impl.5"* %0, %"struct.std::_Tuple_impl.5"** %2, align 8
  call void @llvm.dbg.declare(metadata %"struct.std::_Tuple_impl.5"** %2, metadata !3628, metadata !2776), !dbg !3629
  %3 = load %"struct.std::_Tuple_impl.5"*, %"struct.std::_Tuple_impl.5"** %2, align 8, !dbg !3630
  ret %"struct.std::_Tuple_impl.5"* %3, !dbg !3631
}

; Function Attrs: nounwind uwtable
define linkonce_odr dereferenceable(8) %"struct.std::_Tuple_impl.5"* @_ZNSt11_Tuple_implILm0EJSt7_Mem_fnIMN14shared_pointer7Thread1EFvvEEPS2_EE7_M_tailERS7_(%"struct.std::_Tuple_impl.4"* dereferenceable(24)) #4 comdat align 2 !dbg !3632 {
  %2 = alloca %"struct.std::_Tuple_impl.4"*, align 8
  store %"struct.std::_Tuple_impl.4"* %0, %"struct.std::_Tuple_impl.4"** %2, align 8
  call void @llvm.dbg.declare(metadata %"struct.std::_Tuple_impl.4"** %2, metadata !3633, metadata !2776), !dbg !3634
  %3 = load %"struct.std::_Tuple_impl.4"*, %"struct.std::_Tuple_impl.4"** %2, align 8, !dbg !3635
  %4 = bitcast %"struct.std::_Tuple_impl.4"* %3 to %"struct.std::_Tuple_impl.5"*, !dbg !3635
  ret %"struct.std::_Tuple_impl.5"* %4, !dbg !3636
}

; Function Attrs: nounwind uwtable
define linkonce_odr void @_ZNSt11_Tuple_implILm1EJPN14shared_pointer7Thread1EEEC2EOS3_(%"struct.std::_Tuple_impl.5"*, %"struct.std::_Tuple_impl.5"* dereferenceable(8)) unnamed_addr #4 comdat align 2 personality i8* bitcast (i32 (...)* @__gxx_personality_v0 to i8*) !dbg !3637 {
  %3 = alloca %"struct.std::_Tuple_impl.5"*, align 8
  %4 = alloca %"struct.std::_Tuple_impl.5"*, align 8
  store %"struct.std::_Tuple_impl.5"* %0, %"struct.std::_Tuple_impl.5"** %3, align 8
  call void @llvm.dbg.declare(metadata %"struct.std::_Tuple_impl.5"** %3, metadata !3638, metadata !2776), !dbg !3640
  store %"struct.std::_Tuple_impl.5"* %1, %"struct.std::_Tuple_impl.5"** %4, align 8
  call void @llvm.dbg.declare(metadata %"struct.std::_Tuple_impl.5"** %4, metadata !3641, metadata !2776), !dbg !3642
  %5 = load %"struct.std::_Tuple_impl.5"*, %"struct.std::_Tuple_impl.5"** %3, align 8
  %6 = bitcast %"struct.std::_Tuple_impl.5"* %5 to %"struct.std::_Head_base.6"*, !dbg !3643
  %7 = load %"struct.std::_Tuple_impl.5"*, %"struct.std::_Tuple_impl.5"** %4, align 8, !dbg !3644
  %8 = call dereferenceable(8) %"class.shared_pointer::Thread1"** @_ZNSt11_Tuple_implILm1EJPN14shared_pointer7Thread1EEE7_M_headERS3_(%"struct.std::_Tuple_impl.5"* dereferenceable(8) %7) #3, !dbg !3645
  %9 = call dereferenceable(8) %"class.shared_pointer::Thread1"** @_ZSt7forwardIPN14shared_pointer7Thread1EEOT_RNSt16remove_referenceIS3_E4typeE(%"class.shared_pointer::Thread1"** dereferenceable(8) %8) #3, !dbg !3646
  invoke void @_ZNSt10_Head_baseILm1EPN14shared_pointer7Thread1ELb0EEC2IS2_EEOT_(%"struct.std::_Head_base.6"* %6, %"class.shared_pointer::Thread1"** dereferenceable(8) %9)
          to label %10 unwind label %11, !dbg !3648

; <label>:10:                                     ; preds = %2
  ret void, !dbg !3649

; <label>:11:                                     ; preds = %2
  %12 = landingpad { i8*, i32 }
          catch i8* null, !dbg !3651
  %13 = extractvalue { i8*, i32 } %12, 0, !dbg !3651
  call void @__clang_call_terminate(i8* %13) #14, !dbg !3651
  unreachable, !dbg !3651
}

; Function Attrs: nounwind uwtable
define linkonce_odr dereferenceable(16) %"struct.std::_Mem_fn"* @_ZSt7forwardISt7_Mem_fnIMN14shared_pointer7Thread1EFvvEEEOT_RNSt16remove_referenceIS6_E4typeE(%"struct.std::_Mem_fn"* dereferenceable(16)) #4 comdat !dbg !3653 {
  %2 = alloca %"struct.std::_Mem_fn"*, align 8
  store %"struct.std::_Mem_fn"* %0, %"struct.std::_Mem_fn"** %2, align 8
  call void @llvm.dbg.declare(metadata %"struct.std::_Mem_fn"** %2, metadata !3662, metadata !2776), !dbg !3663
  %3 = load %"struct.std::_Mem_fn"*, %"struct.std::_Mem_fn"** %2, align 8, !dbg !3664
  ret %"struct.std::_Mem_fn"* %3, !dbg !3665
}

; Function Attrs: nounwind uwtable
define linkonce_odr dereferenceable(16) %"struct.std::_Mem_fn"* @_ZNSt11_Tuple_implILm0EJSt7_Mem_fnIMN14shared_pointer7Thread1EFvvEEPS2_EE7_M_headERS7_(%"struct.std::_Tuple_impl.4"* dereferenceable(24)) #4 comdat align 2 !dbg !3666 {
  %2 = alloca %"struct.std::_Tuple_impl.4"*, align 8
  store %"struct.std::_Tuple_impl.4"* %0, %"struct.std::_Tuple_impl.4"** %2, align 8
  call void @llvm.dbg.declare(metadata %"struct.std::_Tuple_impl.4"** %2, metadata !3667, metadata !2776), !dbg !3668
  %3 = load %"struct.std::_Tuple_impl.4"*, %"struct.std::_Tuple_impl.4"** %2, align 8, !dbg !3669
  %4 = bitcast %"struct.std::_Tuple_impl.4"* %3 to i8*, !dbg !3669
  %5 = getelementptr inbounds i8, i8* %4, i64 8, !dbg !3669
  %6 = bitcast i8* %5 to %"struct.std::_Head_base.7"*, !dbg !3669
  %7 = call dereferenceable(16) %"struct.std::_Mem_fn"* @_ZNSt10_Head_baseILm0ESt7_Mem_fnIMN14shared_pointer7Thread1EFvvEELb0EE7_M_headERS6_(%"struct.std::_Head_base.7"* dereferenceable(16) %6) #3, !dbg !3670
  ret %"struct.std::_Mem_fn"* %7, !dbg !3671
}

; Function Attrs: nounwind uwtable
define linkonce_odr void @_ZNSt10_Head_baseILm0ESt7_Mem_fnIMN14shared_pointer7Thread1EFvvEELb0EEC2IS5_EEOT_(%"struct.std::_Head_base.7"*, %"struct.std::_Mem_fn"* dereferenceable(16)) unnamed_addr #4 comdat align 2 !dbg !3672 {
  %3 = alloca %"struct.std::_Head_base.7"*, align 8
  %4 = alloca %"struct.std::_Mem_fn"*, align 8
  store %"struct.std::_Head_base.7"* %0, %"struct.std::_Head_base.7"** %3, align 8
  call void @llvm.dbg.declare(metadata %"struct.std::_Head_base.7"** %3, metadata !3678, metadata !2776), !dbg !3680
  store %"struct.std::_Mem_fn"* %1, %"struct.std::_Mem_fn"** %4, align 8
  call void @llvm.dbg.declare(metadata %"struct.std::_Mem_fn"** %4, metadata !3681, metadata !2776), !dbg !3682
  %5 = load %"struct.std::_Head_base.7"*, %"struct.std::_Head_base.7"** %3, align 8
  %6 = getelementptr inbounds %"struct.std::_Head_base.7", %"struct.std::_Head_base.7"* %5, i32 0, i32 0, !dbg !3683
  %7 = load %"struct.std::_Mem_fn"*, %"struct.std::_Mem_fn"** %4, align 8, !dbg !3684
  %8 = call dereferenceable(16) %"struct.std::_Mem_fn"* @_ZSt7forwardISt7_Mem_fnIMN14shared_pointer7Thread1EFvvEEEOT_RNSt16remove_referenceIS6_E4typeE(%"struct.std::_Mem_fn"* dereferenceable(16) %7) #3, !dbg !3685
  %9 = bitcast %"struct.std::_Mem_fn"* %6 to i8*, !dbg !3683
  %10 = bitcast %"struct.std::_Mem_fn"* %8 to i8*, !dbg !3683
  call void @llvm.memcpy.p0i8.p0i8.i64(i8* %9, i8* %10, i64 16, i32 8, i1 false), !dbg !3686
  ret void, !dbg !3688
}

; Function Attrs: noinline noreturn nounwind
define linkonce_odr hidden void @__clang_call_terminate(i8*) #12 comdat {
  %2 = call i8* @__cxa_begin_catch(i8* %0) #3
  call void @_ZSt9terminatev() #14
  unreachable
}

declare i8* @__cxa_begin_catch(i8*)

; Function Attrs: nounwind uwtable
define linkonce_odr dereferenceable(8) %"class.shared_pointer::Thread1"** @_ZNSt11_Tuple_implILm1EJPN14shared_pointer7Thread1EEE7_M_headERS3_(%"struct.std::_Tuple_impl.5"* dereferenceable(8)) #4 comdat align 2 !dbg !3689 {
  %2 = alloca %"struct.std::_Tuple_impl.5"*, align 8
  store %"struct.std::_Tuple_impl.5"* %0, %"struct.std::_Tuple_impl.5"** %2, align 8
  call void @llvm.dbg.declare(metadata %"struct.std::_Tuple_impl.5"** %2, metadata !3690, metadata !2776), !dbg !3691
  %3 = load %"struct.std::_Tuple_impl.5"*, %"struct.std::_Tuple_impl.5"** %2, align 8, !dbg !3692
  %4 = bitcast %"struct.std::_Tuple_impl.5"* %3 to %"struct.std::_Head_base.6"*, !dbg !3692
  %5 = call dereferenceable(8) %"class.shared_pointer::Thread1"** @_ZNSt10_Head_baseILm1EPN14shared_pointer7Thread1ELb0EE7_M_headERS3_(%"struct.std::_Head_base.6"* dereferenceable(8) %4) #3, !dbg !3693
  ret %"class.shared_pointer::Thread1"** %5, !dbg !3694
}

; Function Attrs: nounwind uwtable
define linkonce_odr void @_ZNSt10_Head_baseILm1EPN14shared_pointer7Thread1ELb0EEC2IS2_EEOT_(%"struct.std::_Head_base.6"*, %"class.shared_pointer::Thread1"** dereferenceable(8)) unnamed_addr #4 comdat align 2 !dbg !3695 {
  %3 = alloca %"struct.std::_Head_base.6"*, align 8
  %4 = alloca %"class.shared_pointer::Thread1"**, align 8
  store %"struct.std::_Head_base.6"* %0, %"struct.std::_Head_base.6"** %3, align 8
  call void @llvm.dbg.declare(metadata %"struct.std::_Head_base.6"** %3, metadata !3701, metadata !2776), !dbg !3703
  store %"class.shared_pointer::Thread1"** %1, %"class.shared_pointer::Thread1"*** %4, align 8
  call void @llvm.dbg.declare(metadata %"class.shared_pointer::Thread1"*** %4, metadata !3704, metadata !2776), !dbg !3705
  %5 = load %"struct.std::_Head_base.6"*, %"struct.std::_Head_base.6"** %3, align 8
  %6 = getelementptr inbounds %"struct.std::_Head_base.6", %"struct.std::_Head_base.6"* %5, i32 0, i32 0, !dbg !3706
  %7 = load %"class.shared_pointer::Thread1"**, %"class.shared_pointer::Thread1"*** %4, align 8, !dbg !3707
  %8 = call dereferenceable(8) %"class.shared_pointer::Thread1"** @_ZSt7forwardIPN14shared_pointer7Thread1EEOT_RNSt16remove_referenceIS3_E4typeE(%"class.shared_pointer::Thread1"** dereferenceable(8) %7) #3, !dbg !3708
  %9 = load %"class.shared_pointer::Thread1"*, %"class.shared_pointer::Thread1"** %8, align 8, !dbg !3708
  store %"class.shared_pointer::Thread1"* %9, %"class.shared_pointer::Thread1"** %6, align 8, !dbg !3706
  ret void, !dbg !3709
}

; Function Attrs: nounwind uwtable
define linkonce_odr dereferenceable(8) %"class.shared_pointer::Thread1"** @_ZNSt10_Head_baseILm1EPN14shared_pointer7Thread1ELb0EE7_M_headERS3_(%"struct.std::_Head_base.6"* dereferenceable(8)) #4 comdat align 2 !dbg !3710 {
  %2 = alloca %"struct.std::_Head_base.6"*, align 8
  store %"struct.std::_Head_base.6"* %0, %"struct.std::_Head_base.6"** %2, align 8
  call void @llvm.dbg.declare(metadata %"struct.std::_Head_base.6"** %2, metadata !3711, metadata !2776), !dbg !3712
  %3 = load %"struct.std::_Head_base.6"*, %"struct.std::_Head_base.6"** %2, align 8, !dbg !3713
  %4 = getelementptr inbounds %"struct.std::_Head_base.6", %"struct.std::_Head_base.6"* %3, i32 0, i32 0, !dbg !3714
  ret %"class.shared_pointer::Thread1"** %4, !dbg !3715
}

; Function Attrs: nounwind uwtable
define linkonce_odr dereferenceable(16) %"struct.std::_Mem_fn"* @_ZNSt10_Head_baseILm0ESt7_Mem_fnIMN14shared_pointer7Thread1EFvvEELb0EE7_M_headERS6_(%"struct.std::_Head_base.7"* dereferenceable(16)) #4 comdat align 2 !dbg !3716 {
  %2 = alloca %"struct.std::_Head_base.7"*, align 8
  store %"struct.std::_Head_base.7"* %0, %"struct.std::_Head_base.7"** %2, align 8
  call void @llvm.dbg.declare(metadata %"struct.std::_Head_base.7"** %2, metadata !3717, metadata !2776), !dbg !3718
  %3 = load %"struct.std::_Head_base.7"*, %"struct.std::_Head_base.7"** %2, align 8, !dbg !3719
  %4 = getelementptr inbounds %"struct.std::_Head_base.7", %"struct.std::_Head_base.7"* %3, i32 0, i32 0, !dbg !3720
  ret %"struct.std::_Mem_fn"* %4, !dbg !3721
}

; Function Attrs: nounwind
declare void @_ZNSt6thread6_StateD2Ev(%"struct.std::thread::_State"*) unnamed_addr #2

; Function Attrs: uwtable
define linkonce_odr void @_ZNSt12_Bind_simpleIFSt7_Mem_fnIMN14shared_pointer7Thread1EFvvEEPS2_EEclEv(%"struct.std::_Bind_simple"*) #0 comdat align 2 !dbg !3722 {
  %2 = alloca %"struct.std::_Bind_simple"*, align 8
  %3 = alloca %"struct.std::_Index_tuple", align 1
  store %"struct.std::_Bind_simple"* %0, %"struct.std::_Bind_simple"** %2, align 8
  call void @llvm.dbg.declare(metadata %"struct.std::_Bind_simple"** %2, metadata !3723, metadata !2776), !dbg !3724
  %4 = load %"struct.std::_Bind_simple"*, %"struct.std::_Bind_simple"** %2, align 8
  call void @_ZNSt12_Bind_simpleIFSt7_Mem_fnIMN14shared_pointer7Thread1EFvvEEPS2_EE9_M_invokeIJLm0EEEEvSt12_Index_tupleIJXspT_EEE(%"struct.std::_Bind_simple"* %4), !dbg !3725
  ret void, !dbg !3726
}

; Function Attrs: uwtable
define linkonce_odr void @_ZNSt12_Bind_simpleIFSt7_Mem_fnIMN14shared_pointer7Thread1EFvvEEPS2_EE9_M_invokeIJLm0EEEEvSt12_Index_tupleIJXspT_EEE(%"struct.std::_Bind_simple"*) #0 comdat align 2 !dbg !3727 {
  %2 = alloca %"struct.std::_Index_tuple", align 1
  %3 = alloca %"struct.std::_Bind_simple"*, align 8
  store %"struct.std::_Bind_simple"* %0, %"struct.std::_Bind_simple"** %3, align 8
  call void @llvm.dbg.declare(metadata %"struct.std::_Bind_simple"** %3, metadata !3739, metadata !2776), !dbg !3740
  call void @llvm.dbg.declare(metadata %"struct.std::_Index_tuple"* %2, metadata !3741, metadata !2776), !dbg !3742
  %4 = load %"struct.std::_Bind_simple"*, %"struct.std::_Bind_simple"** %3, align 8
  %5 = getelementptr inbounds %"struct.std::_Bind_simple", %"struct.std::_Bind_simple"* %4, i32 0, i32 0, !dbg !3743
  %6 = call dereferenceable(16) %"struct.std::_Mem_fn"* @_ZSt3getILm0EJSt7_Mem_fnIMN14shared_pointer7Thread1EFvvEEPS2_EERNSt13tuple_elementIXT_ESt5tupleIJDpT0_EEE4typeERSB_(%"class.std::tuple.3"* dereferenceable(24) %5) #3, !dbg !3744
  %7 = call dereferenceable(16) %"struct.std::_Mem_fn"* @_ZSt7forwardISt7_Mem_fnIMN14shared_pointer7Thread1EFvvEEEOT_RNSt16remove_referenceIS6_E4typeE(%"struct.std::_Mem_fn"* dereferenceable(16) %6) #3, !dbg !3745
  %8 = bitcast %"struct.std::_Mem_fn"* %7 to %"class.std::_Mem_fn_base"*, !dbg !3747
  %9 = getelementptr inbounds %"struct.std::_Bind_simple", %"struct.std::_Bind_simple"* %4, i32 0, i32 0, !dbg !3748
  %10 = call dereferenceable(8) %"class.shared_pointer::Thread1"** @_ZSt3getILm1EJSt7_Mem_fnIMN14shared_pointer7Thread1EFvvEEPS2_EERNSt13tuple_elementIXT_ESt5tupleIJDpT0_EEE4typeERSB_(%"class.std::tuple.3"* dereferenceable(24) %9) #3, !dbg !3749
  %11 = call dereferenceable(8) %"class.shared_pointer::Thread1"** @_ZSt7forwardIPN14shared_pointer7Thread1EEOT_RNSt16remove_referenceIS3_E4typeE(%"class.shared_pointer::Thread1"** dereferenceable(8) %10) #3, !dbg !3750
  call void @_ZNKSt12_Mem_fn_baseIMN14shared_pointer7Thread1EFvvELb1EEclIJPS1_EEEDTclsr3stdE8__invokedtdefpT6_M_pmfspclsr3stdE7forwardIT_Efp_EEEDpOS7_(%"class.std::_Mem_fn_base"* %8, %"class.shared_pointer::Thread1"** dereferenceable(8) %11), !dbg !3751
  ret void, !dbg !3753
}

; Function Attrs: nounwind uwtable
define linkonce_odr dereferenceable(16) %"struct.std::_Mem_fn"* @_ZSt3getILm0EJSt7_Mem_fnIMN14shared_pointer7Thread1EFvvEEPS2_EERNSt13tuple_elementIXT_ESt5tupleIJDpT0_EEE4typeERSB_(%"class.std::tuple.3"* dereferenceable(24)) #4 comdat !dbg !3754 {
  %2 = alloca %"class.std::tuple.3"*, align 8
  store %"class.std::tuple.3"* %0, %"class.std::tuple.3"** %2, align 8
  call void @llvm.dbg.declare(metadata %"class.std::tuple.3"** %2, metadata !3766, metadata !2776), !dbg !3767
  %3 = load %"class.std::tuple.3"*, %"class.std::tuple.3"** %2, align 8, !dbg !3768
  %4 = bitcast %"class.std::tuple.3"* %3 to %"struct.std::_Tuple_impl.4"*, !dbg !3768
  %5 = call dereferenceable(16) %"struct.std::_Mem_fn"* @_ZSt12__get_helperILm0ESt7_Mem_fnIMN14shared_pointer7Thread1EFvvEEJPS2_EERT0_RSt11_Tuple_implIXT_EJS7_DpT1_EE(%"struct.std::_Tuple_impl.4"* dereferenceable(24) %4) #3, !dbg !3769
  ret %"struct.std::_Mem_fn"* %5, !dbg !3770
}

; Function Attrs: uwtable
define linkonce_odr void @_ZNKSt12_Mem_fn_baseIMN14shared_pointer7Thread1EFvvELb1EEclIJPS1_EEEDTclsr3stdE8__invokedtdefpT6_M_pmfspclsr3stdE7forwardIT_Efp_EEEDpOS7_(%"class.std::_Mem_fn_base"*, %"class.shared_pointer::Thread1"** dereferenceable(8)) #0 comdat align 2 !dbg !3771 {
  %3 = alloca %"class.std::_Mem_fn_base"*, align 8
  %4 = alloca %"class.shared_pointer::Thread1"**, align 8
  store %"class.std::_Mem_fn_base"* %0, %"class.std::_Mem_fn_base"** %3, align 8
  call void @llvm.dbg.declare(metadata %"class.std::_Mem_fn_base"** %3, metadata !3778, metadata !2776), !dbg !3780
  store %"class.shared_pointer::Thread1"** %1, %"class.shared_pointer::Thread1"*** %4, align 8
  call void @llvm.dbg.declare(metadata %"class.shared_pointer::Thread1"*** %4, metadata !3781, metadata !2776), !dbg !3782
  %5 = load %"class.std::_Mem_fn_base"*, %"class.std::_Mem_fn_base"** %3, align 8
  %6 = getelementptr inbounds %"class.std::_Mem_fn_base", %"class.std::_Mem_fn_base"* %5, i32 0, i32 0, !dbg !3783
  %7 = load %"class.shared_pointer::Thread1"**, %"class.shared_pointer::Thread1"*** %4, align 8, !dbg !3784
  %8 = call dereferenceable(8) %"class.shared_pointer::Thread1"** @_ZSt7forwardIPN14shared_pointer7Thread1EEOT_RNSt16remove_referenceIS3_E4typeE(%"class.shared_pointer::Thread1"** dereferenceable(8) %7) #3, !dbg !3785
  call void @_ZSt8__invokeIRKMN14shared_pointer7Thread1EFvvEJPS1_EENSt9result_ofIFOT_DpOT0_EE4typeES9_SC_({ i64, i64 }* dereferenceable(16) %6, %"class.shared_pointer::Thread1"** dereferenceable(8) %8), !dbg !3786
  ret void, !dbg !3788
}

; Function Attrs: nounwind uwtable
define linkonce_odr dereferenceable(8) %"class.shared_pointer::Thread1"** @_ZSt3getILm1EJSt7_Mem_fnIMN14shared_pointer7Thread1EFvvEEPS2_EERNSt13tuple_elementIXT_ESt5tupleIJDpT0_EEE4typeERSB_(%"class.std::tuple.3"* dereferenceable(24)) #4 comdat !dbg !3789 {
  %2 = alloca %"class.std::tuple.3"*, align 8
  store %"class.std::tuple.3"* %0, %"class.std::tuple.3"** %2, align 8
  call void @llvm.dbg.declare(metadata %"class.std::tuple.3"** %2, metadata !3801, metadata !2776), !dbg !3802
  %3 = load %"class.std::tuple.3"*, %"class.std::tuple.3"** %2, align 8, !dbg !3803
  %4 = bitcast %"class.std::tuple.3"* %3 to %"struct.std::_Tuple_impl.5"*, !dbg !3803
  %5 = call dereferenceable(8) %"class.shared_pointer::Thread1"** @_ZSt12__get_helperILm1EPN14shared_pointer7Thread1EJEERT0_RSt11_Tuple_implIXT_EJS3_DpT1_EE(%"struct.std::_Tuple_impl.5"* dereferenceable(8) %4) #3, !dbg !3804
  ret %"class.shared_pointer::Thread1"** %5, !dbg !3805
}

; Function Attrs: nounwind uwtable
define linkonce_odr dereferenceable(16) %"struct.std::_Mem_fn"* @_ZSt12__get_helperILm0ESt7_Mem_fnIMN14shared_pointer7Thread1EFvvEEJPS2_EERT0_RSt11_Tuple_implIXT_EJS7_DpT1_EE(%"struct.std::_Tuple_impl.4"* dereferenceable(24)) #4 comdat !dbg !3806 {
  %2 = alloca %"struct.std::_Tuple_impl.4"*, align 8
  store %"struct.std::_Tuple_impl.4"* %0, %"struct.std::_Tuple_impl.4"** %2, align 8
  call void @llvm.dbg.declare(metadata %"struct.std::_Tuple_impl.4"** %2, metadata !3809, metadata !2776), !dbg !3810
  %3 = load %"struct.std::_Tuple_impl.4"*, %"struct.std::_Tuple_impl.4"** %2, align 8, !dbg !3811
  %4 = call dereferenceable(16) %"struct.std::_Mem_fn"* @_ZNSt11_Tuple_implILm0EJSt7_Mem_fnIMN14shared_pointer7Thread1EFvvEEPS2_EE7_M_headERS7_(%"struct.std::_Tuple_impl.4"* dereferenceable(24) %3) #3, !dbg !3812
  ret %"struct.std::_Mem_fn"* %4, !dbg !3813
}

; Function Attrs: inlinehint uwtable
define linkonce_odr void @_ZSt8__invokeIRKMN14shared_pointer7Thread1EFvvEJPS1_EENSt9result_ofIFOT_DpOT0_EE4typeES9_SC_({ i64, i64 }* dereferenceable(16), %"class.shared_pointer::Thread1"** dereferenceable(8)) #13 comdat !dbg !42 {
  %3 = alloca { i64, i64 }*, align 8
  %4 = alloca %"class.shared_pointer::Thread1"**, align 8
  %5 = alloca %"struct.std::__invoke_memfun_deref", align 1
  store { i64, i64 }* %0, { i64, i64 }** %3, align 8
  call void @llvm.dbg.declare(metadata { i64, i64 }** %3, metadata !3814, metadata !2776), !dbg !3815
  store %"class.shared_pointer::Thread1"** %1, %"class.shared_pointer::Thread1"*** %4, align 8
  call void @llvm.dbg.declare(metadata %"class.shared_pointer::Thread1"*** %4, metadata !3816, metadata !2776), !dbg !3817
  %6 = load { i64, i64 }*, { i64, i64 }** %3, align 8, !dbg !3818
  %7 = call dereferenceable(16) { i64, i64 }* @_ZSt7forwardIRKMN14shared_pointer7Thread1EFvvEEOT_RNSt16remove_referenceIS6_E4typeE({ i64, i64 }* dereferenceable(16) %6) #3, !dbg !3819
  %8 = load %"class.shared_pointer::Thread1"**, %"class.shared_pointer::Thread1"*** %4, align 8, !dbg !3820
  %9 = call dereferenceable(8) %"class.shared_pointer::Thread1"** @_ZSt7forwardIPN14shared_pointer7Thread1EEOT_RNSt16remove_referenceIS3_E4typeE(%"class.shared_pointer::Thread1"** dereferenceable(8) %8) #3, !dbg !3821
  call void @_ZSt13__invoke_implIvRKMN14shared_pointer7Thread1EFvvEPS1_JEET_St21__invoke_memfun_derefOT0_OT1_DpOT2_({ i64, i64 }* dereferenceable(16) %7, %"class.shared_pointer::Thread1"** dereferenceable(8) %9), !dbg !3822
  ret void, !dbg !3824
}

; Function Attrs: inlinehint uwtable
define linkonce_odr void @_ZSt13__invoke_implIvRKMN14shared_pointer7Thread1EFvvEPS1_JEET_St21__invoke_memfun_derefOT0_OT1_DpOT2_({ i64, i64 }* dereferenceable(16), %"class.shared_pointer::Thread1"** dereferenceable(8)) #13 comdat !dbg !3825 {
  %3 = alloca %"struct.std::__invoke_memfun_deref", align 1
  %4 = alloca { i64, i64 }*, align 8
  %5 = alloca %"class.shared_pointer::Thread1"**, align 8
  call void @llvm.dbg.declare(metadata %"struct.std::__invoke_memfun_deref"* %3, metadata !3831, metadata !2776), !dbg !3832
  store { i64, i64 }* %0, { i64, i64 }** %4, align 8
  call void @llvm.dbg.declare(metadata { i64, i64 }** %4, metadata !3833, metadata !2776), !dbg !3834
  store %"class.shared_pointer::Thread1"** %1, %"class.shared_pointer::Thread1"*** %5, align 8
  call void @llvm.dbg.declare(metadata %"class.shared_pointer::Thread1"*** %5, metadata !3835, metadata !2776), !dbg !3836
  %6 = load { i64, i64 }*, { i64, i64 }** %4, align 8, !dbg !3837
  %7 = load { i64, i64 }, { i64, i64 }* %6, align 8, !dbg !3837
  %8 = load %"class.shared_pointer::Thread1"**, %"class.shared_pointer::Thread1"*** %5, align 8, !dbg !3838
  %9 = call dereferenceable(8) %"class.shared_pointer::Thread1"** @_ZSt7forwardIPN14shared_pointer7Thread1EEOT_RNSt16remove_referenceIS3_E4typeE(%"class.shared_pointer::Thread1"** dereferenceable(8) %8) #3, !dbg !3839
  %10 = load %"class.shared_pointer::Thread1"*, %"class.shared_pointer::Thread1"** %9, align 8, !dbg !3839
  %11 = extractvalue { i64, i64 } %7, 1, !dbg !3840
  %12 = bitcast %"class.shared_pointer::Thread1"* %10 to i8*, !dbg !3840
  %13 = getelementptr inbounds i8, i8* %12, i64 %11, !dbg !3840
  %14 = bitcast i8* %13 to %"class.shared_pointer::Thread1"*, !dbg !3840
  %15 = extractvalue { i64, i64 } %7, 0, !dbg !3840
  %16 = and i64 %15, 1, !dbg !3840
  %17 = icmp ne i64 %16, 0, !dbg !3840
  br i1 %17, label %18, label %25, !dbg !3840

; <label>:18:                                     ; preds = %2
  %19 = bitcast %"class.shared_pointer::Thread1"* %14 to i8**, !dbg !3841
  %20 = load i8*, i8** %19, align 8, !dbg !3841
  %21 = sub i64 %15, 1, !dbg !3841
  %22 = getelementptr i8, i8* %20, i64 %21, !dbg !3841
  %23 = bitcast i8* %22 to void (%"class.shared_pointer::Thread1"*)**, !dbg !3841
  %24 = load void (%"class.shared_pointer::Thread1"*)*, void (%"class.shared_pointer::Thread1"*)** %23, align 8, !dbg !3841
  br label %27, !dbg !3841

; <label>:25:                                     ; preds = %2
  %26 = inttoptr i64 %15 to void (%"class.shared_pointer::Thread1"*)*, !dbg !3843
  br label %27, !dbg !3843

; <label>:27:                                     ; preds = %25, %18
  %28 = phi void (%"class.shared_pointer::Thread1"*)* [ %24, %18 ], [ %26, %25 ], !dbg !3845
  call void %28(%"class.shared_pointer::Thread1"* %14), !dbg !3845
  ret void, !dbg !3847
}

; Function Attrs: nounwind uwtable
define linkonce_odr dereferenceable(16) { i64, i64 }* @_ZSt7forwardIRKMN14shared_pointer7Thread1EFvvEEOT_RNSt16remove_referenceIS6_E4typeE({ i64, i64 }* dereferenceable(16)) #4 comdat !dbg !3848 {
  %2 = alloca { i64, i64 }*, align 8
  store { i64, i64 }* %0, { i64, i64 }** %2, align 8
  call void @llvm.dbg.declare(metadata { i64, i64 }** %2, metadata !3856, metadata !2776), !dbg !3857
  %3 = load { i64, i64 }*, { i64, i64 }** %2, align 8, !dbg !3858
  ret { i64, i64 }* %3, !dbg !3859
}

; Function Attrs: nounwind uwtable
define linkonce_odr dereferenceable(8) %"class.shared_pointer::Thread1"** @_ZSt12__get_helperILm1EPN14shared_pointer7Thread1EJEERT0_RSt11_Tuple_implIXT_EJS3_DpT1_EE(%"struct.std::_Tuple_impl.5"* dereferenceable(8)) #4 comdat !dbg !3860 {
  %2 = alloca %"struct.std::_Tuple_impl.5"*, align 8
  store %"struct.std::_Tuple_impl.5"* %0, %"struct.std::_Tuple_impl.5"** %2, align 8
  call void @llvm.dbg.declare(metadata %"struct.std::_Tuple_impl.5"** %2, metadata !3863, metadata !2776), !dbg !3864
  %3 = load %"struct.std::_Tuple_impl.5"*, %"struct.std::_Tuple_impl.5"** %2, align 8, !dbg !3865
  %4 = call dereferenceable(8) %"class.shared_pointer::Thread1"** @_ZNSt11_Tuple_implILm1EJPN14shared_pointer7Thread1EEE7_M_headERS3_(%"struct.std::_Tuple_impl.5"* dereferenceable(8) %3) #3, !dbg !3866
  ret %"class.shared_pointer::Thread1"** %4, !dbg !3867
}

; Function Attrs: uwtable
define linkonce_odr void @_ZNSt5tupleIJPNSt6thread6_StateESt14default_deleteIS1_EEEC2IS2_S4_Lb1EEEv(%"class.std::tuple"*) unnamed_addr #0 comdat align 2 !dbg !3868 {
  %2 = alloca %"class.std::tuple"*, align 8
  store %"class.std::tuple"* %0, %"class.std::tuple"** %2, align 8
  call void @llvm.dbg.declare(metadata %"class.std::tuple"** %2, metadata !3875, metadata !2776), !dbg !3877
  %3 = load %"class.std::tuple"*, %"class.std::tuple"** %2, align 8
  %4 = bitcast %"class.std::tuple"* %3 to %"struct.std::_Tuple_impl"*, !dbg !3878
  call void @_ZNSt11_Tuple_implILm0EJPNSt6thread6_StateESt14default_deleteIS1_EEEC2Ev(%"struct.std::_Tuple_impl"* %4), !dbg !3879
  ret void, !dbg !3880
}

; Function Attrs: nounwind uwtable
define linkonce_odr dereferenceable(8) %"struct.std::thread::_State"** @_ZSt3getILm0EJPNSt6thread6_StateESt14default_deleteIS1_EEERNSt13tuple_elementIXT_ESt5tupleIJDpT0_EEE4typeERS9_(%"class.std::tuple"* dereferenceable(8)) #4 comdat !dbg !3881 {
  %2 = alloca %"class.std::tuple"*, align 8
  store %"class.std::tuple"* %0, %"class.std::tuple"** %2, align 8
  call void @llvm.dbg.declare(metadata %"class.std::tuple"** %2, metadata !3891, metadata !2776), !dbg !3892
  %3 = load %"class.std::tuple"*, %"class.std::tuple"** %2, align 8, !dbg !3893
  %4 = bitcast %"class.std::tuple"* %3 to %"struct.std::_Tuple_impl"*, !dbg !3893
  %5 = call dereferenceable(8) %"struct.std::thread::_State"** @_ZSt12__get_helperILm0EPNSt6thread6_StateEJSt14default_deleteIS1_EEERT0_RSt11_Tuple_implIXT_EJS5_DpT1_EE(%"struct.std::_Tuple_impl"* dereferenceable(8) %4) #3, !dbg !3894
  ret %"struct.std::thread::_State"** %5, !dbg !3895
}

; Function Attrs: uwtable
define linkonce_odr void @_ZNSt11_Tuple_implILm0EJPNSt6thread6_StateESt14default_deleteIS1_EEEC2Ev(%"struct.std::_Tuple_impl"*) unnamed_addr #0 comdat align 2 !dbg !3896 {
  %2 = alloca %"struct.std::_Tuple_impl"*, align 8
  store %"struct.std::_Tuple_impl"* %0, %"struct.std::_Tuple_impl"** %2, align 8
  call void @llvm.dbg.declare(metadata %"struct.std::_Tuple_impl"** %2, metadata !3897, metadata !2776), !dbg !3899
  %3 = load %"struct.std::_Tuple_impl"*, %"struct.std::_Tuple_impl"** %2, align 8
  %4 = bitcast %"struct.std::_Tuple_impl"* %3 to %"struct.std::_Tuple_impl.1"*, !dbg !3900
  call void @_ZNSt11_Tuple_implILm1EJSt14default_deleteINSt6thread6_StateEEEEC2Ev(%"struct.std::_Tuple_impl.1"* %4), !dbg !3901
  %5 = bitcast %"struct.std::_Tuple_impl"* %3 to %"struct.std::_Head_base.2"*, !dbg !3900
  call void @_ZNSt10_Head_baseILm0EPNSt6thread6_StateELb0EEC2Ev(%"struct.std::_Head_base.2"* %5), !dbg !3902
  ret void, !dbg !3904
}

; Function Attrs: uwtable
define linkonce_odr void @_ZNSt11_Tuple_implILm1EJSt14default_deleteINSt6thread6_StateEEEEC2Ev(%"struct.std::_Tuple_impl.1"*) unnamed_addr #0 comdat align 2 !dbg !3905 {
  %2 = alloca %"struct.std::_Tuple_impl.1"*, align 8
  store %"struct.std::_Tuple_impl.1"* %0, %"struct.std::_Tuple_impl.1"** %2, align 8
  call void @llvm.dbg.declare(metadata %"struct.std::_Tuple_impl.1"** %2, metadata !3906, metadata !2776), !dbg !3908
  %3 = load %"struct.std::_Tuple_impl.1"*, %"struct.std::_Tuple_impl.1"** %2, align 8
  %4 = bitcast %"struct.std::_Tuple_impl.1"* %3 to %"struct.std::_Head_base"*, !dbg !3909
  call void @_ZNSt10_Head_baseILm1ESt14default_deleteINSt6thread6_StateEELb1EEC2Ev(%"struct.std::_Head_base"* %4), !dbg !3910
  ret void, !dbg !3911
}

; Function Attrs: nounwind uwtable
define linkonce_odr void @_ZNSt10_Head_baseILm0EPNSt6thread6_StateELb0EEC2Ev(%"struct.std::_Head_base.2"*) unnamed_addr #4 comdat align 2 !dbg !3912 {
  %2 = alloca %"struct.std::_Head_base.2"*, align 8
  store %"struct.std::_Head_base.2"* %0, %"struct.std::_Head_base.2"** %2, align 8
  call void @llvm.dbg.declare(metadata %"struct.std::_Head_base.2"** %2, metadata !3913, metadata !2776), !dbg !3915
  %3 = load %"struct.std::_Head_base.2"*, %"struct.std::_Head_base.2"** %2, align 8
  %4 = getelementptr inbounds %"struct.std::_Head_base.2", %"struct.std::_Head_base.2"* %3, i32 0, i32 0, !dbg !3916
  store %"struct.std::thread::_State"* null, %"struct.std::thread::_State"** %4, align 8, !dbg !3916
  ret void, !dbg !3917
}

; Function Attrs: nounwind uwtable
define linkonce_odr void @_ZNSt10_Head_baseILm1ESt14default_deleteINSt6thread6_StateEELb1EEC2Ev(%"struct.std::_Head_base"*) unnamed_addr #4 comdat align 2 !dbg !3918 {
  %2 = alloca %"struct.std::_Head_base"*, align 8
  store %"struct.std::_Head_base"* %0, %"struct.std::_Head_base"** %2, align 8
  call void @llvm.dbg.declare(metadata %"struct.std::_Head_base"** %2, metadata !3919, metadata !2776), !dbg !3921
  %3 = load %"struct.std::_Head_base"*, %"struct.std::_Head_base"** %2, align 8
  %4 = bitcast %"struct.std::_Head_base"* %3 to %"struct.std::default_delete"*, !dbg !3922
  ret void, !dbg !3923
}

; Function Attrs: nounwind uwtable
define linkonce_odr dereferenceable(8) %"struct.std::thread::_State"** @_ZSt12__get_helperILm0EPNSt6thread6_StateEJSt14default_deleteIS1_EEERT0_RSt11_Tuple_implIXT_EJS5_DpT1_EE(%"struct.std::_Tuple_impl"* dereferenceable(8)) #4 comdat !dbg !3924 {
  %2 = alloca %"struct.std::_Tuple_impl"*, align 8
  store %"struct.std::_Tuple_impl"* %0, %"struct.std::_Tuple_impl"** %2, align 8
  call void @llvm.dbg.declare(metadata %"struct.std::_Tuple_impl"** %2, metadata !3927, metadata !2776), !dbg !3928
  %3 = load %"struct.std::_Tuple_impl"*, %"struct.std::_Tuple_impl"** %2, align 8, !dbg !3929
  %4 = call dereferenceable(8) %"struct.std::thread::_State"** @_ZNSt11_Tuple_implILm0EJPNSt6thread6_StateESt14default_deleteIS1_EEE7_M_headERS5_(%"struct.std::_Tuple_impl"* dereferenceable(8) %3) #3, !dbg !3930
  ret %"struct.std::thread::_State"** %4, !dbg !3931
}

; Function Attrs: nounwind uwtable
define linkonce_odr dereferenceable(8) %"struct.std::thread::_State"** @_ZNSt11_Tuple_implILm0EJPNSt6thread6_StateESt14default_deleteIS1_EEE7_M_headERS5_(%"struct.std::_Tuple_impl"* dereferenceable(8)) #4 comdat align 2 !dbg !3932 {
  %2 = alloca %"struct.std::_Tuple_impl"*, align 8
  store %"struct.std::_Tuple_impl"* %0, %"struct.std::_Tuple_impl"** %2, align 8
  call void @llvm.dbg.declare(metadata %"struct.std::_Tuple_impl"** %2, metadata !3933, metadata !2776), !dbg !3934
  %3 = load %"struct.std::_Tuple_impl"*, %"struct.std::_Tuple_impl"** %2, align 8, !dbg !3935
  %4 = bitcast %"struct.std::_Tuple_impl"* %3 to %"struct.std::_Head_base.2"*, !dbg !3935
  %5 = call dereferenceable(8) %"struct.std::thread::_State"** @_ZNSt10_Head_baseILm0EPNSt6thread6_StateELb0EE7_M_headERS3_(%"struct.std::_Head_base.2"* dereferenceable(8) %4) #3, !dbg !3936
  ret %"struct.std::thread::_State"** %5, !dbg !3937
}

; Function Attrs: nounwind uwtable
define linkonce_odr dereferenceable(8) %"struct.std::thread::_State"** @_ZNSt10_Head_baseILm0EPNSt6thread6_StateELb0EE7_M_headERS3_(%"struct.std::_Head_base.2"* dereferenceable(8)) #4 comdat align 2 !dbg !3938 {
  %2 = alloca %"struct.std::_Head_base.2"*, align 8
  store %"struct.std::_Head_base.2"* %0, %"struct.std::_Head_base.2"** %2, align 8
  call void @llvm.dbg.declare(metadata %"struct.std::_Head_base.2"** %2, metadata !3939, metadata !2776), !dbg !3940
  %3 = load %"struct.std::_Head_base.2"*, %"struct.std::_Head_base.2"** %2, align 8, !dbg !3941
  %4 = getelementptr inbounds %"struct.std::_Head_base.2", %"struct.std::_Head_base.2"* %3, i32 0, i32 0, !dbg !3942
  ret %"struct.std::thread::_State"** %4, !dbg !3943
}

; Function Attrs: nounwind uwtable
define linkonce_odr { i64, i64 } @_ZNSt26_Maybe_wrap_member_pointerIMN14shared_pointer7Thread1EFvvEE9__do_wrapES3_(i64, i64) #4 comdat align 2 !dbg !3944 {
  %3 = alloca %"struct.std::_Mem_fn", align 8
  %4 = alloca { i64, i64 }, align 8
  %5 = alloca { i64, i64 }, align 8
  %6 = alloca { i64, i64 }, align 8
  %7 = getelementptr inbounds { i64, i64 }, { i64, i64 }* %4, i32 0, i32 0
  store i64 %0, i64* %7, align 8
  %8 = getelementptr inbounds { i64, i64 }, { i64, i64 }* %4, i32 0, i32 1
  store i64 %1, i64* %8, align 8
  %9 = load { i64, i64 }, { i64, i64 }* %4, align 8
  store { i64, i64 } %9, { i64, i64 }* %5, align 8
  call void @llvm.dbg.declare(metadata { i64, i64 }* %5, metadata !3945, metadata !2776), !dbg !3946
  %10 = load { i64, i64 }, { i64, i64 }* %5, align 8, !dbg !3947
  store { i64, i64 } %10, { i64, i64 }* %6, align 8, !dbg !3948
  %11 = getelementptr inbounds { i64, i64 }, { i64, i64 }* %6, i32 0, i32 0, !dbg !3948
  %12 = load i64, i64* %11, align 8, !dbg !3948
  %13 = getelementptr inbounds { i64, i64 }, { i64, i64 }* %6, i32 0, i32 1, !dbg !3948
  %14 = load i64, i64* %13, align 8, !dbg !3948
  call void @_ZNSt7_Mem_fnIMN14shared_pointer7Thread1EFvvEECI2St12_Mem_fn_baseIS3_Lb1EEES3_(%"struct.std::_Mem_fn"* %3, i64 %12, i64 %14) #3, !dbg !3948
  %15 = getelementptr inbounds %"struct.std::_Mem_fn", %"struct.std::_Mem_fn"* %3, i32 0, i32 0, !dbg !3949
  %16 = getelementptr inbounds %"class.std::_Mem_fn_base", %"class.std::_Mem_fn_base"* %15, i32 0, i32 0, !dbg !3949
  %17 = load { i64, i64 }, { i64, i64 }* %16, align 8, !dbg !3949
  ret { i64, i64 } %17, !dbg !3949
}

; Function Attrs: uwtable
define linkonce_odr void @_ZNSt12_Bind_simpleIFSt7_Mem_fnIMN14shared_pointer7Thread1EFvvEEPS2_EEC2IS5_JS6_EEEOT_DpOT0_(%"struct.std::_Bind_simple"*, %"struct.std::_Mem_fn"* dereferenceable(16), %"class.shared_pointer::Thread1"** dereferenceable(8)) unnamed_addr #0 comdat align 2 !dbg !3950 {
  %4 = alloca %"struct.std::_Bind_simple"*, align 8
  %5 = alloca %"struct.std::_Mem_fn"*, align 8
  %6 = alloca %"class.shared_pointer::Thread1"**, align 8
  store %"struct.std::_Bind_simple"* %0, %"struct.std::_Bind_simple"** %4, align 8
  call void @llvm.dbg.declare(metadata %"struct.std::_Bind_simple"** %4, metadata !3956, metadata !2776), !dbg !3957
  store %"struct.std::_Mem_fn"* %1, %"struct.std::_Mem_fn"** %5, align 8
  call void @llvm.dbg.declare(metadata %"struct.std::_Mem_fn"** %5, metadata !3958, metadata !2776), !dbg !3959
  store %"class.shared_pointer::Thread1"** %2, %"class.shared_pointer::Thread1"*** %6, align 8
  call void @llvm.dbg.declare(metadata %"class.shared_pointer::Thread1"*** %6, metadata !3960, metadata !2776), !dbg !3961
  %7 = load %"struct.std::_Bind_simple"*, %"struct.std::_Bind_simple"** %4, align 8
  %8 = getelementptr inbounds %"struct.std::_Bind_simple", %"struct.std::_Bind_simple"* %7, i32 0, i32 0, !dbg !3962
  %9 = load %"struct.std::_Mem_fn"*, %"struct.std::_Mem_fn"** %5, align 8, !dbg !3963
  %10 = call dereferenceable(16) %"struct.std::_Mem_fn"* @_ZSt7forwardISt7_Mem_fnIMN14shared_pointer7Thread1EFvvEEEOT_RNSt16remove_referenceIS6_E4typeE(%"struct.std::_Mem_fn"* dereferenceable(16) %9) #3, !dbg !3964
  %11 = load %"class.shared_pointer::Thread1"**, %"class.shared_pointer::Thread1"*** %6, align 8, !dbg !3965
  %12 = call dereferenceable(8) %"class.shared_pointer::Thread1"** @_ZSt7forwardIPN14shared_pointer7Thread1EEOT_RNSt16remove_referenceIS3_E4typeE(%"class.shared_pointer::Thread1"** dereferenceable(8) %11) #3, !dbg !3966
  call void @_ZNSt5tupleIJSt7_Mem_fnIMN14shared_pointer7Thread1EFvvEEPS2_EEC2IS5_S6_Lb1EEEOT_OT0_(%"class.std::tuple.3"* %8, %"struct.std::_Mem_fn"* dereferenceable(16) %10, %"class.shared_pointer::Thread1"** dereferenceable(8) %12), !dbg !3968
  ret void, !dbg !3970
}

; Function Attrs: inlinehint nounwind uwtable
define linkonce_odr void @_ZNSt7_Mem_fnIMN14shared_pointer7Thread1EFvvEECI2St12_Mem_fn_baseIS3_Lb1EEES3_(%"struct.std::_Mem_fn"*, i64, i64) unnamed_addr #7 comdat align 2 !dbg !3971 {
  %4 = alloca { i64, i64 }, align 8
  %5 = alloca %"struct.std::_Mem_fn"*, align 8
  %6 = alloca { i64, i64 }, align 8
  %7 = alloca { i64, i64 }, align 8
  %8 = getelementptr inbounds { i64, i64 }, { i64, i64 }* %4, i32 0, i32 0
  store i64 %1, i64* %8, align 8
  %9 = getelementptr inbounds { i64, i64 }, { i64, i64 }* %4, i32 0, i32 1
  store i64 %2, i64* %9, align 8
  %10 = load { i64, i64 }, { i64, i64 }* %4, align 8
  store %"struct.std::_Mem_fn"* %0, %"struct.std::_Mem_fn"** %5, align 8
  call void @llvm.dbg.declare(metadata %"struct.std::_Mem_fn"** %5, metadata !3976, metadata !2776), !dbg !3978
  store { i64, i64 } %10, { i64, i64 }* %6, align 8
  call void @llvm.dbg.declare(metadata { i64, i64 }* %6, metadata !3979, metadata !2776), !dbg !3978
  %11 = load %"struct.std::_Mem_fn"*, %"struct.std::_Mem_fn"** %5, align 8
  %12 = bitcast %"struct.std::_Mem_fn"* %11 to %"class.std::_Mem_fn_base"*, !dbg !3980
  %13 = load { i64, i64 }, { i64, i64 }* %6, align 8, !dbg !3980
  store { i64, i64 } %13, { i64, i64 }* %7, align 8, !dbg !3980
  %14 = getelementptr inbounds { i64, i64 }, { i64, i64 }* %7, i32 0, i32 0, !dbg !3980
  %15 = load i64, i64* %14, align 8, !dbg !3980
  %16 = getelementptr inbounds { i64, i64 }, { i64, i64 }* %7, i32 0, i32 1, !dbg !3980
  %17 = load i64, i64* %16, align 8, !dbg !3980
  call void @_ZNSt12_Mem_fn_baseIMN14shared_pointer7Thread1EFvvELb1EEC2ES3_(%"class.std::_Mem_fn_base"* %12, i64 %15, i64 %17) #3, !dbg !3980
  ret void, !dbg !3980
}

; Function Attrs: nounwind uwtable
define linkonce_odr void @_ZNSt12_Mem_fn_baseIMN14shared_pointer7Thread1EFvvELb1EEC2ES3_(%"class.std::_Mem_fn_base"*, i64, i64) unnamed_addr #4 comdat align 2 !dbg !3981 {
  %4 = alloca { i64, i64 }, align 8
  %5 = alloca %"class.std::_Mem_fn_base"*, align 8
  %6 = alloca { i64, i64 }, align 8
  %7 = getelementptr inbounds { i64, i64 }, { i64, i64 }* %4, i32 0, i32 0
  store i64 %1, i64* %7, align 8
  %8 = getelementptr inbounds { i64, i64 }, { i64, i64 }* %4, i32 0, i32 1
  store i64 %2, i64* %8, align 8
  %9 = load { i64, i64 }, { i64, i64 }* %4, align 8
  store %"class.std::_Mem_fn_base"* %0, %"class.std::_Mem_fn_base"** %5, align 8
  call void @llvm.dbg.declare(metadata %"class.std::_Mem_fn_base"** %5, metadata !3982, metadata !2776), !dbg !3984
  store { i64, i64 } %9, { i64, i64 }* %6, align 8
  call void @llvm.dbg.declare(metadata { i64, i64 }* %6, metadata !3985, metadata !2776), !dbg !3986
  %10 = load %"class.std::_Mem_fn_base"*, %"class.std::_Mem_fn_base"** %5, align 8
  %11 = bitcast %"class.std::_Mem_fn_base"* %10 to %"struct.std::_Maybe_unary_or_binary_function"*, !dbg !3987
  %12 = getelementptr inbounds %"class.std::_Mem_fn_base", %"class.std::_Mem_fn_base"* %10, i32 0, i32 0, !dbg !3988
  %13 = load { i64, i64 }, { i64, i64 }* %6, align 8, !dbg !3989
  store { i64, i64 } %13, { i64, i64 }* %12, align 8, !dbg !3988
  ret void, !dbg !3990
}

; Function Attrs: uwtable
define linkonce_odr void @_ZNSt5tupleIJSt7_Mem_fnIMN14shared_pointer7Thread1EFvvEEPS2_EEC2IS5_S6_Lb1EEEOT_OT0_(%"class.std::tuple.3"*, %"struct.std::_Mem_fn"* dereferenceable(16), %"class.shared_pointer::Thread1"** dereferenceable(8)) unnamed_addr #0 comdat align 2 !dbg !3991 {
  %4 = alloca %"class.std::tuple.3"*, align 8
  %5 = alloca %"struct.std::_Mem_fn"*, align 8
  %6 = alloca %"class.shared_pointer::Thread1"**, align 8
  store %"class.std::tuple.3"* %0, %"class.std::tuple.3"** %4, align 8
  call void @llvm.dbg.declare(metadata %"class.std::tuple.3"** %4, metadata !3998, metadata !2776), !dbg !3999
  store %"struct.std::_Mem_fn"* %1, %"struct.std::_Mem_fn"** %5, align 8
  call void @llvm.dbg.declare(metadata %"struct.std::_Mem_fn"** %5, metadata !4000, metadata !2776), !dbg !4001
  store %"class.shared_pointer::Thread1"** %2, %"class.shared_pointer::Thread1"*** %6, align 8
  call void @llvm.dbg.declare(metadata %"class.shared_pointer::Thread1"*** %6, metadata !4002, metadata !2776), !dbg !4003
  %7 = load %"class.std::tuple.3"*, %"class.std::tuple.3"** %4, align 8
  %8 = bitcast %"class.std::tuple.3"* %7 to %"struct.std::_Tuple_impl.4"*, !dbg !4004
  %9 = load %"struct.std::_Mem_fn"*, %"struct.std::_Mem_fn"** %5, align 8, !dbg !4005
  %10 = call dereferenceable(16) %"struct.std::_Mem_fn"* @_ZSt7forwardISt7_Mem_fnIMN14shared_pointer7Thread1EFvvEEEOT_RNSt16remove_referenceIS6_E4typeE(%"struct.std::_Mem_fn"* dereferenceable(16) %9) #3, !dbg !4006
  %11 = load %"class.shared_pointer::Thread1"**, %"class.shared_pointer::Thread1"*** %6, align 8, !dbg !4007
  %12 = call dereferenceable(8) %"class.shared_pointer::Thread1"** @_ZSt7forwardIPN14shared_pointer7Thread1EEOT_RNSt16remove_referenceIS3_E4typeE(%"class.shared_pointer::Thread1"** dereferenceable(8) %11) #3, !dbg !4008
  call void @_ZNSt11_Tuple_implILm0EJSt7_Mem_fnIMN14shared_pointer7Thread1EFvvEEPS2_EEC2IS5_JS6_EvEEOT_DpOT0_(%"struct.std::_Tuple_impl.4"* %8, %"struct.std::_Mem_fn"* dereferenceable(16) %10, %"class.shared_pointer::Thread1"** dereferenceable(8) %12), !dbg !4010
  ret void, !dbg !4012
}

; Function Attrs: uwtable
define linkonce_odr void @_ZNSt11_Tuple_implILm0EJSt7_Mem_fnIMN14shared_pointer7Thread1EFvvEEPS2_EEC2IS5_JS6_EvEEOT_DpOT0_(%"struct.std::_Tuple_impl.4"*, %"struct.std::_Mem_fn"* dereferenceable(16), %"class.shared_pointer::Thread1"** dereferenceable(8)) unnamed_addr #0 comdat align 2 !dbg !4013 {
  %4 = alloca %"struct.std::_Tuple_impl.4"*, align 8
  %5 = alloca %"struct.std::_Mem_fn"*, align 8
  %6 = alloca %"class.shared_pointer::Thread1"**, align 8
  store %"struct.std::_Tuple_impl.4"* %0, %"struct.std::_Tuple_impl.4"** %4, align 8
  call void @llvm.dbg.declare(metadata %"struct.std::_Tuple_impl.4"** %4, metadata !4020, metadata !2776), !dbg !4021
  store %"struct.std::_Mem_fn"* %1, %"struct.std::_Mem_fn"** %5, align 8
  call void @llvm.dbg.declare(metadata %"struct.std::_Mem_fn"** %5, metadata !4022, metadata !2776), !dbg !4023
  store %"class.shared_pointer::Thread1"** %2, %"class.shared_pointer::Thread1"*** %6, align 8
  call void @llvm.dbg.declare(metadata %"class.shared_pointer::Thread1"*** %6, metadata !4024, metadata !2776), !dbg !4025
  %7 = load %"struct.std::_Tuple_impl.4"*, %"struct.std::_Tuple_impl.4"** %4, align 8
  %8 = bitcast %"struct.std::_Tuple_impl.4"* %7 to %"struct.std::_Tuple_impl.5"*, !dbg !4026
  %9 = load %"class.shared_pointer::Thread1"**, %"class.shared_pointer::Thread1"*** %6, align 8, !dbg !4027
  %10 = call dereferenceable(8) %"class.shared_pointer::Thread1"** @_ZSt7forwardIPN14shared_pointer7Thread1EEOT_RNSt16remove_referenceIS3_E4typeE(%"class.shared_pointer::Thread1"** dereferenceable(8) %9) #3, !dbg !4028
  call void @_ZNSt11_Tuple_implILm1EJPN14shared_pointer7Thread1EEEC2IS2_EEOT_(%"struct.std::_Tuple_impl.5"* %8, %"class.shared_pointer::Thread1"** dereferenceable(8) %10), !dbg !4029
  %11 = bitcast %"struct.std::_Tuple_impl.4"* %7 to i8*, !dbg !4026
  %12 = getelementptr inbounds i8, i8* %11, i64 8, !dbg !4026
  %13 = bitcast i8* %12 to %"struct.std::_Head_base.7"*, !dbg !4026
  %14 = load %"struct.std::_Mem_fn"*, %"struct.std::_Mem_fn"** %5, align 8, !dbg !4031
  %15 = call dereferenceable(16) %"struct.std::_Mem_fn"* @_ZSt7forwardISt7_Mem_fnIMN14shared_pointer7Thread1EFvvEEEOT_RNSt16remove_referenceIS6_E4typeE(%"struct.std::_Mem_fn"* dereferenceable(16) %14) #3, !dbg !4032
  call void @_ZNSt10_Head_baseILm0ESt7_Mem_fnIMN14shared_pointer7Thread1EFvvEELb0EEC2IS5_EEOT_(%"struct.std::_Head_base.7"* %13, %"struct.std::_Mem_fn"* dereferenceable(16) %15), !dbg !4033
  ret void, !dbg !4034
}

; Function Attrs: nounwind uwtable
define linkonce_odr void @_ZNSt11_Tuple_implILm1EJPN14shared_pointer7Thread1EEEC2IS2_EEOT_(%"struct.std::_Tuple_impl.5"*, %"class.shared_pointer::Thread1"** dereferenceable(8)) unnamed_addr #4 comdat align 2 !dbg !4035 {
  %3 = alloca %"struct.std::_Tuple_impl.5"*, align 8
  %4 = alloca %"class.shared_pointer::Thread1"**, align 8
  store %"struct.std::_Tuple_impl.5"* %0, %"struct.std::_Tuple_impl.5"** %3, align 8
  call void @llvm.dbg.declare(metadata %"struct.std::_Tuple_impl.5"** %3, metadata !4039, metadata !2776), !dbg !4040
  store %"class.shared_pointer::Thread1"** %1, %"class.shared_pointer::Thread1"*** %4, align 8
  call void @llvm.dbg.declare(metadata %"class.shared_pointer::Thread1"*** %4, metadata !4041, metadata !2776), !dbg !4042
  %5 = load %"struct.std::_Tuple_impl.5"*, %"struct.std::_Tuple_impl.5"** %3, align 8
  %6 = bitcast %"struct.std::_Tuple_impl.5"* %5 to %"struct.std::_Head_base.6"*, !dbg !4043
  %7 = load %"class.shared_pointer::Thread1"**, %"class.shared_pointer::Thread1"*** %4, align 8, !dbg !4044
  %8 = call dereferenceable(8) %"class.shared_pointer::Thread1"** @_ZSt7forwardIPN14shared_pointer7Thread1EEOT_RNSt16remove_referenceIS3_E4typeE(%"class.shared_pointer::Thread1"** dereferenceable(8) %7) #3, !dbg !4045
  call void @_ZNSt10_Head_baseILm1EPN14shared_pointer7Thread1ELb0EEC2IS2_EEOT_(%"struct.std::_Head_base.6"* %6, %"class.shared_pointer::Thread1"** dereferenceable(8) %8), !dbg !4046
  ret void, !dbg !4048
}

; Function Attrs: nounwind uwtable
define linkonce_odr dereferenceable(1) %"struct.std::default_delete"* @_ZNSt10unique_ptrINSt6thread6_StateESt14default_deleteIS1_EE11get_deleterEv(%"class.std::unique_ptr"*) #4 comdat align 2 !dbg !4049 {
  %2 = alloca %"class.std::unique_ptr"*, align 8
  store %"class.std::unique_ptr"* %0, %"class.std::unique_ptr"** %2, align 8
  call void @llvm.dbg.declare(metadata %"class.std::unique_ptr"** %2, metadata !4050, metadata !2776), !dbg !4051
  %3 = load %"class.std::unique_ptr"*, %"class.std::unique_ptr"** %2, align 8
  %4 = getelementptr inbounds %"class.std::unique_ptr", %"class.std::unique_ptr"* %3, i32 0, i32 0, !dbg !4052
  %5 = call dereferenceable(1) %"struct.std::default_delete"* @_ZSt3getILm1EJPNSt6thread6_StateESt14default_deleteIS1_EEERNSt13tuple_elementIXT_ESt5tupleIJDpT0_EEE4typeERS9_(%"class.std::tuple"* dereferenceable(8) %4) #3, !dbg !4053
  ret %"struct.std::default_delete"* %5, !dbg !4054
}

; Function Attrs: nounwind uwtable
define linkonce_odr void @_ZNKSt14default_deleteINSt6thread6_StateEEclEPS1_(%"struct.std::default_delete"*, %"struct.std::thread::_State"*) #4 comdat align 2 !dbg !4055 {
  %3 = alloca %"struct.std::default_delete"*, align 8
  %4 = alloca %"struct.std::thread::_State"*, align 8
  store %"struct.std::default_delete"* %0, %"struct.std::default_delete"** %3, align 8
  call void @llvm.dbg.declare(metadata %"struct.std::default_delete"** %3, metadata !4056, metadata !2776), !dbg !4058
  store %"struct.std::thread::_State"* %1, %"struct.std::thread::_State"** %4, align 8
  call void @llvm.dbg.declare(metadata %"struct.std::thread::_State"** %4, metadata !4059, metadata !2776), !dbg !4060
  %5 = load %"struct.std::default_delete"*, %"struct.std::default_delete"** %3, align 8
  %6 = load %"struct.std::thread::_State"*, %"struct.std::thread::_State"** %4, align 8, !dbg !4061
  %7 = icmp eq %"struct.std::thread::_State"* %6, null, !dbg !4062
  br i1 %7, label %13, label %8, !dbg !4062

; <label>:8:                                      ; preds = %2
  %9 = bitcast %"struct.std::thread::_State"* %6 to void (%"struct.std::thread::_State"*)***, !dbg !4063
  %10 = load void (%"struct.std::thread::_State"*)**, void (%"struct.std::thread::_State"*)*** %9, align 8, !dbg !4063
  %11 = getelementptr inbounds void (%"struct.std::thread::_State"*)*, void (%"struct.std::thread::_State"*)** %10, i64 1, !dbg !4063
  %12 = load void (%"struct.std::thread::_State"*)*, void (%"struct.std::thread::_State"*)** %11, align 8, !dbg !4063
  call void %12(%"struct.std::thread::_State"* %6) #3, !dbg !4063
  br label %13, !dbg !4063

; <label>:13:                                     ; preds = %8, %2
  ret void, !dbg !4065
}

; Function Attrs: nounwind uwtable
define linkonce_odr dereferenceable(1) %"struct.std::default_delete"* @_ZSt3getILm1EJPNSt6thread6_StateESt14default_deleteIS1_EEERNSt13tuple_elementIXT_ESt5tupleIJDpT0_EEE4typeERS9_(%"class.std::tuple"* dereferenceable(8)) #4 comdat !dbg !4066 {
  %2 = alloca %"class.std::tuple"*, align 8
  store %"class.std::tuple"* %0, %"class.std::tuple"** %2, align 8
  call void @llvm.dbg.declare(metadata %"class.std::tuple"** %2, metadata !4077, metadata !2776), !dbg !4078
  %3 = load %"class.std::tuple"*, %"class.std::tuple"** %2, align 8, !dbg !4079
  %4 = bitcast %"class.std::tuple"* %3 to %"struct.std::_Tuple_impl.1"*, !dbg !4079
  %5 = call dereferenceable(1) %"struct.std::default_delete"* @_ZSt12__get_helperILm1ESt14default_deleteINSt6thread6_StateEEJEERT0_RSt11_Tuple_implIXT_EJS4_DpT1_EE(%"struct.std::_Tuple_impl.1"* dereferenceable(1) %4) #3, !dbg !4080
  ret %"struct.std::default_delete"* %5, !dbg !4081
}

; Function Attrs: nounwind uwtable
define linkonce_odr dereferenceable(1) %"struct.std::default_delete"* @_ZSt12__get_helperILm1ESt14default_deleteINSt6thread6_StateEEJEERT0_RSt11_Tuple_implIXT_EJS4_DpT1_EE(%"struct.std::_Tuple_impl.1"* dereferenceable(1)) #4 comdat !dbg !4082 {
  %2 = alloca %"struct.std::_Tuple_impl.1"*, align 8
  store %"struct.std::_Tuple_impl.1"* %0, %"struct.std::_Tuple_impl.1"** %2, align 8
  call void @llvm.dbg.declare(metadata %"struct.std::_Tuple_impl.1"** %2, metadata !4084, metadata !2776), !dbg !4085
  %3 = load %"struct.std::_Tuple_impl.1"*, %"struct.std::_Tuple_impl.1"** %2, align 8, !dbg !4086
  %4 = call dereferenceable(1) %"struct.std::default_delete"* @_ZNSt11_Tuple_implILm1EJSt14default_deleteINSt6thread6_StateEEEE7_M_headERS4_(%"struct.std::_Tuple_impl.1"* dereferenceable(1) %3) #3, !dbg !4087
  ret %"struct.std::default_delete"* %4, !dbg !4088
}

; Function Attrs: nounwind uwtable
define linkonce_odr dereferenceable(1) %"struct.std::default_delete"* @_ZNSt11_Tuple_implILm1EJSt14default_deleteINSt6thread6_StateEEEE7_M_headERS4_(%"struct.std::_Tuple_impl.1"* dereferenceable(1)) #4 comdat align 2 !dbg !4089 {
  %2 = alloca %"struct.std::_Tuple_impl.1"*, align 8
  store %"struct.std::_Tuple_impl.1"* %0, %"struct.std::_Tuple_impl.1"** %2, align 8
  call void @llvm.dbg.declare(metadata %"struct.std::_Tuple_impl.1"** %2, metadata !4090, metadata !2776), !dbg !4091
  %3 = load %"struct.std::_Tuple_impl.1"*, %"struct.std::_Tuple_impl.1"** %2, align 8, !dbg !4092
  %4 = bitcast %"struct.std::_Tuple_impl.1"* %3 to %"struct.std::_Head_base"*, !dbg !4092
  %5 = call dereferenceable(1) %"struct.std::default_delete"* @_ZNSt10_Head_baseILm1ESt14default_deleteINSt6thread6_StateEELb1EE7_M_headERS4_(%"struct.std::_Head_base"* dereferenceable(1) %4) #3, !dbg !4093
  ret %"struct.std::default_delete"* %5, !dbg !4094
}

; Function Attrs: nounwind uwtable
define linkonce_odr dereferenceable(1) %"struct.std::default_delete"* @_ZNSt10_Head_baseILm1ESt14default_deleteINSt6thread6_StateEELb1EE7_M_headERS4_(%"struct.std::_Head_base"* dereferenceable(1)) #4 comdat align 2 !dbg !4095 {
  %2 = alloca %"struct.std::_Head_base"*, align 8
  store %"struct.std::_Head_base"* %0, %"struct.std::_Head_base"** %2, align 8
  call void @llvm.dbg.declare(metadata %"struct.std::_Head_base"** %2, metadata !4096, metadata !2776), !dbg !4097
  %3 = load %"struct.std::_Head_base"*, %"struct.std::_Head_base"** %2, align 8, !dbg !4098
  %4 = bitcast %"struct.std::_Head_base"* %3 to %"struct.std::default_delete"*, !dbg !4098
  ret %"struct.std::default_delete"* %4, !dbg !4099
}

; Function Attrs: noreturn nounwind
declare void @__assert_fail(i8*, i8*, i32, i8*) #8

; Function Attrs: uwtable
define linkonce_odr void @_ZN9IrsThreadclIJMN14shared_pointer7Thread2EFvvEPS2_EEEvDpOT_(%class.IrsThread*, { i64, i64 }* dereferenceable(16), %"class.shared_pointer::Thread2"** dereferenceable(8)) #0 comdat align 2 !dbg !4100 {
  %4 = alloca %class.IrsThread*, align 8
  %5 = alloca { i64, i64 }*, align 8
  %6 = alloca %"class.shared_pointer::Thread2"**, align 8
  %7 = alloca %"class.std::thread", align 8
  store %class.IrsThread* %0, %class.IrsThread** %4, align 8
  call void @llvm.dbg.declare(metadata %class.IrsThread** %4, metadata !4109, metadata !2776), !dbg !4110
  store { i64, i64 }* %1, { i64, i64 }** %5, align 8
  call void @llvm.dbg.declare(metadata { i64, i64 }** %5, metadata !4111, metadata !2776), !dbg !4112
  store %"class.shared_pointer::Thread2"** %2, %"class.shared_pointer::Thread2"*** %6, align 8
  call void @llvm.dbg.declare(metadata %"class.shared_pointer::Thread2"*** %6, metadata !4113, metadata !2776), !dbg !4112
  %8 = load %class.IrsThread*, %class.IrsThread** %4, align 8
  %9 = getelementptr inbounds %class.IrsThread, %class.IrsThread* %8, i32 0, i32 0, !dbg !4114
  %10 = load { i64, i64 }*, { i64, i64 }** %5, align 8, !dbg !4115
  %11 = call dereferenceable(16) { i64, i64 }* @_ZSt7forwardIMN14shared_pointer7Thread2EFvvEEOT_RNSt16remove_referenceIS4_E4typeE({ i64, i64 }* dereferenceable(16) %10) #3, !dbg !4116
  %12 = load %"class.shared_pointer::Thread2"**, %"class.shared_pointer::Thread2"*** %6, align 8, !dbg !4115
  %13 = call dereferenceable(8) %"class.shared_pointer::Thread2"** @_ZSt7forwardIPN14shared_pointer7Thread2EEOT_RNSt16remove_referenceIS3_E4typeE(%"class.shared_pointer::Thread2"** dereferenceable(8) %12) #3, !dbg !4117
  call void @_ZNSt6threadC2IMN14shared_pointer7Thread2EFvvEJPS2_EEEOT_DpOT0_(%"class.std::thread"* %7, { i64, i64 }* dereferenceable(16) %11, %"class.shared_pointer::Thread2"** dereferenceable(8) %13), !dbg !4119
  %14 = call dereferenceable(8) %"class.std::thread"* @_ZNSt6threadaSEOS_(%"class.std::thread"* %9, %"class.std::thread"* dereferenceable(8) %7) #3, !dbg !4121
  call void @_ZNSt6threadD2Ev(%"class.std::thread"* %7) #3, !dbg !4123
  ret void, !dbg !4125
}

; Function Attrs: nounwind uwtable
define linkonce_odr void @_ZN14shared_pointer7Thread24execEv(%"class.shared_pointer::Thread2"*) #4 comdat align 2 !dbg !4126 {
  %2 = alloca %"class.shared_pointer::Thread2"*, align 8
  %3 = alloca i32, align 4
  store %"class.shared_pointer::Thread2"* %0, %"class.shared_pointer::Thread2"** %2, align 8
  call void @llvm.dbg.declare(metadata %"class.shared_pointer::Thread2"** %2, metadata !4127, metadata !2776), !dbg !4128
  %4 = load %"class.shared_pointer::Thread2"*, %"class.shared_pointer::Thread2"** %2, align 8
  %5 = call i32 @_ZN14shared_pointer7Thread211getThreadIdEv(%"class.shared_pointer::Thread2"* %0), !dbg !4129
  %6 = alloca i32, !dbg !4129
  store i32 %5, i32* %6, !dbg !4129
  %7 = load i32, i32* %6, !dbg !4129
  call void @_Z10__beforeMAiPvli(i32 %7, i8* bitcast (i32** @_ZN14shared_pointer1pE to i8*), i64 8, i32 1), !dbg !4129
  store i32* @_ZN14shared_pointer1xE, i32** @_ZN14shared_pointer1pE, align 8, !dbg !4129
  call void @_Z9__afterMAi(i32 %7), !dbg !4129
  call void @llvm.dbg.declare(metadata i32* %3, metadata !4130, metadata !2776), !dbg !4132
  store i32 0, i32* %3, align 4, !dbg !4132
  br label %8, !dbg !4133

; <label>:8:                                      ; preds = %18, %1
  %9 = load i32, i32* %3, align 4, !dbg !4134
  %10 = icmp slt i32 %9, 100, !dbg !4137
  br i1 %10, label %11, label %21, !dbg !4138

; <label>:11:                                     ; preds = %8
  %12 = call i32 @_ZN14shared_pointer7Thread211getThreadIdEv(%"class.shared_pointer::Thread2"* %0), !dbg !4139
  %13 = alloca i32, !dbg !4139
  store i32 %12, i32* %13, !dbg !4139
  %14 = load i32, i32* %13, !dbg !4139
  call void @_Z10__beforeMAiPvli(i32 %14, i8* bitcast (i32* @_ZN14shared_pointer1yE to i8*), i64 4, i32 0), !dbg !4139
  %15 = load i32, i32* @_ZN14shared_pointer1yE, align 4, !dbg !4139
  call void @_Z9__afterMAi(i32 %14), !dbg !4139
  %16 = load i32, i32* @_ZN14shared_pointer2c2E, align 4, !dbg !4140
  %17 = add nsw i32 %16, %15, !dbg !4140
  store i32 %17, i32* @_ZN14shared_pointer2c2E, align 4, !dbg !4140
  br label %18, !dbg !4141

; <label>:18:                                     ; preds = %11
  %19 = load i32, i32* %3, align 4, !dbg !4142
  %20 = add nsw i32 %19, 1, !dbg !4142
  store i32 %20, i32* %3, align 4, !dbg !4142
  br label %8, !dbg !4144, !llvm.loop !4145

; <label>:21:                                     ; preds = %8
  %22 = call i32 @_ZN14shared_pointer7Thread211getThreadIdEv(%"class.shared_pointer::Thread2"* %0), !dbg !4147
  %23 = alloca i32, !dbg !4147
  store i32 %22, i32* %23, !dbg !4147
  %24 = load i32, i32* %23, !dbg !4147
  call void @_Z10__beforeMAiPvli(i32 %24, i8* bitcast (i32** @_ZN14shared_pointer1pE to i8*), i64 8, i32 0), !dbg !4147
  %25 = load i32*, i32** @_ZN14shared_pointer1pE, align 8, !dbg !4147
  call void @_Z9__afterMAi(i32 %24), !dbg !4147
  %26 = load i32, i32* %25, align 4, !dbg !4148
  %27 = add nsw i32 %26, 2, !dbg !4148
  store i32 %27, i32* %25, align 4, !dbg !4148
  %28 = call i32 @_ZN14shared_pointer7Thread211getThreadIdEv(%"class.shared_pointer::Thread2"* %0), !dbg !4149
  %29 = alloca i32, !dbg !4149
  store i32 %28, i32* %29, !dbg !4149
  %30 = load i32, i32* %29, !dbg !4149
  call void @_Z10__beforeMAiPvli(i32 %30, i8* bitcast (i32* @_ZN14shared_pointer1xE to i8*), i64 4, i32 0), !dbg !4149
  %31 = load i32, i32* @_ZN14shared_pointer1xE, align 4, !dbg !4149
  call void @_Z9__afterMAi(i32 %30), !dbg !4149
  %32 = icmp sle i32 3, %31, !dbg !4149
  br i1 %32, label %33, label %40, !dbg !4149

; <label>:33:                                     ; preds = %21
  %34 = call i32 @_ZN14shared_pointer7Thread211getThreadIdEv(%"class.shared_pointer::Thread2"* %0), !dbg !4150
  %35 = alloca i32, !dbg !4150
  store i32 %34, i32* %35, !dbg !4150
  %36 = load i32, i32* %35, !dbg !4150
  call void @_Z10__beforeMAiPvli(i32 %36, i8* bitcast (i32* @_ZN14shared_pointer1yE to i8*), i64 4, i32 0), !dbg !4150
  %37 = load i32, i32* @_ZN14shared_pointer1yE, align 4, !dbg !4150
  call void @_Z9__afterMAi(i32 %36), !dbg !4150
  %38 = icmp sle i32 %37, 9, !dbg !4150
  br i1 %38, label %39, label %40, !dbg !4150

; <label>:39:                                     ; preds = %33
  br label %42, !dbg !4152

; <label>:40:                                     ; preds = %33, %21
  call void @__assert_fail(i8* getelementptr inbounds ([17 x i8], [17 x i8]* @.str.8, i32 0, i32 0), i8* getelementptr inbounds ([113 x i8], [113 x i8]* @.str.9, i32 0, i32 0), i32 54, i8* getelementptr inbounds ([37 x i8], [37 x i8]* @__PRETTY_FUNCTION__._ZN14shared_pointer7Thread24execEv, i32 0, i32 0)) #14, !dbg !4154
  unreachable, !dbg !4154
                                                  ; No predecessors!
  br label %42, !dbg !4156

; <label>:42:                                     ; preds = %41, %39
  ret void, !dbg !4158
}

; Function Attrs: nounwind uwtable
define linkonce_odr dereferenceable(16) { i64, i64 }* @_ZSt7forwardIMN14shared_pointer7Thread2EFvvEEOT_RNSt16remove_referenceIS4_E4typeE({ i64, i64 }* dereferenceable(16)) #4 comdat !dbg !4159 {
  %2 = alloca { i64, i64 }*, align 8
  store { i64, i64 }* %0, { i64, i64 }** %2, align 8
  call void @llvm.dbg.declare(metadata { i64, i64 }** %2, metadata !4165, metadata !2776), !dbg !4166
  %3 = load { i64, i64 }*, { i64, i64 }** %2, align 8, !dbg !4167
  ret { i64, i64 }* %3, !dbg !4168
}

; Function Attrs: nounwind uwtable
define linkonce_odr dereferenceable(8) %"class.shared_pointer::Thread2"** @_ZSt7forwardIPN14shared_pointer7Thread2EEOT_RNSt16remove_referenceIS3_E4typeE(%"class.shared_pointer::Thread2"** dereferenceable(8)) #4 comdat !dbg !4169 {
  %2 = alloca %"class.shared_pointer::Thread2"**, align 8
  store %"class.shared_pointer::Thread2"** %0, %"class.shared_pointer::Thread2"*** %2, align 8
  call void @llvm.dbg.declare(metadata %"class.shared_pointer::Thread2"*** %2, metadata !4177, metadata !2776), !dbg !4178
  %3 = load %"class.shared_pointer::Thread2"**, %"class.shared_pointer::Thread2"*** %2, align 8, !dbg !4179
  ret %"class.shared_pointer::Thread2"** %3, !dbg !4180
}

; Function Attrs: uwtable
define linkonce_odr void @_ZNSt6threadC2IMN14shared_pointer7Thread2EFvvEJPS2_EEEOT_DpOT0_(%"class.std::thread"*, { i64, i64 }* dereferenceable(16), %"class.shared_pointer::Thread2"** dereferenceable(8)) unnamed_addr #0 comdat align 2 personality i8* bitcast (i32 (...)* @__gxx_personality_v0 to i8*) !dbg !4181 {
  %4 = alloca %"class.std::thread"*, align 8
  %5 = alloca { i64, i64 }*, align 8
  %6 = alloca %"class.shared_pointer::Thread2"**, align 8
  %7 = alloca void ()*, align 8
  %8 = alloca %"class.std::unique_ptr", align 8
  %9 = alloca %"struct.std::_Bind_simple.8", align 8
  %10 = alloca i8*
  %11 = alloca i32
  store %"class.std::thread"* %0, %"class.std::thread"** %4, align 8
  call void @llvm.dbg.declare(metadata %"class.std::thread"** %4, metadata !4187, metadata !2776), !dbg !4188
  store { i64, i64 }* %1, { i64, i64 }** %5, align 8
  call void @llvm.dbg.declare(metadata { i64, i64 }** %5, metadata !4189, metadata !2776), !dbg !4190
  store %"class.shared_pointer::Thread2"** %2, %"class.shared_pointer::Thread2"*** %6, align 8
  call void @llvm.dbg.declare(metadata %"class.shared_pointer::Thread2"*** %6, metadata !4191, metadata !2776), !dbg !4192
  %12 = load %"class.std::thread"*, %"class.std::thread"** %4, align 8
  %13 = getelementptr inbounds %"class.std::thread", %"class.std::thread"* %12, i32 0, i32 0, !dbg !4193
  call void @_ZNSt6thread2idC2Ev(%"class.std::thread::id"* %13) #3, !dbg !4193
  call void @llvm.dbg.declare(metadata void ()** %7, metadata !4194, metadata !2776), !dbg !4196
  store void ()* bitcast (i32 (i64*, %union.pthread_attr_t*, i8* (i8*)*, i8*)* @pthread_create to void ()*), void ()** %7, align 8, !dbg !4196
  %14 = load { i64, i64 }*, { i64, i64 }** %5, align 8, !dbg !4197
  %15 = call dereferenceable(16) { i64, i64 }* @_ZSt7forwardIMN14shared_pointer7Thread2EFvvEEOT_RNSt16remove_referenceIS4_E4typeE({ i64, i64 }* dereferenceable(16) %14) #3, !dbg !4198
  %16 = load %"class.shared_pointer::Thread2"**, %"class.shared_pointer::Thread2"*** %6, align 8, !dbg !4199
  %17 = call dereferenceable(8) %"class.shared_pointer::Thread2"** @_ZSt7forwardIPN14shared_pointer7Thread2EEOT_RNSt16remove_referenceIS3_E4typeE(%"class.shared_pointer::Thread2"** dereferenceable(8) %16) #3, !dbg !4200
  call void @_ZSt13__bind_simpleIMN14shared_pointer7Thread2EFvvEJPS1_EENSt19_Bind_simple_helperIT_JDpT0_EE6__typeEOS6_DpOS7_(%"struct.std::_Bind_simple.8"* sret %9, { i64, i64 }* dereferenceable(16) %15, %"class.shared_pointer::Thread2"** dereferenceable(8) %17), !dbg !4201
  call void @_ZNSt6thread13_S_make_stateISt12_Bind_simpleIFSt7_Mem_fnIMN14shared_pointer7Thread2EFvvEEPS4_EEEESt10unique_ptrINS_6_StateESt14default_deleteISC_EEOT_(%"class.std::unique_ptr"* sret %8, %"struct.std::_Bind_simple.8"* dereferenceable(24) %9), !dbg !4203
  %18 = load void ()*, void ()** %7, align 8, !dbg !4204
  invoke void @_ZNSt6thread15_M_start_threadESt10unique_ptrINS_6_StateESt14default_deleteIS1_EEPFvvE(%"class.std::thread"* %12, %"class.std::unique_ptr"* %8, void ()* %18)
          to label %19 unwind label %20, !dbg !4205

; <label>:19:                                     ; preds = %3
  call void @_ZNSt10unique_ptrINSt6thread6_StateESt14default_deleteIS1_EED2Ev(%"class.std::unique_ptr"* %8) #3, !dbg !4206
  ret void, !dbg !4207

; <label>:20:                                     ; preds = %3
  %21 = landingpad { i8*, i32 }
          cleanup, !dbg !4208
  %22 = extractvalue { i8*, i32 } %21, 0, !dbg !4208
  store i8* %22, i8** %10, align 8, !dbg !4208
  %23 = extractvalue { i8*, i32 } %21, 1, !dbg !4208
  store i32 %23, i32* %11, align 4, !dbg !4208
  call void @_ZNSt10unique_ptrINSt6thread6_StateESt14default_deleteIS1_EED2Ev(%"class.std::unique_ptr"* %8) #3, !dbg !4209
  br label %24, !dbg !4209

; <label>:24:                                     ; preds = %20
  %25 = load i8*, i8** %10, align 8, !dbg !4211
  %26 = load i32, i32* %11, align 4, !dbg !4211
  %27 = insertvalue { i8*, i32 } undef, i8* %25, 0, !dbg !4211
  %28 = insertvalue { i8*, i32 } %27, i32 %26, 1, !dbg !4211
  resume { i8*, i32 } %28, !dbg !4211
}

; Function Attrs: uwtable
define linkonce_odr void @_ZNSt6thread13_S_make_stateISt12_Bind_simpleIFSt7_Mem_fnIMN14shared_pointer7Thread2EFvvEEPS4_EEEESt10unique_ptrINS_6_StateESt14default_deleteISC_EEOT_(%"class.std::unique_ptr"* noalias sret, %"struct.std::_Bind_simple.8"* dereferenceable(24)) #0 comdat align 2 personality i8* bitcast (i32 (...)* @__gxx_personality_v0 to i8*) !dbg !4213 {
  %3 = alloca %"struct.std::_Bind_simple.8"*, align 8
  %4 = alloca i8*
  %5 = alloca i32
  store %"struct.std::_Bind_simple.8"* %1, %"struct.std::_Bind_simple.8"** %3, align 8
  call void @llvm.dbg.declare(metadata %"struct.std::_Bind_simple.8"** %3, metadata !4419, metadata !2776), !dbg !4420
  %6 = call i8* @_Znwm(i64 32) #15, !dbg !4421
  %7 = bitcast i8* %6 to %"struct.std::thread::_State_impl.18"*, !dbg !4421
  %8 = load %"struct.std::_Bind_simple.8"*, %"struct.std::_Bind_simple.8"** %3, align 8, !dbg !4422
  %9 = call dereferenceable(24) %"struct.std::_Bind_simple.8"* @_ZSt7forwardISt12_Bind_simpleIFSt7_Mem_fnIMN14shared_pointer7Thread2EFvvEEPS3_EEEOT_RNSt16remove_referenceISA_E4typeE(%"struct.std::_Bind_simple.8"* dereferenceable(24) %8) #3, !dbg !4423
  invoke void @_ZNSt6thread11_State_implISt12_Bind_simpleIFSt7_Mem_fnIMN14shared_pointer7Thread2EFvvEEPS4_EEEC2EOSA_(%"struct.std::thread::_State_impl.18"* %7, %"struct.std::_Bind_simple.8"* dereferenceable(24) %9)
          to label %10 unwind label %12, !dbg !4425

; <label>:10:                                     ; preds = %2
  %11 = bitcast %"struct.std::thread::_State_impl.18"* %7 to %"struct.std::thread::_State"*, !dbg !4426
  call void @_ZNSt10unique_ptrINSt6thread6_StateESt14default_deleteIS1_EEC2EPS1_(%"class.std::unique_ptr"* %0, %"struct.std::thread::_State"* %11) #3, !dbg !4428
  ret void, !dbg !4429

; <label>:12:                                     ; preds = %2
  %13 = landingpad { i8*, i32 }
          cleanup, !dbg !4430
  %14 = extractvalue { i8*, i32 } %13, 0, !dbg !4430
  store i8* %14, i8** %4, align 8, !dbg !4430
  %15 = extractvalue { i8*, i32 } %13, 1, !dbg !4430
  store i32 %15, i32* %5, align 4, !dbg !4430
  call void @_ZdlPv(i8* %6) #16, !dbg !4431
  br label %16, !dbg !4431

; <label>:16:                                     ; preds = %12
  %17 = load i8*, i8** %4, align 8, !dbg !4433
  %18 = load i32, i32* %5, align 4, !dbg !4433
  %19 = insertvalue { i8*, i32 } undef, i8* %17, 0, !dbg !4433
  %20 = insertvalue { i8*, i32 } %19, i32 %18, 1, !dbg !4433
  resume { i8*, i32 } %20, !dbg !4433
}

; Function Attrs: uwtable
define linkonce_odr void @_ZSt13__bind_simpleIMN14shared_pointer7Thread2EFvvEJPS1_EENSt19_Bind_simple_helperIT_JDpT0_EE6__typeEOS6_DpOS7_(%"struct.std::_Bind_simple.8"* noalias sret, { i64, i64 }* dereferenceable(16), %"class.shared_pointer::Thread2"** dereferenceable(8)) #0 comdat !dbg !4435 {
  %4 = alloca { i64, i64 }*, align 8
  %5 = alloca %"class.shared_pointer::Thread2"**, align 8
  %6 = alloca %"struct.std::_Mem_fn.14", align 8
  %7 = alloca { i64, i64 }, align 8
  store { i64, i64 }* %1, { i64, i64 }** %4, align 8
  call void @llvm.dbg.declare(metadata { i64, i64 }** %4, metadata !4446, metadata !2776), !dbg !4447
  store %"class.shared_pointer::Thread2"** %2, %"class.shared_pointer::Thread2"*** %5, align 8
  call void @llvm.dbg.declare(metadata %"class.shared_pointer::Thread2"*** %5, metadata !4448, metadata !2776), !dbg !4449
  %8 = load { i64, i64 }*, { i64, i64 }** %4, align 8, !dbg !4450
  %9 = call dereferenceable(16) { i64, i64 }* @_ZSt7forwardIMN14shared_pointer7Thread2EFvvEEOT_RNSt16remove_referenceIS4_E4typeE({ i64, i64 }* dereferenceable(16) %8) #3, !dbg !4451
  %10 = load { i64, i64 }, { i64, i64 }* %9, align 8, !dbg !4451
  store { i64, i64 } %10, { i64, i64 }* %7, align 8, !dbg !4452
  %11 = getelementptr inbounds { i64, i64 }, { i64, i64 }* %7, i32 0, i32 0, !dbg !4452
  %12 = load i64, i64* %11, align 8, !dbg !4452
  %13 = getelementptr inbounds { i64, i64 }, { i64, i64 }* %7, i32 0, i32 1, !dbg !4452
  %14 = load i64, i64* %13, align 8, !dbg !4452
  %15 = call { i64, i64 } @_ZNSt26_Maybe_wrap_member_pointerIMN14shared_pointer7Thread2EFvvEE9__do_wrapES3_(i64 %12, i64 %14), !dbg !4453
  %16 = getelementptr inbounds %"struct.std::_Mem_fn.14", %"struct.std::_Mem_fn.14"* %6, i32 0, i32 0, !dbg !4452
  %17 = getelementptr inbounds %"class.std::_Mem_fn_base.15", %"class.std::_Mem_fn_base.15"* %16, i32 0, i32 0, !dbg !4452
  %18 = getelementptr inbounds { i64, i64 }, { i64, i64 }* %17, i32 0, i32 0, !dbg !4452
  %19 = extractvalue { i64, i64 } %15, 0, !dbg !4452
  store i64 %19, i64* %18, align 8, !dbg !4452
  %20 = getelementptr inbounds { i64, i64 }, { i64, i64 }* %17, i32 0, i32 1, !dbg !4452
  %21 = extractvalue { i64, i64 } %15, 1, !dbg !4452
  store i64 %21, i64* %20, align 8, !dbg !4452
  %22 = load %"class.shared_pointer::Thread2"**, %"class.shared_pointer::Thread2"*** %5, align 8, !dbg !4455
  %23 = call dereferenceable(8) %"class.shared_pointer::Thread2"** @_ZSt7forwardIPN14shared_pointer7Thread2EEOT_RNSt16remove_referenceIS3_E4typeE(%"class.shared_pointer::Thread2"** dereferenceable(8) %22) #3, !dbg !4456
  call void @_ZNSt12_Bind_simpleIFSt7_Mem_fnIMN14shared_pointer7Thread2EFvvEEPS2_EEC2IS5_JS6_EEEOT_DpOT0_(%"struct.std::_Bind_simple.8"* %0, %"struct.std::_Mem_fn.14"* dereferenceable(16) %6, %"class.shared_pointer::Thread2"** dereferenceable(8) %23), !dbg !4457
  ret void, !dbg !4458
}

; Function Attrs: nounwind uwtable
define linkonce_odr dereferenceable(24) %"struct.std::_Bind_simple.8"* @_ZSt7forwardISt12_Bind_simpleIFSt7_Mem_fnIMN14shared_pointer7Thread2EFvvEEPS3_EEEOT_RNSt16remove_referenceISA_E4typeE(%"struct.std::_Bind_simple.8"* dereferenceable(24)) #4 comdat !dbg !4459 {
  %2 = alloca %"struct.std::_Bind_simple.8"*, align 8
  store %"struct.std::_Bind_simple.8"* %0, %"struct.std::_Bind_simple.8"** %2, align 8
  call void @llvm.dbg.declare(metadata %"struct.std::_Bind_simple.8"** %2, metadata !4467, metadata !2776), !dbg !4468
  %3 = load %"struct.std::_Bind_simple.8"*, %"struct.std::_Bind_simple.8"** %2, align 8, !dbg !4469
  ret %"struct.std::_Bind_simple.8"* %3, !dbg !4470
}

; Function Attrs: nounwind uwtable
define linkonce_odr void @_ZNSt6thread11_State_implISt12_Bind_simpleIFSt7_Mem_fnIMN14shared_pointer7Thread2EFvvEEPS4_EEEC2EOSA_(%"struct.std::thread::_State_impl.18"*, %"struct.std::_Bind_simple.8"* dereferenceable(24)) unnamed_addr #4 comdat align 2 !dbg !4471 {
  %3 = alloca %"struct.std::thread::_State_impl.18"*, align 8
  %4 = alloca %"struct.std::_Bind_simple.8"*, align 8
  store %"struct.std::thread::_State_impl.18"* %0, %"struct.std::thread::_State_impl.18"** %3, align 8
  call void @llvm.dbg.declare(metadata %"struct.std::thread::_State_impl.18"** %3, metadata !4483, metadata !2776), !dbg !4485
  store %"struct.std::_Bind_simple.8"* %1, %"struct.std::_Bind_simple.8"** %4, align 8
  call void @llvm.dbg.declare(metadata %"struct.std::_Bind_simple.8"** %4, metadata !4486, metadata !2776), !dbg !4487
  %5 = load %"struct.std::thread::_State_impl.18"*, %"struct.std::thread::_State_impl.18"** %3, align 8
  %6 = bitcast %"struct.std::thread::_State_impl.18"* %5 to %"struct.std::thread::_State"*, !dbg !4488
  call void @_ZNSt6thread6_StateC2Ev(%"struct.std::thread::_State"* %6) #3, !dbg !4489
  %7 = bitcast %"struct.std::thread::_State_impl.18"* %5 to i32 (...)***, !dbg !4488
  store i32 (...)** bitcast (i8** getelementptr inbounds ([5 x i8*], [5 x i8*]* @_ZTVNSt6thread11_State_implISt12_Bind_simpleIFSt7_Mem_fnIMN14shared_pointer7Thread2EFvvEEPS4_EEEE, i32 0, i32 2) to i32 (...)**), i32 (...)*** %7, align 8, !dbg !4488
  %8 = getelementptr inbounds %"struct.std::thread::_State_impl.18", %"struct.std::thread::_State_impl.18"* %5, i32 0, i32 1, !dbg !4490
  %9 = load %"struct.std::_Bind_simple.8"*, %"struct.std::_Bind_simple.8"** %4, align 8, !dbg !4491
  %10 = call dereferenceable(24) %"struct.std::_Bind_simple.8"* @_ZSt7forwardISt12_Bind_simpleIFSt7_Mem_fnIMN14shared_pointer7Thread2EFvvEEPS3_EEEOT_RNSt16remove_referenceISA_E4typeE(%"struct.std::_Bind_simple.8"* dereferenceable(24) %9) #3, !dbg !4492
  call void @_ZNSt12_Bind_simpleIFSt7_Mem_fnIMN14shared_pointer7Thread2EFvvEEPS2_EEC2EOS8_(%"struct.std::_Bind_simple.8"* %8, %"struct.std::_Bind_simple.8"* dereferenceable(24) %10) #3, !dbg !4494
  ret void, !dbg !4496
}

; Function Attrs: nounwind uwtable
define linkonce_odr void @_ZNSt12_Bind_simpleIFSt7_Mem_fnIMN14shared_pointer7Thread2EFvvEEPS2_EEC2EOS8_(%"struct.std::_Bind_simple.8"*, %"struct.std::_Bind_simple.8"* dereferenceable(24)) unnamed_addr #4 comdat align 2 !dbg !4497 {
  %3 = alloca %"struct.std::_Bind_simple.8"*, align 8
  %4 = alloca %"struct.std::_Bind_simple.8"*, align 8
  store %"struct.std::_Bind_simple.8"* %0, %"struct.std::_Bind_simple.8"** %3, align 8
  call void @llvm.dbg.declare(metadata %"struct.std::_Bind_simple.8"** %3, metadata !4498, metadata !2776), !dbg !4500
  store %"struct.std::_Bind_simple.8"* %1, %"struct.std::_Bind_simple.8"** %4, align 8
  call void @llvm.dbg.declare(metadata %"struct.std::_Bind_simple.8"** %4, metadata !4501, metadata !2776), !dbg !4502
  %5 = load %"struct.std::_Bind_simple.8"*, %"struct.std::_Bind_simple.8"** %3, align 8
  %6 = getelementptr inbounds %"struct.std::_Bind_simple.8", %"struct.std::_Bind_simple.8"* %5, i32 0, i32 0, !dbg !4503
  %7 = load %"struct.std::_Bind_simple.8"*, %"struct.std::_Bind_simple.8"** %4, align 8, !dbg !4503
  %8 = getelementptr inbounds %"struct.std::_Bind_simple.8", %"struct.std::_Bind_simple.8"* %7, i32 0, i32 0, !dbg !4503
  call void @_ZNSt5tupleIJSt7_Mem_fnIMN14shared_pointer7Thread2EFvvEEPS2_EEC2EOS7_(%"class.std::tuple.9"* %6, %"class.std::tuple.9"* dereferenceable(24) %8) #3, !dbg !4503
  ret void, !dbg !4503
}

; Function Attrs: inlinehint nounwind uwtable
define linkonce_odr void @_ZNSt6thread11_State_implISt12_Bind_simpleIFSt7_Mem_fnIMN14shared_pointer7Thread2EFvvEEPS4_EEED2Ev(%"struct.std::thread::_State_impl.18"*) unnamed_addr #7 comdat align 2 !dbg !4504 {
  %2 = alloca %"struct.std::thread::_State_impl.18"*, align 8
  store %"struct.std::thread::_State_impl.18"* %0, %"struct.std::thread::_State_impl.18"** %2, align 8
  call void @llvm.dbg.declare(metadata %"struct.std::thread::_State_impl.18"** %2, metadata !4506, metadata !2776), !dbg !4507
  %3 = load %"struct.std::thread::_State_impl.18"*, %"struct.std::thread::_State_impl.18"** %2, align 8
  %4 = bitcast %"struct.std::thread::_State_impl.18"* %3 to %"struct.std::thread::_State"*, !dbg !4508
  call void @_ZNSt6thread6_StateD2Ev(%"struct.std::thread::_State"* %4) #3, !dbg !4508
  ret void, !dbg !4510
}

; Function Attrs: inlinehint nounwind uwtable
define linkonce_odr void @_ZNSt6thread11_State_implISt12_Bind_simpleIFSt7_Mem_fnIMN14shared_pointer7Thread2EFvvEEPS4_EEED0Ev(%"struct.std::thread::_State_impl.18"*) unnamed_addr #7 comdat align 2 !dbg !4511 {
  %2 = alloca %"struct.std::thread::_State_impl.18"*, align 8
  store %"struct.std::thread::_State_impl.18"* %0, %"struct.std::thread::_State_impl.18"** %2, align 8
  call void @llvm.dbg.declare(metadata %"struct.std::thread::_State_impl.18"** %2, metadata !4512, metadata !2776), !dbg !4513
  %3 = load %"struct.std::thread::_State_impl.18"*, %"struct.std::thread::_State_impl.18"** %2, align 8
  call void @_ZNSt6thread11_State_implISt12_Bind_simpleIFSt7_Mem_fnIMN14shared_pointer7Thread2EFvvEEPS4_EEED2Ev(%"struct.std::thread::_State_impl.18"* %3) #3, !dbg !4514
  %4 = bitcast %"struct.std::thread::_State_impl.18"* %3 to i8*, !dbg !4514
  call void @_ZdlPv(i8* %4) #16, !dbg !4515
  ret void, !dbg !4514
}

; Function Attrs: uwtable
define linkonce_odr void @_ZNSt6thread11_State_implISt12_Bind_simpleIFSt7_Mem_fnIMN14shared_pointer7Thread2EFvvEEPS4_EEE6_M_runEv(%"struct.std::thread::_State_impl.18"*) unnamed_addr #0 comdat align 2 !dbg !4517 {
  %2 = alloca %"struct.std::thread::_State_impl.18"*, align 8
  store %"struct.std::thread::_State_impl.18"* %0, %"struct.std::thread::_State_impl.18"** %2, align 8
  call void @llvm.dbg.declare(metadata %"struct.std::thread::_State_impl.18"** %2, metadata !4518, metadata !2776), !dbg !4519
  %3 = load %"struct.std::thread::_State_impl.18"*, %"struct.std::thread::_State_impl.18"** %2, align 8
  %4 = getelementptr inbounds %"struct.std::thread::_State_impl.18", %"struct.std::thread::_State_impl.18"* %3, i32 0, i32 1, !dbg !4520
  call void @_ZNSt12_Bind_simpleIFSt7_Mem_fnIMN14shared_pointer7Thread2EFvvEEPS2_EEclEv(%"struct.std::_Bind_simple.8"* %4), !dbg !4520
  ret void, !dbg !4521
}

; Function Attrs: nounwind uwtable
define linkonce_odr void @_ZNSt5tupleIJSt7_Mem_fnIMN14shared_pointer7Thread2EFvvEEPS2_EEC2EOS7_(%"class.std::tuple.9"*, %"class.std::tuple.9"* dereferenceable(24)) unnamed_addr #4 comdat align 2 !dbg !4522 {
  %3 = alloca %"class.std::tuple.9"*, align 8
  %4 = alloca %"class.std::tuple.9"*, align 8
  store %"class.std::tuple.9"* %0, %"class.std::tuple.9"** %3, align 8
  call void @llvm.dbg.declare(metadata %"class.std::tuple.9"** %3, metadata !4523, metadata !2776), !dbg !4525
  store %"class.std::tuple.9"* %1, %"class.std::tuple.9"** %4, align 8
  call void @llvm.dbg.declare(metadata %"class.std::tuple.9"** %4, metadata !4526, metadata !2776), !dbg !4527
  %5 = load %"class.std::tuple.9"*, %"class.std::tuple.9"** %3, align 8
  %6 = bitcast %"class.std::tuple.9"* %5 to %"struct.std::_Tuple_impl.10"*, !dbg !4528
  %7 = load %"class.std::tuple.9"*, %"class.std::tuple.9"** %4, align 8, !dbg !4528
  %8 = bitcast %"class.std::tuple.9"* %7 to %"struct.std::_Tuple_impl.10"*, !dbg !4528
  call void @_ZNSt11_Tuple_implILm0EJSt7_Mem_fnIMN14shared_pointer7Thread2EFvvEEPS2_EEC2EOS7_(%"struct.std::_Tuple_impl.10"* %6, %"struct.std::_Tuple_impl.10"* dereferenceable(24) %8) #3, !dbg !4528
  ret void, !dbg !4528
}

; Function Attrs: nounwind uwtable
define linkonce_odr void @_ZNSt11_Tuple_implILm0EJSt7_Mem_fnIMN14shared_pointer7Thread2EFvvEEPS2_EEC2EOS7_(%"struct.std::_Tuple_impl.10"*, %"struct.std::_Tuple_impl.10"* dereferenceable(24)) unnamed_addr #4 comdat align 2 personality i8* bitcast (i32 (...)* @__gxx_personality_v0 to i8*) !dbg !4529 {
  %3 = alloca %"struct.std::_Tuple_impl.10"*, align 8
  %4 = alloca %"struct.std::_Tuple_impl.10"*, align 8
  store %"struct.std::_Tuple_impl.10"* %0, %"struct.std::_Tuple_impl.10"** %3, align 8
  call void @llvm.dbg.declare(metadata %"struct.std::_Tuple_impl.10"** %3, metadata !4530, metadata !2776), !dbg !4532
  store %"struct.std::_Tuple_impl.10"* %1, %"struct.std::_Tuple_impl.10"** %4, align 8
  call void @llvm.dbg.declare(metadata %"struct.std::_Tuple_impl.10"** %4, metadata !4533, metadata !2776), !dbg !4534
  %5 = load %"struct.std::_Tuple_impl.10"*, %"struct.std::_Tuple_impl.10"** %3, align 8
  %6 = bitcast %"struct.std::_Tuple_impl.10"* %5 to %"struct.std::_Tuple_impl.11"*, !dbg !4535
  %7 = load %"struct.std::_Tuple_impl.10"*, %"struct.std::_Tuple_impl.10"** %4, align 8, !dbg !4536
  %8 = call dereferenceable(8) %"struct.std::_Tuple_impl.11"* @_ZNSt11_Tuple_implILm0EJSt7_Mem_fnIMN14shared_pointer7Thread2EFvvEEPS2_EE7_M_tailERS7_(%"struct.std::_Tuple_impl.10"* dereferenceable(24) %7) #3, !dbg !4537
  %9 = call dereferenceable(8) %"struct.std::_Tuple_impl.11"* @_ZSt4moveIRSt11_Tuple_implILm1EJPN14shared_pointer7Thread2EEEEONSt16remove_referenceIT_E4typeEOS7_(%"struct.std::_Tuple_impl.11"* dereferenceable(8) %8) #3, !dbg !4538
  call void @_ZNSt11_Tuple_implILm1EJPN14shared_pointer7Thread2EEEC2EOS3_(%"struct.std::_Tuple_impl.11"* %6, %"struct.std::_Tuple_impl.11"* dereferenceable(8) %9) #3, !dbg !4540
  %10 = bitcast %"struct.std::_Tuple_impl.10"* %5 to i8*, !dbg !4535
  %11 = getelementptr inbounds i8, i8* %10, i64 8, !dbg !4535
  %12 = bitcast i8* %11 to %"struct.std::_Head_base.13"*, !dbg !4535
  %13 = load %"struct.std::_Tuple_impl.10"*, %"struct.std::_Tuple_impl.10"** %4, align 8, !dbg !4542
  %14 = call dereferenceable(16) %"struct.std::_Mem_fn.14"* @_ZNSt11_Tuple_implILm0EJSt7_Mem_fnIMN14shared_pointer7Thread2EFvvEEPS2_EE7_M_headERS7_(%"struct.std::_Tuple_impl.10"* dereferenceable(24) %13) #3, !dbg !4543
  %15 = call dereferenceable(16) %"struct.std::_Mem_fn.14"* @_ZSt7forwardISt7_Mem_fnIMN14shared_pointer7Thread2EFvvEEEOT_RNSt16remove_referenceIS6_E4typeE(%"struct.std::_Mem_fn.14"* dereferenceable(16) %14) #3, !dbg !4544
  invoke void @_ZNSt10_Head_baseILm0ESt7_Mem_fnIMN14shared_pointer7Thread2EFvvEELb0EEC2IS5_EEOT_(%"struct.std::_Head_base.13"* %12, %"struct.std::_Mem_fn.14"* dereferenceable(16) %15)
          to label %16 unwind label %17, !dbg !4546

; <label>:16:                                     ; preds = %2
  ret void, !dbg !4547

; <label>:17:                                     ; preds = %2
  %18 = landingpad { i8*, i32 }
          catch i8* null, !dbg !4548
  %19 = extractvalue { i8*, i32 } %18, 0, !dbg !4548
  call void @__clang_call_terminate(i8* %19) #14, !dbg !4548
  unreachable, !dbg !4548
}

; Function Attrs: nounwind uwtable
define linkonce_odr dereferenceable(8) %"struct.std::_Tuple_impl.11"* @_ZSt4moveIRSt11_Tuple_implILm1EJPN14shared_pointer7Thread2EEEEONSt16remove_referenceIT_E4typeEOS7_(%"struct.std::_Tuple_impl.11"* dereferenceable(8)) #4 comdat !dbg !4549 {
  %2 = alloca %"struct.std::_Tuple_impl.11"*, align 8
  store %"struct.std::_Tuple_impl.11"* %0, %"struct.std::_Tuple_impl.11"** %2, align 8
  call void @llvm.dbg.declare(metadata %"struct.std::_Tuple_impl.11"** %2, metadata !4557, metadata !2776), !dbg !4558
  %3 = load %"struct.std::_Tuple_impl.11"*, %"struct.std::_Tuple_impl.11"** %2, align 8, !dbg !4559
  ret %"struct.std::_Tuple_impl.11"* %3, !dbg !4560
}

; Function Attrs: nounwind uwtable
define linkonce_odr dereferenceable(8) %"struct.std::_Tuple_impl.11"* @_ZNSt11_Tuple_implILm0EJSt7_Mem_fnIMN14shared_pointer7Thread2EFvvEEPS2_EE7_M_tailERS7_(%"struct.std::_Tuple_impl.10"* dereferenceable(24)) #4 comdat align 2 !dbg !4561 {
  %2 = alloca %"struct.std::_Tuple_impl.10"*, align 8
  store %"struct.std::_Tuple_impl.10"* %0, %"struct.std::_Tuple_impl.10"** %2, align 8
  call void @llvm.dbg.declare(metadata %"struct.std::_Tuple_impl.10"** %2, metadata !4562, metadata !2776), !dbg !4563
  %3 = load %"struct.std::_Tuple_impl.10"*, %"struct.std::_Tuple_impl.10"** %2, align 8, !dbg !4564
  %4 = bitcast %"struct.std::_Tuple_impl.10"* %3 to %"struct.std::_Tuple_impl.11"*, !dbg !4564
  ret %"struct.std::_Tuple_impl.11"* %4, !dbg !4565
}

; Function Attrs: nounwind uwtable
define linkonce_odr void @_ZNSt11_Tuple_implILm1EJPN14shared_pointer7Thread2EEEC2EOS3_(%"struct.std::_Tuple_impl.11"*, %"struct.std::_Tuple_impl.11"* dereferenceable(8)) unnamed_addr #4 comdat align 2 personality i8* bitcast (i32 (...)* @__gxx_personality_v0 to i8*) !dbg !4566 {
  %3 = alloca %"struct.std::_Tuple_impl.11"*, align 8
  %4 = alloca %"struct.std::_Tuple_impl.11"*, align 8
  store %"struct.std::_Tuple_impl.11"* %0, %"struct.std::_Tuple_impl.11"** %3, align 8
  call void @llvm.dbg.declare(metadata %"struct.std::_Tuple_impl.11"** %3, metadata !4567, metadata !2776), !dbg !4569
  store %"struct.std::_Tuple_impl.11"* %1, %"struct.std::_Tuple_impl.11"** %4, align 8
  call void @llvm.dbg.declare(metadata %"struct.std::_Tuple_impl.11"** %4, metadata !4570, metadata !2776), !dbg !4571
  %5 = load %"struct.std::_Tuple_impl.11"*, %"struct.std::_Tuple_impl.11"** %3, align 8
  %6 = bitcast %"struct.std::_Tuple_impl.11"* %5 to %"struct.std::_Head_base.12"*, !dbg !4572
  %7 = load %"struct.std::_Tuple_impl.11"*, %"struct.std::_Tuple_impl.11"** %4, align 8, !dbg !4573
  %8 = call dereferenceable(8) %"class.shared_pointer::Thread2"** @_ZNSt11_Tuple_implILm1EJPN14shared_pointer7Thread2EEE7_M_headERS3_(%"struct.std::_Tuple_impl.11"* dereferenceable(8) %7) #3, !dbg !4574
  %9 = call dereferenceable(8) %"class.shared_pointer::Thread2"** @_ZSt7forwardIPN14shared_pointer7Thread2EEOT_RNSt16remove_referenceIS3_E4typeE(%"class.shared_pointer::Thread2"** dereferenceable(8) %8) #3, !dbg !4575
  invoke void @_ZNSt10_Head_baseILm1EPN14shared_pointer7Thread2ELb0EEC2IS2_EEOT_(%"struct.std::_Head_base.12"* %6, %"class.shared_pointer::Thread2"** dereferenceable(8) %9)
          to label %10 unwind label %11, !dbg !4577

; <label>:10:                                     ; preds = %2
  ret void, !dbg !4578

; <label>:11:                                     ; preds = %2
  %12 = landingpad { i8*, i32 }
          catch i8* null, !dbg !4580
  %13 = extractvalue { i8*, i32 } %12, 0, !dbg !4580
  call void @__clang_call_terminate(i8* %13) #14, !dbg !4580
  unreachable, !dbg !4580
}

; Function Attrs: nounwind uwtable
define linkonce_odr dereferenceable(16) %"struct.std::_Mem_fn.14"* @_ZSt7forwardISt7_Mem_fnIMN14shared_pointer7Thread2EFvvEEEOT_RNSt16remove_referenceIS6_E4typeE(%"struct.std::_Mem_fn.14"* dereferenceable(16)) #4 comdat !dbg !4582 {
  %2 = alloca %"struct.std::_Mem_fn.14"*, align 8
  store %"struct.std::_Mem_fn.14"* %0, %"struct.std::_Mem_fn.14"** %2, align 8
  call void @llvm.dbg.declare(metadata %"struct.std::_Mem_fn.14"** %2, metadata !4591, metadata !2776), !dbg !4592
  %3 = load %"struct.std::_Mem_fn.14"*, %"struct.std::_Mem_fn.14"** %2, align 8, !dbg !4593
  ret %"struct.std::_Mem_fn.14"* %3, !dbg !4594
}

; Function Attrs: nounwind uwtable
define linkonce_odr dereferenceable(16) %"struct.std::_Mem_fn.14"* @_ZNSt11_Tuple_implILm0EJSt7_Mem_fnIMN14shared_pointer7Thread2EFvvEEPS2_EE7_M_headERS7_(%"struct.std::_Tuple_impl.10"* dereferenceable(24)) #4 comdat align 2 !dbg !4595 {
  %2 = alloca %"struct.std::_Tuple_impl.10"*, align 8
  store %"struct.std::_Tuple_impl.10"* %0, %"struct.std::_Tuple_impl.10"** %2, align 8
  call void @llvm.dbg.declare(metadata %"struct.std::_Tuple_impl.10"** %2, metadata !4596, metadata !2776), !dbg !4597
  %3 = load %"struct.std::_Tuple_impl.10"*, %"struct.std::_Tuple_impl.10"** %2, align 8, !dbg !4598
  %4 = bitcast %"struct.std::_Tuple_impl.10"* %3 to i8*, !dbg !4598
  %5 = getelementptr inbounds i8, i8* %4, i64 8, !dbg !4598
  %6 = bitcast i8* %5 to %"struct.std::_Head_base.13"*, !dbg !4598
  %7 = call dereferenceable(16) %"struct.std::_Mem_fn.14"* @_ZNSt10_Head_baseILm0ESt7_Mem_fnIMN14shared_pointer7Thread2EFvvEELb0EE7_M_headERS6_(%"struct.std::_Head_base.13"* dereferenceable(16) %6) #3, !dbg !4599
  ret %"struct.std::_Mem_fn.14"* %7, !dbg !4600
}

; Function Attrs: nounwind uwtable
define linkonce_odr void @_ZNSt10_Head_baseILm0ESt7_Mem_fnIMN14shared_pointer7Thread2EFvvEELb0EEC2IS5_EEOT_(%"struct.std::_Head_base.13"*, %"struct.std::_Mem_fn.14"* dereferenceable(16)) unnamed_addr #4 comdat align 2 !dbg !4601 {
  %3 = alloca %"struct.std::_Head_base.13"*, align 8
  %4 = alloca %"struct.std::_Mem_fn.14"*, align 8
  store %"struct.std::_Head_base.13"* %0, %"struct.std::_Head_base.13"** %3, align 8
  call void @llvm.dbg.declare(metadata %"struct.std::_Head_base.13"** %3, metadata !4607, metadata !2776), !dbg !4609
  store %"struct.std::_Mem_fn.14"* %1, %"struct.std::_Mem_fn.14"** %4, align 8
  call void @llvm.dbg.declare(metadata %"struct.std::_Mem_fn.14"** %4, metadata !4610, metadata !2776), !dbg !4611
  %5 = load %"struct.std::_Head_base.13"*, %"struct.std::_Head_base.13"** %3, align 8
  %6 = getelementptr inbounds %"struct.std::_Head_base.13", %"struct.std::_Head_base.13"* %5, i32 0, i32 0, !dbg !4612
  %7 = load %"struct.std::_Mem_fn.14"*, %"struct.std::_Mem_fn.14"** %4, align 8, !dbg !4613
  %8 = call dereferenceable(16) %"struct.std::_Mem_fn.14"* @_ZSt7forwardISt7_Mem_fnIMN14shared_pointer7Thread2EFvvEEEOT_RNSt16remove_referenceIS6_E4typeE(%"struct.std::_Mem_fn.14"* dereferenceable(16) %7) #3, !dbg !4614
  %9 = bitcast %"struct.std::_Mem_fn.14"* %6 to i8*, !dbg !4612
  %10 = bitcast %"struct.std::_Mem_fn.14"* %8 to i8*, !dbg !4612
  call void @llvm.memcpy.p0i8.p0i8.i64(i8* %9, i8* %10, i64 16, i32 8, i1 false), !dbg !4615
  ret void, !dbg !4617
}

; Function Attrs: nounwind uwtable
define linkonce_odr dereferenceable(8) %"class.shared_pointer::Thread2"** @_ZNSt11_Tuple_implILm1EJPN14shared_pointer7Thread2EEE7_M_headERS3_(%"struct.std::_Tuple_impl.11"* dereferenceable(8)) #4 comdat align 2 !dbg !4618 {
  %2 = alloca %"struct.std::_Tuple_impl.11"*, align 8
  store %"struct.std::_Tuple_impl.11"* %0, %"struct.std::_Tuple_impl.11"** %2, align 8
  call void @llvm.dbg.declare(metadata %"struct.std::_Tuple_impl.11"** %2, metadata !4619, metadata !2776), !dbg !4620
  %3 = load %"struct.std::_Tuple_impl.11"*, %"struct.std::_Tuple_impl.11"** %2, align 8, !dbg !4621
  %4 = bitcast %"struct.std::_Tuple_impl.11"* %3 to %"struct.std::_Head_base.12"*, !dbg !4621
  %5 = call dereferenceable(8) %"class.shared_pointer::Thread2"** @_ZNSt10_Head_baseILm1EPN14shared_pointer7Thread2ELb0EE7_M_headERS3_(%"struct.std::_Head_base.12"* dereferenceable(8) %4) #3, !dbg !4622
  ret %"class.shared_pointer::Thread2"** %5, !dbg !4623
}

; Function Attrs: nounwind uwtable
define linkonce_odr void @_ZNSt10_Head_baseILm1EPN14shared_pointer7Thread2ELb0EEC2IS2_EEOT_(%"struct.std::_Head_base.12"*, %"class.shared_pointer::Thread2"** dereferenceable(8)) unnamed_addr #4 comdat align 2 !dbg !4624 {
  %3 = alloca %"struct.std::_Head_base.12"*, align 8
  %4 = alloca %"class.shared_pointer::Thread2"**, align 8
  store %"struct.std::_Head_base.12"* %0, %"struct.std::_Head_base.12"** %3, align 8
  call void @llvm.dbg.declare(metadata %"struct.std::_Head_base.12"** %3, metadata !4630, metadata !2776), !dbg !4632
  store %"class.shared_pointer::Thread2"** %1, %"class.shared_pointer::Thread2"*** %4, align 8
  call void @llvm.dbg.declare(metadata %"class.shared_pointer::Thread2"*** %4, metadata !4633, metadata !2776), !dbg !4634
  %5 = load %"struct.std::_Head_base.12"*, %"struct.std::_Head_base.12"** %3, align 8
  %6 = getelementptr inbounds %"struct.std::_Head_base.12", %"struct.std::_Head_base.12"* %5, i32 0, i32 0, !dbg !4635
  %7 = load %"class.shared_pointer::Thread2"**, %"class.shared_pointer::Thread2"*** %4, align 8, !dbg !4636
  %8 = call dereferenceable(8) %"class.shared_pointer::Thread2"** @_ZSt7forwardIPN14shared_pointer7Thread2EEOT_RNSt16remove_referenceIS3_E4typeE(%"class.shared_pointer::Thread2"** dereferenceable(8) %7) #3, !dbg !4637
  %9 = load %"class.shared_pointer::Thread2"*, %"class.shared_pointer::Thread2"** %8, align 8, !dbg !4637
  store %"class.shared_pointer::Thread2"* %9, %"class.shared_pointer::Thread2"** %6, align 8, !dbg !4635
  ret void, !dbg !4638
}

; Function Attrs: nounwind uwtable
define linkonce_odr dereferenceable(8) %"class.shared_pointer::Thread2"** @_ZNSt10_Head_baseILm1EPN14shared_pointer7Thread2ELb0EE7_M_headERS3_(%"struct.std::_Head_base.12"* dereferenceable(8)) #4 comdat align 2 !dbg !4639 {
  %2 = alloca %"struct.std::_Head_base.12"*, align 8
  store %"struct.std::_Head_base.12"* %0, %"struct.std::_Head_base.12"** %2, align 8
  call void @llvm.dbg.declare(metadata %"struct.std::_Head_base.12"** %2, metadata !4640, metadata !2776), !dbg !4641
  %3 = load %"struct.std::_Head_base.12"*, %"struct.std::_Head_base.12"** %2, align 8, !dbg !4642
  %4 = getelementptr inbounds %"struct.std::_Head_base.12", %"struct.std::_Head_base.12"* %3, i32 0, i32 0, !dbg !4643
  ret %"class.shared_pointer::Thread2"** %4, !dbg !4644
}

; Function Attrs: nounwind uwtable
define linkonce_odr dereferenceable(16) %"struct.std::_Mem_fn.14"* @_ZNSt10_Head_baseILm0ESt7_Mem_fnIMN14shared_pointer7Thread2EFvvEELb0EE7_M_headERS6_(%"struct.std::_Head_base.13"* dereferenceable(16)) #4 comdat align 2 !dbg !4645 {
  %2 = alloca %"struct.std::_Head_base.13"*, align 8
  store %"struct.std::_Head_base.13"* %0, %"struct.std::_Head_base.13"** %2, align 8
  call void @llvm.dbg.declare(metadata %"struct.std::_Head_base.13"** %2, metadata !4646, metadata !2776), !dbg !4647
  %3 = load %"struct.std::_Head_base.13"*, %"struct.std::_Head_base.13"** %2, align 8, !dbg !4648
  %4 = getelementptr inbounds %"struct.std::_Head_base.13", %"struct.std::_Head_base.13"* %3, i32 0, i32 0, !dbg !4649
  ret %"struct.std::_Mem_fn.14"* %4, !dbg !4650
}

; Function Attrs: uwtable
define linkonce_odr void @_ZNSt12_Bind_simpleIFSt7_Mem_fnIMN14shared_pointer7Thread2EFvvEEPS2_EEclEv(%"struct.std::_Bind_simple.8"*) #0 comdat align 2 !dbg !4651 {
  %2 = alloca %"struct.std::_Bind_simple.8"*, align 8
  %3 = alloca %"struct.std::_Index_tuple", align 1
  store %"struct.std::_Bind_simple.8"* %0, %"struct.std::_Bind_simple.8"** %2, align 8
  call void @llvm.dbg.declare(metadata %"struct.std::_Bind_simple.8"** %2, metadata !4652, metadata !2776), !dbg !4653
  %4 = load %"struct.std::_Bind_simple.8"*, %"struct.std::_Bind_simple.8"** %2, align 8
  call void @_ZNSt12_Bind_simpleIFSt7_Mem_fnIMN14shared_pointer7Thread2EFvvEEPS2_EE9_M_invokeIJLm0EEEEvSt12_Index_tupleIJXspT_EEE(%"struct.std::_Bind_simple.8"* %4), !dbg !4654
  ret void, !dbg !4655
}

; Function Attrs: uwtable
define linkonce_odr void @_ZNSt12_Bind_simpleIFSt7_Mem_fnIMN14shared_pointer7Thread2EFvvEEPS2_EE9_M_invokeIJLm0EEEEvSt12_Index_tupleIJXspT_EEE(%"struct.std::_Bind_simple.8"*) #0 comdat align 2 !dbg !4656 {
  %2 = alloca %"struct.std::_Index_tuple", align 1
  %3 = alloca %"struct.std::_Bind_simple.8"*, align 8
  store %"struct.std::_Bind_simple.8"* %0, %"struct.std::_Bind_simple.8"** %3, align 8
  call void @llvm.dbg.declare(metadata %"struct.std::_Bind_simple.8"** %3, metadata !4660, metadata !2776), !dbg !4661
  call void @llvm.dbg.declare(metadata %"struct.std::_Index_tuple"* %2, metadata !4662, metadata !2776), !dbg !4663
  %4 = load %"struct.std::_Bind_simple.8"*, %"struct.std::_Bind_simple.8"** %3, align 8
  %5 = getelementptr inbounds %"struct.std::_Bind_simple.8", %"struct.std::_Bind_simple.8"* %4, i32 0, i32 0, !dbg !4664
  %6 = call dereferenceable(16) %"struct.std::_Mem_fn.14"* @_ZSt3getILm0EJSt7_Mem_fnIMN14shared_pointer7Thread2EFvvEEPS2_EERNSt13tuple_elementIXT_ESt5tupleIJDpT0_EEE4typeERSB_(%"class.std::tuple.9"* dereferenceable(24) %5) #3, !dbg !4665
  %7 = call dereferenceable(16) %"struct.std::_Mem_fn.14"* @_ZSt7forwardISt7_Mem_fnIMN14shared_pointer7Thread2EFvvEEEOT_RNSt16remove_referenceIS6_E4typeE(%"struct.std::_Mem_fn.14"* dereferenceable(16) %6) #3, !dbg !4666
  %8 = bitcast %"struct.std::_Mem_fn.14"* %7 to %"class.std::_Mem_fn_base.15"*, !dbg !4668
  %9 = getelementptr inbounds %"struct.std::_Bind_simple.8", %"struct.std::_Bind_simple.8"* %4, i32 0, i32 0, !dbg !4669
  %10 = call dereferenceable(8) %"class.shared_pointer::Thread2"** @_ZSt3getILm1EJSt7_Mem_fnIMN14shared_pointer7Thread2EFvvEEPS2_EERNSt13tuple_elementIXT_ESt5tupleIJDpT0_EEE4typeERSB_(%"class.std::tuple.9"* dereferenceable(24) %9) #3, !dbg !4670
  %11 = call dereferenceable(8) %"class.shared_pointer::Thread2"** @_ZSt7forwardIPN14shared_pointer7Thread2EEOT_RNSt16remove_referenceIS3_E4typeE(%"class.shared_pointer::Thread2"** dereferenceable(8) %10) #3, !dbg !4671
  call void @_ZNKSt12_Mem_fn_baseIMN14shared_pointer7Thread2EFvvELb1EEclIJPS1_EEEDTclsr3stdE8__invokedtdefpT6_M_pmfspclsr3stdE7forwardIT_Efp_EEEDpOS7_(%"class.std::_Mem_fn_base.15"* %8, %"class.shared_pointer::Thread2"** dereferenceable(8) %11), !dbg !4672
  ret void, !dbg !4674
}

; Function Attrs: nounwind uwtable
define linkonce_odr dereferenceable(16) %"struct.std::_Mem_fn.14"* @_ZSt3getILm0EJSt7_Mem_fnIMN14shared_pointer7Thread2EFvvEEPS2_EERNSt13tuple_elementIXT_ESt5tupleIJDpT0_EEE4typeERSB_(%"class.std::tuple.9"* dereferenceable(24)) #4 comdat !dbg !4675 {
  %2 = alloca %"class.std::tuple.9"*, align 8
  store %"class.std::tuple.9"* %0, %"class.std::tuple.9"** %2, align 8
  call void @llvm.dbg.declare(metadata %"class.std::tuple.9"** %2, metadata !4685, metadata !2776), !dbg !4686
  %3 = load %"class.std::tuple.9"*, %"class.std::tuple.9"** %2, align 8, !dbg !4687
  %4 = bitcast %"class.std::tuple.9"* %3 to %"struct.std::_Tuple_impl.10"*, !dbg !4687
  %5 = call dereferenceable(16) %"struct.std::_Mem_fn.14"* @_ZSt12__get_helperILm0ESt7_Mem_fnIMN14shared_pointer7Thread2EFvvEEJPS2_EERT0_RSt11_Tuple_implIXT_EJS7_DpT1_EE(%"struct.std::_Tuple_impl.10"* dereferenceable(24) %4) #3, !dbg !4688
  ret %"struct.std::_Mem_fn.14"* %5, !dbg !4689
}

; Function Attrs: uwtable
define linkonce_odr void @_ZNKSt12_Mem_fn_baseIMN14shared_pointer7Thread2EFvvELb1EEclIJPS1_EEEDTclsr3stdE8__invokedtdefpT6_M_pmfspclsr3stdE7forwardIT_Efp_EEEDpOS7_(%"class.std::_Mem_fn_base.15"*, %"class.shared_pointer::Thread2"** dereferenceable(8)) #0 comdat align 2 !dbg !4690 {
  %3 = alloca %"class.std::_Mem_fn_base.15"*, align 8
  %4 = alloca %"class.shared_pointer::Thread2"**, align 8
  store %"class.std::_Mem_fn_base.15"* %0, %"class.std::_Mem_fn_base.15"** %3, align 8
  call void @llvm.dbg.declare(metadata %"class.std::_Mem_fn_base.15"** %3, metadata !4697, metadata !2776), !dbg !4699
  store %"class.shared_pointer::Thread2"** %1, %"class.shared_pointer::Thread2"*** %4, align 8
  call void @llvm.dbg.declare(metadata %"class.shared_pointer::Thread2"*** %4, metadata !4700, metadata !2776), !dbg !4701
  %5 = load %"class.std::_Mem_fn_base.15"*, %"class.std::_Mem_fn_base.15"** %3, align 8
  %6 = getelementptr inbounds %"class.std::_Mem_fn_base.15", %"class.std::_Mem_fn_base.15"* %5, i32 0, i32 0, !dbg !4702
  %7 = load %"class.shared_pointer::Thread2"**, %"class.shared_pointer::Thread2"*** %4, align 8, !dbg !4703
  %8 = call dereferenceable(8) %"class.shared_pointer::Thread2"** @_ZSt7forwardIPN14shared_pointer7Thread2EEOT_RNSt16remove_referenceIS3_E4typeE(%"class.shared_pointer::Thread2"** dereferenceable(8) %7) #3, !dbg !4704
  call void @_ZSt8__invokeIRKMN14shared_pointer7Thread2EFvvEJPS1_EENSt9result_ofIFOT_DpOT0_EE4typeES9_SC_({ i64, i64 }* dereferenceable(16) %6, %"class.shared_pointer::Thread2"** dereferenceable(8) %8), !dbg !4705
  ret void, !dbg !4707
}

; Function Attrs: nounwind uwtable
define linkonce_odr dereferenceable(8) %"class.shared_pointer::Thread2"** @_ZSt3getILm1EJSt7_Mem_fnIMN14shared_pointer7Thread2EFvvEEPS2_EERNSt13tuple_elementIXT_ESt5tupleIJDpT0_EEE4typeERSB_(%"class.std::tuple.9"* dereferenceable(24)) #4 comdat !dbg !4708 {
  %2 = alloca %"class.std::tuple.9"*, align 8
  store %"class.std::tuple.9"* %0, %"class.std::tuple.9"** %2, align 8
  call void @llvm.dbg.declare(metadata %"class.std::tuple.9"** %2, metadata !4719, metadata !2776), !dbg !4720
  %3 = load %"class.std::tuple.9"*, %"class.std::tuple.9"** %2, align 8, !dbg !4721
  %4 = bitcast %"class.std::tuple.9"* %3 to %"struct.std::_Tuple_impl.11"*, !dbg !4721
  %5 = call dereferenceable(8) %"class.shared_pointer::Thread2"** @_ZSt12__get_helperILm1EPN14shared_pointer7Thread2EJEERT0_RSt11_Tuple_implIXT_EJS3_DpT1_EE(%"struct.std::_Tuple_impl.11"* dereferenceable(8) %4) #3, !dbg !4722
  ret %"class.shared_pointer::Thread2"** %5, !dbg !4723
}

; Function Attrs: nounwind uwtable
define linkonce_odr dereferenceable(16) %"struct.std::_Mem_fn.14"* @_ZSt12__get_helperILm0ESt7_Mem_fnIMN14shared_pointer7Thread2EFvvEEJPS2_EERT0_RSt11_Tuple_implIXT_EJS7_DpT1_EE(%"struct.std::_Tuple_impl.10"* dereferenceable(24)) #4 comdat !dbg !4724 {
  %2 = alloca %"struct.std::_Tuple_impl.10"*, align 8
  store %"struct.std::_Tuple_impl.10"* %0, %"struct.std::_Tuple_impl.10"** %2, align 8
  call void @llvm.dbg.declare(metadata %"struct.std::_Tuple_impl.10"** %2, metadata !4727, metadata !2776), !dbg !4728
  %3 = load %"struct.std::_Tuple_impl.10"*, %"struct.std::_Tuple_impl.10"** %2, align 8, !dbg !4729
  %4 = call dereferenceable(16) %"struct.std::_Mem_fn.14"* @_ZNSt11_Tuple_implILm0EJSt7_Mem_fnIMN14shared_pointer7Thread2EFvvEEPS2_EE7_M_headERS7_(%"struct.std::_Tuple_impl.10"* dereferenceable(24) %3) #3, !dbg !4730
  ret %"struct.std::_Mem_fn.14"* %4, !dbg !4731
}

; Function Attrs: inlinehint uwtable
define linkonce_odr void @_ZSt8__invokeIRKMN14shared_pointer7Thread2EFvvEJPS1_EENSt9result_ofIFOT_DpOT0_EE4typeES9_SC_({ i64, i64 }* dereferenceable(16), %"class.shared_pointer::Thread2"** dereferenceable(8)) #13 comdat !dbg !538 {
  %3 = alloca { i64, i64 }*, align 8
  %4 = alloca %"class.shared_pointer::Thread2"**, align 8
  %5 = alloca %"struct.std::__invoke_memfun_deref", align 1
  store { i64, i64 }* %0, { i64, i64 }** %3, align 8
  call void @llvm.dbg.declare(metadata { i64, i64 }** %3, metadata !4732, metadata !2776), !dbg !4733
  store %"class.shared_pointer::Thread2"** %1, %"class.shared_pointer::Thread2"*** %4, align 8
  call void @llvm.dbg.declare(metadata %"class.shared_pointer::Thread2"*** %4, metadata !4734, metadata !2776), !dbg !4735
  %6 = load { i64, i64 }*, { i64, i64 }** %3, align 8, !dbg !4736
  %7 = call dereferenceable(16) { i64, i64 }* @_ZSt7forwardIRKMN14shared_pointer7Thread2EFvvEEOT_RNSt16remove_referenceIS6_E4typeE({ i64, i64 }* dereferenceable(16) %6) #3, !dbg !4737
  %8 = load %"class.shared_pointer::Thread2"**, %"class.shared_pointer::Thread2"*** %4, align 8, !dbg !4738
  %9 = call dereferenceable(8) %"class.shared_pointer::Thread2"** @_ZSt7forwardIPN14shared_pointer7Thread2EEOT_RNSt16remove_referenceIS3_E4typeE(%"class.shared_pointer::Thread2"** dereferenceable(8) %8) #3, !dbg !4739
  call void @_ZSt13__invoke_implIvRKMN14shared_pointer7Thread2EFvvEPS1_JEET_St21__invoke_memfun_derefOT0_OT1_DpOT2_({ i64, i64 }* dereferenceable(16) %7, %"class.shared_pointer::Thread2"** dereferenceable(8) %9), !dbg !4740
  ret void, !dbg !4742
}

; Function Attrs: inlinehint uwtable
define linkonce_odr void @_ZSt13__invoke_implIvRKMN14shared_pointer7Thread2EFvvEPS1_JEET_St21__invoke_memfun_derefOT0_OT1_DpOT2_({ i64, i64 }* dereferenceable(16), %"class.shared_pointer::Thread2"** dereferenceable(8)) #13 comdat !dbg !4743 {
  %3 = alloca %"struct.std::__invoke_memfun_deref", align 1
  %4 = alloca { i64, i64 }*, align 8
  %5 = alloca %"class.shared_pointer::Thread2"**, align 8
  call void @llvm.dbg.declare(metadata %"struct.std::__invoke_memfun_deref"* %3, metadata !4748, metadata !2776), !dbg !4749
  store { i64, i64 }* %0, { i64, i64 }** %4, align 8
  call void @llvm.dbg.declare(metadata { i64, i64 }** %4, metadata !4750, metadata !2776), !dbg !4751
  store %"class.shared_pointer::Thread2"** %1, %"class.shared_pointer::Thread2"*** %5, align 8
  call void @llvm.dbg.declare(metadata %"class.shared_pointer::Thread2"*** %5, metadata !4752, metadata !2776), !dbg !4753
  %6 = load { i64, i64 }*, { i64, i64 }** %4, align 8, !dbg !4754
  %7 = load { i64, i64 }, { i64, i64 }* %6, align 8, !dbg !4754
  %8 = load %"class.shared_pointer::Thread2"**, %"class.shared_pointer::Thread2"*** %5, align 8, !dbg !4755
  %9 = call dereferenceable(8) %"class.shared_pointer::Thread2"** @_ZSt7forwardIPN14shared_pointer7Thread2EEOT_RNSt16remove_referenceIS3_E4typeE(%"class.shared_pointer::Thread2"** dereferenceable(8) %8) #3, !dbg !4756
  %10 = load %"class.shared_pointer::Thread2"*, %"class.shared_pointer::Thread2"** %9, align 8, !dbg !4756
  %11 = extractvalue { i64, i64 } %7, 1, !dbg !4757
  %12 = bitcast %"class.shared_pointer::Thread2"* %10 to i8*, !dbg !4757
  %13 = getelementptr inbounds i8, i8* %12, i64 %11, !dbg !4757
  %14 = bitcast i8* %13 to %"class.shared_pointer::Thread2"*, !dbg !4757
  %15 = extractvalue { i64, i64 } %7, 0, !dbg !4757
  %16 = and i64 %15, 1, !dbg !4757
  %17 = icmp ne i64 %16, 0, !dbg !4757
  br i1 %17, label %18, label %25, !dbg !4757

; <label>:18:                                     ; preds = %2
  %19 = bitcast %"class.shared_pointer::Thread2"* %14 to i8**, !dbg !4758
  %20 = load i8*, i8** %19, align 8, !dbg !4758
  %21 = sub i64 %15, 1, !dbg !4758
  %22 = getelementptr i8, i8* %20, i64 %21, !dbg !4758
  %23 = bitcast i8* %22 to void (%"class.shared_pointer::Thread2"*)**, !dbg !4758
  %24 = load void (%"class.shared_pointer::Thread2"*)*, void (%"class.shared_pointer::Thread2"*)** %23, align 8, !dbg !4758
  br label %27, !dbg !4758

; <label>:25:                                     ; preds = %2
  %26 = inttoptr i64 %15 to void (%"class.shared_pointer::Thread2"*)*, !dbg !4760
  br label %27, !dbg !4760

; <label>:27:                                     ; preds = %25, %18
  %28 = phi void (%"class.shared_pointer::Thread2"*)* [ %24, %18 ], [ %26, %25 ], !dbg !4762
  call void %28(%"class.shared_pointer::Thread2"* %14), !dbg !4762
  ret void, !dbg !4764
}

; Function Attrs: nounwind uwtable
define linkonce_odr dereferenceable(16) { i64, i64 }* @_ZSt7forwardIRKMN14shared_pointer7Thread2EFvvEEOT_RNSt16remove_referenceIS6_E4typeE({ i64, i64 }* dereferenceable(16)) #4 comdat !dbg !4765 {
  %2 = alloca { i64, i64 }*, align 8
  store { i64, i64 }* %0, { i64, i64 }** %2, align 8
  call void @llvm.dbg.declare(metadata { i64, i64 }** %2, metadata !4773, metadata !2776), !dbg !4774
  %3 = load { i64, i64 }*, { i64, i64 }** %2, align 8, !dbg !4775
  ret { i64, i64 }* %3, !dbg !4776
}

; Function Attrs: nounwind uwtable
define linkonce_odr dereferenceable(8) %"class.shared_pointer::Thread2"** @_ZSt12__get_helperILm1EPN14shared_pointer7Thread2EJEERT0_RSt11_Tuple_implIXT_EJS3_DpT1_EE(%"struct.std::_Tuple_impl.11"* dereferenceable(8)) #4 comdat !dbg !4777 {
  %2 = alloca %"struct.std::_Tuple_impl.11"*, align 8
  store %"struct.std::_Tuple_impl.11"* %0, %"struct.std::_Tuple_impl.11"** %2, align 8
  call void @llvm.dbg.declare(metadata %"struct.std::_Tuple_impl.11"** %2, metadata !4779, metadata !2776), !dbg !4780
  %3 = load %"struct.std::_Tuple_impl.11"*, %"struct.std::_Tuple_impl.11"** %2, align 8, !dbg !4781
  %4 = call dereferenceable(8) %"class.shared_pointer::Thread2"** @_ZNSt11_Tuple_implILm1EJPN14shared_pointer7Thread2EEE7_M_headERS3_(%"struct.std::_Tuple_impl.11"* dereferenceable(8) %3) #3, !dbg !4782
  ret %"class.shared_pointer::Thread2"** %4, !dbg !4783
}

; Function Attrs: nounwind uwtable
define linkonce_odr { i64, i64 } @_ZNSt26_Maybe_wrap_member_pointerIMN14shared_pointer7Thread2EFvvEE9__do_wrapES3_(i64, i64) #4 comdat align 2 !dbg !4784 {
  %3 = alloca %"struct.std::_Mem_fn.14", align 8
  %4 = alloca { i64, i64 }, align 8
  %5 = alloca { i64, i64 }, align 8
  %6 = alloca { i64, i64 }, align 8
  %7 = getelementptr inbounds { i64, i64 }, { i64, i64 }* %4, i32 0, i32 0
  store i64 %0, i64* %7, align 8
  %8 = getelementptr inbounds { i64, i64 }, { i64, i64 }* %4, i32 0, i32 1
  store i64 %1, i64* %8, align 8
  %9 = load { i64, i64 }, { i64, i64 }* %4, align 8
  store { i64, i64 } %9, { i64, i64 }* %5, align 8
  call void @llvm.dbg.declare(metadata { i64, i64 }* %5, metadata !4785, metadata !2776), !dbg !4786
  %10 = load { i64, i64 }, { i64, i64 }* %5, align 8, !dbg !4787
  store { i64, i64 } %10, { i64, i64 }* %6, align 8, !dbg !4788
  %11 = getelementptr inbounds { i64, i64 }, { i64, i64 }* %6, i32 0, i32 0, !dbg !4788
  %12 = load i64, i64* %11, align 8, !dbg !4788
  %13 = getelementptr inbounds { i64, i64 }, { i64, i64 }* %6, i32 0, i32 1, !dbg !4788
  %14 = load i64, i64* %13, align 8, !dbg !4788
  call void @_ZNSt7_Mem_fnIMN14shared_pointer7Thread2EFvvEECI2St12_Mem_fn_baseIS3_Lb1EEES3_(%"struct.std::_Mem_fn.14"* %3, i64 %12, i64 %14) #3, !dbg !4788
  %15 = getelementptr inbounds %"struct.std::_Mem_fn.14", %"struct.std::_Mem_fn.14"* %3, i32 0, i32 0, !dbg !4789
  %16 = getelementptr inbounds %"class.std::_Mem_fn_base.15", %"class.std::_Mem_fn_base.15"* %15, i32 0, i32 0, !dbg !4789
  %17 = load { i64, i64 }, { i64, i64 }* %16, align 8, !dbg !4789
  ret { i64, i64 } %17, !dbg !4789
}

; Function Attrs: uwtable
define linkonce_odr void @_ZNSt12_Bind_simpleIFSt7_Mem_fnIMN14shared_pointer7Thread2EFvvEEPS2_EEC2IS5_JS6_EEEOT_DpOT0_(%"struct.std::_Bind_simple.8"*, %"struct.std::_Mem_fn.14"* dereferenceable(16), %"class.shared_pointer::Thread2"** dereferenceable(8)) unnamed_addr #0 comdat align 2 !dbg !4790 {
  %4 = alloca %"struct.std::_Bind_simple.8"*, align 8
  %5 = alloca %"struct.std::_Mem_fn.14"*, align 8
  %6 = alloca %"class.shared_pointer::Thread2"**, align 8
  store %"struct.std::_Bind_simple.8"* %0, %"struct.std::_Bind_simple.8"** %4, align 8
  call void @llvm.dbg.declare(metadata %"struct.std::_Bind_simple.8"** %4, metadata !4796, metadata !2776), !dbg !4797
  store %"struct.std::_Mem_fn.14"* %1, %"struct.std::_Mem_fn.14"** %5, align 8
  call void @llvm.dbg.declare(metadata %"struct.std::_Mem_fn.14"** %5, metadata !4798, metadata !2776), !dbg !4799
  store %"class.shared_pointer::Thread2"** %2, %"class.shared_pointer::Thread2"*** %6, align 8
  call void @llvm.dbg.declare(metadata %"class.shared_pointer::Thread2"*** %6, metadata !4800, metadata !2776), !dbg !4801
  %7 = load %"struct.std::_Bind_simple.8"*, %"struct.std::_Bind_simple.8"** %4, align 8
  %8 = getelementptr inbounds %"struct.std::_Bind_simple.8", %"struct.std::_Bind_simple.8"* %7, i32 0, i32 0, !dbg !4802
  %9 = load %"struct.std::_Mem_fn.14"*, %"struct.std::_Mem_fn.14"** %5, align 8, !dbg !4803
  %10 = call dereferenceable(16) %"struct.std::_Mem_fn.14"* @_ZSt7forwardISt7_Mem_fnIMN14shared_pointer7Thread2EFvvEEEOT_RNSt16remove_referenceIS6_E4typeE(%"struct.std::_Mem_fn.14"* dereferenceable(16) %9) #3, !dbg !4804
  %11 = load %"class.shared_pointer::Thread2"**, %"class.shared_pointer::Thread2"*** %6, align 8, !dbg !4805
  %12 = call dereferenceable(8) %"class.shared_pointer::Thread2"** @_ZSt7forwardIPN14shared_pointer7Thread2EEOT_RNSt16remove_referenceIS3_E4typeE(%"class.shared_pointer::Thread2"** dereferenceable(8) %11) #3, !dbg !4806
  call void @_ZNSt5tupleIJSt7_Mem_fnIMN14shared_pointer7Thread2EFvvEEPS2_EEC2IS5_S6_Lb1EEEOT_OT0_(%"class.std::tuple.9"* %8, %"struct.std::_Mem_fn.14"* dereferenceable(16) %10, %"class.shared_pointer::Thread2"** dereferenceable(8) %12), !dbg !4808
  ret void, !dbg !4810
}

; Function Attrs: inlinehint nounwind uwtable
define linkonce_odr void @_ZNSt7_Mem_fnIMN14shared_pointer7Thread2EFvvEECI2St12_Mem_fn_baseIS3_Lb1EEES3_(%"struct.std::_Mem_fn.14"*, i64, i64) unnamed_addr #7 comdat align 2 !dbg !4811 {
  %4 = alloca { i64, i64 }, align 8
  %5 = alloca %"struct.std::_Mem_fn.14"*, align 8
  %6 = alloca { i64, i64 }, align 8
  %7 = alloca { i64, i64 }, align 8
  %8 = getelementptr inbounds { i64, i64 }, { i64, i64 }* %4, i32 0, i32 0
  store i64 %1, i64* %8, align 8
  %9 = getelementptr inbounds { i64, i64 }, { i64, i64 }* %4, i32 0, i32 1
  store i64 %2, i64* %9, align 8
  %10 = load { i64, i64 }, { i64, i64 }* %4, align 8
  store %"struct.std::_Mem_fn.14"* %0, %"struct.std::_Mem_fn.14"** %5, align 8
  call void @llvm.dbg.declare(metadata %"struct.std::_Mem_fn.14"** %5, metadata !4816, metadata !2776), !dbg !4818
  store { i64, i64 } %10, { i64, i64 }* %6, align 8
  call void @llvm.dbg.declare(metadata { i64, i64 }* %6, metadata !4819, metadata !2776), !dbg !4818
  %11 = load %"struct.std::_Mem_fn.14"*, %"struct.std::_Mem_fn.14"** %5, align 8
  %12 = bitcast %"struct.std::_Mem_fn.14"* %11 to %"class.std::_Mem_fn_base.15"*, !dbg !4820
  %13 = load { i64, i64 }, { i64, i64 }* %6, align 8, !dbg !4820
  store { i64, i64 } %13, { i64, i64 }* %7, align 8, !dbg !4820
  %14 = getelementptr inbounds { i64, i64 }, { i64, i64 }* %7, i32 0, i32 0, !dbg !4820
  %15 = load i64, i64* %14, align 8, !dbg !4820
  %16 = getelementptr inbounds { i64, i64 }, { i64, i64 }* %7, i32 0, i32 1, !dbg !4820
  %17 = load i64, i64* %16, align 8, !dbg !4820
  call void @_ZNSt12_Mem_fn_baseIMN14shared_pointer7Thread2EFvvELb1EEC2ES3_(%"class.std::_Mem_fn_base.15"* %12, i64 %15, i64 %17) #3, !dbg !4820
  ret void, !dbg !4820
}

; Function Attrs: nounwind uwtable
define linkonce_odr void @_ZNSt12_Mem_fn_baseIMN14shared_pointer7Thread2EFvvELb1EEC2ES3_(%"class.std::_Mem_fn_base.15"*, i64, i64) unnamed_addr #4 comdat align 2 !dbg !4821 {
  %4 = alloca { i64, i64 }, align 8
  %5 = alloca %"class.std::_Mem_fn_base.15"*, align 8
  %6 = alloca { i64, i64 }, align 8
  %7 = getelementptr inbounds { i64, i64 }, { i64, i64 }* %4, i32 0, i32 0
  store i64 %1, i64* %7, align 8
  %8 = getelementptr inbounds { i64, i64 }, { i64, i64 }* %4, i32 0, i32 1
  store i64 %2, i64* %8, align 8
  %9 = load { i64, i64 }, { i64, i64 }* %4, align 8
  store %"class.std::_Mem_fn_base.15"* %0, %"class.std::_Mem_fn_base.15"** %5, align 8
  call void @llvm.dbg.declare(metadata %"class.std::_Mem_fn_base.15"** %5, metadata !4822, metadata !2776), !dbg !4824
  store { i64, i64 } %9, { i64, i64 }* %6, align 8
  call void @llvm.dbg.declare(metadata { i64, i64 }* %6, metadata !4825, metadata !2776), !dbg !4826
  %10 = load %"class.std::_Mem_fn_base.15"*, %"class.std::_Mem_fn_base.15"** %5, align 8
  %11 = bitcast %"class.std::_Mem_fn_base.15"* %10 to %"struct.std::_Maybe_unary_or_binary_function.16"*, !dbg !4827
  %12 = getelementptr inbounds %"class.std::_Mem_fn_base.15", %"class.std::_Mem_fn_base.15"* %10, i32 0, i32 0, !dbg !4828
  %13 = load { i64, i64 }, { i64, i64 }* %6, align 8, !dbg !4829
  store { i64, i64 } %13, { i64, i64 }* %12, align 8, !dbg !4828
  ret void, !dbg !4830
}

; Function Attrs: uwtable
define linkonce_odr void @_ZNSt5tupleIJSt7_Mem_fnIMN14shared_pointer7Thread2EFvvEEPS2_EEC2IS5_S6_Lb1EEEOT_OT0_(%"class.std::tuple.9"*, %"struct.std::_Mem_fn.14"* dereferenceable(16), %"class.shared_pointer::Thread2"** dereferenceable(8)) unnamed_addr #0 comdat align 2 !dbg !4831 {
  %4 = alloca %"class.std::tuple.9"*, align 8
  %5 = alloca %"struct.std::_Mem_fn.14"*, align 8
  %6 = alloca %"class.shared_pointer::Thread2"**, align 8
  store %"class.std::tuple.9"* %0, %"class.std::tuple.9"** %4, align 8
  call void @llvm.dbg.declare(metadata %"class.std::tuple.9"** %4, metadata !4838, metadata !2776), !dbg !4839
  store %"struct.std::_Mem_fn.14"* %1, %"struct.std::_Mem_fn.14"** %5, align 8
  call void @llvm.dbg.declare(metadata %"struct.std::_Mem_fn.14"** %5, metadata !4840, metadata !2776), !dbg !4841
  store %"class.shared_pointer::Thread2"** %2, %"class.shared_pointer::Thread2"*** %6, align 8
  call void @llvm.dbg.declare(metadata %"class.shared_pointer::Thread2"*** %6, metadata !4842, metadata !2776), !dbg !4843
  %7 = load %"class.std::tuple.9"*, %"class.std::tuple.9"** %4, align 8
  %8 = bitcast %"class.std::tuple.9"* %7 to %"struct.std::_Tuple_impl.10"*, !dbg !4844
  %9 = load %"struct.std::_Mem_fn.14"*, %"struct.std::_Mem_fn.14"** %5, align 8, !dbg !4845
  %10 = call dereferenceable(16) %"struct.std::_Mem_fn.14"* @_ZSt7forwardISt7_Mem_fnIMN14shared_pointer7Thread2EFvvEEEOT_RNSt16remove_referenceIS6_E4typeE(%"struct.std::_Mem_fn.14"* dereferenceable(16) %9) #3, !dbg !4846
  %11 = load %"class.shared_pointer::Thread2"**, %"class.shared_pointer::Thread2"*** %6, align 8, !dbg !4847
  %12 = call dereferenceable(8) %"class.shared_pointer::Thread2"** @_ZSt7forwardIPN14shared_pointer7Thread2EEOT_RNSt16remove_referenceIS3_E4typeE(%"class.shared_pointer::Thread2"** dereferenceable(8) %11) #3, !dbg !4848
  call void @_ZNSt11_Tuple_implILm0EJSt7_Mem_fnIMN14shared_pointer7Thread2EFvvEEPS2_EEC2IS5_JS6_EvEEOT_DpOT0_(%"struct.std::_Tuple_impl.10"* %8, %"struct.std::_Mem_fn.14"* dereferenceable(16) %10, %"class.shared_pointer::Thread2"** dereferenceable(8) %12), !dbg !4850
  ret void, !dbg !4852
}

; Function Attrs: uwtable
define linkonce_odr void @_ZNSt11_Tuple_implILm0EJSt7_Mem_fnIMN14shared_pointer7Thread2EFvvEEPS2_EEC2IS5_JS6_EvEEOT_DpOT0_(%"struct.std::_Tuple_impl.10"*, %"struct.std::_Mem_fn.14"* dereferenceable(16), %"class.shared_pointer::Thread2"** dereferenceable(8)) unnamed_addr #0 comdat align 2 !dbg !4853 {
  %4 = alloca %"struct.std::_Tuple_impl.10"*, align 8
  %5 = alloca %"struct.std::_Mem_fn.14"*, align 8
  %6 = alloca %"class.shared_pointer::Thread2"**, align 8
  store %"struct.std::_Tuple_impl.10"* %0, %"struct.std::_Tuple_impl.10"** %4, align 8
  call void @llvm.dbg.declare(metadata %"struct.std::_Tuple_impl.10"** %4, metadata !4859, metadata !2776), !dbg !4860
  store %"struct.std::_Mem_fn.14"* %1, %"struct.std::_Mem_fn.14"** %5, align 8
  call void @llvm.dbg.declare(metadata %"struct.std::_Mem_fn.14"** %5, metadata !4861, metadata !2776), !dbg !4862
  store %"class.shared_pointer::Thread2"** %2, %"class.shared_pointer::Thread2"*** %6, align 8
  call void @llvm.dbg.declare(metadata %"class.shared_pointer::Thread2"*** %6, metadata !4863, metadata !2776), !dbg !4864
  %7 = load %"struct.std::_Tuple_impl.10"*, %"struct.std::_Tuple_impl.10"** %4, align 8
  %8 = bitcast %"struct.std::_Tuple_impl.10"* %7 to %"struct.std::_Tuple_impl.11"*, !dbg !4865
  %9 = load %"class.shared_pointer::Thread2"**, %"class.shared_pointer::Thread2"*** %6, align 8, !dbg !4866
  %10 = call dereferenceable(8) %"class.shared_pointer::Thread2"** @_ZSt7forwardIPN14shared_pointer7Thread2EEOT_RNSt16remove_referenceIS3_E4typeE(%"class.shared_pointer::Thread2"** dereferenceable(8) %9) #3, !dbg !4867
  call void @_ZNSt11_Tuple_implILm1EJPN14shared_pointer7Thread2EEEC2IS2_EEOT_(%"struct.std::_Tuple_impl.11"* %8, %"class.shared_pointer::Thread2"** dereferenceable(8) %10), !dbg !4868
  %11 = bitcast %"struct.std::_Tuple_impl.10"* %7 to i8*, !dbg !4865
  %12 = getelementptr inbounds i8, i8* %11, i64 8, !dbg !4865
  %13 = bitcast i8* %12 to %"struct.std::_Head_base.13"*, !dbg !4865
  %14 = load %"struct.std::_Mem_fn.14"*, %"struct.std::_Mem_fn.14"** %5, align 8, !dbg !4870
  %15 = call dereferenceable(16) %"struct.std::_Mem_fn.14"* @_ZSt7forwardISt7_Mem_fnIMN14shared_pointer7Thread2EFvvEEEOT_RNSt16remove_referenceIS6_E4typeE(%"struct.std::_Mem_fn.14"* dereferenceable(16) %14) #3, !dbg !4871
  call void @_ZNSt10_Head_baseILm0ESt7_Mem_fnIMN14shared_pointer7Thread2EFvvEELb0EEC2IS5_EEOT_(%"struct.std::_Head_base.13"* %13, %"struct.std::_Mem_fn.14"* dereferenceable(16) %15), !dbg !4872
  ret void, !dbg !4873
}

; Function Attrs: nounwind uwtable
define linkonce_odr void @_ZNSt11_Tuple_implILm1EJPN14shared_pointer7Thread2EEEC2IS2_EEOT_(%"struct.std::_Tuple_impl.11"*, %"class.shared_pointer::Thread2"** dereferenceable(8)) unnamed_addr #4 comdat align 2 !dbg !4874 {
  %3 = alloca %"struct.std::_Tuple_impl.11"*, align 8
  %4 = alloca %"class.shared_pointer::Thread2"**, align 8
  store %"struct.std::_Tuple_impl.11"* %0, %"struct.std::_Tuple_impl.11"** %3, align 8
  call void @llvm.dbg.declare(metadata %"struct.std::_Tuple_impl.11"** %3, metadata !4878, metadata !2776), !dbg !4879
  store %"class.shared_pointer::Thread2"** %1, %"class.shared_pointer::Thread2"*** %4, align 8
  call void @llvm.dbg.declare(metadata %"class.shared_pointer::Thread2"*** %4, metadata !4880, metadata !2776), !dbg !4881
  %5 = load %"struct.std::_Tuple_impl.11"*, %"struct.std::_Tuple_impl.11"** %3, align 8
  %6 = bitcast %"struct.std::_Tuple_impl.11"* %5 to %"struct.std::_Head_base.12"*, !dbg !4882
  %7 = load %"class.shared_pointer::Thread2"**, %"class.shared_pointer::Thread2"*** %4, align 8, !dbg !4883
  %8 = call dereferenceable(8) %"class.shared_pointer::Thread2"** @_ZSt7forwardIPN14shared_pointer7Thread2EEOT_RNSt16remove_referenceIS3_E4typeE(%"class.shared_pointer::Thread2"** dereferenceable(8) %7) #3, !dbg !4884
  call void @_ZNSt10_Head_baseILm1EPN14shared_pointer7Thread2ELb0EEC2IS2_EEOT_(%"struct.std::_Head_base.12"* %6, %"class.shared_pointer::Thread2"** dereferenceable(8) %8), !dbg !4885
  ret void, !dbg !4887
}

; Function Attrs: uwtable
define linkonce_odr void @_ZN9IrsThread4joinEv(%class.IrsThread*) #0 comdat align 2 !dbg !4888 {
  %2 = alloca %class.IrsThread*, align 8
  store %class.IrsThread* %0, %class.IrsThread** %2, align 8
  call void @llvm.dbg.declare(metadata %class.IrsThread** %2, metadata !4889, metadata !2776), !dbg !4890
  %3 = load %class.IrsThread*, %class.IrsThread** %2, align 8
  %4 = getelementptr inbounds %class.IrsThread, %class.IrsThread* %3, i32 0, i32 0, !dbg !4891
  %5 = call zeroext i1 @_ZNKSt6thread8joinableEv(%"class.std::thread"* %4) #3, !dbg !4893
  br i1 %5, label %6, label %8, !dbg !4894

; <label>:6:                                      ; preds = %1
  %7 = getelementptr inbounds %class.IrsThread, %class.IrsThread* %3, i32 0, i32 0, !dbg !4895
  call void @_ZNSt6thread4joinEv(%"class.std::thread"* %7), !dbg !4896
  br label %8, !dbg !4895

; <label>:8:                                      ; preds = %6, %1
  ret void, !dbg !4897
}

declare void @_ZNSt6thread4joinEv(%"class.std::thread"*) #1

; Function Attrs: uwtable
define linkonce_odr i64 @_ZNSt6chrono20__duration_cast_implINS_8durationIlSt5ratioILl1ELl1000000EEEES2_ILl1ELl1000EElLb1ELb0EE6__castIlS2_ILl1ELl1000000000EEEES4_RKNS1_IT_T0_EE(%"struct.std::chrono::duration"* dereferenceable(8)) #0 comdat align 2 !dbg !4898 {
  %2 = alloca %"struct.std::chrono::duration.0", align 8
  %3 = alloca %"struct.std::chrono::duration"*, align 8
  %4 = alloca i64, align 8
  store %"struct.std::chrono::duration"* %0, %"struct.std::chrono::duration"** %3, align 8
  call void @llvm.dbg.declare(metadata %"struct.std::chrono::duration"** %3, metadata !4908, metadata !2776), !dbg !4909
  %5 = load %"struct.std::chrono::duration"*, %"struct.std::chrono::duration"** %3, align 8, !dbg !4910
  %6 = call i64 @_ZNKSt6chrono8durationIlSt5ratioILl1ELl1000000000EEE5countEv(%"struct.std::chrono::duration"* %5), !dbg !4911
  %7 = sdiv i64 %6, 1000, !dbg !4912
  store i64 %7, i64* %4, align 8, !dbg !4913
  call void @_ZNSt6chrono8durationIlSt5ratioILl1ELl1000000EEEC2IlvEERKT_(%"struct.std::chrono::duration.0"* %2, i64* dereferenceable(8) %4), !dbg !4914
  %8 = getelementptr inbounds %"struct.std::chrono::duration.0", %"struct.std::chrono::duration.0"* %2, i32 0, i32 0, !dbg !4915
  %9 = load i64, i64* %8, align 8, !dbg !4915
  ret i64 %9, !dbg !4915
}

; Function Attrs: nounwind uwtable
define linkonce_odr i64 @_ZNKSt6chrono8durationIlSt5ratioILl1ELl1000000000EEE5countEv(%"struct.std::chrono::duration"*) #4 comdat align 2 !dbg !4916 {
  %2 = alloca %"struct.std::chrono::duration"*, align 8
  store %"struct.std::chrono::duration"* %0, %"struct.std::chrono::duration"** %2, align 8
  call void @llvm.dbg.declare(metadata %"struct.std::chrono::duration"** %2, metadata !4917, metadata !2776), !dbg !4919
  %3 = load %"struct.std::chrono::duration"*, %"struct.std::chrono::duration"** %2, align 8
  %4 = getelementptr inbounds %"struct.std::chrono::duration", %"struct.std::chrono::duration"* %3, i32 0, i32 0, !dbg !4920
  %5 = load i64, i64* %4, align 8, !dbg !4920
  ret i64 %5, !dbg !4921
}

; Function Attrs: nounwind uwtable
define linkonce_odr void @_ZNSt6chrono8durationIlSt5ratioILl1ELl1000000EEEC2IlvEERKT_(%"struct.std::chrono::duration.0"*, i64* dereferenceable(8)) unnamed_addr #4 comdat align 2 !dbg !4922 {
  %3 = alloca %"struct.std::chrono::duration.0"*, align 8
  %4 = alloca i64*, align 8
  store %"struct.std::chrono::duration.0"* %0, %"struct.std::chrono::duration.0"** %3, align 8
  call void @llvm.dbg.declare(metadata %"struct.std::chrono::duration.0"** %3, metadata !4929, metadata !2776), !dbg !4931
  store i64* %1, i64** %4, align 8
  call void @llvm.dbg.declare(metadata i64** %4, metadata !4932, metadata !2776), !dbg !4933
  %5 = load %"struct.std::chrono::duration.0"*, %"struct.std::chrono::duration.0"** %3, align 8
  %6 = getelementptr inbounds %"struct.std::chrono::duration.0", %"struct.std::chrono::duration.0"* %5, i32 0, i32 0, !dbg !4934
  %7 = load i64*, i64** %4, align 8, !dbg !4935
  %8 = load i64, i64* %7, align 8, !dbg !4935
  store i64 %8, i64* %6, align 8, !dbg !4934
  ret void, !dbg !4936
}

; Function Attrs: uwtable
define linkonce_odr i64 @_ZNSt6chronomiIlSt5ratioILl1ELl1000000000EElS2_EENSt11common_typeIJNS_8durationIT_T0_EENS4_IT1_T2_EEEE4typeERKS7_RKSA_(%"struct.std::chrono::duration"* dereferenceable(8), %"struct.std::chrono::duration"* dereferenceable(8)) #0 comdat !dbg !666 {
  %3 = alloca %"struct.std::chrono::duration", align 8
  %4 = alloca %"struct.std::chrono::duration"*, align 8
  %5 = alloca %"struct.std::chrono::duration"*, align 8
  %6 = alloca i64, align 8
  %7 = alloca %"struct.std::chrono::duration", align 8
  %8 = alloca %"struct.std::chrono::duration", align 8
  store %"struct.std::chrono::duration"* %0, %"struct.std::chrono::duration"** %4, align 8
  call void @llvm.dbg.declare(metadata %"struct.std::chrono::duration"** %4, metadata !4937, metadata !2776), !dbg !4938
  store %"struct.std::chrono::duration"* %1, %"struct.std::chrono::duration"** %5, align 8
  call void @llvm.dbg.declare(metadata %"struct.std::chrono::duration"** %5, metadata !4939, metadata !2776), !dbg !4940
  %9 = load %"struct.std::chrono::duration"*, %"struct.std::chrono::duration"** %4, align 8, !dbg !4941
  %10 = bitcast %"struct.std::chrono::duration"* %7 to i8*, !dbg !4942
  %11 = bitcast %"struct.std::chrono::duration"* %9 to i8*, !dbg !4942
  call void @llvm.memcpy.p0i8.p0i8.i64(i8* %10, i8* %11, i64 8, i32 8, i1 false), !dbg !4942
  %12 = call i64 @_ZNKSt6chrono8durationIlSt5ratioILl1ELl1000000000EEE5countEv(%"struct.std::chrono::duration"* %7), !dbg !4943
  %13 = load %"struct.std::chrono::duration"*, %"struct.std::chrono::duration"** %5, align 8, !dbg !4945
  %14 = bitcast %"struct.std::chrono::duration"* %8 to i8*, !dbg !4946
  %15 = bitcast %"struct.std::chrono::duration"* %13 to i8*, !dbg !4946
  call void @llvm.memcpy.p0i8.p0i8.i64(i8* %14, i8* %15, i64 8, i32 8, i1 false), !dbg !4947
  %16 = call i64 @_ZNKSt6chrono8durationIlSt5ratioILl1ELl1000000000EEE5countEv(%"struct.std::chrono::duration"* %8), !dbg !4949
  %17 = sub nsw i64 %12, %16, !dbg !4951
  store i64 %17, i64* %6, align 8, !dbg !4942
  call void @_ZNSt6chrono8durationIlSt5ratioILl1ELl1000000000EEEC2IlvEERKT_(%"struct.std::chrono::duration"* %3, i64* dereferenceable(8) %6), !dbg !4952
  %18 = getelementptr inbounds %"struct.std::chrono::duration", %"struct.std::chrono::duration"* %3, i32 0, i32 0, !dbg !4954
  %19 = load i64, i64* %18, align 8, !dbg !4954
  ret i64 %19, !dbg !4954
}

; Function Attrs: nounwind uwtable
define linkonce_odr i64 @_ZNKSt6chrono10time_pointINS_3_V212system_clockENS_8durationIlSt5ratioILl1ELl1000000000EEEEE16time_since_epochEv(%"struct.std::chrono::time_point"*) #4 comdat align 2 !dbg !4955 {
  %2 = alloca %"struct.std::chrono::duration", align 8
  %3 = alloca %"struct.std::chrono::time_point"*, align 8
  store %"struct.std::chrono::time_point"* %0, %"struct.std::chrono::time_point"** %3, align 8
  call void @llvm.dbg.declare(metadata %"struct.std::chrono::time_point"** %3, metadata !4956, metadata !2776), !dbg !4958
  %4 = load %"struct.std::chrono::time_point"*, %"struct.std::chrono::time_point"** %3, align 8
  %5 = getelementptr inbounds %"struct.std::chrono::time_point", %"struct.std::chrono::time_point"* %4, i32 0, i32 0, !dbg !4959
  %6 = bitcast %"struct.std::chrono::duration"* %2 to i8*, !dbg !4959
  %7 = bitcast %"struct.std::chrono::duration"* %5 to i8*, !dbg !4959
  call void @llvm.memcpy.p0i8.p0i8.i64(i8* %6, i8* %7, i64 8, i32 8, i1 false), !dbg !4959
  %8 = getelementptr inbounds %"struct.std::chrono::duration", %"struct.std::chrono::duration"* %2, i32 0, i32 0, !dbg !4960
  %9 = load i64, i64* %8, align 8, !dbg !4960
  ret i64 %9, !dbg !4960
}

; Function Attrs: nounwind uwtable
define linkonce_odr void @_ZNSt6chrono8durationIlSt5ratioILl1ELl1000000000EEEC2IlvEERKT_(%"struct.std::chrono::duration"*, i64* dereferenceable(8)) unnamed_addr #4 comdat align 2 !dbg !4961 {
  %3 = alloca %"struct.std::chrono::duration"*, align 8
  %4 = alloca i64*, align 8
  store %"struct.std::chrono::duration"* %0, %"struct.std::chrono::duration"** %3, align 8
  call void @llvm.dbg.declare(metadata %"struct.std::chrono::duration"** %3, metadata !4965, metadata !2776), !dbg !4967
  store i64* %1, i64** %4, align 8
  call void @llvm.dbg.declare(metadata i64** %4, metadata !4968, metadata !2776), !dbg !4969
  %5 = load %"struct.std::chrono::duration"*, %"struct.std::chrono::duration"** %3, align 8
  %6 = getelementptr inbounds %"struct.std::chrono::duration", %"struct.std::chrono::duration"* %5, i32 0, i32 0, !dbg !4970
  %7 = load i64*, i64** %4, align 8, !dbg !4971
  %8 = load i64, i64* %7, align 8, !dbg !4971
  store i64 %8, i64* %6, align 8, !dbg !4970
  ret void, !dbg !4972
}

; Function Attrs: inlinehint nounwind uwtable
define linkonce_odr void @_ZN9IrsThreadD2Ev(%class.IrsThread*) unnamed_addr #7 comdat align 2 !dbg !4973 {
  %2 = alloca %class.IrsThread*, align 8
  store %class.IrsThread* %0, %class.IrsThread** %2, align 8
  call void @llvm.dbg.declare(metadata %class.IrsThread** %2, metadata !4975, metadata !2776), !dbg !4976
  %3 = load %class.IrsThread*, %class.IrsThread** %2, align 8
  %4 = getelementptr inbounds %class.IrsThread, %class.IrsThread* %3, i32 0, i32 0, !dbg !4977
  call void @_ZNSt6threadD2Ev(%"class.std::thread"* %4) #3, !dbg !4977
  ret void, !dbg !4979
}

; Function Attrs: uwtable
define internal void @_GLOBAL__sub_I_shared_pointer.cpp() #0 section ".text.startup" !dbg !4980 {
  call void @__cxx_global_var_init(), !dbg !4982
  call void @__cxx_global_var_init.1(), !dbg !4983
  call void @__cxx_global_var_init.2(), !dbg !4985
  ret void
}

attributes #0 = { uwtable "disable-tail-calls"="false" "less-precise-fpmad"="false" "no-frame-pointer-elim"="true" "no-frame-pointer-elim-non-leaf" "no-infs-fp-math"="false" "no-jump-tables"="false" "no-nans-fp-math"="false" "no-signed-zeros-fp-math"="false" "stack-protector-buffer-size"="8" "target-cpu"="x86-64" "target-features"="+fxsr,+mmx,+sse,+sse2,+x87" "unsafe-fp-math"="false" "use-soft-float"="false" }
attributes #1 = { "disable-tail-calls"="false" "less-precise-fpmad"="false" "no-frame-pointer-elim"="true" "no-frame-pointer-elim-non-leaf" "no-infs-fp-math"="false" "no-nans-fp-math"="false" "no-signed-zeros-fp-math"="false" "stack-protector-buffer-size"="8" "target-cpu"="x86-64" "target-features"="+fxsr,+mmx,+sse,+sse2,+x87" "unsafe-fp-math"="false" "use-soft-float"="false" }
attributes #2 = { nounwind "disable-tail-calls"="false" "less-precise-fpmad"="false" "no-frame-pointer-elim"="true" "no-frame-pointer-elim-non-leaf" "no-infs-fp-math"="false" "no-nans-fp-math"="false" "no-signed-zeros-fp-math"="false" "stack-protector-buffer-size"="8" "target-cpu"="x86-64" "target-features"="+fxsr,+mmx,+sse,+sse2,+x87" "unsafe-fp-math"="false" "use-soft-float"="false" }
attributes #3 = { nounwind }
attributes #4 = { nounwind uwtable "disable-tail-calls"="false" "less-precise-fpmad"="false" "no-frame-pointer-elim"="true" "no-frame-pointer-elim-non-leaf" "no-infs-fp-math"="false" "no-jump-tables"="false" "no-nans-fp-math"="false" "no-signed-zeros-fp-math"="false" "stack-protector-buffer-size"="8" "target-cpu"="x86-64" "target-features"="+fxsr,+mmx,+sse,+sse2,+x87" "unsafe-fp-math"="false" "use-soft-float"="false" }
attributes #5 = { nounwind readnone }
attributes #6 = { noinline uwtable "disable-tail-calls"="false" "less-precise-fpmad"="false" "no-frame-pointer-elim"="true" "no-frame-pointer-elim-non-leaf" "no-infs-fp-math"="false" "no-jump-tables"="false" "no-nans-fp-math"="false" "no-signed-zeros-fp-math"="false" "stack-protector-buffer-size"="8" "target-cpu"="x86-64" "target-features"="+fxsr,+mmx,+sse,+sse2,+x87" "unsafe-fp-math"="false" "use-soft-float"="false" }
attributes #7 = { inlinehint nounwind uwtable "disable-tail-calls"="false" "less-precise-fpmad"="false" "no-frame-pointer-elim"="true" "no-frame-pointer-elim-non-leaf" "no-infs-fp-math"="false" "no-jump-tables"="false" "no-nans-fp-math"="false" "no-signed-zeros-fp-math"="false" "stack-protector-buffer-size"="8" "target-cpu"="x86-64" "target-features"="+fxsr,+mmx,+sse,+sse2,+x87" "unsafe-fp-math"="false" "use-soft-float"="false" }
attributes #8 = { noreturn nounwind "disable-tail-calls"="false" "less-precise-fpmad"="false" "no-frame-pointer-elim"="true" "no-frame-pointer-elim-non-leaf" "no-infs-fp-math"="false" "no-nans-fp-math"="false" "no-signed-zeros-fp-math"="false" "stack-protector-buffer-size"="8" "target-cpu"="x86-64" "target-features"="+fxsr,+mmx,+sse,+sse2,+x87" "unsafe-fp-math"="false" "use-soft-float"="false" }
attributes #9 = { argmemonly nounwind }
attributes #10 = { nobuiltin "disable-tail-calls"="false" "less-precise-fpmad"="false" "no-frame-pointer-elim"="true" "no-frame-pointer-elim-non-leaf" "no-infs-fp-math"="false" "no-nans-fp-math"="false" "no-signed-zeros-fp-math"="false" "stack-protector-buffer-size"="8" "target-cpu"="x86-64" "target-features"="+fxsr,+mmx,+sse,+sse2,+x87" "unsafe-fp-math"="false" "use-soft-float"="false" }
attributes #11 = { nobuiltin nounwind "disable-tail-calls"="false" "less-precise-fpmad"="false" "no-frame-pointer-elim"="true" "no-frame-pointer-elim-non-leaf" "no-infs-fp-math"="false" "no-nans-fp-math"="false" "no-signed-zeros-fp-math"="false" "stack-protector-buffer-size"="8" "target-cpu"="x86-64" "target-features"="+fxsr,+mmx,+sse,+sse2,+x87" "unsafe-fp-math"="false" "use-soft-float"="false" }
attributes #12 = { noinline noreturn nounwind }
attributes #13 = { inlinehint uwtable "disable-tail-calls"="false" "less-precise-fpmad"="false" "no-frame-pointer-elim"="true" "no-frame-pointer-elim-non-leaf" "no-infs-fp-math"="false" "no-jump-tables"="false" "no-nans-fp-math"="false" "no-signed-zeros-fp-math"="false" "stack-protector-buffer-size"="8" "target-cpu"="x86-64" "target-features"="+fxsr,+mmx,+sse,+sse2,+x87" "unsafe-fp-math"="false" "use-soft-float"="false" }
attributes #14 = { noreturn nounwind }
attributes #15 = { builtin }
attributes #16 = { builtin nounwind }

!llvm.dbg.cu = !{!0}
!llvm.module.flags = !{!2763, !2764}
!llvm.ident = !{!2765}

!0 = distinct !DICompileUnit(language: DW_LANG_C_plus_plus, file: !1, producer: "clang version 3.9.1-5ubuntu1.1 (tags/RELEASE_391/rc2)", isOptimized: false, runtimeVersion: 0, emissionKind: FullDebug, enums: !2, retainedTypes: !36, globals: !739, imports: !795)
!1 = !DIFile(filename: "/home/sreeram/Dev/mastersthesis/userspace_implementation_thesis_ver/MemoryCheck/src/Benchmark/shared_pointer.cpp", directory: "/home/sreeram/Dev/mastersthesis/userspace_implementation_thesis_ver/MemoryCheck/build/src/Benchmark")
!2 = !{!3, !11, !21}
!3 = distinct !DICompositeType(tag: DW_TAG_enumeration_type, name: "_Lock_policy", scope: !5, file: !4, line: 49, size: 32, align: 32, elements: !7, identifier: "_ZTSN9__gnu_cxx12_Lock_policyE")
!4 = !DIFile(filename: "/usr/bin/../lib/gcc/x86_64-linux-gnu/6.3.0/../../../../include/c++/6.3.0/ext/concurrence.h", directory: "/home/sreeram/Dev/mastersthesis/userspace_implementation_thesis_ver/MemoryCheck/build/src/Benchmark")
!5 = !DINamespace(name: "__gnu_cxx", scope: null, file: !6, line: 225)
!6 = !DIFile(filename: "/usr/bin/../lib/gcc/x86_64-linux-gnu/6.3.0/../../../../include/x86_64-linux-gnu/c++/6.3.0/bits/c++config.h", directory: "/home/sreeram/Dev/mastersthesis/userspace_implementation_thesis_ver/MemoryCheck/build/src/Benchmark")
!7 = !{!8, !9, !10}
!8 = !DIEnumerator(name: "_S_single", value: 0)
!9 = !DIEnumerator(name: "_S_mutex", value: 1)
!10 = !DIEnumerator(name: "_S_atomic", value: 2)
!11 = distinct !DICompositeType(tag: DW_TAG_enumeration_type, name: "default_color_type", scope: !13, file: !12, line: 32, size: 32, align: 32, elements: !15, identifier: "_ZTSN5boost18default_color_typeE")
!12 = !DIFile(filename: "/usr/include/boost/graph/properties.hpp", directory: "/home/sreeram/Dev/mastersthesis/userspace_implementation_thesis_ver/MemoryCheck/build/src/Benchmark")
!13 = !DINamespace(name: "boost", scope: null, file: !14, line: 484)
!14 = !DIFile(filename: "/usr/include/boost/config/suffix.hpp", directory: "/home/sreeram/Dev/mastersthesis/userspace_implementation_thesis_ver/MemoryCheck/build/src/Benchmark")
!15 = !{!16, !17, !18, !19, !20}
!16 = !DIEnumerator(name: "white_color", value: 0)
!17 = !DIEnumerator(name: "gray_color", value: 1)
!18 = !DIEnumerator(name: "green_color", value: 2)
!19 = !DIEnumerator(name: "red_color", value: 3)
!20 = !DIEnumerator(name: "black_color", value: 4)
!21 = distinct !DICompositeType(tag: DW_TAG_enumeration_type, name: "syntax_option_type", scope: !23, file: !22, line: 29, size: 32, align: 32, elements: !26, identifier: "_ZTSN5boost9xpressive15regex_constants18syntax_option_typeE")
!22 = !DIFile(filename: "/usr/include/boost/xpressive/regex_constants.hpp", directory: "/home/sreeram/Dev/mastersthesis/userspace_implementation_thesis_ver/MemoryCheck/build/src/Benchmark")
!23 = !DINamespace(name: "regex_constants", scope: !24, file: !22, line: 24)
!24 = !DINamespace(name: "xpressive", scope: !13, file: !25, line: 52)
!25 = !DIFile(filename: "/usr/include/boost/xpressive/xpressive_fwd.hpp", directory: "/home/sreeram/Dev/mastersthesis/userspace_implementation_thesis_ver/MemoryCheck/build/src/Benchmark")
!26 = !{!27, !28, !29, !30, !31, !32, !33, !34, !35}
!27 = !DIEnumerator(name: "ECMAScript", value: 0)
!28 = !DIEnumerator(name: "icase_", value: 2)
!29 = !DIEnumerator(name: "nosubs", value: 4)
!30 = !DIEnumerator(name: "optimize", value: 8)
!31 = !DIEnumerator(name: "collate", value: 16)
!32 = !DIEnumerator(name: "single_line", value: 1024)
!33 = !DIEnumerator(name: "not_dot_null", value: 2048)
!34 = !DIEnumerator(name: "not_dot_newline", value: 4096)
!35 = !DIEnumerator(name: "ignore_white_space", value: 8192)
!36 = !{!37, !40, !497, !537, !566, !601, !607, !606, !665, !676, !733}
!37 = !DIDerivedType(tag: DW_TAG_pointer_type, baseType: !38, size: 64, align: 64)
!38 = !DISubroutineType(types: !39)
!39 = !{null}
!40 = !DIDerivedType(tag: DW_TAG_typedef, name: "__tag", scope: !42, file: !41, line: 249, baseType: !490)
!41 = !DIFile(filename: "/usr/bin/../lib/gcc/x86_64-linux-gnu/6.3.0/../../../../include/c++/6.3.0/functional", directory: "/home/sreeram/Dev/mastersthesis/userspace_implementation_thesis_ver/MemoryCheck/build/src/Benchmark")
!42 = distinct !DISubprogram(name: "__invoke<void (shared_pointer::Thread1::*const &)(), shared_pointer::Thread1 *>", linkageName: "_ZSt8__invokeIRKMN14shared_pointer7Thread1EFvvEJPS1_EENSt9result_ofIFOT_DpOT0_EE4typeES9_SC_", scope: !43, file: !41, line: 245, type: !44, isLocal: false, isDefinition: true, scopeLine: 246, flags: DIFlagPrototyped, isOptimized: false, unit: !0, templateParams: !485, variables: !49)
!43 = !DINamespace(name: "std", scope: null, file: !6, line: 199)
!44 = !DISubroutineType(types: !45)
!45 = !{!46, !52, !483}
!46 = !DIDerivedType(tag: DW_TAG_typedef, name: "type", scope: !48, file: !47, line: 191, baseType: null)
!47 = !DIFile(filename: "/usr/bin/../lib/gcc/x86_64-linux-gnu/6.3.0/../../../../include/c++/6.3.0/type_traits", directory: "/home/sreeram/Dev/mastersthesis/userspace_implementation_thesis_ver/MemoryCheck/build/src/Benchmark")
!48 = distinct !DICompositeType(tag: DW_TAG_structure_type, name: "__success_type<void>", scope: !43, file: !47, line: 190, size: 8, align: 8, elements: !49, templateParams: !50, identifier: "_ZTSSt14__success_typeIvE")
!49 = !{}
!50 = !{!51}
!51 = !DITemplateTypeParameter(name: "_Tp", type: null)
!52 = !DIDerivedType(tag: DW_TAG_reference_type, baseType: !53, size: 64, align: 64)
!53 = !DIDerivedType(tag: DW_TAG_const_type, baseType: !54)
!54 = !DIDerivedType(tag: DW_TAG_ptr_to_member_type, baseType: !55, size: 128, extraData: !58)
!55 = !DISubroutineType(types: !56)
!56 = !{null, !57}
!57 = !DIDerivedType(tag: DW_TAG_pointer_type, baseType: !58, size: 64, align: 64, flags: DIFlagArtificial | DIFlagObjectPointer)
!58 = distinct !DICompositeType(tag: DW_TAG_class_type, name: "Thread1", scope: !59, file: !1, line: 18, size: 128, align: 64, elements: !61, identifier: "_ZTSN14shared_pointer7Thread1E")
!59 = !DINamespace(name: "shared_pointer", scope: null, file: !60, line: 4)
!60 = !DIFile(filename: "/home/sreeram/Dev/mastersthesis/userspace_implementation_thesis_ver/MemoryCheck/src/Benchmark/../../include/Benchmark/shared_pointer.h", directory: "/home/sreeram/Dev/mastersthesis/userspace_implementation_thesis_ver/MemoryCheck/build/src/Benchmark")
!61 = !{!62, !474, !477, !480, !481, !482}
!62 = !DIDerivedType(tag: DW_TAG_member, name: "m_thread", scope: !58, file: !1, line: 38, baseType: !63, size: 128, align: 64)
!63 = distinct !DICompositeType(tag: DW_TAG_class_type, name: "IrsThread", file: !64, line: 10, size: 128, align: 64, elements: !65, identifier: "_ZTS9IrsThread")
!64 = !DIFile(filename: "/home/sreeram/Dev/mastersthesis/userspace_implementation_thesis_ver/MemoryCheck/src/Benchmark/../../include/Benchmark/IrsThread.h", directory: "/home/sreeram/Dev/mastersthesis/userspace_implementation_thesis_ver/MemoryCheck/build/src/Benchmark")
!65 = !{!66, !449, !451, !455, !460, !463, !466, !470}
!66 = !DIDerivedType(tag: DW_TAG_member, name: "m_thread", scope: !63, file: !64, line: 30, baseType: !67, size: 64, align: 64)
!67 = distinct !DICompositeType(tag: DW_TAG_class_type, name: "thread", scope: !43, file: !68, line: 61, size: 64, align: 64, elements: !69, identifier: "_ZTSSt6thread")
!68 = !DIFile(filename: "/usr/bin/../lib/gcc/x86_64-linux-gnu/6.3.0/../../../../include/c++/6.3.0/thread", directory: "/home/sreeram/Dev/mastersthesis/userspace_implementation_thesis_ver/MemoryCheck/build/src/Benchmark")
!69 = !{!70, !87, !91, !95, !100, !104, !108, !109, !112, !115, !116, !121, !122, !123, !126, !129, !133}
!70 = !DIDerivedType(tag: DW_TAG_member, name: "_M_id", scope: !67, file: !68, line: 114, baseType: !71, size: 64, align: 64)
!71 = distinct !DICompositeType(tag: DW_TAG_class_type, name: "id", scope: !67, file: !68, line: 76, size: 64, align: 64, elements: !72, identifier: "_ZTSNSt6thread2idE")
!72 = !{!73, !80, !84}
!73 = !DIDerivedType(tag: DW_TAG_member, name: "_M_thread", scope: !71, file: !68, line: 78, baseType: !74, size: 64, align: 64)
!74 = !DIDerivedType(tag: DW_TAG_typedef, name: "native_handle_type", scope: !67, file: !68, line: 73, baseType: !75)
!75 = !DIDerivedType(tag: DW_TAG_typedef, name: "__gthread_t", file: !76, line: 47, baseType: !77)
!76 = !DIFile(filename: "/usr/bin/../lib/gcc/x86_64-linux-gnu/6.3.0/../../../../include/x86_64-linux-gnu/c++/6.3.0/bits/gthr-default.h", directory: "/home/sreeram/Dev/mastersthesis/userspace_implementation_thesis_ver/MemoryCheck/build/src/Benchmark")
!77 = !DIDerivedType(tag: DW_TAG_typedef, name: "pthread_t", file: !78, line: 60, baseType: !79)
!78 = !DIFile(filename: "/usr/include/x86_64-linux-gnu/bits/pthreadtypes.h", directory: "/home/sreeram/Dev/mastersthesis/userspace_implementation_thesis_ver/MemoryCheck/build/src/Benchmark")
!79 = !DIBasicType(name: "long unsigned int", size: 64, align: 64, encoding: DW_ATE_unsigned)
!80 = !DISubprogram(name: "id", scope: !71, file: !68, line: 81, type: !81, isLocal: false, isDefinition: false, scopeLine: 81, flags: DIFlagPublic | DIFlagPrototyped, isOptimized: false)
!81 = !DISubroutineType(types: !82)
!82 = !{null, !83}
!83 = !DIDerivedType(tag: DW_TAG_pointer_type, baseType: !71, size: 64, align: 64, flags: DIFlagArtificial | DIFlagObjectPointer)
!84 = !DISubprogram(name: "id", scope: !71, file: !68, line: 84, type: !85, isLocal: false, isDefinition: false, scopeLine: 84, flags: DIFlagPublic | DIFlagExplicit | DIFlagPrototyped, isOptimized: false)
!85 = !DISubroutineType(types: !86)
!86 = !{null, !83, !74}
!87 = !DISubprogram(name: "thread", scope: !67, file: !68, line: 117, type: !88, isLocal: false, isDefinition: false, scopeLine: 117, flags: DIFlagPublic | DIFlagPrototyped, isOptimized: false)
!88 = !DISubroutineType(types: !89)
!89 = !{null, !90}
!90 = !DIDerivedType(tag: DW_TAG_pointer_type, baseType: !67, size: 64, align: 64, flags: DIFlagArtificial | DIFlagObjectPointer)
!91 = !DISubprogram(name: "thread", scope: !67, file: !68, line: 120, type: !92, isLocal: false, isDefinition: false, scopeLine: 120, flags: DIFlagPublic | DIFlagPrototyped, isOptimized: false)
!92 = !DISubroutineType(types: !93)
!93 = !{null, !90, !94}
!94 = !DIDerivedType(tag: DW_TAG_reference_type, baseType: !67, size: 64, align: 64)
!95 = !DISubprogram(name: "thread", scope: !67, file: !68, line: 121, type: !96, isLocal: false, isDefinition: false, scopeLine: 121, flags: DIFlagPublic | DIFlagPrototyped, isOptimized: false)
!96 = !DISubroutineType(types: !97)
!97 = !{null, !90, !98}
!98 = !DIDerivedType(tag: DW_TAG_reference_type, baseType: !99, size: 64, align: 64)
!99 = !DIDerivedType(tag: DW_TAG_const_type, baseType: !67)
!100 = !DISubprogram(name: "thread", scope: !67, file: !68, line: 122, type: !101, isLocal: false, isDefinition: false, scopeLine: 122, flags: DIFlagPublic | DIFlagPrototyped, isOptimized: false)
!101 = !DISubroutineType(types: !102)
!102 = !{null, !90, !103}
!103 = !DIDerivedType(tag: DW_TAG_rvalue_reference_type, baseType: !99, size: 64, align: 64)
!104 = !DISubprogram(name: "thread", scope: !67, file: !68, line: 124, type: !105, isLocal: false, isDefinition: false, scopeLine: 124, flags: DIFlagPublic | DIFlagPrototyped, isOptimized: false)
!105 = !DISubroutineType(types: !106)
!106 = !{null, !90, !107}
!107 = !DIDerivedType(tag: DW_TAG_rvalue_reference_type, baseType: !67, size: 64, align: 64)
!108 = !DISubprogram(name: "~thread", scope: !67, file: !68, line: 143, type: !88, isLocal: false, isDefinition: false, scopeLine: 143, flags: DIFlagPublic | DIFlagPrototyped, isOptimized: false)
!109 = !DISubprogram(name: "operator=", linkageName: "_ZNSt6threadaSERKS_", scope: !67, file: !68, line: 149, type: !110, isLocal: false, isDefinition: false, scopeLine: 149, flags: DIFlagPublic | DIFlagPrototyped, isOptimized: false)
!110 = !DISubroutineType(types: !111)
!111 = !{!94, !90, !98}
!112 = !DISubprogram(name: "operator=", linkageName: "_ZNSt6threadaSEOS_", scope: !67, file: !68, line: 151, type: !113, isLocal: false, isDefinition: false, scopeLine: 151, flags: DIFlagPublic | DIFlagPrototyped, isOptimized: false)
!113 = !DISubroutineType(types: !114)
!114 = !{!94, !90, !107}
!115 = !DISubprogram(name: "swap", linkageName: "_ZNSt6thread4swapERS_", scope: !67, file: !68, line: 160, type: !92, isLocal: false, isDefinition: false, scopeLine: 160, flags: DIFlagPublic | DIFlagPrototyped, isOptimized: false)
!116 = !DISubprogram(name: "joinable", linkageName: "_ZNKSt6thread8joinableEv", scope: !67, file: !68, line: 164, type: !117, isLocal: false, isDefinition: false, scopeLine: 164, flags: DIFlagPublic | DIFlagPrototyped, isOptimized: false)
!117 = !DISubroutineType(types: !118)
!118 = !{!119, !120}
!119 = !DIBasicType(name: "bool", size: 8, align: 8, encoding: DW_ATE_boolean)
!120 = !DIDerivedType(tag: DW_TAG_pointer_type, baseType: !99, size: 64, align: 64, flags: DIFlagArtificial | DIFlagObjectPointer)
!121 = !DISubprogram(name: "join", linkageName: "_ZNSt6thread4joinEv", scope: !67, file: !68, line: 168, type: !88, isLocal: false, isDefinition: false, scopeLine: 168, flags: DIFlagPublic | DIFlagPrototyped, isOptimized: false)
!122 = !DISubprogram(name: "detach", linkageName: "_ZNSt6thread6detachEv", scope: !67, file: !68, line: 171, type: !88, isLocal: false, isDefinition: false, scopeLine: 171, flags: DIFlagPublic | DIFlagPrototyped, isOptimized: false)
!123 = !DISubprogram(name: "get_id", linkageName: "_ZNKSt6thread6get_idEv", scope: !67, file: !68, line: 174, type: !124, isLocal: false, isDefinition: false, scopeLine: 174, flags: DIFlagPublic | DIFlagPrototyped, isOptimized: false)
!124 = !DISubroutineType(types: !125)
!125 = !{!71, !120}
!126 = !DISubprogram(name: "native_handle", linkageName: "_ZNSt6thread13native_handleEv", scope: !67, file: !68, line: 180, type: !127, isLocal: false, isDefinition: false, scopeLine: 180, flags: DIFlagPublic | DIFlagPrototyped, isOptimized: false)
!127 = !DISubroutineType(types: !128)
!128 = !{!74, !90}
!129 = !DISubprogram(name: "hardware_concurrency", linkageName: "_ZNSt6thread20hardware_concurrencyEv", scope: !67, file: !68, line: 185, type: !130, isLocal: false, isDefinition: false, scopeLine: 185, flags: DIFlagPublic | DIFlagPrototyped, isOptimized: false)
!130 = !DISubroutineType(types: !131)
!131 = !{!132}
!132 = !DIBasicType(name: "unsigned int", size: 32, align: 32, encoding: DW_ATE_unsigned)
!133 = !DISubprogram(name: "_M_start_thread", linkageName: "_ZNSt6thread15_M_start_threadESt10unique_ptrINS_6_StateESt14default_deleteIS1_EEPFvvE", scope: !67, file: !68, line: 201, type: !134, isLocal: false, isDefinition: false, scopeLine: 201, flags: DIFlagPrototyped, isOptimized: false)
!134 = !DISubroutineType(types: !135)
!135 = !{null, !90, !136, !37}
!136 = !DIDerivedType(tag: DW_TAG_typedef, name: "_State_ptr", scope: !67, file: !68, line: 71, baseType: !137)
!137 = distinct !DICompositeType(tag: DW_TAG_class_type, name: "unique_ptr<std::thread::_State, std::default_delete<std::thread::_State> >", scope: !43, file: !138, line: 116, size: 64, align: 64, elements: !139, templateParams: !447, identifier: "_ZTSSt10unique_ptrINSt6thread6_StateESt14default_deleteIS1_EE")
!138 = !DIFile(filename: "/usr/bin/../lib/gcc/x86_64-linux-gnu/6.3.0/../../../../include/c++/6.3.0/bits/unique_ptr.h", directory: "/home/sreeram/Dev/mastersthesis/userspace_implementation_thesis_ver/MemoryCheck/build/src/Benchmark")
!139 = !{!140, !362, !366, !372, !381, !389, !394, !398, !399, !403, !406, !416, !419, !420, !425, !430, !433, !436, !437, !440, !444}
!140 = !DIDerivedType(tag: DW_TAG_member, name: "_M_t", scope: !137, file: !138, line: 134, baseType: !141, size: 64, align: 64)
!141 = !DIDerivedType(tag: DW_TAG_typedef, name: "__tuple_type", scope: !137, file: !138, line: 133, baseType: !142)
!142 = distinct !DICompositeType(tag: DW_TAG_class_type, name: "tuple<std::thread::_State *, std::default_delete<std::thread::_State> >", scope: !43, file: !143, line: 866, size: 64, align: 64, elements: !144, templateParams: !361, identifier: "_ZTSSt5tupleIJPNSt6thread6_StateESt14default_deleteIS1_EEE")
!143 = !DIFile(filename: "/usr/bin/../lib/gcc/x86_64-linux-gnu/6.3.0/../../../../include/c++/6.3.0/tuple", directory: "/home/sreeram/Dev/mastersthesis/userspace_implementation_thesis_ver/MemoryCheck/build/src/Benchmark")
!144 = !{!145, !341, !347, !351, !355, !358}
!145 = !DIDerivedType(tag: DW_TAG_inheritance, scope: !142, baseType: !146, flags: DIFlagPublic)
!146 = distinct !DICompositeType(tag: DW_TAG_structure_type, name: "_Tuple_impl<0, std::thread::_State *, std::default_delete<std::thread::_State> >", scope: !43, file: !143, line: 180, size: 64, align: 64, elements: !147, templateParams: !337, identifier: "_ZTSSt11_Tuple_implILm0EJPNSt6thread6_StateESt14default_deleteIS1_EEE")
!147 = !{!148, !258, !295, !299, !304, !309, !314, !318, !321, !324, !328, !331, !334}
!148 = !DIDerivedType(tag: DW_TAG_inheritance, scope: !146, baseType: !149)
!149 = distinct !DICompositeType(tag: DW_TAG_structure_type, name: "_Tuple_impl<1, std::default_delete<std::thread::_State> >", scope: !43, file: !143, line: 338, size: 8, align: 8, elements: !150, templateParams: !254, identifier: "_ZTSSt11_Tuple_implILm1EJSt14default_deleteINSt6thread6_StateEEEE")
!150 = !{!151, !222, !226, !231, !235, !238, !241, !245, !248, !251}
!151 = !DIDerivedType(tag: DW_TAG_inheritance, scope: !149, baseType: !152, flags: DIFlagPrivate)
!152 = distinct !DICompositeType(tag: DW_TAG_structure_type, name: "_Head_base<1, std::default_delete<std::thread::_State>, true>", scope: !43, file: !143, line: 55, size: 8, align: 8, elements: !153, templateParams: !218, identifier: "_ZTSSt10_Head_baseILm1ESt14default_deleteINSt6thread6_StateEELb1EE")
!153 = !{!154, !170, !174, !178, !183, !187, !210, !215}
!154 = !DIDerivedType(tag: DW_TAG_inheritance, scope: !152, baseType: !155)
!155 = distinct !DICompositeType(tag: DW_TAG_structure_type, name: "default_delete<std::thread::_State>", scope: !43, file: !138, line: 54, size: 8, align: 8, elements: !156, templateParams: !168, identifier: "_ZTSSt14default_deleteINSt6thread6_StateEE")
!156 = !{!157, !161}
!157 = !DISubprogram(name: "default_delete", scope: !155, file: !138, line: 57, type: !158, isLocal: false, isDefinition: false, scopeLine: 57, flags: DIFlagPrototyped, isOptimized: false)
!158 = !DISubroutineType(types: !159)
!159 = !{null, !160}
!160 = !DIDerivedType(tag: DW_TAG_pointer_type, baseType: !155, size: 64, align: 64, flags: DIFlagArtificial | DIFlagObjectPointer)
!161 = !DISubprogram(name: "operator()", linkageName: "_ZNKSt14default_deleteINSt6thread6_StateEEclEPS1_", scope: !155, file: !138, line: 70, type: !162, isLocal: false, isDefinition: false, scopeLine: 70, flags: DIFlagPrototyped, isOptimized: false)
!162 = !DISubroutineType(types: !163)
