; ModuleID = '/home/sreeram/Dev/mastersthesis/userspace_implementation/MemoryCheck/build/gen/peterson.bc'
source_filename = "/home/sreeram/Dev/mastersthesis/userspace_implementation/MemoryCheck/src/Benchmark/peterson.cpp"
target datalayout = "e-m:e-i64:64-f80:128-n8:16:32:64-S128"
target triple = "x86_64-pc-linux-gnu"

%"class.std::ios_base::Init" = type { i8 }
%"struct.boost::none_t" = type { i8 }
%"class.boost::detail::make_property_map_from_arg_pack_gen" = type { i32 }
%"class.std::basic_ostream" = type { i32 (...)**, %"class.std::basic_ios" }
%"class.std::basic_ios" = type { %"class.std::ios_base", %"class.std::basic_ostream"*, i8, i8, %"class.std::basic_streambuf"*, %"class.std::ctype"*, %"class.std::num_put"*, %"class.std::num_get"* }
%"class.std::ios_base" = type { i32 (...)**, i64, i64, i32, i32, i32, %"struct.std::ios_base::_Callback_list"*, %"struct.std::ios_base::_Words", [8 x %"struct.std::ios_base::_Words"], i32, %"struct.std::ios_base::_Words"*, %"class.std::locale" }
%"struct.std::ios_base::_Callback_list" = type { %"struct.std::ios_base::_Callback_list"*, void (i32, %"class.std::ios_base"*, i32)*, i32, i32 }
%"struct.std::ios_base::_Words" = type { i8*, i64 }
%"class.std::locale" = type { %"class.std::locale::_Impl"* }
%"class.std::locale::_Impl" = type { i32, %"class.std::locale::facet"**, i64, %"class.std::locale::facet"**, i8** }
%"class.std::locale::facet" = type <{ i32 (...)**, i32, [4 x i8] }>
%"class.std::basic_streambuf" = type { i32 (...)**, i8*, i8*, i8*, i8*, i8*, i8*, %"class.std::locale" }
%"class.std::ctype" = type <{ %"class.std::locale::facet.base", [4 x i8], %struct.__locale_struct*, i8, [7 x i8], i32*, i32*, i16*, i8, [256 x i8], [256 x i8], i8, [6 x i8] }>
%"class.std::locale::facet.base" = type <{ i32 (...)**, i32 }>
%struct.__locale_struct = type { [13 x %struct.__locale_data*], i16*, i32*, i32*, [13 x i8*] }
%struct.__locale_data = type opaque
%"class.std::num_put" = type { %"class.std::locale::facet.base", [4 x i8] }
%"class.std::num_get" = type { %"class.std::locale::facet.base", [4 x i8] }
%"struct.boost::none_t::init_tag" = type { i8 }
%"class.peterson::Thread0" = type { %class.IrsThread }
%class.IrsThread = type <{ %"class.std::thread", i32, [4 x i8] }>
%"class.std::thread" = type { %"class.std::thread::id" }
%"class.std::thread::id" = type { i64 }
%"class.peterson::Thread1" = type { %class.IrsThread }
%"struct.std::chrono::time_point" = type { %"struct.std::chrono::duration" }
%"struct.std::chrono::duration" = type { i64 }
%"struct.std::chrono::duration.0" = type { i64 }
%"class.std::unique_ptr" = type { %"class.std::tuple" }
%"class.std::tuple" = type { %"struct.std::_Tuple_impl" }
%"struct.std::_Tuple_impl" = type { %"struct.std::_Head_base.2" }
%"struct.std::_Head_base.2" = type { %"struct.std::thread::_State"* }
%"struct.std::thread::_State" = type { i32 (...)** }
%"struct.std::_Bind_simple" = type { %"class.std::tuple.3" }
%"class.std::tuple.3" = type { %"struct.std::_Tuple_impl.4" }
%"struct.std::_Tuple_impl.4" = type { %"struct.std::_Tuple_impl.5", %"struct.std::_Head_base.7" }
%"struct.std::_Tuple_impl.5" = type { %"struct.std::_Head_base.6" }
%"struct.std::_Head_base.6" = type { %"class.peterson::Thread0"* }
%"struct.std::_Head_base.7" = type { %"struct.std::_Mem_fn" }
%"struct.std::_Mem_fn" = type { %"class.std::_Mem_fn_base" }
%"class.std::_Mem_fn_base" = type { { i64, i64 } }
%union.pthread_attr_t = type { i64, [48 x i8] }
%"struct.std::thread::_State_impl" = type { %"struct.std::thread::_State", %"struct.std::_Bind_simple" }
%"struct.std::default_delete" = type { i8 }
%"struct.std::_Index_tuple" = type { i8 }
%"struct.std::__invoke_memfun_deref" = type { i8 }
%"struct.std::_Tuple_impl.1" = type { i8 }
%"struct.std::_Head_base" = type { i8 }
%"struct.std::_Maybe_unary_or_binary_function" = type { i8 }
%"struct.std::_Bind_simple.8" = type { %"class.std::tuple.9" }
%"class.std::tuple.9" = type { %"struct.std::_Tuple_impl.10" }
%"struct.std::_Tuple_impl.10" = type { %"struct.std::_Tuple_impl.11", %"struct.std::_Head_base.13" }
%"struct.std::_Tuple_impl.11" = type { %"struct.std::_Head_base.12" }
%"struct.std::_Head_base.12" = type { %"class.peterson::Thread1"* }
%"struct.std::_Head_base.13" = type { %"struct.std::_Mem_fn.14" }
%"struct.std::_Mem_fn.14" = type { %"class.std::_Mem_fn_base.15" }
%"class.std::_Mem_fn_base.15" = type { { i64, i64 } }
%"struct.std::thread::_State_impl.18" = type { %"struct.std::thread::_State", %"struct.std::_Bind_simple.8" }
%"struct.std::_Maybe_unary_or_binary_function.16" = type { i8 }

$_ZN5boost6none_tC2ENS0_8init_tagE = comdat any

$_ZN5boost6detail35make_property_map_from_arg_pack_genINS_5graph8keywords3tag9color_mapENS_18default_color_typeEEC2ES6_ = comdat any

$_ZN8peterson7Thread011getThreadIdEv = comdat any

$_ZNK9IrsThread6getTidEv = comdat any

$_ZN8peterson7Thread111getThreadIdEv = comdat any

$_ZN8peterson7Thread0C2Ei = comdat any

$_ZN8peterson7Thread1C2Ei = comdat any

$_ZN8peterson7Thread05startEv = comdat any

$_ZN8peterson7Thread15startEv = comdat any

$_ZN8peterson7Thread04joinEv = comdat any

$_ZN8peterson7Thread14joinEv = comdat any

$_ZNSt6chrono13duration_castINS_8durationIlSt5ratioILl1ELl1000000EEEElS2_ILl1ELl1000000000EEEENSt9enable_ifIXsr13__is_durationIT_EE5valueES7_E4typeERKNS1_IT0_T1_EE = comdat any

$_ZNSt6chronomiINS_3_V212system_clockENS_8durationIlSt5ratioILl1ELl1000000000EEEES6_EENSt11common_typeIJT0_T1_EE4typeERKNS_10time_pointIT_S8_EERKNSC_ISD_S9_EE = comdat any

$_ZNKSt6chrono8durationIlSt5ratioILl1ELl1000000EEE5countEv = comdat any

$_ZN8peterson7Thread1D2Ev = comdat any

$_ZN8peterson7Thread0D2Ev = comdat any

$_ZN9IrsThreadC2Ei = comdat any

$_ZNSt6threadC2Ev = comdat any

$_ZNSt6thread2idC2Ev = comdat any

$_ZN9IrsThreadclIJMN8peterson7Thread0EFvvEPS2_EEEvDpOT_ = comdat any

$_ZN8peterson7Thread04thr0Ev = comdat any

$_ZNSt6threadaSEOS_ = comdat any

$_ZSt7forwardIMN8peterson7Thread0EFvvEEOT_RNSt16remove_referenceIS4_E4typeE = comdat any

$_ZSt7forwardIPN8peterson7Thread0EEOT_RNSt16remove_referenceIS3_E4typeE = comdat any

$_ZNSt6threadC2IMN8peterson7Thread0EFvvEJPS2_EEEOT_DpOT0_ = comdat any

$_ZNSt6threadD2Ev = comdat any

$_ZNKSt6thread8joinableEv = comdat any

$_ZNSt6thread4swapERS_ = comdat any

$_ZSteqNSt6thread2idES0_ = comdat any

$_ZSt4swapINSt6thread2idEENSt9enable_ifIXsr6__and_ISt21is_move_constructibleIT_ESt18is_move_assignableIS4_EEE5valueEvE4typeERS4_SA_ = comdat any

$_ZSt4moveIRNSt6thread2idEEONSt16remove_referenceIT_E4typeEOS4_ = comdat any

$_ZNSt6thread13_S_make_stateISt12_Bind_simpleIFSt7_Mem_fnIMN8peterson7Thread0EFvvEEPS4_EEEESt10unique_ptrINS_6_StateESt14default_deleteISC_EEOT_ = comdat any

$_ZSt13__bind_simpleIMN8peterson7Thread0EFvvEJPS1_EENSt19_Bind_simple_helperIT_JDpT0_EE6__typeEOS6_DpOS7_ = comdat any

$_ZNSt10unique_ptrINSt6thread6_StateESt14default_deleteIS1_EED2Ev = comdat any

$_ZSt7forwardISt12_Bind_simpleIFSt7_Mem_fnIMN8peterson7Thread0EFvvEEPS3_EEEOT_RNSt16remove_referenceISA_E4typeE = comdat any

$_ZNSt6thread11_State_implISt12_Bind_simpleIFSt7_Mem_fnIMN8peterson7Thread0EFvvEEPS4_EEEC2EOSA_ = comdat any

$_ZNSt10unique_ptrINSt6thread6_StateESt14default_deleteIS1_EEC2EPS1_ = comdat any

$_ZNSt6thread6_StateC2Ev = comdat any

$_ZNSt12_Bind_simpleIFSt7_Mem_fnIMN8peterson7Thread0EFvvEEPS2_EEC2EOS8_ = comdat any

$_ZNSt6thread11_State_implISt12_Bind_simpleIFSt7_Mem_fnIMN8peterson7Thread0EFvvEEPS4_EEED2Ev = comdat any

$_ZNSt6thread11_State_implISt12_Bind_simpleIFSt7_Mem_fnIMN8peterson7Thread0EFvvEEPS4_EEED0Ev = comdat any

$_ZNSt6thread11_State_implISt12_Bind_simpleIFSt7_Mem_fnIMN8peterson7Thread0EFvvEEPS4_EEE6_M_runEv = comdat any

$_ZNSt5tupleIJSt7_Mem_fnIMN8peterson7Thread0EFvvEEPS2_EEC2EOS7_ = comdat any

$_ZNSt11_Tuple_implILm0EJSt7_Mem_fnIMN8peterson7Thread0EFvvEEPS2_EEC2EOS7_ = comdat any

$_ZSt4moveIRSt11_Tuple_implILm1EJPN8peterson7Thread0EEEEONSt16remove_referenceIT_E4typeEOS7_ = comdat any

$_ZNSt11_Tuple_implILm0EJSt7_Mem_fnIMN8peterson7Thread0EFvvEEPS2_EE7_M_tailERS7_ = comdat any

$_ZNSt11_Tuple_implILm1EJPN8peterson7Thread0EEEC2EOS3_ = comdat any

$_ZSt7forwardISt7_Mem_fnIMN8peterson7Thread0EFvvEEEOT_RNSt16remove_referenceIS6_E4typeE = comdat any

$_ZNSt11_Tuple_implILm0EJSt7_Mem_fnIMN8peterson7Thread0EFvvEEPS2_EE7_M_headERS7_ = comdat any

$_ZNSt10_Head_baseILm0ESt7_Mem_fnIMN8peterson7Thread0EFvvEELb0EEC2IS5_EEOT_ = comdat any

$__clang_call_terminate = comdat any

$_ZNSt11_Tuple_implILm1EJPN8peterson7Thread0EEE7_M_headERS3_ = comdat any

$_ZNSt10_Head_baseILm1EPN8peterson7Thread0ELb0EEC2IS2_EEOT_ = comdat any

$_ZNSt10_Head_baseILm1EPN8peterson7Thread0ELb0EE7_M_headERS3_ = comdat any

$_ZNSt10_Head_baseILm0ESt7_Mem_fnIMN8peterson7Thread0EFvvEELb0EE7_M_headERS6_ = comdat any

$_ZNSt12_Bind_simpleIFSt7_Mem_fnIMN8peterson7Thread0EFvvEEPS2_EEclEv = comdat any

$_ZNSt12_Bind_simpleIFSt7_Mem_fnIMN8peterson7Thread0EFvvEEPS2_EE9_M_invokeIJLm0EEEEvSt12_Index_tupleIJXspT_EEE = comdat any

$_ZSt3getILm0EJSt7_Mem_fnIMN8peterson7Thread0EFvvEEPS2_EERNSt13tuple_elementIXT_ESt5tupleIJDpT0_EEE4typeERSB_ = comdat any

$_ZNKSt12_Mem_fn_baseIMN8peterson7Thread0EFvvELb1EEclIJPS1_EEEDTclsr3stdE8__invokedtdefpT6_M_pmfspclsr3stdE7forwardIT_Efp_EEEDpOS7_ = comdat any

$_ZSt3getILm1EJSt7_Mem_fnIMN8peterson7Thread0EFvvEEPS2_EERNSt13tuple_elementIXT_ESt5tupleIJDpT0_EEE4typeERSB_ = comdat any

$_ZSt12__get_helperILm0ESt7_Mem_fnIMN8peterson7Thread0EFvvEEJPS2_EERT0_RSt11_Tuple_implIXT_EJS7_DpT1_EE = comdat any

$_ZSt8__invokeIRKMN8peterson7Thread0EFvvEJPS1_EENSt9result_ofIFOT_DpOT0_EE4typeES9_SC_ = comdat any

$_ZSt13__invoke_implIvRKMN8peterson7Thread0EFvvEPS1_JEET_St21__invoke_memfun_derefOT0_OT1_DpOT2_ = comdat any

$_ZSt7forwardIRKMN8peterson7Thread0EFvvEEOT_RNSt16remove_referenceIS6_E4typeE = comdat any

$_ZSt12__get_helperILm1EPN8peterson7Thread0EJEERT0_RSt11_Tuple_implIXT_EJS3_DpT1_EE = comdat any

$_ZNSt5tupleIJPNSt6thread6_StateESt14default_deleteIS1_EEEC2IRS2_S4_Lb1EEEOT_OT0_ = comdat any

$_ZSt7forwardIRPNSt6thread6_StateEEOT_RNSt16remove_referenceIS4_E4typeE = comdat any

$_ZSt7forwardISt14default_deleteINSt6thread6_StateEEEOT_RNSt16remove_referenceIS4_E4typeE = comdat any

$_ZNSt11_Tuple_implILm0EJPNSt6thread6_StateESt14default_deleteIS1_EEEC2IRS2_JS4_EvEEOT_DpOT0_ = comdat any

$_ZNSt11_Tuple_implILm1EJSt14default_deleteINSt6thread6_StateEEEEC2IS3_EEOT_ = comdat any

$_ZNSt10_Head_baseILm0EPNSt6thread6_StateELb0EEC2IRS2_EEOT_ = comdat any

$_ZNSt10_Head_baseILm1ESt14default_deleteINSt6thread6_StateEELb1EEC2IS3_EEOT_ = comdat any

$_ZNSt26_Maybe_wrap_member_pointerIMN8peterson7Thread0EFvvEE9__do_wrapES3_ = comdat any

$_ZNSt12_Bind_simpleIFSt7_Mem_fnIMN8peterson7Thread0EFvvEEPS2_EEC2IS5_JS6_EEEOT_DpOT0_ = comdat any

$_ZNSt7_Mem_fnIMN8peterson7Thread0EFvvEECI2St12_Mem_fn_baseIS3_Lb1EEES3_ = comdat any

$_ZNSt12_Mem_fn_baseIMN8peterson7Thread0EFvvELb1EEC2ES3_ = comdat any

$_ZNSt5tupleIJSt7_Mem_fnIMN8peterson7Thread0EFvvEEPS2_EEC2IS5_S6_Lb1EEEOT_OT0_ = comdat any

$_ZNSt11_Tuple_implILm0EJSt7_Mem_fnIMN8peterson7Thread0EFvvEEPS2_EEC2IS5_JS6_EvEEOT_DpOT0_ = comdat any

$_ZNSt11_Tuple_implILm1EJPN8peterson7Thread0EEEC2IS2_EEOT_ = comdat any

$_ZSt3getILm0EJPNSt6thread6_StateESt14default_deleteIS1_EEERNSt13tuple_elementIXT_ESt5tupleIJDpT0_EEE4typeERS9_ = comdat any

$_ZNSt10unique_ptrINSt6thread6_StateESt14default_deleteIS1_EE11get_deleterEv = comdat any

$_ZNKSt14default_deleteINSt6thread6_StateEEclEPS1_ = comdat any

$_ZSt12__get_helperILm0EPNSt6thread6_StateEJSt14default_deleteIS1_EEERT0_RSt11_Tuple_implIXT_EJS5_DpT1_EE = comdat any

$_ZNSt11_Tuple_implILm0EJPNSt6thread6_StateESt14default_deleteIS1_EEE7_M_headERS5_ = comdat any

$_ZNSt10_Head_baseILm0EPNSt6thread6_StateELb0EE7_M_headERS3_ = comdat any

$_ZSt3getILm1EJPNSt6thread6_StateESt14default_deleteIS1_EEERNSt13tuple_elementIXT_ESt5tupleIJDpT0_EEE4typeERS9_ = comdat any

$_ZSt12__get_helperILm1ESt14default_deleteINSt6thread6_StateEEJEERT0_RSt11_Tuple_implIXT_EJS4_DpT1_EE = comdat any

$_ZNSt11_Tuple_implILm1EJSt14default_deleteINSt6thread6_StateEEEE7_M_headERS4_ = comdat any

$_ZNSt10_Head_baseILm1ESt14default_deleteINSt6thread6_StateEELb1EE7_M_headERS4_ = comdat any

$_ZN9IrsThreadclIJMN8peterson7Thread1EFvvEPS2_EEEvDpOT_ = comdat any

$_ZN8peterson7Thread14thr1Ev = comdat any

$_ZSt7forwardIMN8peterson7Thread1EFvvEEOT_RNSt16remove_referenceIS4_E4typeE = comdat any

$_ZSt7forwardIPN8peterson7Thread1EEOT_RNSt16remove_referenceIS3_E4typeE = comdat any

$_ZNSt6threadC2IMN8peterson7Thread1EFvvEJPS2_EEEOT_DpOT0_ = comdat any

$_ZNSt6thread13_S_make_stateISt12_Bind_simpleIFSt7_Mem_fnIMN8peterson7Thread1EFvvEEPS4_EEEESt10unique_ptrINS_6_StateESt14default_deleteISC_EEOT_ = comdat any

$_ZSt13__bind_simpleIMN8peterson7Thread1EFvvEJPS1_EENSt19_Bind_simple_helperIT_JDpT0_EE6__typeEOS6_DpOS7_ = comdat any

$_ZSt7forwardISt12_Bind_simpleIFSt7_Mem_fnIMN8peterson7Thread1EFvvEEPS3_EEEOT_RNSt16remove_referenceISA_E4typeE = comdat any

$_ZNSt6thread11_State_implISt12_Bind_simpleIFSt7_Mem_fnIMN8peterson7Thread1EFvvEEPS4_EEEC2EOSA_ = comdat any

$_ZNSt12_Bind_simpleIFSt7_Mem_fnIMN8peterson7Thread1EFvvEEPS2_EEC2EOS8_ = comdat any

$_ZNSt6thread11_State_implISt12_Bind_simpleIFSt7_Mem_fnIMN8peterson7Thread1EFvvEEPS4_EEED2Ev = comdat any

$_ZNSt6thread11_State_implISt12_Bind_simpleIFSt7_Mem_fnIMN8peterson7Thread1EFvvEEPS4_EEED0Ev = comdat any

$_ZNSt6thread11_State_implISt12_Bind_simpleIFSt7_Mem_fnIMN8peterson7Thread1EFvvEEPS4_EEE6_M_runEv = comdat any

$_ZNSt5tupleIJSt7_Mem_fnIMN8peterson7Thread1EFvvEEPS2_EEC2EOS7_ = comdat any

$_ZNSt11_Tuple_implILm0EJSt7_Mem_fnIMN8peterson7Thread1EFvvEEPS2_EEC2EOS7_ = comdat any

$_ZSt4moveIRSt11_Tuple_implILm1EJPN8peterson7Thread1EEEEONSt16remove_referenceIT_E4typeEOS7_ = comdat any

$_ZNSt11_Tuple_implILm0EJSt7_Mem_fnIMN8peterson7Thread1EFvvEEPS2_EE7_M_tailERS7_ = comdat any

$_ZNSt11_Tuple_implILm1EJPN8peterson7Thread1EEEC2EOS3_ = comdat any

$_ZSt7forwardISt7_Mem_fnIMN8peterson7Thread1EFvvEEEOT_RNSt16remove_referenceIS6_E4typeE = comdat any

$_ZNSt11_Tuple_implILm0EJSt7_Mem_fnIMN8peterson7Thread1EFvvEEPS2_EE7_M_headERS7_ = comdat any

$_ZNSt10_Head_baseILm0ESt7_Mem_fnIMN8peterson7Thread1EFvvEELb0EEC2IS5_EEOT_ = comdat any

$_ZNSt11_Tuple_implILm1EJPN8peterson7Thread1EEE7_M_headERS3_ = comdat any

$_ZNSt10_Head_baseILm1EPN8peterson7Thread1ELb0EEC2IS2_EEOT_ = comdat any

$_ZNSt10_Head_baseILm1EPN8peterson7Thread1ELb0EE7_M_headERS3_ = comdat any

$_ZNSt10_Head_baseILm0ESt7_Mem_fnIMN8peterson7Thread1EFvvEELb0EE7_M_headERS6_ = comdat any

$_ZNSt12_Bind_simpleIFSt7_Mem_fnIMN8peterson7Thread1EFvvEEPS2_EEclEv = comdat any

$_ZNSt12_Bind_simpleIFSt7_Mem_fnIMN8peterson7Thread1EFvvEEPS2_EE9_M_invokeIJLm0EEEEvSt12_Index_tupleIJXspT_EEE = comdat any

$_ZSt3getILm0EJSt7_Mem_fnIMN8peterson7Thread1EFvvEEPS2_EERNSt13tuple_elementIXT_ESt5tupleIJDpT0_EEE4typeERSB_ = comdat any

$_ZNKSt12_Mem_fn_baseIMN8peterson7Thread1EFvvELb1EEclIJPS1_EEEDTclsr3stdE8__invokedtdefpT6_M_pmfspclsr3stdE7forwardIT_Efp_EEEDpOS7_ = comdat any

$_ZSt3getILm1EJSt7_Mem_fnIMN8peterson7Thread1EFvvEEPS2_EERNSt13tuple_elementIXT_ESt5tupleIJDpT0_EEE4typeERSB_ = comdat any

$_ZSt12__get_helperILm0ESt7_Mem_fnIMN8peterson7Thread1EFvvEEJPS2_EERT0_RSt11_Tuple_implIXT_EJS7_DpT1_EE = comdat any

$_ZSt8__invokeIRKMN8peterson7Thread1EFvvEJPS1_EENSt9result_ofIFOT_DpOT0_EE4typeES9_SC_ = comdat any

$_ZSt13__invoke_implIvRKMN8peterson7Thread1EFvvEPS1_JEET_St21__invoke_memfun_derefOT0_OT1_DpOT2_ = comdat any

$_ZSt7forwardIRKMN8peterson7Thread1EFvvEEOT_RNSt16remove_referenceIS6_E4typeE = comdat any

$_ZSt12__get_helperILm1EPN8peterson7Thread1EJEERT0_RSt11_Tuple_implIXT_EJS3_DpT1_EE = comdat any

$_ZNSt26_Maybe_wrap_member_pointerIMN8peterson7Thread1EFvvEE9__do_wrapES3_ = comdat any

$_ZNSt12_Bind_simpleIFSt7_Mem_fnIMN8peterson7Thread1EFvvEEPS2_EEC2IS5_JS6_EEEOT_DpOT0_ = comdat any

$_ZNSt7_Mem_fnIMN8peterson7Thread1EFvvEECI2St12_Mem_fn_baseIS3_Lb1EEES3_ = comdat any

$_ZNSt12_Mem_fn_baseIMN8peterson7Thread1EFvvELb1EEC2ES3_ = comdat any

$_ZNSt5tupleIJSt7_Mem_fnIMN8peterson7Thread1EFvvEEPS2_EEC2IS5_S6_Lb1EEEOT_OT0_ = comdat any

$_ZNSt11_Tuple_implILm0EJSt7_Mem_fnIMN8peterson7Thread1EFvvEEPS2_EEC2IS5_JS6_EvEEOT_DpOT0_ = comdat any

$_ZNSt11_Tuple_implILm1EJPN8peterson7Thread1EEEC2IS2_EEOT_ = comdat any

$_ZN9IrsThread4joinEv = comdat any

$_ZNSt6chrono20__duration_cast_implINS_8durationIlSt5ratioILl1ELl1000000EEEES2_ILl1ELl1000EElLb1ELb0EE6__castIlS2_ILl1ELl1000000000EEEES4_RKNS1_IT_T0_EE = comdat any

$_ZNKSt6chrono8durationIlSt5ratioILl1ELl1000000000EEE5countEv = comdat any

$_ZNSt6chrono8durationIlSt5ratioILl1ELl1000000EEEC2IlvEERKT_ = comdat any

$_ZNSt6chronomiIlSt5ratioILl1ELl1000000000EElS2_EENSt11common_typeIJNS_8durationIT_T0_EENS4_IT1_T2_EEEE4typeERKS7_RKSA_ = comdat any

$_ZNKSt6chrono10time_pointINS_3_V212system_clockENS_8durationIlSt5ratioILl1ELl1000000000EEEEE16time_since_epochEv = comdat any

$_ZNSt6chrono8durationIlSt5ratioILl1ELl1000000000EEEC2IlvEERKT_ = comdat any

$_ZN9IrsThreadD2Ev = comdat any

$_ZTVNSt6thread11_State_implISt12_Bind_simpleIFSt7_Mem_fnIMN8peterson7Thread0EFvvEEPS4_EEEE = comdat any

$_ZTSNSt6thread11_State_implISt12_Bind_simpleIFSt7_Mem_fnIMN8peterson7Thread0EFvvEEPS4_EEEE = comdat any

$_ZTINSt6thread11_State_implISt12_Bind_simpleIFSt7_Mem_fnIMN8peterson7Thread0EFvvEEPS4_EEEE = comdat any

$_ZTVNSt6thread11_State_implISt12_Bind_simpleIFSt7_Mem_fnIMN8peterson7Thread1EFvvEEPS4_EEEE = comdat any

$_ZTSNSt6thread11_State_implISt12_Bind_simpleIFSt7_Mem_fnIMN8peterson7Thread1EFvvEEPS4_EEEE = comdat any

$_ZTINSt6thread11_State_implISt12_Bind_simpleIFSt7_Mem_fnIMN8peterson7Thread1EFvvEEPS4_EEEE = comdat any

@_ZStL8__ioinit = internal global %"class.std::ios_base::Init" zeroinitializer, align 1
@__dso_handle = external global i8
@_ZN5boostL4noneE = internal global %"struct.boost::none_t" zeroinitializer, align 1
@_ZN5boost6detailL28make_color_map_from_arg_packE = internal global %"class.boost::detail::make_property_map_from_arg_pack_gen" zeroinitializer, align 4
@.str = private unnamed_addr constant [15 x i8] c"after_callback\00", section "llvm.metadata"
@.str.3 = private unnamed_addr constant [119 x i8] c"/home/sreeram/Dev/mastersthesis/userspace_implementation/MemoryCheck/src/Benchmark/../../include/Benchmark/benchmark.h\00", section "llvm.metadata"
@.str.4 = private unnamed_addr constant [16 x i8] c"before_callback\00", section "llvm.metadata"
@_ZN8peterson12THREAD_COUNTE = constant i32 2, align 4
@_ZN8peterson5flag0E = global i32 0, align 4
@.str.5 = private unnamed_addr constant [5 x i8] c"gvar\00", section "llvm.metadata"
@.str.6 = private unnamed_addr constant [96 x i8] c"/home/sreeram/Dev/mastersthesis/userspace_implementation/MemoryCheck/src/Benchmark/peterson.cpp\00", section "llvm.metadata"
@_ZN8peterson5flag1E = global i32 0, align 4
@_ZN8peterson4turnE = global i32 0, align 4
@_ZN8peterson1xE = global i32 0, align 4
@_ZSt4cout = external global %"class.std::basic_ostream", align 8
@.str.7 = private unnamed_addr constant [5 x i8] c"ignr\00", section "llvm.metadata"
@_ZTVNSt6thread11_State_implISt12_Bind_simpleIFSt7_Mem_fnIMN8peterson7Thread0EFvvEEPS4_EEEE = linkonce_odr unnamed_addr constant [5 x i8*] [i8* null, i8* bitcast ({ i8*, i8*, i8* }* @_ZTINSt6thread11_State_implISt12_Bind_simpleIFSt7_Mem_fnIMN8peterson7Thread0EFvvEEPS4_EEEE to i8*), i8* bitcast (void (%"struct.std::thread::_State_impl"*)* @_ZNSt6thread11_State_implISt12_Bind_simpleIFSt7_Mem_fnIMN8peterson7Thread0EFvvEEPS4_EEED2Ev to i8*), i8* bitcast (void (%"struct.std::thread::_State_impl"*)* @_ZNSt6thread11_State_implISt12_Bind_simpleIFSt7_Mem_fnIMN8peterson7Thread0EFvvEEPS4_EEED0Ev to i8*), i8* bitcast (void (%"struct.std::thread::_State_impl"*)* @_ZNSt6thread11_State_implISt12_Bind_simpleIFSt7_Mem_fnIMN8peterson7Thread0EFvvEEPS4_EEE6_M_runEv to i8*)], comdat, align 8
@_ZTVN10__cxxabiv120__si_class_type_infoE = external global i8*
@_ZTSNSt6thread11_State_implISt12_Bind_simpleIFSt7_Mem_fnIMN8peterson7Thread0EFvvEEPS4_EEEE = linkonce_odr constant [87 x i8] c"NSt6thread11_State_implISt12_Bind_simpleIFSt7_Mem_fnIMN8peterson7Thread0EFvvEEPS4_EEEE\00", comdat
@_ZTINSt6thread6_StateE = external constant i8*
@_ZTINSt6thread11_State_implISt12_Bind_simpleIFSt7_Mem_fnIMN8peterson7Thread0EFvvEEPS4_EEEE = linkonce_odr constant { i8*, i8*, i8* } { i8* bitcast (i8** getelementptr inbounds (i8*, i8** @_ZTVN10__cxxabiv120__si_class_type_infoE, i64 2) to i8*), i8* getelementptr inbounds ([87 x i8], [87 x i8]* @_ZTSNSt6thread11_State_implISt12_Bind_simpleIFSt7_Mem_fnIMN8peterson7Thread0EFvvEEPS4_EEEE, i32 0, i32 0), i8* bitcast (i8** @_ZTINSt6thread6_StateE to i8*) }, comdat
@_ZTVNSt6thread6_StateE = external unnamed_addr constant [5 x i8*]
@.str.8 = private unnamed_addr constant [7 x i8] c"x <= 0\00", align 1
@.str.9 = private unnamed_addr constant [96 x i8] c"/home/sreeram/Dev/mastersthesis/userspace_implementation/MemoryCheck/src/Benchmark/peterson.cpp\00", align 1
@__PRETTY_FUNCTION__._ZN8peterson7Thread04thr0Ev = private unnamed_addr constant [31 x i8] c"void peterson::Thread0::thr0()\00", align 1
@_ZTVNSt6thread11_State_implISt12_Bind_simpleIFSt7_Mem_fnIMN8peterson7Thread1EFvvEEPS4_EEEE = linkonce_odr unnamed_addr constant [5 x i8*] [i8* null, i8* bitcast ({ i8*, i8*, i8* }* @_ZTINSt6thread11_State_implISt12_Bind_simpleIFSt7_Mem_fnIMN8peterson7Thread1EFvvEEPS4_EEEE to i8*), i8* bitcast (void (%"struct.std::thread::_State_impl.18"*)* @_ZNSt6thread11_State_implISt12_Bind_simpleIFSt7_Mem_fnIMN8peterson7Thread1EFvvEEPS4_EEED2Ev to i8*), i8* bitcast (void (%"struct.std::thread::_State_impl.18"*)* @_ZNSt6thread11_State_implISt12_Bind_simpleIFSt7_Mem_fnIMN8peterson7Thread1EFvvEEPS4_EEED0Ev to i8*), i8* bitcast (void (%"struct.std::thread::_State_impl.18"*)* @_ZNSt6thread11_State_implISt12_Bind_simpleIFSt7_Mem_fnIMN8peterson7Thread1EFvvEEPS4_EEE6_M_runEv to i8*)], comdat, align 8
@_ZTSNSt6thread11_State_implISt12_Bind_simpleIFSt7_Mem_fnIMN8peterson7Thread1EFvvEEPS4_EEEE = linkonce_odr constant [87 x i8] c"NSt6thread11_State_implISt12_Bind_simpleIFSt7_Mem_fnIMN8peterson7Thread1EFvvEEPS4_EEEE\00", comdat
@_ZTINSt6thread11_State_implISt12_Bind_simpleIFSt7_Mem_fnIMN8peterson7Thread1EFvvEEPS4_EEEE = linkonce_odr constant { i8*, i8*, i8* } { i8* bitcast (i8** getelementptr inbounds (i8*, i8** @_ZTVN10__cxxabiv120__si_class_type_infoE, i64 2) to i8*), i8* getelementptr inbounds ([87 x i8], [87 x i8]* @_ZTSNSt6thread11_State_implISt12_Bind_simpleIFSt7_Mem_fnIMN8peterson7Thread1EFvvEEPS4_EEEE, i32 0, i32 0), i8* bitcast (i8** @_ZTINSt6thread6_StateE to i8*) }, comdat
@.str.10 = private unnamed_addr constant [7 x i8] c"x >= 1\00", align 1
@__PRETTY_FUNCTION__._ZN8peterson7Thread14thr1Ev = private unnamed_addr constant [31 x i8] c"void peterson::Thread1::thr1()\00", align 1
@llvm.global_ctors = appending global [1 x { i32, void ()*, i8* }] [{ i32, void ()*, i8* } { i32 65535, void ()* @_GLOBAL__sub_I_peterson.cpp, i8* null }]
@llvm.global.annotations = appending global [7 x { i8*, i8*, i8*, i32 }] [{ i8*, i8*, i8*, i32 } { i8* bitcast (void (i32)* @_Z9__afterMAi to i8*), i8* getelementptr inbounds ([15 x i8], [15 x i8]* @.str, i32 0, i32 0), i8* getelementptr inbounds ([119 x i8], [119 x i8]* @.str.3, i32 0, i32 0), i32 23 }, { i8*, i8*, i8*, i32 } { i8* bitcast (void (i32, i8*, i64, i32)* @_Z10__beforeMAiPvli to i8*), i8* getelementptr inbounds ([16 x i8], [16 x i8]* @.str.4, i32 0, i32 0), i8* getelementptr inbounds ([119 x i8], [119 x i8]* @.str.3, i32 0, i32 0), i32 26 }, { i8*, i8*, i8*, i32 } { i8* bitcast (i32* @_ZN8peterson5flag0E to i8*), i8* getelementptr inbounds ([5 x i8], [5 x i8]* @.str.5, i32 0, i32 0), i8* getelementptr inbounds ([96 x i8], [96 x i8]* @.str.6, i32 0, i32 0), i32 12 }, { i8*, i8*, i8*, i32 } { i8* bitcast (i32* @_ZN8peterson5flag1E to i8*), i8* getelementptr inbounds ([5 x i8], [5 x i8]* @.str.5, i32 0, i32 0), i8* getelementptr inbounds ([96 x i8], [96 x i8]* @.str.6, i32 0, i32 0), i32 13 }, { i8*, i8*, i8*, i32 } { i8* bitcast (i32* @_ZN8peterson4turnE to i8*), i8* getelementptr inbounds ([5 x i8], [5 x i8]* @.str.5, i32 0, i32 0), i8* getelementptr inbounds ([96 x i8], [96 x i8]* @.str.6, i32 0, i32 0), i32 14 }, { i8*, i8*, i8*, i32 } { i8* bitcast (i32* @_ZN8peterson1xE to i8*), i8* getelementptr inbounds ([5 x i8], [5 x i8]* @.str.5, i32 0, i32 0), i8* getelementptr inbounds ([96 x i8], [96 x i8]* @.str.6, i32 0, i32 0), i32 15 }, { i8*, i8*, i8*, i32 } { i8* bitcast (void ()* @_ZN8peterson13run_benchmarkEv to i8*), i8* getelementptr inbounds ([5 x i8], [5 x i8]* @.str.7, i32 0, i32 0), i8* getelementptr inbounds ([96 x i8], [96 x i8]* @.str.6, i32 0, i32 0), i32 66 }], section "llvm.metadata"
@llvm.used = appending global [2 x i8*] [i8* bitcast (i32 (%"class.peterson::Thread0"*)* @_ZN8peterson7Thread011getThreadIdEv to i8*), i8* bitcast (i32 (%"class.peterson::Thread1"*)* @_ZN8peterson7Thread111getThreadIdEv to i8*)], section "llvm.metadata"

; Function Attrs: uwtable
define internal void @__cxx_global_var_init() #0 section ".text.startup" !dbg !2759 {
  call void @_ZNSt8ios_base4InitC1Ev(%"class.std::ios_base::Init"* @_ZStL8__ioinit), !dbg !2760
  %1 = call i32 @__cxa_atexit(void (i8*)* bitcast (void (%"class.std::ios_base::Init"*)* @_ZNSt8ios_base4InitD1Ev to void (i8*)*), i8* getelementptr inbounds (%"class.std::ios_base::Init", %"class.std::ios_base::Init"* @_ZStL8__ioinit, i32 0, i32 0), i8* @__dso_handle) #3, !dbg !2761
  ret void, !dbg !2760
}

declare void @_ZNSt8ios_base4InitC1Ev(%"class.std::ios_base::Init"*) unnamed_addr #1

; Function Attrs: nounwind
declare void @_ZNSt8ios_base4InitD1Ev(%"class.std::ios_base::Init"*) unnamed_addr #2

; Function Attrs: nounwind
declare i32 @__cxa_atexit(void (i8*)*, i8*, i8*) #3

; Function Attrs: uwtable
define internal void @__cxx_global_var_init.1() #0 section ".text.startup" !dbg !2763 {
  %1 = alloca %"struct.boost::none_t::init_tag", align 1
  call void @_ZN5boost6none_tC2ENS0_8init_tagE(%"struct.boost::none_t"* @_ZN5boostL4noneE), !dbg !2764
  ret void, !dbg !2765
}

; Function Attrs: nounwind uwtable
define linkonce_odr void @_ZN5boost6none_tC2ENS0_8init_tagE(%"struct.boost::none_t"*) unnamed_addr #4 comdat align 2 !dbg !2766 {
  %2 = alloca %"struct.boost::none_t::init_tag", align 1
  %3 = alloca %"struct.boost::none_t"*, align 8
  store %"struct.boost::none_t"* %0, %"struct.boost::none_t"** %3, align 8
  call void @llvm.dbg.declare(metadata %"struct.boost::none_t"** %3, metadata !2767, metadata !2769), !dbg !2770
  call void @llvm.dbg.declare(metadata %"struct.boost::none_t::init_tag"* %2, metadata !2771, metadata !2769), !dbg !2772
  %4 = load %"struct.boost::none_t"*, %"struct.boost::none_t"** %3, align 8
  ret void, !dbg !2773
}

; Function Attrs: uwtable
define internal void @__cxx_global_var_init.2() #0 section ".text.startup" !dbg !2774 {
  call void @_ZN5boost6detail35make_property_map_from_arg_pack_genINS_5graph8keywords3tag9color_mapENS_18default_color_typeEEC2ES6_(%"class.boost::detail::make_property_map_from_arg_pack_gen"* @_ZN5boost6detailL28make_color_map_from_arg_packE, i32 0), !dbg !2775
  ret void, !dbg !2776
}

; Function Attrs: nounwind uwtable
define linkonce_odr void @_ZN5boost6detail35make_property_map_from_arg_pack_genINS_5graph8keywords3tag9color_mapENS_18default_color_typeEEC2ES6_(%"class.boost::detail::make_property_map_from_arg_pack_gen"*, i32) unnamed_addr #4 comdat align 2 !dbg !2777 {
  %3 = alloca %"class.boost::detail::make_property_map_from_arg_pack_gen"*, align 8
  %4 = alloca i32, align 4
  store %"class.boost::detail::make_property_map_from_arg_pack_gen"* %0, %"class.boost::detail::make_property_map_from_arg_pack_gen"** %3, align 8
  call void @llvm.dbg.declare(metadata %"class.boost::detail::make_property_map_from_arg_pack_gen"** %3, metadata !2778, metadata !2769), !dbg !2780
  store i32 %1, i32* %4, align 4
  call void @llvm.dbg.declare(metadata i32* %4, metadata !2781, metadata !2769), !dbg !2782
  %5 = load %"class.boost::detail::make_property_map_from_arg_pack_gen"*, %"class.boost::detail::make_property_map_from_arg_pack_gen"** %3, align 8
  %6 = getelementptr inbounds %"class.boost::detail::make_property_map_from_arg_pack_gen", %"class.boost::detail::make_property_map_from_arg_pack_gen"* %5, i32 0, i32 0, !dbg !2783
  %7 = load i32, i32* %4, align 4, !dbg !2784
  store i32 %7, i32* %6, align 4, !dbg !2783
  ret void, !dbg !2785
}

; Function Attrs: uwtable
define void @_Z9__afterMAi(i32) #0 !dbg !2786 {
  %2 = alloca i32, align 4
  store i32 %0, i32* %2, align 4
  call void @llvm.dbg.declare(metadata i32* %2, metadata !2788, metadata !2769), !dbg !2789
  %3 = load i32, i32* %2, align 4, !dbg !2790
  call void @_ZN7Runtime7afterMAEi(i32 %3), !dbg !2791
  ret void, !dbg !2792
}

; Function Attrs: nounwind readnone
declare void @llvm.dbg.declare(metadata, metadata, metadata) #5

declare void @_ZN7Runtime7afterMAEi(i32) #1

; Function Attrs: uwtable
define void @_Z10__beforeMAiPvli(i32, i8*, i64, i32) #0 !dbg !2793 {
  %5 = alloca i32, align 4
  %6 = alloca i8*, align 8
  %7 = alloca i64, align 8
  %8 = alloca i32, align 4
  store i32 %0, i32* %5, align 4
  call void @llvm.dbg.declare(metadata i32* %5, metadata !2796, metadata !2769), !dbg !2797
  store i8* %1, i8** %6, align 8
  call void @llvm.dbg.declare(metadata i8** %6, metadata !2798, metadata !2769), !dbg !2799
  store i64 %2, i64* %7, align 8
  call void @llvm.dbg.declare(metadata i64* %7, metadata !2800, metadata !2769), !dbg !2801
  store i32 %3, i32* %8, align 4
  call void @llvm.dbg.declare(metadata i32* %8, metadata !2802, metadata !2769), !dbg !2803
  %9 = load i32, i32* %5, align 4, !dbg !2804
  %10 = load i8*, i8** %6, align 8, !dbg !2805
  %11 = load i32, i32* %8, align 4, !dbg !2806
  %12 = icmp ne i32 %11, 0, !dbg !2806
  call void @_ZN7Runtime8beforeMAEiPvb(i32 %9, i8* %10, i1 zeroext %12), !dbg !2807
  ret void, !dbg !2808
}

declare void @_ZN7Runtime8beforeMAEiPvb(i32, i8*, i1 zeroext) #1

; Function Attrs: noinline uwtable
define linkonce_odr i32 @_ZN8peterson7Thread011getThreadIdEv(%"class.peterson::Thread0"*) #6 comdat align 2 !dbg !2809 {
  %2 = alloca %"class.peterson::Thread0"*, align 8
  store %"class.peterson::Thread0"* %0, %"class.peterson::Thread0"** %2, align 8
  call void @llvm.dbg.declare(metadata %"class.peterson::Thread0"** %2, metadata !2810, metadata !2769), !dbg !2811
  %3 = load %"class.peterson::Thread0"*, %"class.peterson::Thread0"** %2, align 8
  %4 = getelementptr inbounds %"class.peterson::Thread0", %"class.peterson::Thread0"* %3, i32 0, i32 0, !dbg !2812
  %5 = call i32 @_ZNK9IrsThread6getTidEv(%class.IrsThread* %4), !dbg !2813
  ret i32 %5, !dbg !2814
}

; Function Attrs: nounwind uwtable
define linkonce_odr i32 @_ZNK9IrsThread6getTidEv(%class.IrsThread*) #4 comdat align 2 !dbg !2815 {
  %2 = alloca %class.IrsThread*, align 8
  store %class.IrsThread* %0, %class.IrsThread** %2, align 8
  call void @llvm.dbg.declare(metadata %class.IrsThread** %2, metadata !2816, metadata !2769), !dbg !2818
  %3 = load %class.IrsThread*, %class.IrsThread** %2, align 8
  %4 = getelementptr inbounds %class.IrsThread, %class.IrsThread* %3, i32 0, i32 1, !dbg !2819
  %5 = load i32, i32* %4, align 8, !dbg !2819
  ret i32 %5, !dbg !2820
}

; Function Attrs: noinline uwtable
define linkonce_odr i32 @_ZN8peterson7Thread111getThreadIdEv(%"class.peterson::Thread1"*) #6 comdat align 2 !dbg !2821 {
  %2 = alloca %"class.peterson::Thread1"*, align 8
  store %"class.peterson::Thread1"* %0, %"class.peterson::Thread1"** %2, align 8
  call void @llvm.dbg.declare(metadata %"class.peterson::Thread1"** %2, metadata !2822, metadata !2769), !dbg !2823
  %3 = load %"class.peterson::Thread1"*, %"class.peterson::Thread1"** %2, align 8
  %4 = getelementptr inbounds %"class.peterson::Thread1", %"class.peterson::Thread1"* %3, i32 0, i32 0, !dbg !2824
  %5 = call i32 @_ZNK9IrsThread6getTidEv(%class.IrsThread* %4), !dbg !2825
  ret i32 %5, !dbg !2826
}

; Function Attrs: uwtable
define void @_ZN8peterson13run_benchmarkEv() #0 personality i8* bitcast (i32 (...)* @__gxx_personality_v0 to i8*) !dbg !2827 {
  %1 = alloca %"class.peterson::Thread0", align 8
  %2 = alloca %"class.peterson::Thread1", align 8
  %3 = alloca i8*
  %4 = alloca i32
  %5 = alloca %"struct.std::chrono::time_point", align 8
  %6 = alloca %"struct.std::chrono::time_point", align 8
  %7 = alloca i64, align 8
  %8 = alloca %"struct.std::chrono::duration", align 8
  %9 = alloca %"struct.std::chrono::duration.0", align 8
  call void @llvm.dbg.declare(metadata %"class.peterson::Thread0"* %1, metadata !2828, metadata !2769), !dbg !2829
  call void @_ZN8peterson7Thread0C2Ei(%"class.peterson::Thread0"* %1, i32 0), !dbg !2829
  call void @llvm.dbg.declare(metadata %"class.peterson::Thread1"* %2, metadata !2830, metadata !2769), !dbg !2831
  invoke void @_ZN8peterson7Thread1C2Ei(%"class.peterson::Thread1"* %2, i32 1)
          to label %10 unwind label %34, !dbg !2831

; <label>:10:                                     ; preds = %0
  call void @llvm.dbg.declare(metadata %"struct.std::chrono::time_point"* %5, metadata !2832, metadata !2769), !dbg !2879
  %11 = call i64 @_ZNSt6chrono3_V212system_clock3nowEv() #3, !dbg !2879
  %12 = getelementptr inbounds %"struct.std::chrono::time_point", %"struct.std::chrono::time_point"* %5, i32 0, i32 0, !dbg !2879
  %13 = getelementptr inbounds %"struct.std::chrono::duration", %"struct.std::chrono::duration"* %12, i32 0, i32 0, !dbg !2879
  store i64 %11, i64* %13, align 8, !dbg !2879
  invoke void @_ZN8peterson7Thread05startEv(%"class.peterson::Thread0"* %1)
          to label %14 unwind label %38, !dbg !2880

; <label>:14:                                     ; preds = %10
  invoke void @_ZN8peterson7Thread15startEv(%"class.peterson::Thread1"* %2)
          to label %15 unwind label %38, !dbg !2881

; <label>:15:                                     ; preds = %14
  invoke void @_ZN8peterson7Thread04joinEv(%"class.peterson::Thread0"* %1)
          to label %16 unwind label %38, !dbg !2882

; <label>:16:                                     ; preds = %15
  invoke void @_ZN8peterson7Thread14joinEv(%"class.peterson::Thread1"* %2)
          to label %17 unwind label %38, !dbg !2883

; <label>:17:                                     ; preds = %16
  call void @llvm.dbg.declare(metadata %"struct.std::chrono::time_point"* %6, metadata !2884, metadata !2769), !dbg !2885
  %18 = call i64 @_ZNSt6chrono3_V212system_clock3nowEv() #3, !dbg !2885
  %19 = getelementptr inbounds %"struct.std::chrono::time_point", %"struct.std::chrono::time_point"* %6, i32 0, i32 0, !dbg !2885
  %20 = getelementptr inbounds %"struct.std::chrono::duration", %"struct.std::chrono::duration"* %19, i32 0, i32 0, !dbg !2885
  store i64 %18, i64* %20, align 8, !dbg !2885
  call void @llvm.dbg.declare(metadata i64* %7, metadata !2886, metadata !2769), !dbg !2885
  %21 = invoke i64 @_ZNSt6chronomiINS_3_V212system_clockENS_8durationIlSt5ratioILl1ELl1000000000EEEES6_EENSt11common_typeIJT0_T1_EE4typeERKNS_10time_pointIT_S8_EERKNSC_ISD_S9_EE(%"struct.std::chrono::time_point"* dereferenceable(8) %6, %"struct.std::chrono::time_point"* dereferenceable(8) %5)
          to label %22 unwind label %38, !dbg !2885

; <label>:22:                                     ; preds = %17
  %23 = getelementptr inbounds %"struct.std::chrono::duration", %"struct.std::chrono::duration"* %8, i32 0, i32 0, !dbg !2887
  store i64 %21, i64* %23, align 8, !dbg !2887
  %24 = invoke i64 @_ZNSt6chrono13duration_castINS_8durationIlSt5ratioILl1ELl1000000EEEElS2_ILl1ELl1000000000EEEENSt9enable_ifIXsr13__is_durationIT_EE5valueES7_E4typeERKNS1_IT0_T1_EE(%"struct.std::chrono::duration"* dereferenceable(8) %8)
          to label %25 unwind label %38, !dbg !2887

; <label>:25:                                     ; preds = %22
  %26 = getelementptr inbounds %"struct.std::chrono::duration.0", %"struct.std::chrono::duration.0"* %9, i32 0, i32 0, !dbg !2889
  store i64 %24, i64* %26, align 8, !dbg !2889
  %27 = invoke i64 @_ZNKSt6chrono8durationIlSt5ratioILl1ELl1000000EEE5countEv(%"struct.std::chrono::duration.0"* %9)
          to label %28 unwind label %38, !dbg !2889

; <label>:28:                                     ; preds = %25
  store i64 %27, i64* %7, align 8, !dbg !2891
  %29 = load i64, i64* %7, align 8, !dbg !2891
  %30 = invoke dereferenceable(272) %"class.std::basic_ostream"* @_ZNSolsEl(%"class.std::basic_ostream"* @_ZSt4cout, i64 %29)
          to label %31 unwind label %38, !dbg !2891

; <label>:31:                                     ; preds = %28
  %32 = invoke dereferenceable(272) %"class.std::basic_ostream"* @_ZNSolsEPFRSoS_E(%"class.std::basic_ostream"* %30, %"class.std::basic_ostream"* (%"class.std::basic_ostream"*)* @_ZSt4endlIcSt11char_traitsIcEERSt13basic_ostreamIT_T0_ES6_)
          to label %33 unwind label %38, !dbg !2893

; <label>:33:                                     ; preds = %31
  call void @_ZN8peterson7Thread1D2Ev(%"class.peterson::Thread1"* %2) #3, !dbg !2895
  call void @_ZN8peterson7Thread0D2Ev(%"class.peterson::Thread0"* %1) #3, !dbg !2896
  ret void, !dbg !2895

; <label>:34:                                     ; preds = %0
  %35 = landingpad { i8*, i32 }
          cleanup, !dbg !2898
  %36 = extractvalue { i8*, i32 } %35, 0, !dbg !2898
  store i8* %36, i8** %3, align 8, !dbg !2898
  %37 = extractvalue { i8*, i32 } %35, 1, !dbg !2898
  store i32 %37, i32* %4, align 4, !dbg !2898
  br label %42, !dbg !2898

; <label>:38:                                     ; preds = %31, %28, %25, %22, %17, %16, %15, %14, %10
  %39 = landingpad { i8*, i32 }
          cleanup, !dbg !2899
  %40 = extractvalue { i8*, i32 } %39, 0, !dbg !2899
  store i8* %40, i8** %3, align 8, !dbg !2899
  %41 = extractvalue { i8*, i32 } %39, 1, !dbg !2899
  store i32 %41, i32* %4, align 4, !dbg !2899
  call void @_ZN8peterson7Thread1D2Ev(%"class.peterson::Thread1"* %2) #3, !dbg !2899
  br label %42, !dbg !2899

; <label>:42:                                     ; preds = %38, %34
  call void @_ZN8peterson7Thread0D2Ev(%"class.peterson::Thread0"* %1) #3, !dbg !2900
  br label %43, !dbg !2900

; <label>:43:                                     ; preds = %42
  %44 = load i8*, i8** %3, align 8, !dbg !2901
  %45 = load i32, i32* %4, align 4, !dbg !2901
  %46 = insertvalue { i8*, i32 } undef, i8* %44, 0, !dbg !2901
  %47 = insertvalue { i8*, i32 } %46, i32 %45, 1, !dbg !2901
  resume { i8*, i32 } %47, !dbg !2901
}

; Function Attrs: uwtable
define linkonce_odr void @_ZN8peterson7Thread0C2Ei(%"class.peterson::Thread0"*, i32) unnamed_addr #0 comdat align 2 !dbg !2902 {
  %3 = alloca %"class.peterson::Thread0"*, align 8
  %4 = alloca i32, align 4
  store %"class.peterson::Thread0"* %0, %"class.peterson::Thread0"** %3, align 8
  call void @llvm.dbg.declare(metadata %"class.peterson::Thread0"** %3, metadata !2903, metadata !2769), !dbg !2904
  store i32 %1, i32* %4, align 4
  call void @llvm.dbg.declare(metadata i32* %4, metadata !2905, metadata !2769), !dbg !2906
  %5 = load %"class.peterson::Thread0"*, %"class.peterson::Thread0"** %3, align 8
  %6 = getelementptr inbounds %"class.peterson::Thread0", %"class.peterson::Thread0"* %5, i32 0, i32 0, !dbg !2907
  %7 = load i32, i32* %4, align 4, !dbg !2908
  call void @_ZN9IrsThreadC2Ei(%class.IrsThread* %6, i32 %7), !dbg !2907
  ret void, !dbg !2909
}

; Function Attrs: uwtable
define linkonce_odr void @_ZN8peterson7Thread1C2Ei(%"class.peterson::Thread1"*, i32) unnamed_addr #0 comdat align 2 !dbg !2910 {
  %3 = alloca %"class.peterson::Thread1"*, align 8
  %4 = alloca i32, align 4
  store %"class.peterson::Thread1"* %0, %"class.peterson::Thread1"** %3, align 8
  call void @llvm.dbg.declare(metadata %"class.peterson::Thread1"** %3, metadata !2911, metadata !2769), !dbg !2912
  store i32 %1, i32* %4, align 4
  call void @llvm.dbg.declare(metadata i32* %4, metadata !2913, metadata !2769), !dbg !2914
  %5 = load %"class.peterson::Thread1"*, %"class.peterson::Thread1"** %3, align 8
  %6 = getelementptr inbounds %"class.peterson::Thread1", %"class.peterson::Thread1"* %5, i32 0, i32 0, !dbg !2915
  %7 = load i32, i32* %4, align 4, !dbg !2916
  call void @_ZN9IrsThreadC2Ei(%class.IrsThread* %6, i32 %7), !dbg !2915
  ret void, !dbg !2917
}

declare i32 @__gxx_personality_v0(...)

; Function Attrs: nounwind
declare i64 @_ZNSt6chrono3_V212system_clock3nowEv() #2

; Function Attrs: uwtable
define linkonce_odr void @_ZN8peterson7Thread05startEv(%"class.peterson::Thread0"*) #0 comdat align 2 !dbg !2918 {
  %2 = alloca %"class.peterson::Thread0"*, align 8
  %3 = alloca { i64, i64 }, align 8
  %4 = alloca %"class.peterson::Thread0"*, align 8
  store %"class.peterson::Thread0"* %0, %"class.peterson::Thread0"** %2, align 8
  call void @llvm.dbg.declare(metadata %"class.peterson::Thread0"** %2, metadata !2919, metadata !2769), !dbg !2920
  %5 = load %"class.peterson::Thread0"*, %"class.peterson::Thread0"** %2, align 8
  %6 = getelementptr inbounds %"class.peterson::Thread0", %"class.peterson::Thread0"* %5, i32 0, i32 0, !dbg !2921
  store { i64, i64 } { i64 ptrtoint (void (%"class.peterson::Thread0"*)* @_ZN8peterson7Thread04thr0Ev to i64), i64 0 }, { i64, i64 }* %3, align 8, !dbg !2922
  store %"class.peterson::Thread0"* %5, %"class.peterson::Thread0"** %4, align 8, !dbg !2923
  call void @_ZN9IrsThreadclIJMN8peterson7Thread0EFvvEPS2_EEEvDpOT_(%class.IrsThread* %6, { i64, i64 }* dereferenceable(16) %3, %"class.peterson::Thread0"** dereferenceable(8) %4), !dbg !2921
  ret void, !dbg !2924
}

; Function Attrs: uwtable
define linkonce_odr void @_ZN8peterson7Thread15startEv(%"class.peterson::Thread1"*) #0 comdat align 2 !dbg !2925 {
  %2 = alloca %"class.peterson::Thread1"*, align 8
  %3 = alloca { i64, i64 }, align 8
  %4 = alloca %"class.peterson::Thread1"*, align 8
  store %"class.peterson::Thread1"* %0, %"class.peterson::Thread1"** %2, align 8
  call void @llvm.dbg.declare(metadata %"class.peterson::Thread1"** %2, metadata !2926, metadata !2769), !dbg !2927
  %5 = load %"class.peterson::Thread1"*, %"class.peterson::Thread1"** %2, align 8
  %6 = getelementptr inbounds %"class.peterson::Thread1", %"class.peterson::Thread1"* %5, i32 0, i32 0, !dbg !2928
  store { i64, i64 } { i64 ptrtoint (void (%"class.peterson::Thread1"*)* @_ZN8peterson7Thread14thr1Ev to i64), i64 0 }, { i64, i64 }* %3, align 8, !dbg !2929
  store %"class.peterson::Thread1"* %5, %"class.peterson::Thread1"** %4, align 8, !dbg !2930
  call void @_ZN9IrsThreadclIJMN8peterson7Thread1EFvvEPS2_EEEvDpOT_(%class.IrsThread* %6, { i64, i64 }* dereferenceable(16) %3, %"class.peterson::Thread1"** dereferenceable(8) %4), !dbg !2928
  ret void, !dbg !2931
}

; Function Attrs: uwtable
define linkonce_odr void @_ZN8peterson7Thread04joinEv(%"class.peterson::Thread0"*) #0 comdat align 2 !dbg !2932 {
  %2 = alloca %"class.peterson::Thread0"*, align 8
  store %"class.peterson::Thread0"* %0, %"class.peterson::Thread0"** %2, align 8
  call void @llvm.dbg.declare(metadata %"class.peterson::Thread0"** %2, metadata !2933, metadata !2769), !dbg !2934
  %3 = load %"class.peterson::Thread0"*, %"class.peterson::Thread0"** %2, align 8
  %4 = getelementptr inbounds %"class.peterson::Thread0", %"class.peterson::Thread0"* %3, i32 0, i32 0, !dbg !2935
  call void @_ZN9IrsThread4joinEv(%class.IrsThread* %4), !dbg !2936
  ret void, !dbg !2937
}

; Function Attrs: uwtable
define linkonce_odr void @_ZN8peterson7Thread14joinEv(%"class.peterson::Thread1"*) #0 comdat align 2 !dbg !2938 {
  %2 = alloca %"class.peterson::Thread1"*, align 8
  store %"class.peterson::Thread1"* %0, %"class.peterson::Thread1"** %2, align 8
  call void @llvm.dbg.declare(metadata %"class.peterson::Thread1"** %2, metadata !2939, metadata !2769), !dbg !2940
  %3 = load %"class.peterson::Thread1"*, %"class.peterson::Thread1"** %2, align 8
  %4 = getelementptr inbounds %"class.peterson::Thread1", %"class.peterson::Thread1"* %3, i32 0, i32 0, !dbg !2941
  call void @_ZN9IrsThread4joinEv(%class.IrsThread* %4), !dbg !2942
  ret void, !dbg !2943
}

; Function Attrs: uwtable
define linkonce_odr i64 @_ZNSt6chrono13duration_castINS_8durationIlSt5ratioILl1ELl1000000EEEElS2_ILl1ELl1000000000EEEENSt9enable_ifIXsr13__is_durationIT_EE5valueES7_E4typeERKNS1_IT0_T1_EE(%"struct.std::chrono::duration"* dereferenceable(8)) #0 comdat !dbg !2944 {
  %2 = alloca %"struct.std::chrono::duration.0", align 8
  %3 = alloca %"struct.std::chrono::duration"*, align 8
  store %"struct.std::chrono::duration"* %0, %"struct.std::chrono::duration"** %3, align 8
  call void @llvm.dbg.declare(metadata %"struct.std::chrono::duration"** %3, metadata !2953, metadata !2769), !dbg !2954
  %4 = load %"struct.std::chrono::duration"*, %"struct.std::chrono::duration"** %3, align 8, !dbg !2955
  %5 = call i64 @_ZNSt6chrono20__duration_cast_implINS_8durationIlSt5ratioILl1ELl1000000EEEES2_ILl1ELl1000EElLb1ELb0EE6__castIlS2_ILl1ELl1000000000EEEES4_RKNS1_IT_T0_EE(%"struct.std::chrono::duration"* dereferenceable(8) %4), !dbg !2956
  %6 = getelementptr inbounds %"struct.std::chrono::duration.0", %"struct.std::chrono::duration.0"* %2, i32 0, i32 0, !dbg !2956
  store i64 %5, i64* %6, align 8, !dbg !2956
  %7 = getelementptr inbounds %"struct.std::chrono::duration.0", %"struct.std::chrono::duration.0"* %2, i32 0, i32 0, !dbg !2957
  %8 = load i64, i64* %7, align 8, !dbg !2957
  ret i64 %8, !dbg !2957
}

; Function Attrs: uwtable
define linkonce_odr i64 @_ZNSt6chronomiINS_3_V212system_clockENS_8durationIlSt5ratioILl1ELl1000000000EEEES6_EENSt11common_typeIJT0_T1_EE4typeERKNS_10time_pointIT_S8_EERKNSC_ISD_S9_EE(%"struct.std::chrono::time_point"* dereferenceable(8), %"struct.std::chrono::time_point"* dereferenceable(8)) #0 comdat !dbg !2958 {
  %3 = alloca %"struct.std::chrono::duration", align 8
  %4 = alloca %"struct.std::chrono::time_point"*, align 8
  %5 = alloca %"struct.std::chrono::time_point"*, align 8
  %6 = alloca %"struct.std::chrono::duration", align 8
  %7 = alloca %"struct.std::chrono::duration", align 8
  store %"struct.std::chrono::time_point"* %0, %"struct.std::chrono::time_point"** %4, align 8
  call void @llvm.dbg.declare(metadata %"struct.std::chrono::time_point"** %4, metadata !2965, metadata !2769), !dbg !2966
  store %"struct.std::chrono::time_point"* %1, %"struct.std::chrono::time_point"** %5, align 8
  call void @llvm.dbg.declare(metadata %"struct.std::chrono::time_point"** %5, metadata !2967, metadata !2769), !dbg !2968
  %8 = load %"struct.std::chrono::time_point"*, %"struct.std::chrono::time_point"** %4, align 8, !dbg !2969
  %9 = call i64 @_ZNKSt6chrono10time_pointINS_3_V212system_clockENS_8durationIlSt5ratioILl1ELl1000000000EEEEE16time_since_epochEv(%"struct.std::chrono::time_point"* %8), !dbg !2970
  %10 = getelementptr inbounds %"struct.std::chrono::duration", %"struct.std::chrono::duration"* %6, i32 0, i32 0, !dbg !2970
  store i64 %9, i64* %10, align 8, !dbg !2970
  %11 = load %"struct.std::chrono::time_point"*, %"struct.std::chrono::time_point"** %5, align 8, !dbg !2971
  %12 = call i64 @_ZNKSt6chrono10time_pointINS_3_V212system_clockENS_8durationIlSt5ratioILl1ELl1000000000EEEEE16time_since_epochEv(%"struct.std::chrono::time_point"* %11), !dbg !2972
  %13 = getelementptr inbounds %"struct.std::chrono::duration", %"struct.std::chrono::duration"* %7, i32 0, i32 0, !dbg !2974
  store i64 %12, i64* %13, align 8, !dbg !2974
  %14 = call i64 @_ZNSt6chronomiIlSt5ratioILl1ELl1000000000EElS2_EENSt11common_typeIJNS_8durationIT_T0_EENS4_IT1_T2_EEEE4typeERKS7_RKSA_(%"struct.std::chrono::duration"* dereferenceable(8) %6, %"struct.std::chrono::duration"* dereferenceable(8) %7), !dbg !2975
  %15 = getelementptr inbounds %"struct.std::chrono::duration", %"struct.std::chrono::duration"* %3, i32 0, i32 0, !dbg !2977
  store i64 %14, i64* %15, align 8, !dbg !2977
  %16 = getelementptr inbounds %"struct.std::chrono::duration", %"struct.std::chrono::duration"* %3, i32 0, i32 0, !dbg !2978
  %17 = load i64, i64* %16, align 8, !dbg !2978
  ret i64 %17, !dbg !2978
}

; Function Attrs: nounwind uwtable
define linkonce_odr i64 @_ZNKSt6chrono8durationIlSt5ratioILl1ELl1000000EEE5countEv(%"struct.std::chrono::duration.0"*) #4 comdat align 2 !dbg !2979 {
  %2 = alloca %"struct.std::chrono::duration.0"*, align 8
  store %"struct.std::chrono::duration.0"* %0, %"struct.std::chrono::duration.0"** %2, align 8
  call void @llvm.dbg.declare(metadata %"struct.std::chrono::duration.0"** %2, metadata !2980, metadata !2769), !dbg !2982
  %3 = load %"struct.std::chrono::duration.0"*, %"struct.std::chrono::duration.0"** %2, align 8
  %4 = getelementptr inbounds %"struct.std::chrono::duration.0", %"struct.std::chrono::duration.0"* %3, i32 0, i32 0, !dbg !2983
  %5 = load i64, i64* %4, align 8, !dbg !2983
  ret i64 %5, !dbg !2984
}

declare dereferenceable(272) %"class.std::basic_ostream"* @_ZNSolsEl(%"class.std::basic_ostream"*, i64) #1

declare dereferenceable(272) %"class.std::basic_ostream"* @_ZNSolsEPFRSoS_E(%"class.std::basic_ostream"*, %"class.std::basic_ostream"* (%"class.std::basic_ostream"*)*) #1

declare dereferenceable(272) %"class.std::basic_ostream"* @_ZSt4endlIcSt11char_traitsIcEERSt13basic_ostreamIT_T0_ES6_(%"class.std::basic_ostream"* dereferenceable(272)) #1

; Function Attrs: inlinehint nounwind uwtable
define linkonce_odr void @_ZN8peterson7Thread1D2Ev(%"class.peterson::Thread1"*) unnamed_addr #7 comdat align 2 !dbg !2985 {
  %2 = alloca %"class.peterson::Thread1"*, align 8
  store %"class.peterson::Thread1"* %0, %"class.peterson::Thread1"** %2, align 8
  call void @llvm.dbg.declare(metadata %"class.peterson::Thread1"** %2, metadata !2987, metadata !2769), !dbg !2988
  %3 = load %"class.peterson::Thread1"*, %"class.peterson::Thread1"** %2, align 8
  %4 = getelementptr inbounds %"class.peterson::Thread1", %"class.peterson::Thread1"* %3, i32 0, i32 0, !dbg !2989
  call void @_ZN9IrsThreadD2Ev(%class.IrsThread* %4) #3, !dbg !2989
  ret void, !dbg !2991
}

; Function Attrs: inlinehint nounwind uwtable
define linkonce_odr void @_ZN8peterson7Thread0D2Ev(%"class.peterson::Thread0"*) unnamed_addr #7 comdat align 2 !dbg !2992 {
  %2 = alloca %"class.peterson::Thread0"*, align 8
  store %"class.peterson::Thread0"* %0, %"class.peterson::Thread0"** %2, align 8
  call void @llvm.dbg.declare(metadata %"class.peterson::Thread0"** %2, metadata !2994, metadata !2769), !dbg !2995
  %3 = load %"class.peterson::Thread0"*, %"class.peterson::Thread0"** %2, align 8
  %4 = getelementptr inbounds %"class.peterson::Thread0", %"class.peterson::Thread0"* %3, i32 0, i32 0, !dbg !2996
  call void @_ZN9IrsThreadD2Ev(%class.IrsThread* %4) #3, !dbg !2996
  ret void, !dbg !2998
}

; Function Attrs: nounwind uwtable
define linkonce_odr void @_ZN9IrsThreadC2Ei(%class.IrsThread*, i32) unnamed_addr #4 comdat align 2 !dbg !2999 {
  %3 = alloca %class.IrsThread*, align 8
  %4 = alloca i32, align 4
  store %class.IrsThread* %0, %class.IrsThread** %3, align 8
  call void @llvm.dbg.declare(metadata %class.IrsThread** %3, metadata !3000, metadata !2769), !dbg !3002
  store i32 %1, i32* %4, align 4
  call void @llvm.dbg.declare(metadata i32* %4, metadata !3003, metadata !2769), !dbg !3004
  %5 = load %class.IrsThread*, %class.IrsThread** %3, align 8
  %6 = getelementptr inbounds %class.IrsThread, %class.IrsThread* %5, i32 0, i32 0, !dbg !3005
  call void @_ZNSt6threadC2Ev(%"class.std::thread"* %6) #3, !dbg !3005
  %7 = getelementptr inbounds %class.IrsThread, %class.IrsThread* %5, i32 0, i32 1, !dbg !3006
  %8 = load i32, i32* %4, align 4, !dbg !3007
  store i32 %8, i32* %7, align 8, !dbg !3006
  ret void, !dbg !3008
}

; Function Attrs: nounwind uwtable
define linkonce_odr void @_ZNSt6threadC2Ev(%"class.std::thread"*) unnamed_addr #4 comdat align 2 !dbg !3009 {
  %2 = alloca %"class.std::thread"*, align 8
  store %"class.std::thread"* %0, %"class.std::thread"** %2, align 8
  call void @llvm.dbg.declare(metadata %"class.std::thread"** %2, metadata !3010, metadata !2769), !dbg !3012
  %3 = load %"class.std::thread"*, %"class.std::thread"** %2, align 8
  %4 = getelementptr inbounds %"class.std::thread", %"class.std::thread"* %3, i32 0, i32 0, !dbg !3013
  call void @_ZNSt6thread2idC2Ev(%"class.std::thread::id"* %4) #3, !dbg !3013
  ret void, !dbg !3014
}

; Function Attrs: nounwind uwtable
define linkonce_odr void @_ZNSt6thread2idC2Ev(%"class.std::thread::id"*) unnamed_addr #4 comdat align 2 !dbg !3015 {
  %2 = alloca %"class.std::thread::id"*, align 8
  store %"class.std::thread::id"* %0, %"class.std::thread::id"** %2, align 8
  call void @llvm.dbg.declare(metadata %"class.std::thread::id"** %2, metadata !3016, metadata !2769), !dbg !3018
  %3 = load %"class.std::thread::id"*, %"class.std::thread::id"** %2, align 8
  %4 = getelementptr inbounds %"class.std::thread::id", %"class.std::thread::id"* %3, i32 0, i32 0, !dbg !3019
  store i64 0, i64* %4, align 8, !dbg !3019
  ret void, !dbg !3020
}

; Function Attrs: uwtable
define linkonce_odr void @_ZN9IrsThreadclIJMN8peterson7Thread0EFvvEPS2_EEEvDpOT_(%class.IrsThread*, { i64, i64 }* dereferenceable(16), %"class.peterson::Thread0"** dereferenceable(8)) #0 comdat align 2 !dbg !3021 {
  %4 = alloca %class.IrsThread*, align 8
  %5 = alloca { i64, i64 }*, align 8
  %6 = alloca %"class.peterson::Thread0"**, align 8
  %7 = alloca %"class.std::thread", align 8
  store %class.IrsThread* %0, %class.IrsThread** %4, align 8
  call void @llvm.dbg.declare(metadata %class.IrsThread** %4, metadata !3030, metadata !2769), !dbg !3031
  store { i64, i64 }* %1, { i64, i64 }** %5, align 8
  call void @llvm.dbg.declare(metadata { i64, i64 }** %5, metadata !3032, metadata !2769), !dbg !3033
  store %"class.peterson::Thread0"** %2, %"class.peterson::Thread0"*** %6, align 8
  call void @llvm.dbg.declare(metadata %"class.peterson::Thread0"*** %6, metadata !3034, metadata !2769), !dbg !3033
  %8 = load %class.IrsThread*, %class.IrsThread** %4, align 8
  %9 = getelementptr inbounds %class.IrsThread, %class.IrsThread* %8, i32 0, i32 0, !dbg !3035
  %10 = load { i64, i64 }*, { i64, i64 }** %5, align 8, !dbg !3036
  %11 = call dereferenceable(16) { i64, i64 }* @_ZSt7forwardIMN8peterson7Thread0EFvvEEOT_RNSt16remove_referenceIS4_E4typeE({ i64, i64 }* dereferenceable(16) %10) #3, !dbg !3037
  %12 = load %"class.peterson::Thread0"**, %"class.peterson::Thread0"*** %6, align 8, !dbg !3036
  %13 = call dereferenceable(8) %"class.peterson::Thread0"** @_ZSt7forwardIPN8peterson7Thread0EEOT_RNSt16remove_referenceIS3_E4typeE(%"class.peterson::Thread0"** dereferenceable(8) %12) #3, !dbg !3038
  call void @_ZNSt6threadC2IMN8peterson7Thread0EFvvEJPS2_EEEOT_DpOT0_(%"class.std::thread"* %7, { i64, i64 }* dereferenceable(16) %11, %"class.peterson::Thread0"** dereferenceable(8) %13), !dbg !3040
  %14 = call dereferenceable(8) %"class.std::thread"* @_ZNSt6threadaSEOS_(%"class.std::thread"* %9, %"class.std::thread"* dereferenceable(8) %7) #3, !dbg !3042
  call void @_ZNSt6threadD2Ev(%"class.std::thread"* %7) #3, !dbg !3044
  ret void, !dbg !3046
}

; Function Attrs: nounwind uwtable
define linkonce_odr void @_ZN8peterson7Thread04thr0Ev(%"class.peterson::Thread0"*) #4 comdat align 2 !dbg !3047 {
  %2 = alloca %"class.peterson::Thread0"*, align 8
  store %"class.peterson::Thread0"* %0, %"class.peterson::Thread0"** %2, align 8
  call void @llvm.dbg.declare(metadata %"class.peterson::Thread0"** %2, metadata !3048, metadata !2769), !dbg !3049
  %3 = load %"class.peterson::Thread0"*, %"class.peterson::Thread0"** %2, align 8
  %4 = call i32 @_ZN8peterson7Thread011getThreadIdEv(%"class.peterson::Thread0"* %0), !dbg !3050
  %5 = alloca i32, !dbg !3050
  store i32 %4, i32* %5, !dbg !3050
  %6 = load i32, i32* %5, !dbg !3050
  call void @_Z10__beforeMAiPvli(i32 %6, i8* bitcast (i32* @_ZN8peterson5flag0E to i8*), i64 4, i32 1), !dbg !3050
  store i32 1, i32* @_ZN8peterson5flag0E, align 4, !dbg !3050
  call void @_Z9__afterMAi(i32 %6), !dbg !3050
  %7 = call i32 @_ZN8peterson7Thread011getThreadIdEv(%"class.peterson::Thread0"* %0), !dbg !3051
  %8 = alloca i32, !dbg !3051
  store i32 %7, i32* %8, !dbg !3051
  %9 = load i32, i32* %8, !dbg !3051
  call void @_Z10__beforeMAiPvli(i32 %9, i8* bitcast (i32* @_ZN8peterson4turnE to i8*), i64 4, i32 1), !dbg !3051
  store i32 1, i32* @_ZN8peterson4turnE, align 4, !dbg !3051
  call void @_Z9__afterMAi(i32 %9), !dbg !3051
  br label %10, !dbg !3052

; <label>:10:                                     ; preds = %24, %1
  %11 = call i32 @_ZN8peterson7Thread011getThreadIdEv(%"class.peterson::Thread0"* %0), !dbg !3053
  %12 = alloca i32, !dbg !3053
  store i32 %11, i32* %12, !dbg !3053
  %13 = load i32, i32* %12, !dbg !3053
  call void @_Z10__beforeMAiPvli(i32 %13, i8* bitcast (i32* @_ZN8peterson5flag1E to i8*), i64 4, i32 0), !dbg !3053
  %14 = load i32, i32* @_ZN8peterson5flag1E, align 4, !dbg !3053
  call void @_Z9__afterMAi(i32 %13), !dbg !3053
  %15 = icmp eq i32 %14, 1, !dbg !3055
  br i1 %15, label %16, label %22, !dbg !3056

; <label>:16:                                     ; preds = %10
  %17 = call i32 @_ZN8peterson7Thread011getThreadIdEv(%"class.peterson::Thread0"* %0), !dbg !3057
  %18 = alloca i32, !dbg !3057
  store i32 %17, i32* %18, !dbg !3057
  %19 = load i32, i32* %18, !dbg !3057
  call void @_Z10__beforeMAiPvli(i32 %19, i8* bitcast (i32* @_ZN8peterson4turnE to i8*), i64 4, i32 0), !dbg !3057
  %20 = load i32, i32* @_ZN8peterson4turnE, align 4, !dbg !3057
  call void @_Z9__afterMAi(i32 %19), !dbg !3057
  %21 = icmp eq i32 %20, 1, !dbg !3059
  br label %22

; <label>:22:                                     ; preds = %16, %10
  %23 = phi i1 [ false, %10 ], [ %21, %16 ]
  br i1 %23, label %24, label %25, !dbg !3060

; <label>:24:                                     ; preds = %22
  br label %10, !dbg !3062, !llvm.loop !3064

; <label>:25:                                     ; preds = %22
  %26 = call i32 @_ZN8peterson7Thread011getThreadIdEv(%"class.peterson::Thread0"* %0), !dbg !3065
  %27 = alloca i32, !dbg !3065
  store i32 %26, i32* %27, !dbg !3065
  %28 = load i32, i32* %27, !dbg !3065
  call void @_Z10__beforeMAiPvli(i32 %28, i8* bitcast (i32* @_ZN8peterson1xE to i8*), i64 4, i32 1), !dbg !3065
  store i32 0, i32* @_ZN8peterson1xE, align 4, !dbg !3065
  call void @_Z9__afterMAi(i32 %28), !dbg !3065
  %29 = call i32 @_ZN8peterson7Thread011getThreadIdEv(%"class.peterson::Thread0"* %0), !dbg !3066
  %30 = alloca i32, !dbg !3066
  store i32 %29, i32* %30, !dbg !3066
  %31 = load i32, i32* %30, !dbg !3066
  call void @_Z10__beforeMAiPvli(i32 %31, i8* bitcast (i32* @_ZN8peterson1xE to i8*), i64 4, i32 0), !dbg !3066
  %32 = load i32, i32* @_ZN8peterson1xE, align 4, !dbg !3066
  call void @_Z9__afterMAi(i32 %31), !dbg !3066
  %33 = icmp sle i32 %32, 0, !dbg !3066
  br i1 %33, label %34, label %35, !dbg !3066

; <label>:34:                                     ; preds = %25
  br label %37, !dbg !3067

; <label>:35:                                     ; preds = %25
  call void @__assert_fail(i8* getelementptr inbounds ([7 x i8], [7 x i8]* @.str.8, i32 0, i32 0), i8* getelementptr inbounds ([96 x i8], [96 x i8]* @.str.9, i32 0, i32 0), i32 32, i8* getelementptr inbounds ([31 x i8], [31 x i8]* @__PRETTY_FUNCTION__._ZN8peterson7Thread04thr0Ev, i32 0, i32 0)) #14, !dbg !3068
  unreachable, !dbg !3068
                                                  ; No predecessors!
  br label %37, !dbg !3069

; <label>:37:                                     ; preds = %36, %34
  %38 = call i32 @_ZN8peterson7Thread011getThreadIdEv(%"class.peterson::Thread0"* %0), !dbg !3070
  %39 = alloca i32, !dbg !3070
  store i32 %38, i32* %39, !dbg !3070
  %40 = load i32, i32* %39, !dbg !3070
  call void @_Z10__beforeMAiPvli(i32 %40, i8* bitcast (i32* @_ZN8peterson5flag0E to i8*), i64 4, i32 1), !dbg !3070
  store i32 0, i32* @_ZN8peterson5flag0E, align 4, !dbg !3070
  call void @_Z9__afterMAi(i32 %40), !dbg !3070
  ret void, !dbg !3071
}

; Function Attrs: nounwind uwtable
define linkonce_odr dereferenceable(8) %"class.std::thread"* @_ZNSt6threadaSEOS_(%"class.std::thread"*, %"class.std::thread"* dereferenceable(8)) #4 comdat align 2 !dbg !3072 {
  %3 = alloca %"class.std::thread"*, align 8
  %4 = alloca %"class.std::thread"*, align 8
  store %"class.std::thread"* %0, %"class.std::thread"** %3, align 8
  call void @llvm.dbg.declare(metadata %"class.std::thread"** %3, metadata !3073, metadata !2769), !dbg !3074
  store %"class.std::thread"* %1, %"class.std::thread"** %4, align 8
  call void @llvm.dbg.declare(metadata %"class.std::thread"** %4, metadata !3075, metadata !2769), !dbg !3076
  %5 = load %"class.std::thread"*, %"class.std::thread"** %3, align 8
  %6 = call zeroext i1 @_ZNKSt6thread8joinableEv(%"class.std::thread"* %5) #3, !dbg !3077
  br i1 %6, label %7, label %8, !dbg !3079

; <label>:7:                                      ; preds = %2
  call void @_ZSt9terminatev() #14, !dbg !3080
  unreachable, !dbg !3080

; <label>:8:                                      ; preds = %2
  %9 = load %"class.std::thread"*, %"class.std::thread"** %4, align 8, !dbg !3081
  call void @_ZNSt6thread4swapERS_(%"class.std::thread"* %5, %"class.std::thread"* dereferenceable(8) %9) #3, !dbg !3082
  ret %"class.std::thread"* %5, !dbg !3083
}

; Function Attrs: nounwind uwtable
define linkonce_odr dereferenceable(16) { i64, i64 }* @_ZSt7forwardIMN8peterson7Thread0EFvvEEOT_RNSt16remove_referenceIS4_E4typeE({ i64, i64 }* dereferenceable(16)) #4 comdat !dbg !3084 {
  %2 = alloca { i64, i64 }*, align 8
  store { i64, i64 }* %0, { i64, i64 }** %2, align 8
  call void @llvm.dbg.declare(metadata { i64, i64 }** %2, metadata !3091, metadata !2769), !dbg !3092
  %3 = load { i64, i64 }*, { i64, i64 }** %2, align 8, !dbg !3093
  ret { i64, i64 }* %3, !dbg !3094
}

; Function Attrs: nounwind uwtable
define linkonce_odr dereferenceable(8) %"class.peterson::Thread0"** @_ZSt7forwardIPN8peterson7Thread0EEOT_RNSt16remove_referenceIS3_E4typeE(%"class.peterson::Thread0"** dereferenceable(8)) #4 comdat !dbg !3095 {
  %2 = alloca %"class.peterson::Thread0"**, align 8
  store %"class.peterson::Thread0"** %0, %"class.peterson::Thread0"*** %2, align 8
  call void @llvm.dbg.declare(metadata %"class.peterson::Thread0"*** %2, metadata !3103, metadata !2769), !dbg !3104
  %3 = load %"class.peterson::Thread0"**, %"class.peterson::Thread0"*** %2, align 8, !dbg !3105
  ret %"class.peterson::Thread0"** %3, !dbg !3106
}

; Function Attrs: uwtable
define linkonce_odr void @_ZNSt6threadC2IMN8peterson7Thread0EFvvEJPS2_EEEOT_DpOT0_(%"class.std::thread"*, { i64, i64 }* dereferenceable(16), %"class.peterson::Thread0"** dereferenceable(8)) unnamed_addr #0 comdat align 2 personality i8* bitcast (i32 (...)* @__gxx_personality_v0 to i8*) !dbg !3107 {
  %4 = alloca %"class.std::thread"*, align 8
  %5 = alloca { i64, i64 }*, align 8
  %6 = alloca %"class.peterson::Thread0"**, align 8
  %7 = alloca void ()*, align 8
  %8 = alloca %"class.std::unique_ptr", align 8
  %9 = alloca %"struct.std::_Bind_simple", align 8
  %10 = alloca i8*
  %11 = alloca i32
  store %"class.std::thread"* %0, %"class.std::thread"** %4, align 8
  call void @llvm.dbg.declare(metadata %"class.std::thread"** %4, metadata !3113, metadata !2769), !dbg !3114
  store { i64, i64 }* %1, { i64, i64 }** %5, align 8
  call void @llvm.dbg.declare(metadata { i64, i64 }** %5, metadata !3115, metadata !2769), !dbg !3116
  store %"class.peterson::Thread0"** %2, %"class.peterson::Thread0"*** %6, align 8
  call void @llvm.dbg.declare(metadata %"class.peterson::Thread0"*** %6, metadata !3117, metadata !2769), !dbg !3118
  %12 = load %"class.std::thread"*, %"class.std::thread"** %4, align 8
  %13 = getelementptr inbounds %"class.std::thread", %"class.std::thread"* %12, i32 0, i32 0, !dbg !3119
  call void @_ZNSt6thread2idC2Ev(%"class.std::thread::id"* %13) #3, !dbg !3119
  call void @llvm.dbg.declare(metadata void ()** %7, metadata !3120, metadata !2769), !dbg !3122
  store void ()* bitcast (i32 (i64*, %union.pthread_attr_t*, i8* (i8*)*, i8*)* @pthread_create to void ()*), void ()** %7, align 8, !dbg !3122
  %14 = load { i64, i64 }*, { i64, i64 }** %5, align 8, !dbg !3123
  %15 = call dereferenceable(16) { i64, i64 }* @_ZSt7forwardIMN8peterson7Thread0EFvvEEOT_RNSt16remove_referenceIS4_E4typeE({ i64, i64 }* dereferenceable(16) %14) #3, !dbg !3124
  %16 = load %"class.peterson::Thread0"**, %"class.peterson::Thread0"*** %6, align 8, !dbg !3125
  %17 = call dereferenceable(8) %"class.peterson::Thread0"** @_ZSt7forwardIPN8peterson7Thread0EEOT_RNSt16remove_referenceIS3_E4typeE(%"class.peterson::Thread0"** dereferenceable(8) %16) #3, !dbg !3126
  call void @_ZSt13__bind_simpleIMN8peterson7Thread0EFvvEJPS1_EENSt19_Bind_simple_helperIT_JDpT0_EE6__typeEOS6_DpOS7_(%"struct.std::_Bind_simple"* sret %9, { i64, i64 }* dereferenceable(16) %15, %"class.peterson::Thread0"** dereferenceable(8) %17), !dbg !3127
  call void @_ZNSt6thread13_S_make_stateISt12_Bind_simpleIFSt7_Mem_fnIMN8peterson7Thread0EFvvEEPS4_EEEESt10unique_ptrINS_6_StateESt14default_deleteISC_EEOT_(%"class.std::unique_ptr"* sret %8, %"struct.std::_Bind_simple"* dereferenceable(24) %9), !dbg !3129
  %18 = load void ()*, void ()** %7, align 8, !dbg !3130
  invoke void @_ZNSt6thread15_M_start_threadESt10unique_ptrINS_6_StateESt14default_deleteIS1_EEPFvvE(%"class.std::thread"* %12, %"class.std::unique_ptr"* %8, void ()* %18)
          to label %19 unwind label %20, !dbg !3131

; <label>:19:                                     ; preds = %3
  call void @_ZNSt10unique_ptrINSt6thread6_StateESt14default_deleteIS1_EED2Ev(%"class.std::unique_ptr"* %8) #3, !dbg !3132
  ret void, !dbg !3133

; <label>:20:                                     ; preds = %3
  %21 = landingpad { i8*, i32 }
          cleanup, !dbg !3134
  %22 = extractvalue { i8*, i32 } %21, 0, !dbg !3134
  store i8* %22, i8** %10, align 8, !dbg !3134
  %23 = extractvalue { i8*, i32 } %21, 1, !dbg !3134
  store i32 %23, i32* %11, align 4, !dbg !3134
  call void @_ZNSt10unique_ptrINSt6thread6_StateESt14default_deleteIS1_EED2Ev(%"class.std::unique_ptr"* %8) #3, !dbg !3135
  br label %24, !dbg !3135

; <label>:24:                                     ; preds = %20
  %25 = load i8*, i8** %10, align 8, !dbg !3137
  %26 = load i32, i32* %11, align 4, !dbg !3137
  %27 = insertvalue { i8*, i32 } undef, i8* %25, 0, !dbg !3137
  %28 = insertvalue { i8*, i32 } %27, i32 %26, 1, !dbg !3137
  resume { i8*, i32 } %28, !dbg !3137
}

; Function Attrs: nounwind uwtable
define linkonce_odr void @_ZNSt6threadD2Ev(%"class.std::thread"*) unnamed_addr #4 comdat align 2 !dbg !3139 {
  %2 = alloca %"class.std::thread"*, align 8
  store %"class.std::thread"* %0, %"class.std::thread"** %2, align 8
  call void @llvm.dbg.declare(metadata %"class.std::thread"** %2, metadata !3140, metadata !2769), !dbg !3141
  %3 = load %"class.std::thread"*, %"class.std::thread"** %2, align 8
  %4 = call zeroext i1 @_ZNKSt6thread8joinableEv(%"class.std::thread"* %3) #3, !dbg !3142
  br i1 %4, label %5, label %6, !dbg !3145

; <label>:5:                                      ; preds = %1
  call void @_ZSt9terminatev() #14, !dbg !3146
  unreachable, !dbg !3146

; <label>:6:                                      ; preds = %1
  ret void, !dbg !3147
}

; Function Attrs: nounwind uwtable
define linkonce_odr zeroext i1 @_ZNKSt6thread8joinableEv(%"class.std::thread"*) #4 comdat align 2 !dbg !3148 {
  %2 = alloca %"class.std::thread"*, align 8
  %3 = alloca %"class.std::thread::id", align 8
  %4 = alloca %"class.std::thread::id", align 8
  store %"class.std::thread"* %0, %"class.std::thread"** %2, align 8
  call void @llvm.dbg.declare(metadata %"class.std::thread"** %2, metadata !3149, metadata !2769), !dbg !3151
  %5 = load %"class.std::thread"*, %"class.std::thread"** %2, align 8
  %6 = getelementptr inbounds %"class.std::thread", %"class.std::thread"* %5, i32 0, i32 0, !dbg !3152
  %7 = bitcast %"class.std::thread::id"* %3 to i8*, !dbg !3152
  %8 = bitcast %"class.std::thread::id"* %6 to i8*, !dbg !3152
  call void @llvm.memcpy.p0i8.p0i8.i64(i8* %7, i8* %8, i64 8, i32 8, i1 false), !dbg !3152
  call void @_ZNSt6thread2idC2Ev(%"class.std::thread::id"* %4) #3, !dbg !3153
  %9 = getelementptr inbounds %"class.std::thread::id", %"class.std::thread::id"* %3, i32 0, i32 0, !dbg !3155
  %10 = load i64, i64* %9, align 8, !dbg !3155
  %11 = getelementptr inbounds %"class.std::thread::id", %"class.std::thread::id"* %4, i32 0, i32 0, !dbg !3155
  %12 = load i64, i64* %11, align 8, !dbg !3155
  %13 = call zeroext i1 @_ZSteqNSt6thread2idES0_(i64 %10, i64 %12) #3, !dbg !3156
  %14 = xor i1 %13, true, !dbg !3158
  ret i1 %14, !dbg !3159
}

; Function Attrs: noreturn nounwind
declare void @_ZSt9terminatev() #8

; Function Attrs: nounwind uwtable
define linkonce_odr void @_ZNSt6thread4swapERS_(%"class.std::thread"*, %"class.std::thread"* dereferenceable(8)) #4 comdat align 2 !dbg !3160 {
  %3 = alloca %"class.std::thread"*, align 8
  %4 = alloca %"class.std::thread"*, align 8
  store %"class.std::thread"* %0, %"class.std::thread"** %3, align 8
  call void @llvm.dbg.declare(metadata %"class.std::thread"** %3, metadata !3161, metadata !2769), !dbg !3162
  store %"class.std::thread"* %1, %"class.std::thread"** %4, align 8
  call void @llvm.dbg.declare(metadata %"class.std::thread"** %4, metadata !3163, metadata !2769), !dbg !3164
  %5 = load %"class.std::thread"*, %"class.std::thread"** %3, align 8
  %6 = getelementptr inbounds %"class.std::thread", %"class.std::thread"* %5, i32 0, i32 0, !dbg !3165
  %7 = load %"class.std::thread"*, %"class.std::thread"** %4, align 8, !dbg !3166
  %8 = getelementptr inbounds %"class.std::thread", %"class.std::thread"* %7, i32 0, i32 0, !dbg !3167
  call void @_ZSt4swapINSt6thread2idEENSt9enable_ifIXsr6__and_ISt21is_move_constructibleIT_ESt18is_move_assignableIS4_EEE5valueEvE4typeERS4_SA_(%"class.std::thread::id"* dereferenceable(8) %6, %"class.std::thread::id"* dereferenceable(8) %8) #3, !dbg !3168
  ret void, !dbg !3169
}

; Function Attrs: nounwind uwtable
define linkonce_odr zeroext i1 @_ZSteqNSt6thread2idES0_(i64, i64) #4 comdat !dbg !3170 {
  %3 = alloca %"class.std::thread::id", align 8
  %4 = alloca %"class.std::thread::id", align 8
  %5 = getelementptr inbounds %"class.std::thread::id", %"class.std::thread::id"* %3, i32 0, i32 0
  store i64 %0, i64* %5, align 8
  %6 = getelementptr inbounds %"class.std::thread::id", %"class.std::thread::id"* %4, i32 0, i32 0
  store i64 %1, i64* %6, align 8
  call void @llvm.dbg.declare(metadata %"class.std::thread::id"* %3, metadata !3173, metadata !2769), !dbg !3174
  call void @llvm.dbg.declare(metadata %"class.std::thread::id"* %4, metadata !3175, metadata !2769), !dbg !3176
  %7 = getelementptr inbounds %"class.std::thread::id", %"class.std::thread::id"* %3, i32 0, i32 0, !dbg !3177
  %8 = load i64, i64* %7, align 8, !dbg !3177
  %9 = getelementptr inbounds %"class.std::thread::id", %"class.std::thread::id"* %4, i32 0, i32 0, !dbg !3178
  %10 = load i64, i64* %9, align 8, !dbg !3178
  %11 = icmp eq i64 %8, %10, !dbg !3179
  ret i1 %11, !dbg !3180
}

; Function Attrs: argmemonly nounwind
declare void @llvm.memcpy.p0i8.p0i8.i64(i8* nocapture writeonly, i8* nocapture readonly, i64, i32, i1) #9

; Function Attrs: inlinehint nounwind uwtable
define linkonce_odr void @_ZSt4swapINSt6thread2idEENSt9enable_ifIXsr6__and_ISt21is_move_constructibleIT_ESt18is_move_assignableIS4_EEE5valueEvE4typeERS4_SA_(%"class.std::thread::id"* dereferenceable(8), %"class.std::thread::id"* dereferenceable(8)) #7 comdat !dbg !3181 {
  %3 = alloca %"class.std::thread::id"*, align 8
  %4 = alloca %"class.std::thread::id"*, align 8
  %5 = alloca %"class.std::thread::id", align 8
  store %"class.std::thread::id"* %0, %"class.std::thread::id"** %3, align 8
  call void @llvm.dbg.declare(metadata %"class.std::thread::id"** %3, metadata !3190, metadata !2769), !dbg !3191
  store %"class.std::thread::id"* %1, %"class.std::thread::id"** %4, align 8
  call void @llvm.dbg.declare(metadata %"class.std::thread::id"** %4, metadata !3192, metadata !2769), !dbg !3193
  call void @llvm.dbg.declare(metadata %"class.std::thread::id"* %5, metadata !3194, metadata !2769), !dbg !3195
  %6 = load %"class.std::thread::id"*, %"class.std::thread::id"** %3, align 8, !dbg !3196
  %7 = call dereferenceable(8) %"class.std::thread::id"* @_ZSt4moveIRNSt6thread2idEEONSt16remove_referenceIT_E4typeEOS4_(%"class.std::thread::id"* dereferenceable(8) %6) #3, !dbg !3196
  %8 = bitcast %"class.std::thread::id"* %5 to i8*, !dbg !3196
  %9 = bitcast %"class.std::thread::id"* %7 to i8*, !dbg !3196
  call void @llvm.memcpy.p0i8.p0i8.i64(i8* %8, i8* %9, i64 8, i32 8, i1 false), !dbg !3197
  %10 = load %"class.std::thread::id"*, %"class.std::thread::id"** %3, align 8, !dbg !3199
  %11 = load %"class.std::thread::id"*, %"class.std::thread::id"** %4, align 8, !dbg !3200
  %12 = call dereferenceable(8) %"class.std::thread::id"* @_ZSt4moveIRNSt6thread2idEEONSt16remove_referenceIT_E4typeEOS4_(%"class.std::thread::id"* dereferenceable(8) %11) #3, !dbg !3200
  %13 = bitcast %"class.std::thread::id"* %10 to i8*, !dbg !3201
  %14 = bitcast %"class.std::thread::id"* %12 to i8*, !dbg !3201
  call void @llvm.memcpy.p0i8.p0i8.i64(i8* %13, i8* %14, i64 8, i32 8, i1 false), !dbg !3202
  %15 = load %"class.std::thread::id"*, %"class.std::thread::id"** %4, align 8, !dbg !3203
  %16 = call dereferenceable(8) %"class.std::thread::id"* @_ZSt4moveIRNSt6thread2idEEONSt16remove_referenceIT_E4typeEOS4_(%"class.std::thread::id"* dereferenceable(8) %5) #3, !dbg !3204
  %17 = bitcast %"class.std::thread::id"* %15 to i8*, !dbg !3205
  %18 = bitcast %"class.std::thread::id"* %16 to i8*, !dbg !3205
  call void @llvm.memcpy.p0i8.p0i8.i64(i8* %17, i8* %18, i64 8, i32 8, i1 false), !dbg !3206
  ret void, !dbg !3207
}

; Function Attrs: nounwind uwtable
define linkonce_odr dereferenceable(8) %"class.std::thread::id"* @_ZSt4moveIRNSt6thread2idEEONSt16remove_referenceIT_E4typeEOS4_(%"class.std::thread::id"* dereferenceable(8)) #4 comdat !dbg !3208 {
  %2 = alloca %"class.std::thread::id"*, align 8
  store %"class.std::thread::id"* %0, %"class.std::thread::id"** %2, align 8
  call void @llvm.dbg.declare(metadata %"class.std::thread::id"** %2, metadata !3216, metadata !2769), !dbg !3217
  %3 = load %"class.std::thread::id"*, %"class.std::thread::id"** %2, align 8, !dbg !3218
  ret %"class.std::thread::id"* %3, !dbg !3219
}

; Function Attrs: nounwind
declare i32 @pthread_create(i64*, %union.pthread_attr_t*, i8* (i8*)*, i8*) #2

declare void @_ZNSt6thread15_M_start_threadESt10unique_ptrINS_6_StateESt14default_deleteIS1_EEPFvvE(%"class.std::thread"*, %"class.std::unique_ptr"*, void ()*) #1

; Function Attrs: uwtable
define linkonce_odr void @_ZNSt6thread13_S_make_stateISt12_Bind_simpleIFSt7_Mem_fnIMN8peterson7Thread0EFvvEEPS4_EEEESt10unique_ptrINS_6_StateESt14default_deleteISC_EEOT_(%"class.std::unique_ptr"* noalias sret, %"struct.std::_Bind_simple"* dereferenceable(24)) #0 comdat align 2 personality i8* bitcast (i32 (...)* @__gxx_personality_v0 to i8*) !dbg !3220 {
  %3 = alloca %"struct.std::_Bind_simple"*, align 8
  %4 = alloca i8*
  %5 = alloca i32
  store %"struct.std::_Bind_simple"* %1, %"struct.std::_Bind_simple"** %3, align 8
  call void @llvm.dbg.declare(metadata %"struct.std::_Bind_simple"** %3, metadata !3426, metadata !2769), !dbg !3427
  %6 = call i8* @_Znwm(i64 32) #15, !dbg !3428
  %7 = bitcast i8* %6 to %"struct.std::thread::_State_impl"*, !dbg !3428
  %8 = load %"struct.std::_Bind_simple"*, %"struct.std::_Bind_simple"** %3, align 8, !dbg !3429
  %9 = call dereferenceable(24) %"struct.std::_Bind_simple"* @_ZSt7forwardISt12_Bind_simpleIFSt7_Mem_fnIMN8peterson7Thread0EFvvEEPS3_EEEOT_RNSt16remove_referenceISA_E4typeE(%"struct.std::_Bind_simple"* dereferenceable(24) %8) #3, !dbg !3430
  invoke void @_ZNSt6thread11_State_implISt12_Bind_simpleIFSt7_Mem_fnIMN8peterson7Thread0EFvvEEPS4_EEEC2EOSA_(%"struct.std::thread::_State_impl"* %7, %"struct.std::_Bind_simple"* dereferenceable(24) %9)
          to label %10 unwind label %12, !dbg !3432

; <label>:10:                                     ; preds = %2
  %11 = bitcast %"struct.std::thread::_State_impl"* %7 to %"struct.std::thread::_State"*, !dbg !3433
  call void @_ZNSt10unique_ptrINSt6thread6_StateESt14default_deleteIS1_EEC2EPS1_(%"class.std::unique_ptr"* %0, %"struct.std::thread::_State"* %11) #3, !dbg !3435
  ret void, !dbg !3436

; <label>:12:                                     ; preds = %2
  %13 = landingpad { i8*, i32 }
          cleanup, !dbg !3437
  %14 = extractvalue { i8*, i32 } %13, 0, !dbg !3437
  store i8* %14, i8** %4, align 8, !dbg !3437
  %15 = extractvalue { i8*, i32 } %13, 1, !dbg !3437
  store i32 %15, i32* %5, align 4, !dbg !3437
  call void @_ZdlPv(i8* %6) #16, !dbg !3438
  br label %16, !dbg !3438

; <label>:16:                                     ; preds = %12
  %17 = load i8*, i8** %4, align 8, !dbg !3440
  %18 = load i32, i32* %5, align 4, !dbg !3440
  %19 = insertvalue { i8*, i32 } undef, i8* %17, 0, !dbg !3440
  %20 = insertvalue { i8*, i32 } %19, i32 %18, 1, !dbg !3440
  resume { i8*, i32 } %20, !dbg !3440
}

; Function Attrs: uwtable
define linkonce_odr void @_ZSt13__bind_simpleIMN8peterson7Thread0EFvvEJPS1_EENSt19_Bind_simple_helperIT_JDpT0_EE6__typeEOS6_DpOS7_(%"struct.std::_Bind_simple"* noalias sret, { i64, i64 }* dereferenceable(16), %"class.peterson::Thread0"** dereferenceable(8)) #0 comdat !dbg !3442 {
  %4 = alloca { i64, i64 }*, align 8
  %5 = alloca %"class.peterson::Thread0"**, align 8
  %6 = alloca %"struct.std::_Mem_fn", align 8
  %7 = alloca { i64, i64 }, align 8
  store { i64, i64 }* %1, { i64, i64 }** %4, align 8
  call void @llvm.dbg.declare(metadata { i64, i64 }** %4, metadata !3453, metadata !2769), !dbg !3454
  store %"class.peterson::Thread0"** %2, %"class.peterson::Thread0"*** %5, align 8
  call void @llvm.dbg.declare(metadata %"class.peterson::Thread0"*** %5, metadata !3455, metadata !2769), !dbg !3456
  %8 = load { i64, i64 }*, { i64, i64 }** %4, align 8, !dbg !3457
  %9 = call dereferenceable(16) { i64, i64 }* @_ZSt7forwardIMN8peterson7Thread0EFvvEEOT_RNSt16remove_referenceIS4_E4typeE({ i64, i64 }* dereferenceable(16) %8) #3, !dbg !3458
  %10 = load { i64, i64 }, { i64, i64 }* %9, align 8, !dbg !3458
  store { i64, i64 } %10, { i64, i64 }* %7, align 8, !dbg !3459
  %11 = getelementptr inbounds { i64, i64 }, { i64, i64 }* %7, i32 0, i32 0, !dbg !3459
  %12 = load i64, i64* %11, align 8, !dbg !3459
  %13 = getelementptr inbounds { i64, i64 }, { i64, i64 }* %7, i32 0, i32 1, !dbg !3459
  %14 = load i64, i64* %13, align 8, !dbg !3459
  %15 = call { i64, i64 } @_ZNSt26_Maybe_wrap_member_pointerIMN8peterson7Thread0EFvvEE9__do_wrapES3_(i64 %12, i64 %14), !dbg !3460
  %16 = getelementptr inbounds %"struct.std::_Mem_fn", %"struct.std::_Mem_fn"* %6, i32 0, i32 0, !dbg !3459
  %17 = getelementptr inbounds %"class.std::_Mem_fn_base", %"class.std::_Mem_fn_base"* %16, i32 0, i32 0, !dbg !3459
  %18 = getelementptr inbounds { i64, i64 }, { i64, i64 }* %17, i32 0, i32 0, !dbg !3459
  %19 = extractvalue { i64, i64 } %15, 0, !dbg !3459
  store i64 %19, i64* %18, align 8, !dbg !3459
  %20 = getelementptr inbounds { i64, i64 }, { i64, i64 }* %17, i32 0, i32 1, !dbg !3459
  %21 = extractvalue { i64, i64 } %15, 1, !dbg !3459
  store i64 %21, i64* %20, align 8, !dbg !3459
  %22 = load %"class.peterson::Thread0"**, %"class.peterson::Thread0"*** %5, align 8, !dbg !3462
  %23 = call dereferenceable(8) %"class.peterson::Thread0"** @_ZSt7forwardIPN8peterson7Thread0EEOT_RNSt16remove_referenceIS3_E4typeE(%"class.peterson::Thread0"** dereferenceable(8) %22) #3, !dbg !3463
  call void @_ZNSt12_Bind_simpleIFSt7_Mem_fnIMN8peterson7Thread0EFvvEEPS2_EEC2IS5_JS6_EEEOT_DpOT0_(%"struct.std::_Bind_simple"* %0, %"struct.std::_Mem_fn"* dereferenceable(16) %6, %"class.peterson::Thread0"** dereferenceable(8) %23), !dbg !3464
  ret void, !dbg !3465
}

; Function Attrs: nounwind uwtable
define linkonce_odr void @_ZNSt10unique_ptrINSt6thread6_StateESt14default_deleteIS1_EED2Ev(%"class.std::unique_ptr"*) unnamed_addr #4 comdat align 2 personality i8* bitcast (i32 (...)* @__gxx_personality_v0 to i8*) !dbg !3466 {
  %2 = alloca %"class.std::unique_ptr"*, align 8
  %3 = alloca %"struct.std::thread::_State"**, align 8
  store %"class.std::unique_ptr"* %0, %"class.std::unique_ptr"** %2, align 8
  call void @llvm.dbg.declare(metadata %"class.std::unique_ptr"** %2, metadata !3467, metadata !2769), !dbg !3469
  %4 = load %"class.std::unique_ptr"*, %"class.std::unique_ptr"** %2, align 8
  call void @llvm.dbg.declare(metadata %"struct.std::thread::_State"*** %3, metadata !3470, metadata !2769), !dbg !3472
  %5 = getelementptr inbounds %"class.std::unique_ptr", %"class.std::unique_ptr"* %4, i32 0, i32 0, !dbg !3473
  %6 = call dereferenceable(8) %"struct.std::thread::_State"** @_ZSt3getILm0EJPNSt6thread6_StateESt14default_deleteIS1_EEERNSt13tuple_elementIXT_ESt5tupleIJDpT0_EEE4typeERS9_(%"class.std::tuple"* dereferenceable(8) %5) #3, !dbg !3474
  store %"struct.std::thread::_State"** %6, %"struct.std::thread::_State"*** %3, align 8, !dbg !3472
  %7 = load %"struct.std::thread::_State"**, %"struct.std::thread::_State"*** %3, align 8, !dbg !3475
  %8 = load %"struct.std::thread::_State"*, %"struct.std::thread::_State"** %7, align 8, !dbg !3475
  %9 = icmp ne %"struct.std::thread::_State"* %8, null, !dbg !3477
  br i1 %9, label %10, label %15, !dbg !3478

; <label>:10:                                     ; preds = %1
  %11 = call dereferenceable(1) %"struct.std::default_delete"* @_ZNSt10unique_ptrINSt6thread6_StateESt14default_deleteIS1_EE11get_deleterEv(%"class.std::unique_ptr"* %4) #3, !dbg !3479
  %12 = load %"struct.std::thread::_State"**, %"struct.std::thread::_State"*** %3, align 8, !dbg !3480
  %13 = load %"struct.std::thread::_State"*, %"struct.std::thread::_State"** %12, align 8, !dbg !3480
  invoke void @_ZNKSt14default_deleteINSt6thread6_StateEEclEPS1_(%"struct.std::default_delete"* %11, %"struct.std::thread::_State"* %13)
          to label %14 unwind label %17, !dbg !3479

; <label>:14:                                     ; preds = %10
  br label %15, !dbg !3481

; <label>:15:                                     ; preds = %14, %1
  %16 = load %"struct.std::thread::_State"**, %"struct.std::thread::_State"*** %3, align 8, !dbg !3483
  store %"struct.std::thread::_State"* null, %"struct.std::thread::_State"** %16, align 8, !dbg !3484
  ret void, !dbg !3485

; <label>:17:                                     ; preds = %10
  %18 = landingpad { i8*, i32 }
          catch i8* null, !dbg !3486
  %19 = extractvalue { i8*, i32 } %18, 0, !dbg !3486
  call void @__clang_call_terminate(i8* %19) #14, !dbg !3486
  unreachable, !dbg !3486
}

; Function Attrs: nobuiltin
declare noalias i8* @_Znwm(i64) #10

; Function Attrs: nounwind uwtable
define linkonce_odr dereferenceable(24) %"struct.std::_Bind_simple"* @_ZSt7forwardISt12_Bind_simpleIFSt7_Mem_fnIMN8peterson7Thread0EFvvEEPS3_EEEOT_RNSt16remove_referenceISA_E4typeE(%"struct.std::_Bind_simple"* dereferenceable(24)) #4 comdat !dbg !3488 {
  %2 = alloca %"struct.std::_Bind_simple"*, align 8
  store %"struct.std::_Bind_simple"* %0, %"struct.std::_Bind_simple"** %2, align 8
  call void @llvm.dbg.declare(metadata %"struct.std::_Bind_simple"** %2, metadata !3496, metadata !2769), !dbg !3497
  %3 = load %"struct.std::_Bind_simple"*, %"struct.std::_Bind_simple"** %2, align 8, !dbg !3498
  ret %"struct.std::_Bind_simple"* %3, !dbg !3499
}

; Function Attrs: nounwind uwtable
define linkonce_odr void @_ZNSt6thread11_State_implISt12_Bind_simpleIFSt7_Mem_fnIMN8peterson7Thread0EFvvEEPS4_EEEC2EOSA_(%"struct.std::thread::_State_impl"*, %"struct.std::_Bind_simple"* dereferenceable(24)) unnamed_addr #4 comdat align 2 !dbg !3500 {
  %3 = alloca %"struct.std::thread::_State_impl"*, align 8
  %4 = alloca %"struct.std::_Bind_simple"*, align 8
  store %"struct.std::thread::_State_impl"* %0, %"struct.std::thread::_State_impl"** %3, align 8
  call void @llvm.dbg.declare(metadata %"struct.std::thread::_State_impl"** %3, metadata !3512, metadata !2769), !dbg !3514
  store %"struct.std::_Bind_simple"* %1, %"struct.std::_Bind_simple"** %4, align 8
  call void @llvm.dbg.declare(metadata %"struct.std::_Bind_simple"** %4, metadata !3515, metadata !2769), !dbg !3516
  %5 = load %"struct.std::thread::_State_impl"*, %"struct.std::thread::_State_impl"** %3, align 8
  %6 = bitcast %"struct.std::thread::_State_impl"* %5 to %"struct.std::thread::_State"*, !dbg !3517
  call void @_ZNSt6thread6_StateC2Ev(%"struct.std::thread::_State"* %6) #3, !dbg !3518
  %7 = bitcast %"struct.std::thread::_State_impl"* %5 to i32 (...)***, !dbg !3517
  store i32 (...)** bitcast (i8** getelementptr inbounds ([5 x i8*], [5 x i8*]* @_ZTVNSt6thread11_State_implISt12_Bind_simpleIFSt7_Mem_fnIMN8peterson7Thread0EFvvEEPS4_EEEE, i32 0, i32 2) to i32 (...)**), i32 (...)*** %7, align 8, !dbg !3517
  %8 = getelementptr inbounds %"struct.std::thread::_State_impl", %"struct.std::thread::_State_impl"* %5, i32 0, i32 1, !dbg !3519
  %9 = load %"struct.std::_Bind_simple"*, %"struct.std::_Bind_simple"** %4, align 8, !dbg !3520
  %10 = call dereferenceable(24) %"struct.std::_Bind_simple"* @_ZSt7forwardISt12_Bind_simpleIFSt7_Mem_fnIMN8peterson7Thread0EFvvEEPS3_EEEOT_RNSt16remove_referenceISA_E4typeE(%"struct.std::_Bind_simple"* dereferenceable(24) %9) #3, !dbg !3521
  call void @_ZNSt12_Bind_simpleIFSt7_Mem_fnIMN8peterson7Thread0EFvvEEPS2_EEC2EOS8_(%"struct.std::_Bind_simple"* %8, %"struct.std::_Bind_simple"* dereferenceable(24) %10) #3, !dbg !3523
  ret void, !dbg !3525
}

; Function Attrs: nobuiltin nounwind
declare void @_ZdlPv(i8*) #11

; Function Attrs: nounwind uwtable
define linkonce_odr void @_ZNSt10unique_ptrINSt6thread6_StateESt14default_deleteIS1_EEC2EPS1_(%"class.std::unique_ptr"*, %"struct.std::thread::_State"*) unnamed_addr #4 comdat align 2 personality i8* bitcast (i32 (...)* @__gxx_personality_v0 to i8*) !dbg !3526 {
  %3 = alloca %"class.std::unique_ptr"*, align 8
  %4 = alloca %"struct.std::thread::_State"*, align 8
  %5 = alloca %"struct.std::default_delete", align 1
  store %"class.std::unique_ptr"* %0, %"class.std::unique_ptr"** %3, align 8
  call void @llvm.dbg.declare(metadata %"class.std::unique_ptr"** %3, metadata !3527, metadata !2769), !dbg !3528
  store %"struct.std::thread::_State"* %1, %"struct.std::thread::_State"** %4, align 8
  call void @llvm.dbg.declare(metadata %"struct.std::thread::_State"** %4, metadata !3529, metadata !2769), !dbg !3530
  %6 = load %"class.std::unique_ptr"*, %"class.std::unique_ptr"** %3, align 8
  %7 = getelementptr inbounds %"class.std::unique_ptr", %"class.std::unique_ptr"* %6, i32 0, i32 0, !dbg !3531
  invoke void @_ZNSt5tupleIJPNSt6thread6_StateESt14default_deleteIS1_EEEC2IRS2_S4_Lb1EEEOT_OT0_(%"class.std::tuple"* %7, %"struct.std::thread::_State"** dereferenceable(8) %4, %"struct.std::default_delete"* dereferenceable(1) %5)
          to label %8 unwind label %9, !dbg !3531

; <label>:8:                                      ; preds = %2
  ret void, !dbg !3532

; <label>:9:                                      ; preds = %2
  %10 = landingpad { i8*, i32 }
          catch i8* null, !dbg !3533
  %11 = extractvalue { i8*, i32 } %10, 0, !dbg !3533
  call void @__clang_call_terminate(i8* %11) #14, !dbg !3533
  unreachable, !dbg !3533
}

; Function Attrs: inlinehint nounwind uwtable
define linkonce_odr void @_ZNSt6thread6_StateC2Ev(%"struct.std::thread::_State"*) unnamed_addr #7 comdat align 2 !dbg !3535 {
  %2 = alloca %"struct.std::thread::_State"*, align 8
  store %"struct.std::thread::_State"* %0, %"struct.std::thread::_State"** %2, align 8
  call void @llvm.dbg.declare(metadata %"struct.std::thread::_State"** %2, metadata !3540, metadata !2769), !dbg !3541
  %3 = load %"struct.std::thread::_State"*, %"struct.std::thread::_State"** %2, align 8
  %4 = bitcast %"struct.std::thread::_State"* %3 to i32 (...)***, !dbg !3542
  store i32 (...)** bitcast (i8** getelementptr inbounds ([5 x i8*], [5 x i8*]* @_ZTVNSt6thread6_StateE, i32 0, i32 2) to i32 (...)**), i32 (...)*** %4, align 8, !dbg !3542
  ret void, !dbg !3542
}

; Function Attrs: nounwind uwtable
define linkonce_odr void @_ZNSt12_Bind_simpleIFSt7_Mem_fnIMN8peterson7Thread0EFvvEEPS2_EEC2EOS8_(%"struct.std::_Bind_simple"*, %"struct.std::_Bind_simple"* dereferenceable(24)) unnamed_addr #4 comdat align 2 !dbg !3543 {
  %3 = alloca %"struct.std::_Bind_simple"*, align 8
  %4 = alloca %"struct.std::_Bind_simple"*, align 8
  store %"struct.std::_Bind_simple"* %0, %"struct.std::_Bind_simple"** %3, align 8
  call void @llvm.dbg.declare(metadata %"struct.std::_Bind_simple"** %3, metadata !3544, metadata !2769), !dbg !3546
  store %"struct.std::_Bind_simple"* %1, %"struct.std::_Bind_simple"** %4, align 8
  call void @llvm.dbg.declare(metadata %"struct.std::_Bind_simple"** %4, metadata !3547, metadata !2769), !dbg !3548
  %5 = load %"struct.std::_Bind_simple"*, %"struct.std::_Bind_simple"** %3, align 8
  %6 = getelementptr inbounds %"struct.std::_Bind_simple", %"struct.std::_Bind_simple"* %5, i32 0, i32 0, !dbg !3549
  %7 = load %"struct.std::_Bind_simple"*, %"struct.std::_Bind_simple"** %4, align 8, !dbg !3549
  %8 = getelementptr inbounds %"struct.std::_Bind_simple", %"struct.std::_Bind_simple"* %7, i32 0, i32 0, !dbg !3549
  call void @_ZNSt5tupleIJSt7_Mem_fnIMN8peterson7Thread0EFvvEEPS2_EEC2EOS7_(%"class.std::tuple.3"* %6, %"class.std::tuple.3"* dereferenceable(24) %8) #3, !dbg !3549
  ret void, !dbg !3549
}

; Function Attrs: inlinehint nounwind uwtable
define linkonce_odr void @_ZNSt6thread11_State_implISt12_Bind_simpleIFSt7_Mem_fnIMN8peterson7Thread0EFvvEEPS4_EEED2Ev(%"struct.std::thread::_State_impl"*) unnamed_addr #7 comdat align 2 !dbg !3550 {
  %2 = alloca %"struct.std::thread::_State_impl"*, align 8
  store %"struct.std::thread::_State_impl"* %0, %"struct.std::thread::_State_impl"** %2, align 8
  call void @llvm.dbg.declare(metadata %"struct.std::thread::_State_impl"** %2, metadata !3552, metadata !2769), !dbg !3553
  %3 = load %"struct.std::thread::_State_impl"*, %"struct.std::thread::_State_impl"** %2, align 8
  %4 = bitcast %"struct.std::thread::_State_impl"* %3 to %"struct.std::thread::_State"*, !dbg !3554
  call void @_ZNSt6thread6_StateD2Ev(%"struct.std::thread::_State"* %4) #3, !dbg !3554
  ret void, !dbg !3556
}

; Function Attrs: inlinehint nounwind uwtable
define linkonce_odr void @_ZNSt6thread11_State_implISt12_Bind_simpleIFSt7_Mem_fnIMN8peterson7Thread0EFvvEEPS4_EEED0Ev(%"struct.std::thread::_State_impl"*) unnamed_addr #7 comdat align 2 !dbg !3557 {
  %2 = alloca %"struct.std::thread::_State_impl"*, align 8
  store %"struct.std::thread::_State_impl"* %0, %"struct.std::thread::_State_impl"** %2, align 8
  call void @llvm.dbg.declare(metadata %"struct.std::thread::_State_impl"** %2, metadata !3558, metadata !2769), !dbg !3559
  %3 = load %"struct.std::thread::_State_impl"*, %"struct.std::thread::_State_impl"** %2, align 8
  call void @_ZNSt6thread11_State_implISt12_Bind_simpleIFSt7_Mem_fnIMN8peterson7Thread0EFvvEEPS4_EEED2Ev(%"struct.std::thread::_State_impl"* %3) #3, !dbg !3560
  %4 = bitcast %"struct.std::thread::_State_impl"* %3 to i8*, !dbg !3560
  call void @_ZdlPv(i8* %4) #16, !dbg !3561
  ret void, !dbg !3560
}

; Function Attrs: uwtable
define linkonce_odr void @_ZNSt6thread11_State_implISt12_Bind_simpleIFSt7_Mem_fnIMN8peterson7Thread0EFvvEEPS4_EEE6_M_runEv(%"struct.std::thread::_State_impl"*) unnamed_addr #0 comdat align 2 !dbg !3563 {
  %2 = alloca %"struct.std::thread::_State_impl"*, align 8
  store %"struct.std::thread::_State_impl"* %0, %"struct.std::thread::_State_impl"** %2, align 8
  call void @llvm.dbg.declare(metadata %"struct.std::thread::_State_impl"** %2, metadata !3564, metadata !2769), !dbg !3565
  %3 = load %"struct.std::thread::_State_impl"*, %"struct.std::thread::_State_impl"** %2, align 8
  %4 = getelementptr inbounds %"struct.std::thread::_State_impl", %"struct.std::thread::_State_impl"* %3, i32 0, i32 1, !dbg !3566
  call void @_ZNSt12_Bind_simpleIFSt7_Mem_fnIMN8peterson7Thread0EFvvEEPS2_EEclEv(%"struct.std::_Bind_simple"* %4), !dbg !3566
  ret void, !dbg !3567
}

; Function Attrs: nounwind uwtable
define linkonce_odr void @_ZNSt5tupleIJSt7_Mem_fnIMN8peterson7Thread0EFvvEEPS2_EEC2EOS7_(%"class.std::tuple.3"*, %"class.std::tuple.3"* dereferenceable(24)) unnamed_addr #4 comdat align 2 !dbg !3568 {
  %3 = alloca %"class.std::tuple.3"*, align 8
  %4 = alloca %"class.std::tuple.3"*, align 8
  store %"class.std::tuple.3"* %0, %"class.std::tuple.3"** %3, align 8
  call void @llvm.dbg.declare(metadata %"class.std::tuple.3"** %3, metadata !3569, metadata !2769), !dbg !3571
  store %"class.std::tuple.3"* %1, %"class.std::tuple.3"** %4, align 8
  call void @llvm.dbg.declare(metadata %"class.std::tuple.3"** %4, metadata !3572, metadata !2769), !dbg !3573
  %5 = load %"class.std::tuple.3"*, %"class.std::tuple.3"** %3, align 8
  %6 = bitcast %"class.std::tuple.3"* %5 to %"struct.std::_Tuple_impl.4"*, !dbg !3574
  %7 = load %"class.std::tuple.3"*, %"class.std::tuple.3"** %4, align 8, !dbg !3574
  %8 = bitcast %"class.std::tuple.3"* %7 to %"struct.std::_Tuple_impl.4"*, !dbg !3574
  call void @_ZNSt11_Tuple_implILm0EJSt7_Mem_fnIMN8peterson7Thread0EFvvEEPS2_EEC2EOS7_(%"struct.std::_Tuple_impl.4"* %6, %"struct.std::_Tuple_impl.4"* dereferenceable(24) %8) #3, !dbg !3574
  ret void, !dbg !3574
}

; Function Attrs: nounwind uwtable
define linkonce_odr void @_ZNSt11_Tuple_implILm0EJSt7_Mem_fnIMN8peterson7Thread0EFvvEEPS2_EEC2EOS7_(%"struct.std::_Tuple_impl.4"*, %"struct.std::_Tuple_impl.4"* dereferenceable(24)) unnamed_addr #4 comdat align 2 personality i8* bitcast (i32 (...)* @__gxx_personality_v0 to i8*) !dbg !3575 {
  %3 = alloca %"struct.std::_Tuple_impl.4"*, align 8
  %4 = alloca %"struct.std::_Tuple_impl.4"*, align 8
  store %"struct.std::_Tuple_impl.4"* %0, %"struct.std::_Tuple_impl.4"** %3, align 8
  call void @llvm.dbg.declare(metadata %"struct.std::_Tuple_impl.4"** %3, metadata !3576, metadata !2769), !dbg !3578
  store %"struct.std::_Tuple_impl.4"* %1, %"struct.std::_Tuple_impl.4"** %4, align 8
  call void @llvm.dbg.declare(metadata %"struct.std::_Tuple_impl.4"** %4, metadata !3579, metadata !2769), !dbg !3580
  %5 = load %"struct.std::_Tuple_impl.4"*, %"struct.std::_Tuple_impl.4"** %3, align 8
  %6 = bitcast %"struct.std::_Tuple_impl.4"* %5 to %"struct.std::_Tuple_impl.5"*, !dbg !3581
  %7 = load %"struct.std::_Tuple_impl.4"*, %"struct.std::_Tuple_impl.4"** %4, align 8, !dbg !3582
  %8 = call dereferenceable(8) %"struct.std::_Tuple_impl.5"* @_ZNSt11_Tuple_implILm0EJSt7_Mem_fnIMN8peterson7Thread0EFvvEEPS2_EE7_M_tailERS7_(%"struct.std::_Tuple_impl.4"* dereferenceable(24) %7) #3, !dbg !3583
  %9 = call dereferenceable(8) %"struct.std::_Tuple_impl.5"* @_ZSt4moveIRSt11_Tuple_implILm1EJPN8peterson7Thread0EEEEONSt16remove_referenceIT_E4typeEOS7_(%"struct.std::_Tuple_impl.5"* dereferenceable(8) %8) #3, !dbg !3584
  call void @_ZNSt11_Tuple_implILm1EJPN8peterson7Thread0EEEC2EOS3_(%"struct.std::_Tuple_impl.5"* %6, %"struct.std::_Tuple_impl.5"* dereferenceable(8) %9) #3, !dbg !3586
  %10 = bitcast %"struct.std::_Tuple_impl.4"* %5 to i8*, !dbg !3581
  %11 = getelementptr inbounds i8, i8* %10, i64 8, !dbg !3581
  %12 = bitcast i8* %11 to %"struct.std::_Head_base.7"*, !dbg !3581
  %13 = load %"struct.std::_Tuple_impl.4"*, %"struct.std::_Tuple_impl.4"** %4, align 8, !dbg !3588
  %14 = call dereferenceable(16) %"struct.std::_Mem_fn"* @_ZNSt11_Tuple_implILm0EJSt7_Mem_fnIMN8peterson7Thread0EFvvEEPS2_EE7_M_headERS7_(%"struct.std::_Tuple_impl.4"* dereferenceable(24) %13) #3, !dbg !3589
  %15 = call dereferenceable(16) %"struct.std::_Mem_fn"* @_ZSt7forwardISt7_Mem_fnIMN8peterson7Thread0EFvvEEEOT_RNSt16remove_referenceIS6_E4typeE(%"struct.std::_Mem_fn"* dereferenceable(16) %14) #3, !dbg !3590
  invoke void @_ZNSt10_Head_baseILm0ESt7_Mem_fnIMN8peterson7Thread0EFvvEELb0EEC2IS5_EEOT_(%"struct.std::_Head_base.7"* %12, %"struct.std::_Mem_fn"* dereferenceable(16) %15)
          to label %16 unwind label %17, !dbg !3592

; <label>:16:                                     ; preds = %2
  ret void, !dbg !3593

; <label>:17:                                     ; preds = %2
  %18 = landingpad { i8*, i32 }
          catch i8* null, !dbg !3594
  %19 = extractvalue { i8*, i32 } %18, 0, !dbg !3594
  call void @__clang_call_terminate(i8* %19) #14, !dbg !3594
  unreachable, !dbg !3594
}

; Function Attrs: nounwind uwtable
define linkonce_odr dereferenceable(8) %"struct.std::_Tuple_impl.5"* @_ZSt4moveIRSt11_Tuple_implILm1EJPN8peterson7Thread0EEEEONSt16remove_referenceIT_E4typeEOS7_(%"struct.std::_Tuple_impl.5"* dereferenceable(8)) #4 comdat !dbg !3595 {
  %2 = alloca %"struct.std::_Tuple_impl.5"*, align 8
  store %"struct.std::_Tuple_impl.5"* %0, %"struct.std::_Tuple_impl.5"** %2, align 8
  call void @llvm.dbg.declare(metadata %"struct.std::_Tuple_impl.5"** %2, metadata !3603, metadata !2769), !dbg !3604
  %3 = load %"struct.std::_Tuple_impl.5"*, %"struct.std::_Tuple_impl.5"** %2, align 8, !dbg !3605
  ret %"struct.std::_Tuple_impl.5"* %3, !dbg !3606
}

; Function Attrs: nounwind uwtable
define linkonce_odr dereferenceable(8) %"struct.std::_Tuple_impl.5"* @_ZNSt11_Tuple_implILm0EJSt7_Mem_fnIMN8peterson7Thread0EFvvEEPS2_EE7_M_tailERS7_(%"struct.std::_Tuple_impl.4"* dereferenceable(24)) #4 comdat align 2 !dbg !3607 {
  %2 = alloca %"struct.std::_Tuple_impl.4"*, align 8
  store %"struct.std::_Tuple_impl.4"* %0, %"struct.std::_Tuple_impl.4"** %2, align 8
  call void @llvm.dbg.declare(metadata %"struct.std::_Tuple_impl.4"** %2, metadata !3608, metadata !2769), !dbg !3609
  %3 = load %"struct.std::_Tuple_impl.4"*, %"struct.std::_Tuple_impl.4"** %2, align 8, !dbg !3610
  %4 = bitcast %"struct.std::_Tuple_impl.4"* %3 to %"struct.std::_Tuple_impl.5"*, !dbg !3610
  ret %"struct.std::_Tuple_impl.5"* %4, !dbg !3611
}

; Function Attrs: nounwind uwtable
define linkonce_odr void @_ZNSt11_Tuple_implILm1EJPN8peterson7Thread0EEEC2EOS3_(%"struct.std::_Tuple_impl.5"*, %"struct.std::_Tuple_impl.5"* dereferenceable(8)) unnamed_addr #4 comdat align 2 personality i8* bitcast (i32 (...)* @__gxx_personality_v0 to i8*) !dbg !3612 {
  %3 = alloca %"struct.std::_Tuple_impl.5"*, align 8
  %4 = alloca %"struct.std::_Tuple_impl.5"*, align 8
  store %"struct.std::_Tuple_impl.5"* %0, %"struct.std::_Tuple_impl.5"** %3, align 8
  call void @llvm.dbg.declare(metadata %"struct.std::_Tuple_impl.5"** %3, metadata !3613, metadata !2769), !dbg !3615
  store %"struct.std::_Tuple_impl.5"* %1, %"struct.std::_Tuple_impl.5"** %4, align 8
  call void @llvm.dbg.declare(metadata %"struct.std::_Tuple_impl.5"** %4, metadata !3616, metadata !2769), !dbg !3617
  %5 = load %"struct.std::_Tuple_impl.5"*, %"struct.std::_Tuple_impl.5"** %3, align 8
  %6 = bitcast %"struct.std::_Tuple_impl.5"* %5 to %"struct.std::_Head_base.6"*, !dbg !3618
  %7 = load %"struct.std::_Tuple_impl.5"*, %"struct.std::_Tuple_impl.5"** %4, align 8, !dbg !3619
  %8 = call dereferenceable(8) %"class.peterson::Thread0"** @_ZNSt11_Tuple_implILm1EJPN8peterson7Thread0EEE7_M_headERS3_(%"struct.std::_Tuple_impl.5"* dereferenceable(8) %7) #3, !dbg !3620
  %9 = call dereferenceable(8) %"class.peterson::Thread0"** @_ZSt7forwardIPN8peterson7Thread0EEOT_RNSt16remove_referenceIS3_E4typeE(%"class.peterson::Thread0"** dereferenceable(8) %8) #3, !dbg !3621
  invoke void @_ZNSt10_Head_baseILm1EPN8peterson7Thread0ELb0EEC2IS2_EEOT_(%"struct.std::_Head_base.6"* %6, %"class.peterson::Thread0"** dereferenceable(8) %9)
          to label %10 unwind label %11, !dbg !3623

; <label>:10:                                     ; preds = %2
  ret void, !dbg !3624

; <label>:11:                                     ; preds = %2
  %12 = landingpad { i8*, i32 }
          catch i8* null, !dbg !3626
  %13 = extractvalue { i8*, i32 } %12, 0, !dbg !3626
  call void @__clang_call_terminate(i8* %13) #14, !dbg !3626
  unreachable, !dbg !3626
}

; Function Attrs: nounwind uwtable
define linkonce_odr dereferenceable(16) %"struct.std::_Mem_fn"* @_ZSt7forwardISt7_Mem_fnIMN8peterson7Thread0EFvvEEEOT_RNSt16remove_referenceIS6_E4typeE(%"struct.std::_Mem_fn"* dereferenceable(16)) #4 comdat !dbg !3628 {
  %2 = alloca %"struct.std::_Mem_fn"*, align 8
  store %"struct.std::_Mem_fn"* %0, %"struct.std::_Mem_fn"** %2, align 8
  call void @llvm.dbg.declare(metadata %"struct.std::_Mem_fn"** %2, metadata !3637, metadata !2769), !dbg !3638
  %3 = load %"struct.std::_Mem_fn"*, %"struct.std::_Mem_fn"** %2, align 8, !dbg !3639
  ret %"struct.std::_Mem_fn"* %3, !dbg !3640
}

; Function Attrs: nounwind uwtable
define linkonce_odr dereferenceable(16) %"struct.std::_Mem_fn"* @_ZNSt11_Tuple_implILm0EJSt7_Mem_fnIMN8peterson7Thread0EFvvEEPS2_EE7_M_headERS7_(%"struct.std::_Tuple_impl.4"* dereferenceable(24)) #4 comdat align 2 !dbg !3641 {
  %2 = alloca %"struct.std::_Tuple_impl.4"*, align 8
  store %"struct.std::_Tuple_impl.4"* %0, %"struct.std::_Tuple_impl.4"** %2, align 8
  call void @llvm.dbg.declare(metadata %"struct.std::_Tuple_impl.4"** %2, metadata !3642, metadata !2769), !dbg !3643
  %3 = load %"struct.std::_Tuple_impl.4"*, %"struct.std::_Tuple_impl.4"** %2, align 8, !dbg !3644
  %4 = bitcast %"struct.std::_Tuple_impl.4"* %3 to i8*, !dbg !3644
  %5 = getelementptr inbounds i8, i8* %4, i64 8, !dbg !3644
  %6 = bitcast i8* %5 to %"struct.std::_Head_base.7"*, !dbg !3644
  %7 = call dereferenceable(16) %"struct.std::_Mem_fn"* @_ZNSt10_Head_baseILm0ESt7_Mem_fnIMN8peterson7Thread0EFvvEELb0EE7_M_headERS6_(%"struct.std::_Head_base.7"* dereferenceable(16) %6) #3, !dbg !3645
  ret %"struct.std::_Mem_fn"* %7, !dbg !3646
}

; Function Attrs: nounwind uwtable
define linkonce_odr void @_ZNSt10_Head_baseILm0ESt7_Mem_fnIMN8peterson7Thread0EFvvEELb0EEC2IS5_EEOT_(%"struct.std::_Head_base.7"*, %"struct.std::_Mem_fn"* dereferenceable(16)) unnamed_addr #4 comdat align 2 !dbg !3647 {
  %3 = alloca %"struct.std::_Head_base.7"*, align 8
  %4 = alloca %"struct.std::_Mem_fn"*, align 8
  store %"struct.std::_Head_base.7"* %0, %"struct.std::_Head_base.7"** %3, align 8
  call void @llvm.dbg.declare(metadata %"struct.std::_Head_base.7"** %3, metadata !3653, metadata !2769), !dbg !3655
  store %"struct.std::_Mem_fn"* %1, %"struct.std::_Mem_fn"** %4, align 8
  call void @llvm.dbg.declare(metadata %"struct.std::_Mem_fn"** %4, metadata !3656, metadata !2769), !dbg !3657
  %5 = load %"struct.std::_Head_base.7"*, %"struct.std::_Head_base.7"** %3, align 8
  %6 = getelementptr inbounds %"struct.std::_Head_base.7", %"struct.std::_Head_base.7"* %5, i32 0, i32 0, !dbg !3658
  %7 = load %"struct.std::_Mem_fn"*, %"struct.std::_Mem_fn"** %4, align 8, !dbg !3659
  %8 = call dereferenceable(16) %"struct.std::_Mem_fn"* @_ZSt7forwardISt7_Mem_fnIMN8peterson7Thread0EFvvEEEOT_RNSt16remove_referenceIS6_E4typeE(%"struct.std::_Mem_fn"* dereferenceable(16) %7) #3, !dbg !3660
  %9 = bitcast %"struct.std::_Mem_fn"* %6 to i8*, !dbg !3658
  %10 = bitcast %"struct.std::_Mem_fn"* %8 to i8*, !dbg !3658
  call void @llvm.memcpy.p0i8.p0i8.i64(i8* %9, i8* %10, i64 16, i32 8, i1 false), !dbg !3661
  ret void, !dbg !3663
}

; Function Attrs: noinline noreturn nounwind
define linkonce_odr hidden void @__clang_call_terminate(i8*) #12 comdat {
  %2 = call i8* @__cxa_begin_catch(i8* %0) #3
  call void @_ZSt9terminatev() #14
  unreachable
}

declare i8* @__cxa_begin_catch(i8*)

; Function Attrs: nounwind uwtable
define linkonce_odr dereferenceable(8) %"class.peterson::Thread0"** @_ZNSt11_Tuple_implILm1EJPN8peterson7Thread0EEE7_M_headERS3_(%"struct.std::_Tuple_impl.5"* dereferenceable(8)) #4 comdat align 2 !dbg !3664 {
  %2 = alloca %"struct.std::_Tuple_impl.5"*, align 8
  store %"struct.std::_Tuple_impl.5"* %0, %"struct.std::_Tuple_impl.5"** %2, align 8
  call void @llvm.dbg.declare(metadata %"struct.std::_Tuple_impl.5"** %2, metadata !3665, metadata !2769), !dbg !3666
  %3 = load %"struct.std::_Tuple_impl.5"*, %"struct.std::_Tuple_impl.5"** %2, align 8, !dbg !3667
  %4 = bitcast %"struct.std::_Tuple_impl.5"* %3 to %"struct.std::_Head_base.6"*, !dbg !3667
  %5 = call dereferenceable(8) %"class.peterson::Thread0"** @_ZNSt10_Head_baseILm1EPN8peterson7Thread0ELb0EE7_M_headERS3_(%"struct.std::_Head_base.6"* dereferenceable(8) %4) #3, !dbg !3668
  ret %"class.peterson::Thread0"** %5, !dbg !3669
}

; Function Attrs: nounwind uwtable
define linkonce_odr void @_ZNSt10_Head_baseILm1EPN8peterson7Thread0ELb0EEC2IS2_EEOT_(%"struct.std::_Head_base.6"*, %"class.peterson::Thread0"** dereferenceable(8)) unnamed_addr #4 comdat align 2 !dbg !3670 {
  %3 = alloca %"struct.std::_Head_base.6"*, align 8
  %4 = alloca %"class.peterson::Thread0"**, align 8
  store %"struct.std::_Head_base.6"* %0, %"struct.std::_Head_base.6"** %3, align 8
  call void @llvm.dbg.declare(metadata %"struct.std::_Head_base.6"** %3, metadata !3676, metadata !2769), !dbg !3678
  store %"class.peterson::Thread0"** %1, %"class.peterson::Thread0"*** %4, align 8
  call void @llvm.dbg.declare(metadata %"class.peterson::Thread0"*** %4, metadata !3679, metadata !2769), !dbg !3680
  %5 = load %"struct.std::_Head_base.6"*, %"struct.std::_Head_base.6"** %3, align 8
  %6 = getelementptr inbounds %"struct.std::_Head_base.6", %"struct.std::_Head_base.6"* %5, i32 0, i32 0, !dbg !3681
  %7 = load %"class.peterson::Thread0"**, %"class.peterson::Thread0"*** %4, align 8, !dbg !3682
  %8 = call dereferenceable(8) %"class.peterson::Thread0"** @_ZSt7forwardIPN8peterson7Thread0EEOT_RNSt16remove_referenceIS3_E4typeE(%"class.peterson::Thread0"** dereferenceable(8) %7) #3, !dbg !3683
  %9 = load %"class.peterson::Thread0"*, %"class.peterson::Thread0"** %8, align 8, !dbg !3683
  store %"class.peterson::Thread0"* %9, %"class.peterson::Thread0"** %6, align 8, !dbg !3681
  ret void, !dbg !3684
}

; Function Attrs: nounwind uwtable
define linkonce_odr dereferenceable(8) %"class.peterson::Thread0"** @_ZNSt10_Head_baseILm1EPN8peterson7Thread0ELb0EE7_M_headERS3_(%"struct.std::_Head_base.6"* dereferenceable(8)) #4 comdat align 2 !dbg !3685 {
  %2 = alloca %"struct.std::_Head_base.6"*, align 8
  store %"struct.std::_Head_base.6"* %0, %"struct.std::_Head_base.6"** %2, align 8
  call void @llvm.dbg.declare(metadata %"struct.std::_Head_base.6"** %2, metadata !3686, metadata !2769), !dbg !3687
  %3 = load %"struct.std::_Head_base.6"*, %"struct.std::_Head_base.6"** %2, align 8, !dbg !3688
  %4 = getelementptr inbounds %"struct.std::_Head_base.6", %"struct.std::_Head_base.6"* %3, i32 0, i32 0, !dbg !3689
  ret %"class.peterson::Thread0"** %4, !dbg !3690
}

; Function Attrs: nounwind uwtable
define linkonce_odr dereferenceable(16) %"struct.std::_Mem_fn"* @_ZNSt10_Head_baseILm0ESt7_Mem_fnIMN8peterson7Thread0EFvvEELb0EE7_M_headERS6_(%"struct.std::_Head_base.7"* dereferenceable(16)) #4 comdat align 2 !dbg !3691 {
  %2 = alloca %"struct.std::_Head_base.7"*, align 8
  store %"struct.std::_Head_base.7"* %0, %"struct.std::_Head_base.7"** %2, align 8
  call void @llvm.dbg.declare(metadata %"struct.std::_Head_base.7"** %2, metadata !3692, metadata !2769), !dbg !3693
  %3 = load %"struct.std::_Head_base.7"*, %"struct.std::_Head_base.7"** %2, align 8, !dbg !3694
  %4 = getelementptr inbounds %"struct.std::_Head_base.7", %"struct.std::_Head_base.7"* %3, i32 0, i32 0, !dbg !3695
  ret %"struct.std::_Mem_fn"* %4, !dbg !3696
}

; Function Attrs: nounwind
declare void @_ZNSt6thread6_StateD2Ev(%"struct.std::thread::_State"*) unnamed_addr #2

; Function Attrs: uwtable
define linkonce_odr void @_ZNSt12_Bind_simpleIFSt7_Mem_fnIMN8peterson7Thread0EFvvEEPS2_EEclEv(%"struct.std::_Bind_simple"*) #0 comdat align 2 !dbg !3697 {
  %2 = alloca %"struct.std::_Bind_simple"*, align 8
  %3 = alloca %"struct.std::_Index_tuple", align 1
  store %"struct.std::_Bind_simple"* %0, %"struct.std::_Bind_simple"** %2, align 8
  call void @llvm.dbg.declare(metadata %"struct.std::_Bind_simple"** %2, metadata !3698, metadata !2769), !dbg !3699
  %4 = load %"struct.std::_Bind_simple"*, %"struct.std::_Bind_simple"** %2, align 8
  call void @_ZNSt12_Bind_simpleIFSt7_Mem_fnIMN8peterson7Thread0EFvvEEPS2_EE9_M_invokeIJLm0EEEEvSt12_Index_tupleIJXspT_EEE(%"struct.std::_Bind_simple"* %4), !dbg !3700
  ret void, !dbg !3701
}

; Function Attrs: uwtable
define linkonce_odr void @_ZNSt12_Bind_simpleIFSt7_Mem_fnIMN8peterson7Thread0EFvvEEPS2_EE9_M_invokeIJLm0EEEEvSt12_Index_tupleIJXspT_EEE(%"struct.std::_Bind_simple"*) #0 comdat align 2 !dbg !3702 {
  %2 = alloca %"struct.std::_Index_tuple", align 1
  %3 = alloca %"struct.std::_Bind_simple"*, align 8
  store %"struct.std::_Bind_simple"* %0, %"struct.std::_Bind_simple"** %3, align 8
  call void @llvm.dbg.declare(metadata %"struct.std::_Bind_simple"** %3, metadata !3714, metadata !2769), !dbg !3715
  call void @llvm.dbg.declare(metadata %"struct.std::_Index_tuple"* %2, metadata !3716, metadata !2769), !dbg !3717
  %4 = load %"struct.std::_Bind_simple"*, %"struct.std::_Bind_simple"** %3, align 8
  %5 = getelementptr inbounds %"struct.std::_Bind_simple", %"struct.std::_Bind_simple"* %4, i32 0, i32 0, !dbg !3718
  %6 = call dereferenceable(16) %"struct.std::_Mem_fn"* @_ZSt3getILm0EJSt7_Mem_fnIMN8peterson7Thread0EFvvEEPS2_EERNSt13tuple_elementIXT_ESt5tupleIJDpT0_EEE4typeERSB_(%"class.std::tuple.3"* dereferenceable(24) %5) #3, !dbg !3719
  %7 = call dereferenceable(16) %"struct.std::_Mem_fn"* @_ZSt7forwardISt7_Mem_fnIMN8peterson7Thread0EFvvEEEOT_RNSt16remove_referenceIS6_E4typeE(%"struct.std::_Mem_fn"* dereferenceable(16) %6) #3, !dbg !3720
  %8 = bitcast %"struct.std::_Mem_fn"* %7 to %"class.std::_Mem_fn_base"*, !dbg !3722
  %9 = getelementptr inbounds %"struct.std::_Bind_simple", %"struct.std::_Bind_simple"* %4, i32 0, i32 0, !dbg !3723
  %10 = call dereferenceable(8) %"class.peterson::Thread0"** @_ZSt3getILm1EJSt7_Mem_fnIMN8peterson7Thread0EFvvEEPS2_EERNSt13tuple_elementIXT_ESt5tupleIJDpT0_EEE4typeERSB_(%"class.std::tuple.3"* dereferenceable(24) %9) #3, !dbg !3724
  %11 = call dereferenceable(8) %"class.peterson::Thread0"** @_ZSt7forwardIPN8peterson7Thread0EEOT_RNSt16remove_referenceIS3_E4typeE(%"class.peterson::Thread0"** dereferenceable(8) %10) #3, !dbg !3725
  call void @_ZNKSt12_Mem_fn_baseIMN8peterson7Thread0EFvvELb1EEclIJPS1_EEEDTclsr3stdE8__invokedtdefpT6_M_pmfspclsr3stdE7forwardIT_Efp_EEEDpOS7_(%"class.std::_Mem_fn_base"* %8, %"class.peterson::Thread0"** dereferenceable(8) %11), !dbg !3726
  ret void, !dbg !3728
}

; Function Attrs: nounwind uwtable
define linkonce_odr dereferenceable(16) %"struct.std::_Mem_fn"* @_ZSt3getILm0EJSt7_Mem_fnIMN8peterson7Thread0EFvvEEPS2_EERNSt13tuple_elementIXT_ESt5tupleIJDpT0_EEE4typeERSB_(%"class.std::tuple.3"* dereferenceable(24)) #4 comdat !dbg !3729 {
  %2 = alloca %"class.std::tuple.3"*, align 8
  store %"class.std::tuple.3"* %0, %"class.std::tuple.3"** %2, align 8
  call void @llvm.dbg.declare(metadata %"class.std::tuple.3"** %2, metadata !3741, metadata !2769), !dbg !3742
  %3 = load %"class.std::tuple.3"*, %"class.std::tuple.3"** %2, align 8, !dbg !3743
  %4 = bitcast %"class.std::tuple.3"* %3 to %"struct.std::_Tuple_impl.4"*, !dbg !3743
  %5 = call dereferenceable(16) %"struct.std::_Mem_fn"* @_ZSt12__get_helperILm0ESt7_Mem_fnIMN8peterson7Thread0EFvvEEJPS2_EERT0_RSt11_Tuple_implIXT_EJS7_DpT1_EE(%"struct.std::_Tuple_impl.4"* dereferenceable(24) %4) #3, !dbg !3744
  ret %"struct.std::_Mem_fn"* %5, !dbg !3745
}

; Function Attrs: uwtable
define linkonce_odr void @_ZNKSt12_Mem_fn_baseIMN8peterson7Thread0EFvvELb1EEclIJPS1_EEEDTclsr3stdE8__invokedtdefpT6_M_pmfspclsr3stdE7forwardIT_Efp_EEEDpOS7_(%"class.std::_Mem_fn_base"*, %"class.peterson::Thread0"** dereferenceable(8)) #0 comdat align 2 !dbg !3746 {
  %3 = alloca %"class.std::_Mem_fn_base"*, align 8
  %4 = alloca %"class.peterson::Thread0"**, align 8
  store %"class.std::_Mem_fn_base"* %0, %"class.std::_Mem_fn_base"** %3, align 8
  call void @llvm.dbg.declare(metadata %"class.std::_Mem_fn_base"** %3, metadata !3753, metadata !2769), !dbg !3755
  store %"class.peterson::Thread0"** %1, %"class.peterson::Thread0"*** %4, align 8
  call void @llvm.dbg.declare(metadata %"class.peterson::Thread0"*** %4, metadata !3756, metadata !2769), !dbg !3757
  %5 = load %"class.std::_Mem_fn_base"*, %"class.std::_Mem_fn_base"** %3, align 8
  %6 = getelementptr inbounds %"class.std::_Mem_fn_base", %"class.std::_Mem_fn_base"* %5, i32 0, i32 0, !dbg !3758
  %7 = load %"class.peterson::Thread0"**, %"class.peterson::Thread0"*** %4, align 8, !dbg !3759
  %8 = call dereferenceable(8) %"class.peterson::Thread0"** @_ZSt7forwardIPN8peterson7Thread0EEOT_RNSt16remove_referenceIS3_E4typeE(%"class.peterson::Thread0"** dereferenceable(8) %7) #3, !dbg !3760
  call void @_ZSt8__invokeIRKMN8peterson7Thread0EFvvEJPS1_EENSt9result_ofIFOT_DpOT0_EE4typeES9_SC_({ i64, i64 }* dereferenceable(16) %6, %"class.peterson::Thread0"** dereferenceable(8) %8), !dbg !3761
  ret void, !dbg !3763
}

; Function Attrs: nounwind uwtable
define linkonce_odr dereferenceable(8) %"class.peterson::Thread0"** @_ZSt3getILm1EJSt7_Mem_fnIMN8peterson7Thread0EFvvEEPS2_EERNSt13tuple_elementIXT_ESt5tupleIJDpT0_EEE4typeERSB_(%"class.std::tuple.3"* dereferenceable(24)) #4 comdat !dbg !3764 {
  %2 = alloca %"class.std::tuple.3"*, align 8
  store %"class.std::tuple.3"* %0, %"class.std::tuple.3"** %2, align 8
  call void @llvm.dbg.declare(metadata %"class.std::tuple.3"** %2, metadata !3776, metadata !2769), !dbg !3777
  %3 = load %"class.std::tuple.3"*, %"class.std::tuple.3"** %2, align 8, !dbg !3778
  %4 = bitcast %"class.std::tuple.3"* %3 to %"struct.std::_Tuple_impl.5"*, !dbg !3778
  %5 = call dereferenceable(8) %"class.peterson::Thread0"** @_ZSt12__get_helperILm1EPN8peterson7Thread0EJEERT0_RSt11_Tuple_implIXT_EJS3_DpT1_EE(%"struct.std::_Tuple_impl.5"* dereferenceable(8) %4) #3, !dbg !3779
  ret %"class.peterson::Thread0"** %5, !dbg !3780
}

; Function Attrs: nounwind uwtable
define linkonce_odr dereferenceable(16) %"struct.std::_Mem_fn"* @_ZSt12__get_helperILm0ESt7_Mem_fnIMN8peterson7Thread0EFvvEEJPS2_EERT0_RSt11_Tuple_implIXT_EJS7_DpT1_EE(%"struct.std::_Tuple_impl.4"* dereferenceable(24)) #4 comdat !dbg !3781 {
  %2 = alloca %"struct.std::_Tuple_impl.4"*, align 8
  store %"struct.std::_Tuple_impl.4"* %0, %"struct.std::_Tuple_impl.4"** %2, align 8
  call void @llvm.dbg.declare(metadata %"struct.std::_Tuple_impl.4"** %2, metadata !3784, metadata !2769), !dbg !3785
  %3 = load %"struct.std::_Tuple_impl.4"*, %"struct.std::_Tuple_impl.4"** %2, align 8, !dbg !3786
  %4 = call dereferenceable(16) %"struct.std::_Mem_fn"* @_ZNSt11_Tuple_implILm0EJSt7_Mem_fnIMN8peterson7Thread0EFvvEEPS2_EE7_M_headERS7_(%"struct.std::_Tuple_impl.4"* dereferenceable(24) %3) #3, !dbg !3787
  ret %"struct.std::_Mem_fn"* %4, !dbg !3788
}

; Function Attrs: inlinehint uwtable
define linkonce_odr void @_ZSt8__invokeIRKMN8peterson7Thread0EFvvEJPS1_EENSt9result_ofIFOT_DpOT0_EE4typeES9_SC_({ i64, i64 }* dereferenceable(16), %"class.peterson::Thread0"** dereferenceable(8)) #13 comdat !dbg !42 {
  %3 = alloca { i64, i64 }*, align 8
  %4 = alloca %"class.peterson::Thread0"**, align 8
  %5 = alloca %"struct.std::__invoke_memfun_deref", align 1
  store { i64, i64 }* %0, { i64, i64 }** %3, align 8
  call void @llvm.dbg.declare(metadata { i64, i64 }** %3, metadata !3789, metadata !2769), !dbg !3790
  store %"class.peterson::Thread0"** %1, %"class.peterson::Thread0"*** %4, align 8
  call void @llvm.dbg.declare(metadata %"class.peterson::Thread0"*** %4, metadata !3791, metadata !2769), !dbg !3792
  %6 = load { i64, i64 }*, { i64, i64 }** %3, align 8, !dbg !3793
  %7 = call dereferenceable(16) { i64, i64 }* @_ZSt7forwardIRKMN8peterson7Thread0EFvvEEOT_RNSt16remove_referenceIS6_E4typeE({ i64, i64 }* dereferenceable(16) %6) #3, !dbg !3794
  %8 = load %"class.peterson::Thread0"**, %"class.peterson::Thread0"*** %4, align 8, !dbg !3795
  %9 = call dereferenceable(8) %"class.peterson::Thread0"** @_ZSt7forwardIPN8peterson7Thread0EEOT_RNSt16remove_referenceIS3_E4typeE(%"class.peterson::Thread0"** dereferenceable(8) %8) #3, !dbg !3796
  call void @_ZSt13__invoke_implIvRKMN8peterson7Thread0EFvvEPS1_JEET_St21__invoke_memfun_derefOT0_OT1_DpOT2_({ i64, i64 }* dereferenceable(16) %7, %"class.peterson::Thread0"** dereferenceable(8) %9), !dbg !3797
  ret void, !dbg !3799
}

; Function Attrs: inlinehint uwtable
define linkonce_odr void @_ZSt13__invoke_implIvRKMN8peterson7Thread0EFvvEPS1_JEET_St21__invoke_memfun_derefOT0_OT1_DpOT2_({ i64, i64 }* dereferenceable(16), %"class.peterson::Thread0"** dereferenceable(8)) #13 comdat !dbg !3800 {
  %3 = alloca %"struct.std::__invoke_memfun_deref", align 1
  %4 = alloca { i64, i64 }*, align 8
  %5 = alloca %"class.peterson::Thread0"**, align 8
  call void @llvm.dbg.declare(metadata %"struct.std::__invoke_memfun_deref"* %3, metadata !3806, metadata !2769), !dbg !3807
  store { i64, i64 }* %0, { i64, i64 }** %4, align 8
  call void @llvm.dbg.declare(metadata { i64, i64 }** %4, metadata !3808, metadata !2769), !dbg !3809
  store %"class.peterson::Thread0"** %1, %"class.peterson::Thread0"*** %5, align 8
  call void @llvm.dbg.declare(metadata %"class.peterson::Thread0"*** %5, metadata !3810, metadata !2769), !dbg !3811
  %6 = load { i64, i64 }*, { i64, i64 }** %4, align 8, !dbg !3812
  %7 = load { i64, i64 }, { i64, i64 }* %6, align 8, !dbg !3812
  %8 = load %"class.peterson::Thread0"**, %"class.peterson::Thread0"*** %5, align 8, !dbg !3813
  %9 = call dereferenceable(8) %"class.peterson::Thread0"** @_ZSt7forwardIPN8peterson7Thread0EEOT_RNSt16remove_referenceIS3_E4typeE(%"class.peterson::Thread0"** dereferenceable(8) %8) #3, !dbg !3814
  %10 = load %"class.peterson::Thread0"*, %"class.peterson::Thread0"** %9, align 8, !dbg !3814
  %11 = extractvalue { i64, i64 } %7, 1, !dbg !3815
  %12 = bitcast %"class.peterson::Thread0"* %10 to i8*, !dbg !3815
  %13 = getelementptr inbounds i8, i8* %12, i64 %11, !dbg !3815
  %14 = bitcast i8* %13 to %"class.peterson::Thread0"*, !dbg !3815
  %15 = extractvalue { i64, i64 } %7, 0, !dbg !3815
  %16 = and i64 %15, 1, !dbg !3815
  %17 = icmp ne i64 %16, 0, !dbg !3815
  br i1 %17, label %18, label %25, !dbg !3815

; <label>:18:                                     ; preds = %2
  %19 = bitcast %"class.peterson::Thread0"* %14 to i8**, !dbg !3816
  %20 = load i8*, i8** %19, align 8, !dbg !3816
  %21 = sub i64 %15, 1, !dbg !3816
  %22 = getelementptr i8, i8* %20, i64 %21, !dbg !3816
  %23 = bitcast i8* %22 to void (%"class.peterson::Thread0"*)**, !dbg !3816
  %24 = load void (%"class.peterson::Thread0"*)*, void (%"class.peterson::Thread0"*)** %23, align 8, !dbg !3816
  br label %27, !dbg !3816

; <label>:25:                                     ; preds = %2
  %26 = inttoptr i64 %15 to void (%"class.peterson::Thread0"*)*, !dbg !3818
  br label %27, !dbg !3818

; <label>:27:                                     ; preds = %25, %18
  %28 = phi void (%"class.peterson::Thread0"*)* [ %24, %18 ], [ %26, %25 ], !dbg !3820
  call void %28(%"class.peterson::Thread0"* %14), !dbg !3820
  ret void, !dbg !3822
}

; Function Attrs: nounwind uwtable
define linkonce_odr dereferenceable(16) { i64, i64 }* @_ZSt7forwardIRKMN8peterson7Thread0EFvvEEOT_RNSt16remove_referenceIS6_E4typeE({ i64, i64 }* dereferenceable(16)) #4 comdat !dbg !3823 {
  %2 = alloca { i64, i64 }*, align 8
  store { i64, i64 }* %0, { i64, i64 }** %2, align 8
  call void @llvm.dbg.declare(metadata { i64, i64 }** %2, metadata !3831, metadata !2769), !dbg !3832
  %3 = load { i64, i64 }*, { i64, i64 }** %2, align 8, !dbg !3833
  ret { i64, i64 }* %3, !dbg !3834
}

; Function Attrs: nounwind uwtable
define linkonce_odr dereferenceable(8) %"class.peterson::Thread0"** @_ZSt12__get_helperILm1EPN8peterson7Thread0EJEERT0_RSt11_Tuple_implIXT_EJS3_DpT1_EE(%"struct.std::_Tuple_impl.5"* dereferenceable(8)) #4 comdat !dbg !3835 {
  %2 = alloca %"struct.std::_Tuple_impl.5"*, align 8
  store %"struct.std::_Tuple_impl.5"* %0, %"struct.std::_Tuple_impl.5"** %2, align 8
  call void @llvm.dbg.declare(metadata %"struct.std::_Tuple_impl.5"** %2, metadata !3838, metadata !2769), !dbg !3839
  %3 = load %"struct.std::_Tuple_impl.5"*, %"struct.std::_Tuple_impl.5"** %2, align 8, !dbg !3840
  %4 = call dereferenceable(8) %"class.peterson::Thread0"** @_ZNSt11_Tuple_implILm1EJPN8peterson7Thread0EEE7_M_headERS3_(%"struct.std::_Tuple_impl.5"* dereferenceable(8) %3) #3, !dbg !3841
  ret %"class.peterson::Thread0"** %4, !dbg !3842
}

; Function Attrs: uwtable
define linkonce_odr void @_ZNSt5tupleIJPNSt6thread6_StateESt14default_deleteIS1_EEEC2IRS2_S4_Lb1EEEOT_OT0_(%"class.std::tuple"*, %"struct.std::thread::_State"** dereferenceable(8), %"struct.std::default_delete"* dereferenceable(1)) unnamed_addr #0 comdat align 2 !dbg !3843 {
  %4 = alloca %"class.std::tuple"*, align 8
  %5 = alloca %"struct.std::thread::_State"**, align 8
  %6 = alloca %"struct.std::default_delete"*, align 8
  store %"class.std::tuple"* %0, %"class.std::tuple"** %4, align 8
  call void @llvm.dbg.declare(metadata %"class.std::tuple"** %4, metadata !3851, metadata !2769), !dbg !3853
  store %"struct.std::thread::_State"** %1, %"struct.std::thread::_State"*** %5, align 8
  call void @llvm.dbg.declare(metadata %"struct.std::thread::_State"*** %5, metadata !3854, metadata !2769), !dbg !3855
  store %"struct.std::default_delete"* %2, %"struct.std::default_delete"** %6, align 8
  call void @llvm.dbg.declare(metadata %"struct.std::default_delete"** %6, metadata !3856, metadata !2769), !dbg !3857
  %7 = load %"class.std::tuple"*, %"class.std::tuple"** %4, align 8
  %8 = bitcast %"class.std::tuple"* %7 to %"struct.std::_Tuple_impl"*, !dbg !3858
  %9 = load %"struct.std::thread::_State"**, %"struct.std::thread::_State"*** %5, align 8, !dbg !3859
  %10 = call dereferenceable(8) %"struct.std::thread::_State"** @_ZSt7forwardIRPNSt6thread6_StateEEOT_RNSt16remove_referenceIS4_E4typeE(%"struct.std::thread::_State"** dereferenceable(8) %9) #3, !dbg !3860
  %11 = load %"struct.std::default_delete"*, %"struct.std::default_delete"** %6, align 8, !dbg !3861
  %12 = call dereferenceable(1) %"struct.std::default_delete"* @_ZSt7forwardISt14default_deleteINSt6thread6_StateEEEOT_RNSt16remove_referenceIS4_E4typeE(%"struct.std::default_delete"* dereferenceable(1) %11) #3, !dbg !3862
  call void @_ZNSt11_Tuple_implILm0EJPNSt6thread6_StateESt14default_deleteIS1_EEEC2IRS2_JS4_EvEEOT_DpOT0_(%"struct.std::_Tuple_impl"* %8, %"struct.std::thread::_State"** dereferenceable(8) %10, %"struct.std::default_delete"* dereferenceable(1) %12), !dbg !3864
  ret void, !dbg !3866
}

; Function Attrs: nounwind uwtable
define linkonce_odr dereferenceable(8) %"struct.std::thread::_State"** @_ZSt7forwardIRPNSt6thread6_StateEEOT_RNSt16remove_referenceIS4_E4typeE(%"struct.std::thread::_State"** dereferenceable(8)) #4 comdat !dbg !3867 {
  %2 = alloca %"struct.std::thread::_State"**, align 8
  store %"struct.std::thread::_State"** %0, %"struct.std::thread::_State"*** %2, align 8
  call void @llvm.dbg.declare(metadata %"struct.std::thread::_State"*** %2, metadata !3875, metadata !2769), !dbg !3876
  %3 = load %"struct.std::thread::_State"**, %"struct.std::thread::_State"*** %2, align 8, !dbg !3877
  ret %"struct.std::thread::_State"** %3, !dbg !3878
}

; Function Attrs: nounwind uwtable
define linkonce_odr dereferenceable(1) %"struct.std::default_delete"* @_ZSt7forwardISt14default_deleteINSt6thread6_StateEEEOT_RNSt16remove_referenceIS4_E4typeE(%"struct.std::default_delete"* dereferenceable(1)) #4 comdat !dbg !3879 {
  %2 = alloca %"struct.std::default_delete"*, align 8
  store %"struct.std::default_delete"* %0, %"struct.std::default_delete"** %2, align 8
  call void @llvm.dbg.declare(metadata %"struct.std::default_delete"** %2, metadata !3883, metadata !2769), !dbg !3884
  %3 = load %"struct.std::default_delete"*, %"struct.std::default_delete"** %2, align 8, !dbg !3885
  ret %"struct.std::default_delete"* %3, !dbg !3886
}

; Function Attrs: uwtable
define linkonce_odr void @_ZNSt11_Tuple_implILm0EJPNSt6thread6_StateESt14default_deleteIS1_EEEC2IRS2_JS4_EvEEOT_DpOT0_(%"struct.std::_Tuple_impl"*, %"struct.std::thread::_State"** dereferenceable(8), %"struct.std::default_delete"* dereferenceable(1)) unnamed_addr #0 comdat align 2 !dbg !3887 {
  %4 = alloca %"struct.std::_Tuple_impl"*, align 8
  %5 = alloca %"struct.std::thread::_State"**, align 8
  %6 = alloca %"struct.std::default_delete"*, align 8
  store %"struct.std::_Tuple_impl"* %0, %"struct.std::_Tuple_impl"** %4, align 8
  call void @llvm.dbg.declare(metadata %"struct.std::_Tuple_impl"** %4, metadata !3895, metadata !2769), !dbg !3897
  store %"struct.std::thread::_State"** %1, %"struct.std::thread::_State"*** %5, align 8
  call void @llvm.dbg.declare(metadata %"struct.std::thread::_State"*** %5, metadata !3898, metadata !2769), !dbg !3899
  store %"struct.std::default_delete"* %2, %"struct.std::default_delete"** %6, align 8
  call void @llvm.dbg.declare(metadata %"struct.std::default_delete"** %6, metadata !3900, metadata !2769), !dbg !3901
  %7 = load %"struct.std::_Tuple_impl"*, %"struct.std::_Tuple_impl"** %4, align 8
  %8 = bitcast %"struct.std::_Tuple_impl"* %7 to %"struct.std::_Tuple_impl.1"*, !dbg !3902
  %9 = load %"struct.std::default_delete"*, %"struct.std::default_delete"** %6, align 8, !dbg !3903
  %10 = call dereferenceable(1) %"struct.std::default_delete"* @_ZSt7forwardISt14default_deleteINSt6thread6_StateEEEOT_RNSt16remove_referenceIS4_E4typeE(%"struct.std::default_delete"* dereferenceable(1) %9) #3, !dbg !3904
  call void @_ZNSt11_Tuple_implILm1EJSt14default_deleteINSt6thread6_StateEEEEC2IS3_EEOT_(%"struct.std::_Tuple_impl.1"* %8, %"struct.std::default_delete"* dereferenceable(1) %10), !dbg !3905
  %11 = bitcast %"struct.std::_Tuple_impl"* %7 to %"struct.std::_Head_base.2"*, !dbg !3902
  %12 = load %"struct.std::thread::_State"**, %"struct.std::thread::_State"*** %5, align 8, !dbg !3907
  %13 = call dereferenceable(8) %"struct.std::thread::_State"** @_ZSt7forwardIRPNSt6thread6_StateEEOT_RNSt16remove_referenceIS4_E4typeE(%"struct.std::thread::_State"** dereferenceable(8) %12) #3, !dbg !3908
  call void @_ZNSt10_Head_baseILm0EPNSt6thread6_StateELb0EEC2IRS2_EEOT_(%"struct.std::_Head_base.2"* %11, %"struct.std::thread::_State"** dereferenceable(8) %13), !dbg !3909
  ret void, !dbg !3910
}

; Function Attrs: uwtable
define linkonce_odr void @_ZNSt11_Tuple_implILm1EJSt14default_deleteINSt6thread6_StateEEEEC2IS3_EEOT_(%"struct.std::_Tuple_impl.1"*, %"struct.std::default_delete"* dereferenceable(1)) unnamed_addr #0 comdat align 2 !dbg !3911 {
  %3 = alloca %"struct.std::_Tuple_impl.1"*, align 8
  %4 = alloca %"struct.std::default_delete"*, align 8
  store %"struct.std::_Tuple_impl.1"* %0, %"struct.std::_Tuple_impl.1"** %3, align 8
  call void @llvm.dbg.declare(metadata %"struct.std::_Tuple_impl.1"** %3, metadata !3917, metadata !2769), !dbg !3919
  store %"struct.std::default_delete"* %1, %"struct.std::default_delete"** %4, align 8
  call void @llvm.dbg.declare(metadata %"struct.std::default_delete"** %4, metadata !3920, metadata !2769), !dbg !3921
  %5 = load %"struct.std::_Tuple_impl.1"*, %"struct.std::_Tuple_impl.1"** %3, align 8
  %6 = bitcast %"struct.std::_Tuple_impl.1"* %5 to %"struct.std::_Head_base"*, !dbg !3922
  %7 = load %"struct.std::default_delete"*, %"struct.std::default_delete"** %4, align 8, !dbg !3923
  %8 = call dereferenceable(1) %"struct.std::default_delete"* @_ZSt7forwardISt14default_deleteINSt6thread6_StateEEEOT_RNSt16remove_referenceIS4_E4typeE(%"struct.std::default_delete"* dereferenceable(1) %7) #3, !dbg !3924
  call void @_ZNSt10_Head_baseILm1ESt14default_deleteINSt6thread6_StateEELb1EEC2IS3_EEOT_(%"struct.std::_Head_base"* %6, %"struct.std::default_delete"* dereferenceable(1) %8), !dbg !3925
  ret void, !dbg !3927
}

; Function Attrs: nounwind uwtable
define linkonce_odr void @_ZNSt10_Head_baseILm0EPNSt6thread6_StateELb0EEC2IRS2_EEOT_(%"struct.std::_Head_base.2"*, %"struct.std::thread::_State"** dereferenceable(8)) unnamed_addr #4 comdat align 2 !dbg !3928 {
  %3 = alloca %"struct.std::_Head_base.2"*, align 8
  %4 = alloca %"struct.std::thread::_State"**, align 8
  store %"struct.std::_Head_base.2"* %0, %"struct.std::_Head_base.2"** %3, align 8
  call void @llvm.dbg.declare(metadata %"struct.std::_Head_base.2"** %3, metadata !3933, metadata !2769), !dbg !3935
  store %"struct.std::thread::_State"** %1, %"struct.std::thread::_State"*** %4, align 8
  call void @llvm.dbg.declare(metadata %"struct.std::thread::_State"*** %4, metadata !3936, metadata !2769), !dbg !3937
  %5 = load %"struct.std::_Head_base.2"*, %"struct.std::_Head_base.2"** %3, align 8
  %6 = getelementptr inbounds %"struct.std::_Head_base.2", %"struct.std::_Head_base.2"* %5, i32 0, i32 0, !dbg !3938
  %7 = load %"struct.std::thread::_State"**, %"struct.std::thread::_State"*** %4, align 8, !dbg !3939
  %8 = call dereferenceable(8) %"struct.std::thread::_State"** @_ZSt7forwardIRPNSt6thread6_StateEEOT_RNSt16remove_referenceIS4_E4typeE(%"struct.std::thread::_State"** dereferenceable(8) %7) #3, !dbg !3940
  %9 = load %"struct.std::thread::_State"*, %"struct.std::thread::_State"** %8, align 8, !dbg !3940
  store %"struct.std::thread::_State"* %9, %"struct.std::thread::_State"** %6, align 8, !dbg !3938
  ret void, !dbg !3941
}

; Function Attrs: nounwind uwtable
define linkonce_odr void @_ZNSt10_Head_baseILm1ESt14default_deleteINSt6thread6_StateEELb1EEC2IS3_EEOT_(%"struct.std::_Head_base"*, %"struct.std::default_delete"* dereferenceable(1)) unnamed_addr #4 comdat align 2 !dbg !3942 {
  %3 = alloca %"struct.std::_Head_base"*, align 8
  %4 = alloca %"struct.std::default_delete"*, align 8
  store %"struct.std::_Head_base"* %0, %"struct.std::_Head_base"** %3, align 8
  call void @llvm.dbg.declare(metadata %"struct.std::_Head_base"** %3, metadata !3946, metadata !2769), !dbg !3948
  store %"struct.std::default_delete"* %1, %"struct.std::default_delete"** %4, align 8
  call void @llvm.dbg.declare(metadata %"struct.std::default_delete"** %4, metadata !3949, metadata !2769), !dbg !3950
  %5 = load %"struct.std::_Head_base"*, %"struct.std::_Head_base"** %3, align 8
  %6 = bitcast %"struct.std::_Head_base"* %5 to %"struct.std::default_delete"*, !dbg !3951
  %7 = load %"struct.std::default_delete"*, %"struct.std::default_delete"** %4, align 8, !dbg !3952
  %8 = call dereferenceable(1) %"struct.std::default_delete"* @_ZSt7forwardISt14default_deleteINSt6thread6_StateEEEOT_RNSt16remove_referenceIS4_E4typeE(%"struct.std::default_delete"* dereferenceable(1) %7) #3, !dbg !3953
  ret void, !dbg !3954
}

; Function Attrs: nounwind uwtable
define linkonce_odr { i64, i64 } @_ZNSt26_Maybe_wrap_member_pointerIMN8peterson7Thread0EFvvEE9__do_wrapES3_(i64, i64) #4 comdat align 2 !dbg !3955 {
  %3 = alloca %"struct.std::_Mem_fn", align 8
  %4 = alloca { i64, i64 }, align 8
  %5 = alloca { i64, i64 }, align 8
  %6 = alloca { i64, i64 }, align 8
  %7 = getelementptr inbounds { i64, i64 }, { i64, i64 }* %4, i32 0, i32 0
  store i64 %0, i64* %7, align 8
  %8 = getelementptr inbounds { i64, i64 }, { i64, i64 }* %4, i32 0, i32 1
  store i64 %1, i64* %8, align 8
  %9 = load { i64, i64 }, { i64, i64 }* %4, align 8
  store { i64, i64 } %9, { i64, i64 }* %5, align 8
  call void @llvm.dbg.declare(metadata { i64, i64 }* %5, metadata !3956, metadata !2769), !dbg !3957
  %10 = load { i64, i64 }, { i64, i64 }* %5, align 8, !dbg !3958
  store { i64, i64 } %10, { i64, i64 }* %6, align 8, !dbg !3959
  %11 = getelementptr inbounds { i64, i64 }, { i64, i64 }* %6, i32 0, i32 0, !dbg !3959
  %12 = load i64, i64* %11, align 8, !dbg !3959
  %13 = getelementptr inbounds { i64, i64 }, { i64, i64 }* %6, i32 0, i32 1, !dbg !3959
  %14 = load i64, i64* %13, align 8, !dbg !3959
  call void @_ZNSt7_Mem_fnIMN8peterson7Thread0EFvvEECI2St12_Mem_fn_baseIS3_Lb1EEES3_(%"struct.std::_Mem_fn"* %3, i64 %12, i64 %14) #3, !dbg !3959
  %15 = getelementptr inbounds %"struct.std::_Mem_fn", %"struct.std::_Mem_fn"* %3, i32 0, i32 0, !dbg !3960
  %16 = getelementptr inbounds %"class.std::_Mem_fn_base", %"class.std::_Mem_fn_base"* %15, i32 0, i32 0, !dbg !3960
  %17 = load { i64, i64 }, { i64, i64 }* %16, align 8, !dbg !3960
  ret { i64, i64 } %17, !dbg !3960
}

; Function Attrs: uwtable
define linkonce_odr void @_ZNSt12_Bind_simpleIFSt7_Mem_fnIMN8peterson7Thread0EFvvEEPS2_EEC2IS5_JS6_EEEOT_DpOT0_(%"struct.std::_Bind_simple"*, %"struct.std::_Mem_fn"* dereferenceable(16), %"class.peterson::Thread0"** dereferenceable(8)) unnamed_addr #0 comdat align 2 !dbg !3961 {
  %4 = alloca %"struct.std::_Bind_simple"*, align 8
  %5 = alloca %"struct.std::_Mem_fn"*, align 8
  %6 = alloca %"class.peterson::Thread0"**, align 8
  store %"struct.std::_Bind_simple"* %0, %"struct.std::_Bind_simple"** %4, align 8
  call void @llvm.dbg.declare(metadata %"struct.std::_Bind_simple"** %4, metadata !3967, metadata !2769), !dbg !3968
  store %"struct.std::_Mem_fn"* %1, %"struct.std::_Mem_fn"** %5, align 8
  call void @llvm.dbg.declare(metadata %"struct.std::_Mem_fn"** %5, metadata !3969, metadata !2769), !dbg !3970
  store %"class.peterson::Thread0"** %2, %"class.peterson::Thread0"*** %6, align 8
  call void @llvm.dbg.declare(metadata %"class.peterson::Thread0"*** %6, metadata !3971, metadata !2769), !dbg !3972
  %7 = load %"struct.std::_Bind_simple"*, %"struct.std::_Bind_simple"** %4, align 8
  %8 = getelementptr inbounds %"struct.std::_Bind_simple", %"struct.std::_Bind_simple"* %7, i32 0, i32 0, !dbg !3973
  %9 = load %"struct.std::_Mem_fn"*, %"struct.std::_Mem_fn"** %5, align 8, !dbg !3974
  %10 = call dereferenceable(16) %"struct.std::_Mem_fn"* @_ZSt7forwardISt7_Mem_fnIMN8peterson7Thread0EFvvEEEOT_RNSt16remove_referenceIS6_E4typeE(%"struct.std::_Mem_fn"* dereferenceable(16) %9) #3, !dbg !3975
  %11 = load %"class.peterson::Thread0"**, %"class.peterson::Thread0"*** %6, align 8, !dbg !3976
  %12 = call dereferenceable(8) %"class.peterson::Thread0"** @_ZSt7forwardIPN8peterson7Thread0EEOT_RNSt16remove_referenceIS3_E4typeE(%"class.peterson::Thread0"** dereferenceable(8) %11) #3, !dbg !3977
  call void @_ZNSt5tupleIJSt7_Mem_fnIMN8peterson7Thread0EFvvEEPS2_EEC2IS5_S6_Lb1EEEOT_OT0_(%"class.std::tuple.3"* %8, %"struct.std::_Mem_fn"* dereferenceable(16) %10, %"class.peterson::Thread0"** dereferenceable(8) %12), !dbg !3979
  ret void, !dbg !3981
}

; Function Attrs: inlinehint nounwind uwtable
define linkonce_odr void @_ZNSt7_Mem_fnIMN8peterson7Thread0EFvvEECI2St12_Mem_fn_baseIS3_Lb1EEES3_(%"struct.std::_Mem_fn"*, i64, i64) unnamed_addr #7 comdat align 2 !dbg !3982 {
  %4 = alloca { i64, i64 }, align 8
  %5 = alloca %"struct.std::_Mem_fn"*, align 8
  %6 = alloca { i64, i64 }, align 8
  %7 = alloca { i64, i64 }, align 8
  %8 = getelementptr inbounds { i64, i64 }, { i64, i64 }* %4, i32 0, i32 0
  store i64 %1, i64* %8, align 8
  %9 = getelementptr inbounds { i64, i64 }, { i64, i64 }* %4, i32 0, i32 1
  store i64 %2, i64* %9, align 8
  %10 = load { i64, i64 }, { i64, i64 }* %4, align 8
  store %"struct.std::_Mem_fn"* %0, %"struct.std::_Mem_fn"** %5, align 8
  call void @llvm.dbg.declare(metadata %"struct.std::_Mem_fn"** %5, metadata !3987, metadata !2769), !dbg !3989
  store { i64, i64 } %10, { i64, i64 }* %6, align 8
  call void @llvm.dbg.declare(metadata { i64, i64 }* %6, metadata !3990, metadata !2769), !dbg !3989
  %11 = load %"struct.std::_Mem_fn"*, %"struct.std::_Mem_fn"** %5, align 8
  %12 = bitcast %"struct.std::_Mem_fn"* %11 to %"class.std::_Mem_fn_base"*, !dbg !3991
  %13 = load { i64, i64 }, { i64, i64 }* %6, align 8, !dbg !3991
  store { i64, i64 } %13, { i64, i64 }* %7, align 8, !dbg !3991
  %14 = getelementptr inbounds { i64, i64 }, { i64, i64 }* %7, i32 0, i32 0, !dbg !3991
  %15 = load i64, i64* %14, align 8, !dbg !3991
  %16 = getelementptr inbounds { i64, i64 }, { i64, i64 }* %7, i32 0, i32 1, !dbg !3991
  %17 = load i64, i64* %16, align 8, !dbg !3991
  call void @_ZNSt12_Mem_fn_baseIMN8peterson7Thread0EFvvELb1EEC2ES3_(%"class.std::_Mem_fn_base"* %12, i64 %15, i64 %17) #3, !dbg !3991
  ret void, !dbg !3991
}

; Function Attrs: nounwind uwtable
define linkonce_odr void @_ZNSt12_Mem_fn_baseIMN8peterson7Thread0EFvvELb1EEC2ES3_(%"class.std::_Mem_fn_base"*, i64, i64) unnamed_addr #4 comdat align 2 !dbg !3992 {
  %4 = alloca { i64, i64 }, align 8
  %5 = alloca %"class.std::_Mem_fn_base"*, align 8
  %6 = alloca { i64, i64 }, align 8
  %7 = getelementptr inbounds { i64, i64 }, { i64, i64 }* %4, i32 0, i32 0
  store i64 %1, i64* %7, align 8
  %8 = getelementptr inbounds { i64, i64 }, { i64, i64 }* %4, i32 0, i32 1
  store i64 %2, i64* %8, align 8
  %9 = load { i64, i64 }, { i64, i64 }* %4, align 8
  store %"class.std::_Mem_fn_base"* %0, %"class.std::_Mem_fn_base"** %5, align 8
  call void @llvm.dbg.declare(metadata %"class.std::_Mem_fn_base"** %5, metadata !3993, metadata !2769), !dbg !3995
  store { i64, i64 } %9, { i64, i64 }* %6, align 8
  call void @llvm.dbg.declare(metadata { i64, i64 }* %6, metadata !3996, metadata !2769), !dbg !3997
  %10 = load %"class.std::_Mem_fn_base"*, %"class.std::_Mem_fn_base"** %5, align 8
  %11 = bitcast %"class.std::_Mem_fn_base"* %10 to %"struct.std::_Maybe_unary_or_binary_function"*, !dbg !3998
  %12 = getelementptr inbounds %"class.std::_Mem_fn_base", %"class.std::_Mem_fn_base"* %10, i32 0, i32 0, !dbg !3999
  %13 = load { i64, i64 }, { i64, i64 }* %6, align 8, !dbg !4000
  store { i64, i64 } %13, { i64, i64 }* %12, align 8, !dbg !3999
  ret void, !dbg !4001
}

; Function Attrs: uwtable
define linkonce_odr void @_ZNSt5tupleIJSt7_Mem_fnIMN8peterson7Thread0EFvvEEPS2_EEC2IS5_S6_Lb1EEEOT_OT0_(%"class.std::tuple.3"*, %"struct.std::_Mem_fn"* dereferenceable(16), %"class.peterson::Thread0"** dereferenceable(8)) unnamed_addr #0 comdat align 2 !dbg !4002 {
  %4 = alloca %"class.std::tuple.3"*, align 8
  %5 = alloca %"struct.std::_Mem_fn"*, align 8
  %6 = alloca %"class.peterson::Thread0"**, align 8
  store %"class.std::tuple.3"* %0, %"class.std::tuple.3"** %4, align 8
  call void @llvm.dbg.declare(metadata %"class.std::tuple.3"** %4, metadata !4009, metadata !2769), !dbg !4010
  store %"struct.std::_Mem_fn"* %1, %"struct.std::_Mem_fn"** %5, align 8
  call void @llvm.dbg.declare(metadata %"struct.std::_Mem_fn"** %5, metadata !4011, metadata !2769), !dbg !4012
  store %"class.peterson::Thread0"** %2, %"class.peterson::Thread0"*** %6, align 8
  call void @llvm.dbg.declare(metadata %"class.peterson::Thread0"*** %6, metadata !4013, metadata !2769), !dbg !4014
  %7 = load %"class.std::tuple.3"*, %"class.std::tuple.3"** %4, align 8
  %8 = bitcast %"class.std::tuple.3"* %7 to %"struct.std::_Tuple_impl.4"*, !dbg !4015
  %9 = load %"struct.std::_Mem_fn"*, %"struct.std::_Mem_fn"** %5, align 8, !dbg !4016
  %10 = call dereferenceable(16) %"struct.std::_Mem_fn"* @_ZSt7forwardISt7_Mem_fnIMN8peterson7Thread0EFvvEEEOT_RNSt16remove_referenceIS6_E4typeE(%"struct.std::_Mem_fn"* dereferenceable(16) %9) #3, !dbg !4017
  %11 = load %"class.peterson::Thread0"**, %"class.peterson::Thread0"*** %6, align 8, !dbg !4018
  %12 = call dereferenceable(8) %"class.peterson::Thread0"** @_ZSt7forwardIPN8peterson7Thread0EEOT_RNSt16remove_referenceIS3_E4typeE(%"class.peterson::Thread0"** dereferenceable(8) %11) #3, !dbg !4019
  call void @_ZNSt11_Tuple_implILm0EJSt7_Mem_fnIMN8peterson7Thread0EFvvEEPS2_EEC2IS5_JS6_EvEEOT_DpOT0_(%"struct.std::_Tuple_impl.4"* %8, %"struct.std::_Mem_fn"* dereferenceable(16) %10, %"class.peterson::Thread0"** dereferenceable(8) %12), !dbg !4021
  ret void, !dbg !4023
}

; Function Attrs: uwtable
define linkonce_odr void @_ZNSt11_Tuple_implILm0EJSt7_Mem_fnIMN8peterson7Thread0EFvvEEPS2_EEC2IS5_JS6_EvEEOT_DpOT0_(%"struct.std::_Tuple_impl.4"*, %"struct.std::_Mem_fn"* dereferenceable(16), %"class.peterson::Thread0"** dereferenceable(8)) unnamed_addr #0 comdat align 2 !dbg !4024 {
  %4 = alloca %"struct.std::_Tuple_impl.4"*, align 8
  %5 = alloca %"struct.std::_Mem_fn"*, align 8
  %6 = alloca %"class.peterson::Thread0"**, align 8
  store %"struct.std::_Tuple_impl.4"* %0, %"struct.std::_Tuple_impl.4"** %4, align 8
  call void @llvm.dbg.declare(metadata %"struct.std::_Tuple_impl.4"** %4, metadata !4030, metadata !2769), !dbg !4031
  store %"struct.std::_Mem_fn"* %1, %"struct.std::_Mem_fn"** %5, align 8
  call void @llvm.dbg.declare(metadata %"struct.std::_Mem_fn"** %5, metadata !4032, metadata !2769), !dbg !4033
  store %"class.peterson::Thread0"** %2, %"class.peterson::Thread0"*** %6, align 8
  call void @llvm.dbg.declare(metadata %"class.peterson::Thread0"*** %6, metadata !4034, metadata !2769), !dbg !4035
  %7 = load %"struct.std::_Tuple_impl.4"*, %"struct.std::_Tuple_impl.4"** %4, align 8
  %8 = bitcast %"struct.std::_Tuple_impl.4"* %7 to %"struct.std::_Tuple_impl.5"*, !dbg !4036
  %9 = load %"class.peterson::Thread0"**, %"class.peterson::Thread0"*** %6, align 8, !dbg !4037
  %10 = call dereferenceable(8) %"class.peterson::Thread0"** @_ZSt7forwardIPN8peterson7Thread0EEOT_RNSt16remove_referenceIS3_E4typeE(%"class.peterson::Thread0"** dereferenceable(8) %9) #3, !dbg !4038
  call void @_ZNSt11_Tuple_implILm1EJPN8peterson7Thread0EEEC2IS2_EEOT_(%"struct.std::_Tuple_impl.5"* %8, %"class.peterson::Thread0"** dereferenceable(8) %10), !dbg !4039
  %11 = bitcast %"struct.std::_Tuple_impl.4"* %7 to i8*, !dbg !4036
  %12 = getelementptr inbounds i8, i8* %11, i64 8, !dbg !4036
  %13 = bitcast i8* %12 to %"struct.std::_Head_base.7"*, !dbg !4036
  %14 = load %"struct.std::_Mem_fn"*, %"struct.std::_Mem_fn"** %5, align 8, !dbg !4041
  %15 = call dereferenceable(16) %"struct.std::_Mem_fn"* @_ZSt7forwardISt7_Mem_fnIMN8peterson7Thread0EFvvEEEOT_RNSt16remove_referenceIS6_E4typeE(%"struct.std::_Mem_fn"* dereferenceable(16) %14) #3, !dbg !4042
  call void @_ZNSt10_Head_baseILm0ESt7_Mem_fnIMN8peterson7Thread0EFvvEELb0EEC2IS5_EEOT_(%"struct.std::_Head_base.7"* %13, %"struct.std::_Mem_fn"* dereferenceable(16) %15), !dbg !4043
  ret void, !dbg !4044
}

; Function Attrs: nounwind uwtable
define linkonce_odr void @_ZNSt11_Tuple_implILm1EJPN8peterson7Thread0EEEC2IS2_EEOT_(%"struct.std::_Tuple_impl.5"*, %"class.peterson::Thread0"** dereferenceable(8)) unnamed_addr #4 comdat align 2 !dbg !4045 {
  %3 = alloca %"struct.std::_Tuple_impl.5"*, align 8
  %4 = alloca %"class.peterson::Thread0"**, align 8
  store %"struct.std::_Tuple_impl.5"* %0, %"struct.std::_Tuple_impl.5"** %3, align 8
  call void @llvm.dbg.declare(metadata %"struct.std::_Tuple_impl.5"** %3, metadata !4049, metadata !2769), !dbg !4050
  store %"class.peterson::Thread0"** %1, %"class.peterson::Thread0"*** %4, align 8
  call void @llvm.dbg.declare(metadata %"class.peterson::Thread0"*** %4, metadata !4051, metadata !2769), !dbg !4052
  %5 = load %"struct.std::_Tuple_impl.5"*, %"struct.std::_Tuple_impl.5"** %3, align 8
  %6 = bitcast %"struct.std::_Tuple_impl.5"* %5 to %"struct.std::_Head_base.6"*, !dbg !4053
  %7 = load %"class.peterson::Thread0"**, %"class.peterson::Thread0"*** %4, align 8, !dbg !4054
  %8 = call dereferenceable(8) %"class.peterson::Thread0"** @_ZSt7forwardIPN8peterson7Thread0EEOT_RNSt16remove_referenceIS3_E4typeE(%"class.peterson::Thread0"** dereferenceable(8) %7) #3, !dbg !4055
  call void @_ZNSt10_Head_baseILm1EPN8peterson7Thread0ELb0EEC2IS2_EEOT_(%"struct.std::_Head_base.6"* %6, %"class.peterson::Thread0"** dereferenceable(8) %8), !dbg !4056
  ret void, !dbg !4058
}

; Function Attrs: nounwind uwtable
define linkonce_odr dereferenceable(8) %"struct.std::thread::_State"** @_ZSt3getILm0EJPNSt6thread6_StateESt14default_deleteIS1_EEERNSt13tuple_elementIXT_ESt5tupleIJDpT0_EEE4typeERS9_(%"class.std::tuple"* dereferenceable(8)) #4 comdat !dbg !4059 {
  %2 = alloca %"class.std::tuple"*, align 8
  store %"class.std::tuple"* %0, %"class.std::tuple"** %2, align 8
  call void @llvm.dbg.declare(metadata %"class.std::tuple"** %2, metadata !4069, metadata !2769), !dbg !4070
  %3 = load %"class.std::tuple"*, %"class.std::tuple"** %2, align 8, !dbg !4071
  %4 = bitcast %"class.std::tuple"* %3 to %"struct.std::_Tuple_impl"*, !dbg !4071
  %5 = call dereferenceable(8) %"struct.std::thread::_State"** @_ZSt12__get_helperILm0EPNSt6thread6_StateEJSt14default_deleteIS1_EEERT0_RSt11_Tuple_implIXT_EJS5_DpT1_EE(%"struct.std::_Tuple_impl"* dereferenceable(8) %4) #3, !dbg !4072
  ret %"struct.std::thread::_State"** %5, !dbg !4073
}

; Function Attrs: nounwind uwtable
define linkonce_odr dereferenceable(1) %"struct.std::default_delete"* @_ZNSt10unique_ptrINSt6thread6_StateESt14default_deleteIS1_EE11get_deleterEv(%"class.std::unique_ptr"*) #4 comdat align 2 !dbg !4074 {
  %2 = alloca %"class.std::unique_ptr"*, align 8
  store %"class.std::unique_ptr"* %0, %"class.std::unique_ptr"** %2, align 8
  call void @llvm.dbg.declare(metadata %"class.std::unique_ptr"** %2, metadata !4075, metadata !2769), !dbg !4076
  %3 = load %"class.std::unique_ptr"*, %"class.std::unique_ptr"** %2, align 8
  %4 = getelementptr inbounds %"class.std::unique_ptr", %"class.std::unique_ptr"* %3, i32 0, i32 0, !dbg !4077
  %5 = call dereferenceable(1) %"struct.std::default_delete"* @_ZSt3getILm1EJPNSt6thread6_StateESt14default_deleteIS1_EEERNSt13tuple_elementIXT_ESt5tupleIJDpT0_EEE4typeERS9_(%"class.std::tuple"* dereferenceable(8) %4) #3, !dbg !4078
  ret %"struct.std::default_delete"* %5, !dbg !4079
}

; Function Attrs: nounwind uwtable
define linkonce_odr void @_ZNKSt14default_deleteINSt6thread6_StateEEclEPS1_(%"struct.std::default_delete"*, %"struct.std::thread::_State"*) #4 comdat align 2 !dbg !4080 {
  %3 = alloca %"struct.std::default_delete"*, align 8
  %4 = alloca %"struct.std::thread::_State"*, align 8
  store %"struct.std::default_delete"* %0, %"struct.std::default_delete"** %3, align 8
  call void @llvm.dbg.declare(metadata %"struct.std::default_delete"** %3, metadata !4081, metadata !2769), !dbg !4083
  store %"struct.std::thread::_State"* %1, %"struct.std::thread::_State"** %4, align 8
  call void @llvm.dbg.declare(metadata %"struct.std::thread::_State"** %4, metadata !4084, metadata !2769), !dbg !4085
  %5 = load %"struct.std::default_delete"*, %"struct.std::default_delete"** %3, align 8
  %6 = load %"struct.std::thread::_State"*, %"struct.std::thread::_State"** %4, align 8, !dbg !4086
  %7 = icmp eq %"struct.std::thread::_State"* %6, null, !dbg !4087
  br i1 %7, label %13, label %8, !dbg !4087

; <label>:8:                                      ; preds = %2
  %9 = bitcast %"struct.std::thread::_State"* %6 to void (%"struct.std::thread::_State"*)***, !dbg !4088
  %10 = load void (%"struct.std::thread::_State"*)**, void (%"struct.std::thread::_State"*)*** %9, align 8, !dbg !4088
  %11 = getelementptr inbounds void (%"struct.std::thread::_State"*)*, void (%"struct.std::thread::_State"*)** %10, i64 1, !dbg !4088
  %12 = load void (%"struct.std::thread::_State"*)*, void (%"struct.std::thread::_State"*)** %11, align 8, !dbg !4088
  call void %12(%"struct.std::thread::_State"* %6) #3, !dbg !4088
  br label %13, !dbg !4088

; <label>:13:                                     ; preds = %8, %2
  ret void, !dbg !4090
}

; Function Attrs: nounwind uwtable
define linkonce_odr dereferenceable(8) %"struct.std::thread::_State"** @_ZSt12__get_helperILm0EPNSt6thread6_StateEJSt14default_deleteIS1_EEERT0_RSt11_Tuple_implIXT_EJS5_DpT1_EE(%"struct.std::_Tuple_impl"* dereferenceable(8)) #4 comdat !dbg !4091 {
  %2 = alloca %"struct.std::_Tuple_impl"*, align 8
  store %"struct.std::_Tuple_impl"* %0, %"struct.std::_Tuple_impl"** %2, align 8
  call void @llvm.dbg.declare(metadata %"struct.std::_Tuple_impl"** %2, metadata !4094, metadata !2769), !dbg !4095
  %3 = load %"struct.std::_Tuple_impl"*, %"struct.std::_Tuple_impl"** %2, align 8, !dbg !4096
  %4 = call dereferenceable(8) %"struct.std::thread::_State"** @_ZNSt11_Tuple_implILm0EJPNSt6thread6_StateESt14default_deleteIS1_EEE7_M_headERS5_(%"struct.std::_Tuple_impl"* dereferenceable(8) %3) #3, !dbg !4097
  ret %"struct.std::thread::_State"** %4, !dbg !4098
}

; Function Attrs: nounwind uwtable
define linkonce_odr dereferenceable(8) %"struct.std::thread::_State"** @_ZNSt11_Tuple_implILm0EJPNSt6thread6_StateESt14default_deleteIS1_EEE7_M_headERS5_(%"struct.std::_Tuple_impl"* dereferenceable(8)) #4 comdat align 2 !dbg !4099 {
  %2 = alloca %"struct.std::_Tuple_impl"*, align 8
  store %"struct.std::_Tuple_impl"* %0, %"struct.std::_Tuple_impl"** %2, align 8
  call void @llvm.dbg.declare(metadata %"struct.std::_Tuple_impl"** %2, metadata !4100, metadata !2769), !dbg !4101
  %3 = load %"struct.std::_Tuple_impl"*, %"struct.std::_Tuple_impl"** %2, align 8, !dbg !4102
  %4 = bitcast %"struct.std::_Tuple_impl"* %3 to %"struct.std::_Head_base.2"*, !dbg !4102
  %5 = call dereferenceable(8) %"struct.std::thread::_State"** @_ZNSt10_Head_baseILm0EPNSt6thread6_StateELb0EE7_M_headERS3_(%"struct.std::_Head_base.2"* dereferenceable(8) %4) #3, !dbg !4103
  ret %"struct.std::thread::_State"** %5, !dbg !4104
}

; Function Attrs: nounwind uwtable
define linkonce_odr dereferenceable(8) %"struct.std::thread::_State"** @_ZNSt10_Head_baseILm0EPNSt6thread6_StateELb0EE7_M_headERS3_(%"struct.std::_Head_base.2"* dereferenceable(8)) #4 comdat align 2 !dbg !4105 {
  %2 = alloca %"struct.std::_Head_base.2"*, align 8
  store %"struct.std::_Head_base.2"* %0, %"struct.std::_Head_base.2"** %2, align 8
  call void @llvm.dbg.declare(metadata %"struct.std::_Head_base.2"** %2, metadata !4106, metadata !2769), !dbg !4107
  %3 = load %"struct.std::_Head_base.2"*, %"struct.std::_Head_base.2"** %2, align 8, !dbg !4108
  %4 = getelementptr inbounds %"struct.std::_Head_base.2", %"struct.std::_Head_base.2"* %3, i32 0, i32 0, !dbg !4109
  ret %"struct.std::thread::_State"** %4, !dbg !4110
}

; Function Attrs: nounwind uwtable
define linkonce_odr dereferenceable(1) %"struct.std::default_delete"* @_ZSt3getILm1EJPNSt6thread6_StateESt14default_deleteIS1_EEERNSt13tuple_elementIXT_ESt5tupleIJDpT0_EEE4typeERS9_(%"class.std::tuple"* dereferenceable(8)) #4 comdat !dbg !4111 {
  %2 = alloca %"class.std::tuple"*, align 8
  store %"class.std::tuple"* %0, %"class.std::tuple"** %2, align 8
  call void @llvm.dbg.declare(metadata %"class.std::tuple"** %2, metadata !4122, metadata !2769), !dbg !4123
  %3 = load %"class.std::tuple"*, %"class.std::tuple"** %2, align 8, !dbg !4124
  %4 = bitcast %"class.std::tuple"* %3 to %"struct.std::_Tuple_impl.1"*, !dbg !4124
  %5 = call dereferenceable(1) %"struct.std::default_delete"* @_ZSt12__get_helperILm1ESt14default_deleteINSt6thread6_StateEEJEERT0_RSt11_Tuple_implIXT_EJS4_DpT1_EE(%"struct.std::_Tuple_impl.1"* dereferenceable(1) %4) #3, !dbg !4125
  ret %"struct.std::default_delete"* %5, !dbg !4126
}

; Function Attrs: nounwind uwtable
define linkonce_odr dereferenceable(1) %"struct.std::default_delete"* @_ZSt12__get_helperILm1ESt14default_deleteINSt6thread6_StateEEJEERT0_RSt11_Tuple_implIXT_EJS4_DpT1_EE(%"struct.std::_Tuple_impl.1"* dereferenceable(1)) #4 comdat !dbg !4127 {
  %2 = alloca %"struct.std::_Tuple_impl.1"*, align 8
  store %"struct.std::_Tuple_impl.1"* %0, %"struct.std::_Tuple_impl.1"** %2, align 8
  call void @llvm.dbg.declare(metadata %"struct.std::_Tuple_impl.1"** %2, metadata !4129, metadata !2769), !dbg !4130
  %3 = load %"struct.std::_Tuple_impl.1"*, %"struct.std::_Tuple_impl.1"** %2, align 8, !dbg !4131
  %4 = call dereferenceable(1) %"struct.std::default_delete"* @_ZNSt11_Tuple_implILm1EJSt14default_deleteINSt6thread6_StateEEEE7_M_headERS4_(%"struct.std::_Tuple_impl.1"* dereferenceable(1) %3) #3, !dbg !4132
  ret %"struct.std::default_delete"* %4, !dbg !4133
}

; Function Attrs: nounwind uwtable
define linkonce_odr dereferenceable(1) %"struct.std::default_delete"* @_ZNSt11_Tuple_implILm1EJSt14default_deleteINSt6thread6_StateEEEE7_M_headERS4_(%"struct.std::_Tuple_impl.1"* dereferenceable(1)) #4 comdat align 2 !dbg !4134 {
  %2 = alloca %"struct.std::_Tuple_impl.1"*, align 8
  store %"struct.std::_Tuple_impl.1"* %0, %"struct.std::_Tuple_impl.1"** %2, align 8
  call void @llvm.dbg.declare(metadata %"struct.std::_Tuple_impl.1"** %2, metadata !4135, metadata !2769), !dbg !4136
  %3 = load %"struct.std::_Tuple_impl.1"*, %"struct.std::_Tuple_impl.1"** %2, align 8, !dbg !4137
  %4 = bitcast %"struct.std::_Tuple_impl.1"* %3 to %"struct.std::_Head_base"*, !dbg !4137
  %5 = call dereferenceable(1) %"struct.std::default_delete"* @_ZNSt10_Head_baseILm1ESt14default_deleteINSt6thread6_StateEELb1EE7_M_headERS4_(%"struct.std::_Head_base"* dereferenceable(1) %4) #3, !dbg !4138
  ret %"struct.std::default_delete"* %5, !dbg !4139
}

; Function Attrs: nounwind uwtable
define linkonce_odr dereferenceable(1) %"struct.std::default_delete"* @_ZNSt10_Head_baseILm1ESt14default_deleteINSt6thread6_StateEELb1EE7_M_headERS4_(%"struct.std::_Head_base"* dereferenceable(1)) #4 comdat align 2 !dbg !4140 {
  %2 = alloca %"struct.std::_Head_base"*, align 8
  store %"struct.std::_Head_base"* %0, %"struct.std::_Head_base"** %2, align 8
  call void @llvm.dbg.declare(metadata %"struct.std::_Head_base"** %2, metadata !4141, metadata !2769), !dbg !4142
  %3 = load %"struct.std::_Head_base"*, %"struct.std::_Head_base"** %2, align 8, !dbg !4143
  %4 = bitcast %"struct.std::_Head_base"* %3 to %"struct.std::default_delete"*, !dbg !4143
  ret %"struct.std::default_delete"* %4, !dbg !4144
}

; Function Attrs: noreturn nounwind
declare void @__assert_fail(i8*, i8*, i32, i8*) #8

; Function Attrs: uwtable
define linkonce_odr void @_ZN9IrsThreadclIJMN8peterson7Thread1EFvvEPS2_EEEvDpOT_(%class.IrsThread*, { i64, i64 }* dereferenceable(16), %"class.peterson::Thread1"** dereferenceable(8)) #0 comdat align 2 !dbg !4145 {
  %4 = alloca %class.IrsThread*, align 8
  %5 = alloca { i64, i64 }*, align 8
  %6 = alloca %"class.peterson::Thread1"**, align 8
  %7 = alloca %"class.std::thread", align 8
  store %class.IrsThread* %0, %class.IrsThread** %4, align 8
  call void @llvm.dbg.declare(metadata %class.IrsThread** %4, metadata !4154, metadata !2769), !dbg !4155
  store { i64, i64 }* %1, { i64, i64 }** %5, align 8
  call void @llvm.dbg.declare(metadata { i64, i64 }** %5, metadata !4156, metadata !2769), !dbg !4157
  store %"class.peterson::Thread1"** %2, %"class.peterson::Thread1"*** %6, align 8
  call void @llvm.dbg.declare(metadata %"class.peterson::Thread1"*** %6, metadata !4158, metadata !2769), !dbg !4157
  %8 = load %class.IrsThread*, %class.IrsThread** %4, align 8
  %9 = getelementptr inbounds %class.IrsThread, %class.IrsThread* %8, i32 0, i32 0, !dbg !4159
  %10 = load { i64, i64 }*, { i64, i64 }** %5, align 8, !dbg !4160
  %11 = call dereferenceable(16) { i64, i64 }* @_ZSt7forwardIMN8peterson7Thread1EFvvEEOT_RNSt16remove_referenceIS4_E4typeE({ i64, i64 }* dereferenceable(16) %10) #3, !dbg !4161
  %12 = load %"class.peterson::Thread1"**, %"class.peterson::Thread1"*** %6, align 8, !dbg !4160
  %13 = call dereferenceable(8) %"class.peterson::Thread1"** @_ZSt7forwardIPN8peterson7Thread1EEOT_RNSt16remove_referenceIS3_E4typeE(%"class.peterson::Thread1"** dereferenceable(8) %12) #3, !dbg !4162
  call void @_ZNSt6threadC2IMN8peterson7Thread1EFvvEJPS2_EEEOT_DpOT0_(%"class.std::thread"* %7, { i64, i64 }* dereferenceable(16) %11, %"class.peterson::Thread1"** dereferenceable(8) %13), !dbg !4164
  %14 = call dereferenceable(8) %"class.std::thread"* @_ZNSt6threadaSEOS_(%"class.std::thread"* %9, %"class.std::thread"* dereferenceable(8) %7) #3, !dbg !4166
  call void @_ZNSt6threadD2Ev(%"class.std::thread"* %7) #3, !dbg !4168
  ret void, !dbg !4170
}

; Function Attrs: nounwind uwtable
define linkonce_odr void @_ZN8peterson7Thread14thr1Ev(%"class.peterson::Thread1"*) #4 comdat align 2 !dbg !4171 {
  %2 = alloca %"class.peterson::Thread1"*, align 8
  store %"class.peterson::Thread1"* %0, %"class.peterson::Thread1"** %2, align 8
  call void @llvm.dbg.declare(metadata %"class.peterson::Thread1"** %2, metadata !4172, metadata !2769), !dbg !4173
  %3 = load %"class.peterson::Thread1"*, %"class.peterson::Thread1"** %2, align 8
  %4 = call i32 @_ZN8peterson7Thread111getThreadIdEv(%"class.peterson::Thread1"* %0), !dbg !4174
  %5 = alloca i32, !dbg !4174
  store i32 %4, i32* %5, !dbg !4174
  %6 = load i32, i32* %5, !dbg !4174
  call void @_Z10__beforeMAiPvli(i32 %6, i8* bitcast (i32* @_ZN8peterson5flag1E to i8*), i64 4, i32 1), !dbg !4174
  store i32 1, i32* @_ZN8peterson5flag1E, align 4, !dbg !4174
  call void @_Z9__afterMAi(i32 %6), !dbg !4174
  %7 = call i32 @_ZN8peterson7Thread111getThreadIdEv(%"class.peterson::Thread1"* %0), !dbg !4175
  %8 = alloca i32, !dbg !4175
  store i32 %7, i32* %8, !dbg !4175
  %9 = load i32, i32* %8, !dbg !4175
  call void @_Z10__beforeMAiPvli(i32 %9, i8* bitcast (i32* @_ZN8peterson4turnE to i8*), i64 4, i32 1), !dbg !4175
  store i32 0, i32* @_ZN8peterson4turnE, align 4, !dbg !4175
  call void @_Z9__afterMAi(i32 %9), !dbg !4175
  br label %10, !dbg !4176

; <label>:10:                                     ; preds = %24, %1
  %11 = call i32 @_ZN8peterson7Thread111getThreadIdEv(%"class.peterson::Thread1"* %0), !dbg !4177
  %12 = alloca i32, !dbg !4177
  store i32 %11, i32* %12, !dbg !4177
  %13 = load i32, i32* %12, !dbg !4177
  call void @_Z10__beforeMAiPvli(i32 %13, i8* bitcast (i32* @_ZN8peterson5flag0E to i8*), i64 4, i32 0), !dbg !4177
  %14 = load i32, i32* @_ZN8peterson5flag0E, align 4, !dbg !4177
  call void @_Z9__afterMAi(i32 %13), !dbg !4177
  %15 = icmp eq i32 %14, 1, !dbg !4179
  br i1 %15, label %16, label %22, !dbg !4180

; <label>:16:                                     ; preds = %10
  %17 = call i32 @_ZN8peterson7Thread111getThreadIdEv(%"class.peterson::Thread1"* %0), !dbg !4181
  %18 = alloca i32, !dbg !4181
  store i32 %17, i32* %18, !dbg !4181
  %19 = load i32, i32* %18, !dbg !4181
  call void @_Z10__beforeMAiPvli(i32 %19, i8* bitcast (i32* @_ZN8peterson4turnE to i8*), i64 4, i32 0), !dbg !4181
  %20 = load i32, i32* @_ZN8peterson4turnE, align 4, !dbg !4181
  call void @_Z9__afterMAi(i32 %19), !dbg !4181
  %21 = icmp eq i32 %20, 0, !dbg !4183
  br label %22

; <label>:22:                                     ; preds = %16, %10
  %23 = phi i1 [ false, %10 ], [ %21, %16 ]
  br i1 %23, label %24, label %25, !dbg !4184

; <label>:24:                                     ; preds = %22
  br label %10, !dbg !4186, !llvm.loop !4188

; <label>:25:                                     ; preds = %22
  %26 = call i32 @_ZN8peterson7Thread111getThreadIdEv(%"class.peterson::Thread1"* %0), !dbg !4189
  %27 = alloca i32, !dbg !4189
  store i32 %26, i32* %27, !dbg !4189
  %28 = load i32, i32* %27, !dbg !4189
  call void @_Z10__beforeMAiPvli(i32 %28, i8* bitcast (i32* @_ZN8peterson1xE to i8*), i64 4, i32 1), !dbg !4189
  store i32 1, i32* @_ZN8peterson1xE, align 4, !dbg !4189
  call void @_Z9__afterMAi(i32 %28), !dbg !4189
  %29 = call i32 @_ZN8peterson7Thread111getThreadIdEv(%"class.peterson::Thread1"* %0), !dbg !4190
  %30 = alloca i32, !dbg !4190
  store i32 %29, i32* %30, !dbg !4190
  %31 = load i32, i32* %30, !dbg !4190
  call void @_Z10__beforeMAiPvli(i32 %31, i8* bitcast (i32* @_ZN8peterson1xE to i8*), i64 4, i32 0), !dbg !4190
  %32 = load i32, i32* @_ZN8peterson1xE, align 4, !dbg !4190
  call void @_Z9__afterMAi(i32 %31), !dbg !4190
  %33 = icmp sge i32 %32, 1, !dbg !4190
  br i1 %33, label %34, label %35, !dbg !4190

; <label>:34:                                     ; preds = %25
  br label %37, !dbg !4191

; <label>:35:                                     ; preds = %25
  call void @__assert_fail(i8* getelementptr inbounds ([7 x i8], [7 x i8]* @.str.10, i32 0, i32 0), i8* getelementptr inbounds ([96 x i8], [96 x i8]* @.str.9, i32 0, i32 0), i32 56, i8* getelementptr inbounds ([31 x i8], [31 x i8]* @__PRETTY_FUNCTION__._ZN8peterson7Thread14thr1Ev, i32 0, i32 0)) #14, !dbg !4192
  unreachable, !dbg !4192
                                                  ; No predecessors!
  br label %37, !dbg !4193

; <label>:37:                                     ; preds = %36, %34
  %38 = call i32 @_ZN8peterson7Thread111getThreadIdEv(%"class.peterson::Thread1"* %0), !dbg !4194
  %39 = alloca i32, !dbg !4194
  store i32 %38, i32* %39, !dbg !4194
  %40 = load i32, i32* %39, !dbg !4194
  call void @_Z10__beforeMAiPvli(i32 %40, i8* bitcast (i32* @_ZN8peterson5flag1E to i8*), i64 4, i32 1), !dbg !4194
  store i32 0, i32* @_ZN8peterson5flag1E, align 4, !dbg !4194
  call void @_Z9__afterMAi(i32 %40), !dbg !4194
  ret void, !dbg !4195
}

; Function Attrs: nounwind uwtable
define linkonce_odr dereferenceable(16) { i64, i64 }* @_ZSt7forwardIMN8peterson7Thread1EFvvEEOT_RNSt16remove_referenceIS4_E4typeE({ i64, i64 }* dereferenceable(16)) #4 comdat !dbg !4196 {
  %2 = alloca { i64, i64 }*, align 8
  store { i64, i64 }* %0, { i64, i64 }** %2, align 8
  call void @llvm.dbg.declare(metadata { i64, i64 }** %2, metadata !4202, metadata !2769), !dbg !4203
  %3 = load { i64, i64 }*, { i64, i64 }** %2, align 8, !dbg !4204
  ret { i64, i64 }* %3, !dbg !4205
}

; Function Attrs: nounwind uwtable
define linkonce_odr dereferenceable(8) %"class.peterson::Thread1"** @_ZSt7forwardIPN8peterson7Thread1EEOT_RNSt16remove_referenceIS3_E4typeE(%"class.peterson::Thread1"** dereferenceable(8)) #4 comdat !dbg !4206 {
  %2 = alloca %"class.peterson::Thread1"**, align 8
  store %"class.peterson::Thread1"** %0, %"class.peterson::Thread1"*** %2, align 8
  call void @llvm.dbg.declare(metadata %"class.peterson::Thread1"*** %2, metadata !4214, metadata !2769), !dbg !4215
  %3 = load %"class.peterson::Thread1"**, %"class.peterson::Thread1"*** %2, align 8, !dbg !4216
  ret %"class.peterson::Thread1"** %3, !dbg !4217
}

; Function Attrs: uwtable
define linkonce_odr void @_ZNSt6threadC2IMN8peterson7Thread1EFvvEJPS2_EEEOT_DpOT0_(%"class.std::thread"*, { i64, i64 }* dereferenceable(16), %"class.peterson::Thread1"** dereferenceable(8)) unnamed_addr #0 comdat align 2 personality i8* bitcast (i32 (...)* @__gxx_personality_v0 to i8*) !dbg !4218 {
  %4 = alloca %"class.std::thread"*, align 8
  %5 = alloca { i64, i64 }*, align 8
  %6 = alloca %"class.peterson::Thread1"**, align 8
  %7 = alloca void ()*, align 8
  %8 = alloca %"class.std::unique_ptr", align 8
  %9 = alloca %"struct.std::_Bind_simple.8", align 8
  %10 = alloca i8*
  %11 = alloca i32
  store %"class.std::thread"* %0, %"class.std::thread"** %4, align 8
  call void @llvm.dbg.declare(metadata %"class.std::thread"** %4, metadata !4224, metadata !2769), !dbg !4225
  store { i64, i64 }* %1, { i64, i64 }** %5, align 8
  call void @llvm.dbg.declare(metadata { i64, i64 }** %5, metadata !4226, metadata !2769), !dbg !4227
  store %"class.peterson::Thread1"** %2, %"class.peterson::Thread1"*** %6, align 8
  call void @llvm.dbg.declare(metadata %"class.peterson::Thread1"*** %6, metadata !4228, metadata !2769), !dbg !4229
  %12 = load %"class.std::thread"*, %"class.std::thread"** %4, align 8
  %13 = getelementptr inbounds %"class.std::thread", %"class.std::thread"* %12, i32 0, i32 0, !dbg !4230
  call void @_ZNSt6thread2idC2Ev(%"class.std::thread::id"* %13) #3, !dbg !4230
  call void @llvm.dbg.declare(metadata void ()** %7, metadata !4231, metadata !2769), !dbg !4233
  store void ()* bitcast (i32 (i64*, %union.pthread_attr_t*, i8* (i8*)*, i8*)* @pthread_create to void ()*), void ()** %7, align 8, !dbg !4233
  %14 = load { i64, i64 }*, { i64, i64 }** %5, align 8, !dbg !4234
  %15 = call dereferenceable(16) { i64, i64 }* @_ZSt7forwardIMN8peterson7Thread1EFvvEEOT_RNSt16remove_referenceIS4_E4typeE({ i64, i64 }* dereferenceable(16) %14) #3, !dbg !4235
  %16 = load %"class.peterson::Thread1"**, %"class.peterson::Thread1"*** %6, align 8, !dbg !4236
  %17 = call dereferenceable(8) %"class.peterson::Thread1"** @_ZSt7forwardIPN8peterson7Thread1EEOT_RNSt16remove_referenceIS3_E4typeE(%"class.peterson::Thread1"** dereferenceable(8) %16) #3, !dbg !4237
  call void @_ZSt13__bind_simpleIMN8peterson7Thread1EFvvEJPS1_EENSt19_Bind_simple_helperIT_JDpT0_EE6__typeEOS6_DpOS7_(%"struct.std::_Bind_simple.8"* sret %9, { i64, i64 }* dereferenceable(16) %15, %"class.peterson::Thread1"** dereferenceable(8) %17), !dbg !4238
  call void @_ZNSt6thread13_S_make_stateISt12_Bind_simpleIFSt7_Mem_fnIMN8peterson7Thread1EFvvEEPS4_EEEESt10unique_ptrINS_6_StateESt14default_deleteISC_EEOT_(%"class.std::unique_ptr"* sret %8, %"struct.std::_Bind_simple.8"* dereferenceable(24) %9), !dbg !4240
  %18 = load void ()*, void ()** %7, align 8, !dbg !4241
  invoke void @_ZNSt6thread15_M_start_threadESt10unique_ptrINS_6_StateESt14default_deleteIS1_EEPFvvE(%"class.std::thread"* %12, %"class.std::unique_ptr"* %8, void ()* %18)
          to label %19 unwind label %20, !dbg !4242

; <label>:19:                                     ; preds = %3
  call void @_ZNSt10unique_ptrINSt6thread6_StateESt14default_deleteIS1_EED2Ev(%"class.std::unique_ptr"* %8) #3, !dbg !4243
  ret void, !dbg !4244

; <label>:20:                                     ; preds = %3
  %21 = landingpad { i8*, i32 }
          cleanup, !dbg !4245
  %22 = extractvalue { i8*, i32 } %21, 0, !dbg !4245
  store i8* %22, i8** %10, align 8, !dbg !4245
  %23 = extractvalue { i8*, i32 } %21, 1, !dbg !4245
  store i32 %23, i32* %11, align 4, !dbg !4245
  call void @_ZNSt10unique_ptrINSt6thread6_StateESt14default_deleteIS1_EED2Ev(%"class.std::unique_ptr"* %8) #3, !dbg !4246
  br label %24, !dbg !4246

; <label>:24:                                     ; preds = %20
  %25 = load i8*, i8** %10, align 8, !dbg !4248
  %26 = load i32, i32* %11, align 4, !dbg !4248
  %27 = insertvalue { i8*, i32 } undef, i8* %25, 0, !dbg !4248
  %28 = insertvalue { i8*, i32 } %27, i32 %26, 1, !dbg !4248
  resume { i8*, i32 } %28, !dbg !4248
}

; Function Attrs: uwtable
define linkonce_odr void @_ZNSt6thread13_S_make_stateISt12_Bind_simpleIFSt7_Mem_fnIMN8peterson7Thread1EFvvEEPS4_EEEESt10unique_ptrINS_6_StateESt14default_deleteISC_EEOT_(%"class.std::unique_ptr"* noalias sret, %"struct.std::_Bind_simple.8"* dereferenceable(24)) #0 comdat align 2 personality i8* bitcast (i32 (...)* @__gxx_personality_v0 to i8*) !dbg !4250 {
  %3 = alloca %"struct.std::_Bind_simple.8"*, align 8
  %4 = alloca i8*
  %5 = alloca i32
  store %"struct.std::_Bind_simple.8"* %1, %"struct.std::_Bind_simple.8"** %3, align 8
  call void @llvm.dbg.declare(metadata %"struct.std::_Bind_simple.8"** %3, metadata !4456, metadata !2769), !dbg !4457
  %6 = call i8* @_Znwm(i64 32) #15, !dbg !4458
  %7 = bitcast i8* %6 to %"struct.std::thread::_State_impl.18"*, !dbg !4458
  %8 = load %"struct.std::_Bind_simple.8"*, %"struct.std::_Bind_simple.8"** %3, align 8, !dbg !4459
  %9 = call dereferenceable(24) %"struct.std::_Bind_simple.8"* @_ZSt7forwardISt12_Bind_simpleIFSt7_Mem_fnIMN8peterson7Thread1EFvvEEPS3_EEEOT_RNSt16remove_referenceISA_E4typeE(%"struct.std::_Bind_simple.8"* dereferenceable(24) %8) #3, !dbg !4460
  invoke void @_ZNSt6thread11_State_implISt12_Bind_simpleIFSt7_Mem_fnIMN8peterson7Thread1EFvvEEPS4_EEEC2EOSA_(%"struct.std::thread::_State_impl.18"* %7, %"struct.std::_Bind_simple.8"* dereferenceable(24) %9)
          to label %10 unwind label %12, !dbg !4462

; <label>:10:                                     ; preds = %2
  %11 = bitcast %"struct.std::thread::_State_impl.18"* %7 to %"struct.std::thread::_State"*, !dbg !4463
  call void @_ZNSt10unique_ptrINSt6thread6_StateESt14default_deleteIS1_EEC2EPS1_(%"class.std::unique_ptr"* %0, %"struct.std::thread::_State"* %11) #3, !dbg !4465
  ret void, !dbg !4466

; <label>:12:                                     ; preds = %2
  %13 = landingpad { i8*, i32 }
          cleanup, !dbg !4467
  %14 = extractvalue { i8*, i32 } %13, 0, !dbg !4467
  store i8* %14, i8** %4, align 8, !dbg !4467
  %15 = extractvalue { i8*, i32 } %13, 1, !dbg !4467
  store i32 %15, i32* %5, align 4, !dbg !4467
  call void @_ZdlPv(i8* %6) #16, !dbg !4468
  br label %16, !dbg !4468

; <label>:16:                                     ; preds = %12
  %17 = load i8*, i8** %4, align 8, !dbg !4470
  %18 = load i32, i32* %5, align 4, !dbg !4470
  %19 = insertvalue { i8*, i32 } undef, i8* %17, 0, !dbg !4470
  %20 = insertvalue { i8*, i32 } %19, i32 %18, 1, !dbg !4470
  resume { i8*, i32 } %20, !dbg !4470
}

; Function Attrs: uwtable
define linkonce_odr void @_ZSt13__bind_simpleIMN8peterson7Thread1EFvvEJPS1_EENSt19_Bind_simple_helperIT_JDpT0_EE6__typeEOS6_DpOS7_(%"struct.std::_Bind_simple.8"* noalias sret, { i64, i64 }* dereferenceable(16), %"class.peterson::Thread1"** dereferenceable(8)) #0 comdat !dbg !4472 {
  %4 = alloca { i64, i64 }*, align 8
  %5 = alloca %"class.peterson::Thread1"**, align 8
  %6 = alloca %"struct.std::_Mem_fn.14", align 8
  %7 = alloca { i64, i64 }, align 8
  store { i64, i64 }* %1, { i64, i64 }** %4, align 8
  call void @llvm.dbg.declare(metadata { i64, i64 }** %4, metadata !4483, metadata !2769), !dbg !4484
  store %"class.peterson::Thread1"** %2, %"class.peterson::Thread1"*** %5, align 8
  call void @llvm.dbg.declare(metadata %"class.peterson::Thread1"*** %5, metadata !4485, metadata !2769), !dbg !4486
  %8 = load { i64, i64 }*, { i64, i64 }** %4, align 8, !dbg !4487
  %9 = call dereferenceable(16) { i64, i64 }* @_ZSt7forwardIMN8peterson7Thread1EFvvEEOT_RNSt16remove_referenceIS4_E4typeE({ i64, i64 }* dereferenceable(16) %8) #3, !dbg !4488
  %10 = load { i64, i64 }, { i64, i64 }* %9, align 8, !dbg !4488
  store { i64, i64 } %10, { i64, i64 }* %7, align 8, !dbg !4489
  %11 = getelementptr inbounds { i64, i64 }, { i64, i64 }* %7, i32 0, i32 0, !dbg !4489
  %12 = load i64, i64* %11, align 8, !dbg !4489
  %13 = getelementptr inbounds { i64, i64 }, { i64, i64 }* %7, i32 0, i32 1, !dbg !4489
  %14 = load i64, i64* %13, align 8, !dbg !4489
  %15 = call { i64, i64 } @_ZNSt26_Maybe_wrap_member_pointerIMN8peterson7Thread1EFvvEE9__do_wrapES3_(i64 %12, i64 %14), !dbg !4490
  %16 = getelementptr inbounds %"struct.std::_Mem_fn.14", %"struct.std::_Mem_fn.14"* %6, i32 0, i32 0, !dbg !4489
  %17 = getelementptr inbounds %"class.std::_Mem_fn_base.15", %"class.std::_Mem_fn_base.15"* %16, i32 0, i32 0, !dbg !4489
  %18 = getelementptr inbounds { i64, i64 }, { i64, i64 }* %17, i32 0, i32 0, !dbg !4489
  %19 = extractvalue { i64, i64 } %15, 0, !dbg !4489
  store i64 %19, i64* %18, align 8, !dbg !4489
  %20 = getelementptr inbounds { i64, i64 }, { i64, i64 }* %17, i32 0, i32 1, !dbg !4489
  %21 = extractvalue { i64, i64 } %15, 1, !dbg !4489
  store i64 %21, i64* %20, align 8, !dbg !4489
  %22 = load %"class.peterson::Thread1"**, %"class.peterson::Thread1"*** %5, align 8, !dbg !4492
  %23 = call dereferenceable(8) %"class.peterson::Thread1"** @_ZSt7forwardIPN8peterson7Thread1EEOT_RNSt16remove_referenceIS3_E4typeE(%"class.peterson::Thread1"** dereferenceable(8) %22) #3, !dbg !4493
  call void @_ZNSt12_Bind_simpleIFSt7_Mem_fnIMN8peterson7Thread1EFvvEEPS2_EEC2IS5_JS6_EEEOT_DpOT0_(%"struct.std::_Bind_simple.8"* %0, %"struct.std::_Mem_fn.14"* dereferenceable(16) %6, %"class.peterson::Thread1"** dereferenceable(8) %23), !dbg !4494
  ret void, !dbg !4495
}

; Function Attrs: nounwind uwtable
define linkonce_odr dereferenceable(24) %"struct.std::_Bind_simple.8"* @_ZSt7forwardISt12_Bind_simpleIFSt7_Mem_fnIMN8peterson7Thread1EFvvEEPS3_EEEOT_RNSt16remove_referenceISA_E4typeE(%"struct.std::_Bind_simple.8"* dereferenceable(24)) #4 comdat !dbg !4496 {
  %2 = alloca %"struct.std::_Bind_simple.8"*, align 8
  store %"struct.std::_Bind_simple.8"* %0, %"struct.std::_Bind_simple.8"** %2, align 8
  call void @llvm.dbg.declare(metadata %"struct.std::_Bind_simple.8"** %2, metadata !4504, metadata !2769), !dbg !4505
  %3 = load %"struct.std::_Bind_simple.8"*, %"struct.std::_Bind_simple.8"** %2, align 8, !dbg !4506
  ret %"struct.std::_Bind_simple.8"* %3, !dbg !4507
}

; Function Attrs: nounwind uwtable
define linkonce_odr void @_ZNSt6thread11_State_implISt12_Bind_simpleIFSt7_Mem_fnIMN8peterson7Thread1EFvvEEPS4_EEEC2EOSA_(%"struct.std::thread::_State_impl.18"*, %"struct.std::_Bind_simple.8"* dereferenceable(24)) unnamed_addr #4 comdat align 2 !dbg !4508 {
  %3 = alloca %"struct.std::thread::_State_impl.18"*, align 8
  %4 = alloca %"struct.std::_Bind_simple.8"*, align 8
  store %"struct.std::thread::_State_impl.18"* %0, %"struct.std::thread::_State_impl.18"** %3, align 8
  call void @llvm.dbg.declare(metadata %"struct.std::thread::_State_impl.18"** %3, metadata !4520, metadata !2769), !dbg !4522
  store %"struct.std::_Bind_simple.8"* %1, %"struct.std::_Bind_simple.8"** %4, align 8
  call void @llvm.dbg.declare(metadata %"struct.std::_Bind_simple.8"** %4, metadata !4523, metadata !2769), !dbg !4524
  %5 = load %"struct.std::thread::_State_impl.18"*, %"struct.std::thread::_State_impl.18"** %3, align 8
  %6 = bitcast %"struct.std::thread::_State_impl.18"* %5 to %"struct.std::thread::_State"*, !dbg !4525
  call void @_ZNSt6thread6_StateC2Ev(%"struct.std::thread::_State"* %6) #3, !dbg !4526
  %7 = bitcast %"struct.std::thread::_State_impl.18"* %5 to i32 (...)***, !dbg !4525
  store i32 (...)** bitcast (i8** getelementptr inbounds ([5 x i8*], [5 x i8*]* @_ZTVNSt6thread11_State_implISt12_Bind_simpleIFSt7_Mem_fnIMN8peterson7Thread1EFvvEEPS4_EEEE, i32 0, i32 2) to i32 (...)**), i32 (...)*** %7, align 8, !dbg !4525
  %8 = getelementptr inbounds %"struct.std::thread::_State_impl.18", %"struct.std::thread::_State_impl.18"* %5, i32 0, i32 1, !dbg !4527
  %9 = load %"struct.std::_Bind_simple.8"*, %"struct.std::_Bind_simple.8"** %4, align 8, !dbg !4528
  %10 = call dereferenceable(24) %"struct.std::_Bind_simple.8"* @_ZSt7forwardISt12_Bind_simpleIFSt7_Mem_fnIMN8peterson7Thread1EFvvEEPS3_EEEOT_RNSt16remove_referenceISA_E4typeE(%"struct.std::_Bind_simple.8"* dereferenceable(24) %9) #3, !dbg !4529
  call void @_ZNSt12_Bind_simpleIFSt7_Mem_fnIMN8peterson7Thread1EFvvEEPS2_EEC2EOS8_(%"struct.std::_Bind_simple.8"* %8, %"struct.std::_Bind_simple.8"* dereferenceable(24) %10) #3, !dbg !4531
  ret void, !dbg !4533
}

; Function Attrs: nounwind uwtable
define linkonce_odr void @_ZNSt12_Bind_simpleIFSt7_Mem_fnIMN8peterson7Thread1EFvvEEPS2_EEC2EOS8_(%"struct.std::_Bind_simple.8"*, %"struct.std::_Bind_simple.8"* dereferenceable(24)) unnamed_addr #4 comdat align 2 !dbg !4534 {
  %3 = alloca %"struct.std::_Bind_simple.8"*, align 8
  %4 = alloca %"struct.std::_Bind_simple.8"*, align 8
  store %"struct.std::_Bind_simple.8"* %0, %"struct.std::_Bind_simple.8"** %3, align 8
  call void @llvm.dbg.declare(metadata %"struct.std::_Bind_simple.8"** %3, metadata !4535, metadata !2769), !dbg !4537
  store %"struct.std::_Bind_simple.8"* %1, %"struct.std::_Bind_simple.8"** %4, align 8
  call void @llvm.dbg.declare(metadata %"struct.std::_Bind_simple.8"** %4, metadata !4538, metadata !2769), !dbg !4539
  %5 = load %"struct.std::_Bind_simple.8"*, %"struct.std::_Bind_simple.8"** %3, align 8
  %6 = getelementptr inbounds %"struct.std::_Bind_simple.8", %"struct.std::_Bind_simple.8"* %5, i32 0, i32 0, !dbg !4540
  %7 = load %"struct.std::_Bind_simple.8"*, %"struct.std::_Bind_simple.8"** %4, align 8, !dbg !4540
  %8 = getelementptr inbounds %"struct.std::_Bind_simple.8", %"struct.std::_Bind_simple.8"* %7, i32 0, i32 0, !dbg !4540
  call void @_ZNSt5tupleIJSt7_Mem_fnIMN8peterson7Thread1EFvvEEPS2_EEC2EOS7_(%"class.std::tuple.9"* %6, %"class.std::tuple.9"* dereferenceable(24) %8) #3, !dbg !4540
  ret void, !dbg !4540
}

; Function Attrs: inlinehint nounwind uwtable
define linkonce_odr void @_ZNSt6thread11_State_implISt12_Bind_simpleIFSt7_Mem_fnIMN8peterson7Thread1EFvvEEPS4_EEED2Ev(%"struct.std::thread::_State_impl.18"*) unnamed_addr #7 comdat align 2 !dbg !4541 {
  %2 = alloca %"struct.std::thread::_State_impl.18"*, align 8
  store %"struct.std::thread::_State_impl.18"* %0, %"struct.std::thread::_State_impl.18"** %2, align 8
  call void @llvm.dbg.declare(metadata %"struct.std::thread::_State_impl.18"** %2, metadata !4543, metadata !2769), !dbg !4544
  %3 = load %"struct.std::thread::_State_impl.18"*, %"struct.std::thread::_State_impl.18"** %2, align 8
  %4 = bitcast %"struct.std::thread::_State_impl.18"* %3 to %"struct.std::thread::_State"*, !dbg !4545
  call void @_ZNSt6thread6_StateD2Ev(%"struct.std::thread::_State"* %4) #3, !dbg !4545
  ret void, !dbg !4547
}

; Function Attrs: inlinehint nounwind uwtable
define linkonce_odr void @_ZNSt6thread11_State_implISt12_Bind_simpleIFSt7_Mem_fnIMN8peterson7Thread1EFvvEEPS4_EEED0Ev(%"struct.std::thread::_State_impl.18"*) unnamed_addr #7 comdat align 2 !dbg !4548 {
  %2 = alloca %"struct.std::thread::_State_impl.18"*, align 8
  store %"struct.std::thread::_State_impl.18"* %0, %"struct.std::thread::_State_impl.18"** %2, align 8
  call void @llvm.dbg.declare(metadata %"struct.std::thread::_State_impl.18"** %2, metadata !4549, metadata !2769), !dbg !4550
  %3 = load %"struct.std::thread::_State_impl.18"*, %"struct.std::thread::_State_impl.18"** %2, align 8
  call void @_ZNSt6thread11_State_implISt12_Bind_simpleIFSt7_Mem_fnIMN8peterson7Thread1EFvvEEPS4_EEED2Ev(%"struct.std::thread::_State_impl.18"* %3) #3, !dbg !4551
  %4 = bitcast %"struct.std::thread::_State_impl.18"* %3 to i8*, !dbg !4551
  call void @_ZdlPv(i8* %4) #16, !dbg !4552
  ret void, !dbg !4551
}

; Function Attrs: uwtable
define linkonce_odr void @_ZNSt6thread11_State_implISt12_Bind_simpleIFSt7_Mem_fnIMN8peterson7Thread1EFvvEEPS4_EEE6_M_runEv(%"struct.std::thread::_State_impl.18"*) unnamed_addr #0 comdat align 2 !dbg !4554 {
  %2 = alloca %"struct.std::thread::_State_impl.18"*, align 8
  store %"struct.std::thread::_State_impl.18"* %0, %"struct.std::thread::_State_impl.18"** %2, align 8
  call void @llvm.dbg.declare(metadata %"struct.std::thread::_State_impl.18"** %2, metadata !4555, metadata !2769), !dbg !4556
  %3 = load %"struct.std::thread::_State_impl.18"*, %"struct.std::thread::_State_impl.18"** %2, align 8
  %4 = getelementptr inbounds %"struct.std::thread::_State_impl.18", %"struct.std::thread::_State_impl.18"* %3, i32 0, i32 1, !dbg !4557
  call void @_ZNSt12_Bind_simpleIFSt7_Mem_fnIMN8peterson7Thread1EFvvEEPS2_EEclEv(%"struct.std::_Bind_simple.8"* %4), !dbg !4557
  ret void, !dbg !4558
}

; Function Attrs: nounwind uwtable
define linkonce_odr void @_ZNSt5tupleIJSt7_Mem_fnIMN8peterson7Thread1EFvvEEPS2_EEC2EOS7_(%"class.std::tuple.9"*, %"class.std::tuple.9"* dereferenceable(24)) unnamed_addr #4 comdat align 2 !dbg !4559 {
  %3 = alloca %"class.std::tuple.9"*, align 8
  %4 = alloca %"class.std::tuple.9"*, align 8
  store %"class.std::tuple.9"* %0, %"class.std::tuple.9"** %3, align 8
  call void @llvm.dbg.declare(metadata %"class.std::tuple.9"** %3, metadata !4560, metadata !2769), !dbg !4562
  store %"class.std::tuple.9"* %1, %"class.std::tuple.9"** %4, align 8
  call void @llvm.dbg.declare(metadata %"class.std::tuple.9"** %4, metadata !4563, metadata !2769), !dbg !4564
  %5 = load %"class.std::tuple.9"*, %"class.std::tuple.9"** %3, align 8
  %6 = bitcast %"class.std::tuple.9"* %5 to %"struct.std::_Tuple_impl.10"*, !dbg !4565
  %7 = load %"class.std::tuple.9"*, %"class.std::tuple.9"** %4, align 8, !dbg !4565
  %8 = bitcast %"class.std::tuple.9"* %7 to %"struct.std::_Tuple_impl.10"*, !dbg !4565
  call void @_ZNSt11_Tuple_implILm0EJSt7_Mem_fnIMN8peterson7Thread1EFvvEEPS2_EEC2EOS7_(%"struct.std::_Tuple_impl.10"* %6, %"struct.std::_Tuple_impl.10"* dereferenceable(24) %8) #3, !dbg !4565
  ret void, !dbg !4565
}

; Function Attrs: nounwind uwtable
define linkonce_odr void @_ZNSt11_Tuple_implILm0EJSt7_Mem_fnIMN8peterson7Thread1EFvvEEPS2_EEC2EOS7_(%"struct.std::_Tuple_impl.10"*, %"struct.std::_Tuple_impl.10"* dereferenceable(24)) unnamed_addr #4 comdat align 2 personality i8* bitcast (i32 (...)* @__gxx_personality_v0 to i8*) !dbg !4566 {
  %3 = alloca %"struct.std::_Tuple_impl.10"*, align 8
  %4 = alloca %"struct.std::_Tuple_impl.10"*, align 8
  store %"struct.std::_Tuple_impl.10"* %0, %"struct.std::_Tuple_impl.10"** %3, align 8
  call void @llvm.dbg.declare(metadata %"struct.std::_Tuple_impl.10"** %3, metadata !4567, metadata !2769), !dbg !4569
  store %"struct.std::_Tuple_impl.10"* %1, %"struct.std::_Tuple_impl.10"** %4, align 8
  call void @llvm.dbg.declare(metadata %"struct.std::_Tuple_impl.10"** %4, metadata !4570, metadata !2769), !dbg !4571
  %5 = load %"struct.std::_Tuple_impl.10"*, %"struct.std::_Tuple_impl.10"** %3, align 8
  %6 = bitcast %"struct.std::_Tuple_impl.10"* %5 to %"struct.std::_Tuple_impl.11"*, !dbg !4572
  %7 = load %"struct.std::_Tuple_impl.10"*, %"struct.std::_Tuple_impl.10"** %4, align 8, !dbg !4573
  %8 = call dereferenceable(8) %"struct.std::_Tuple_impl.11"* @_ZNSt11_Tuple_implILm0EJSt7_Mem_fnIMN8peterson7Thread1EFvvEEPS2_EE7_M_tailERS7_(%"struct.std::_Tuple_impl.10"* dereferenceable(24) %7) #3, !dbg !4574
  %9 = call dereferenceable(8) %"struct.std::_Tuple_impl.11"* @_ZSt4moveIRSt11_Tuple_implILm1EJPN8peterson7Thread1EEEEONSt16remove_referenceIT_E4typeEOS7_(%"struct.std::_Tuple_impl.11"* dereferenceable(8) %8) #3, !dbg !4575
  call void @_ZNSt11_Tuple_implILm1EJPN8peterson7Thread1EEEC2EOS3_(%"struct.std::_Tuple_impl.11"* %6, %"struct.std::_Tuple_impl.11"* dereferenceable(8) %9) #3, !dbg !4577
  %10 = bitcast %"struct.std::_Tuple_impl.10"* %5 to i8*, !dbg !4572
  %11 = getelementptr inbounds i8, i8* %10, i64 8, !dbg !4572
  %12 = bitcast i8* %11 to %"struct.std::_Head_base.13"*, !dbg !4572
  %13 = load %"struct.std::_Tuple_impl.10"*, %"struct.std::_Tuple_impl.10"** %4, align 8, !dbg !4579
  %14 = call dereferenceable(16) %"struct.std::_Mem_fn.14"* @_ZNSt11_Tuple_implILm0EJSt7_Mem_fnIMN8peterson7Thread1EFvvEEPS2_EE7_M_headERS7_(%"struct.std::_Tuple_impl.10"* dereferenceable(24) %13) #3, !dbg !4580
  %15 = call dereferenceable(16) %"struct.std::_Mem_fn.14"* @_ZSt7forwardISt7_Mem_fnIMN8peterson7Thread1EFvvEEEOT_RNSt16remove_referenceIS6_E4typeE(%"struct.std::_Mem_fn.14"* dereferenceable(16) %14) #3, !dbg !4581
  invoke void @_ZNSt10_Head_baseILm0ESt7_Mem_fnIMN8peterson7Thread1EFvvEELb0EEC2IS5_EEOT_(%"struct.std::_Head_base.13"* %12, %"struct.std::_Mem_fn.14"* dereferenceable(16) %15)
          to label %16 unwind label %17, !dbg !4583

; <label>:16:                                     ; preds = %2
  ret void, !dbg !4584

; <label>:17:                                     ; preds = %2
  %18 = landingpad { i8*, i32 }
          catch i8* null, !dbg !4585
  %19 = extractvalue { i8*, i32 } %18, 0, !dbg !4585
  call void @__clang_call_terminate(i8* %19) #14, !dbg !4585
  unreachable, !dbg !4585
}

; Function Attrs: nounwind uwtable
define linkonce_odr dereferenceable(8) %"struct.std::_Tuple_impl.11"* @_ZSt4moveIRSt11_Tuple_implILm1EJPN8peterson7Thread1EEEEONSt16remove_referenceIT_E4typeEOS7_(%"struct.std::_Tuple_impl.11"* dereferenceable(8)) #4 comdat !dbg !4586 {
  %2 = alloca %"struct.std::_Tuple_impl.11"*, align 8
  store %"struct.std::_Tuple_impl.11"* %0, %"struct.std::_Tuple_impl.11"** %2, align 8
  call void @llvm.dbg.declare(metadata %"struct.std::_Tuple_impl.11"** %2, metadata !4594, metadata !2769), !dbg !4595
  %3 = load %"struct.std::_Tuple_impl.11"*, %"struct.std::_Tuple_impl.11"** %2, align 8, !dbg !4596
  ret %"struct.std::_Tuple_impl.11"* %3, !dbg !4597
}

; Function Attrs: nounwind uwtable
define linkonce_odr dereferenceable(8) %"struct.std::_Tuple_impl.11"* @_ZNSt11_Tuple_implILm0EJSt7_Mem_fnIMN8peterson7Thread1EFvvEEPS2_EE7_M_tailERS7_(%"struct.std::_Tuple_impl.10"* dereferenceable(24)) #4 comdat align 2 !dbg !4598 {
  %2 = alloca %"struct.std::_Tuple_impl.10"*, align 8
  store %"struct.std::_Tuple_impl.10"* %0, %"struct.std::_Tuple_impl.10"** %2, align 8
  call void @llvm.dbg.declare(metadata %"struct.std::_Tuple_impl.10"** %2, metadata !4599, metadata !2769), !dbg !4600
  %3 = load %"struct.std::_Tuple_impl.10"*, %"struct.std::_Tuple_impl.10"** %2, align 8, !dbg !4601
  %4 = bitcast %"struct.std::_Tuple_impl.10"* %3 to %"struct.std::_Tuple_impl.11"*, !dbg !4601
  ret %"struct.std::_Tuple_impl.11"* %4, !dbg !4602
}

; Function Attrs: nounwind uwtable
define linkonce_odr void @_ZNSt11_Tuple_implILm1EJPN8peterson7Thread1EEEC2EOS3_(%"struct.std::_Tuple_impl.11"*, %"struct.std::_Tuple_impl.11"* dereferenceable(8)) unnamed_addr #4 comdat align 2 personality i8* bitcast (i32 (...)* @__gxx_personality_v0 to i8*) !dbg !4603 {
  %3 = alloca %"struct.std::_Tuple_impl.11"*, align 8
  %4 = alloca %"struct.std::_Tuple_impl.11"*, align 8
  store %"struct.std::_Tuple_impl.11"* %0, %"struct.std::_Tuple_impl.11"** %3, align 8
  call void @llvm.dbg.declare(metadata %"struct.std::_Tuple_impl.11"** %3, metadata !4604, metadata !2769), !dbg !4606
  store %"struct.std::_Tuple_impl.11"* %1, %"struct.std::_Tuple_impl.11"** %4, align 8
  call void @llvm.dbg.declare(metadata %"struct.std::_Tuple_impl.11"** %4, metadata !4607, metadata !2769), !dbg !4608
  %5 = load %"struct.std::_Tuple_impl.11"*, %"struct.std::_Tuple_impl.11"** %3, align 8
  %6 = bitcast %"struct.std::_Tuple_impl.11"* %5 to %"struct.std::_Head_base.12"*, !dbg !4609
  %7 = load %"struct.std::_Tuple_impl.11"*, %"struct.std::_Tuple_impl.11"** %4, align 8, !dbg !4610
  %8 = call dereferenceable(8) %"class.peterson::Thread1"** @_ZNSt11_Tuple_implILm1EJPN8peterson7Thread1EEE7_M_headERS3_(%"struct.std::_Tuple_impl.11"* dereferenceable(8) %7) #3, !dbg !4611
  %9 = call dereferenceable(8) %"class.peterson::Thread1"** @_ZSt7forwardIPN8peterson7Thread1EEOT_RNSt16remove_referenceIS3_E4typeE(%"class.peterson::Thread1"** dereferenceable(8) %8) #3, !dbg !4612
  invoke void @_ZNSt10_Head_baseILm1EPN8peterson7Thread1ELb0EEC2IS2_EEOT_(%"struct.std::_Head_base.12"* %6, %"class.peterson::Thread1"** dereferenceable(8) %9)
          to label %10 unwind label %11, !dbg !4614

; <label>:10:                                     ; preds = %2
  ret void, !dbg !4615

; <label>:11:                                     ; preds = %2
  %12 = landingpad { i8*, i32 }
          catch i8* null, !dbg !4617
  %13 = extractvalue { i8*, i32 } %12, 0, !dbg !4617
  call void @__clang_call_terminate(i8* %13) #14, !dbg !4617
  unreachable, !dbg !4617
}

; Function Attrs: nounwind uwtable
define linkonce_odr dereferenceable(16) %"struct.std::_Mem_fn.14"* @_ZSt7forwardISt7_Mem_fnIMN8peterson7Thread1EFvvEEEOT_RNSt16remove_referenceIS6_E4typeE(%"struct.std::_Mem_fn.14"* dereferenceable(16)) #4 comdat !dbg !4619 {
  %2 = alloca %"struct.std::_Mem_fn.14"*, align 8
  store %"struct.std::_Mem_fn.14"* %0, %"struct.std::_Mem_fn.14"** %2, align 8
  call void @llvm.dbg.declare(metadata %"struct.std::_Mem_fn.14"** %2, metadata !4628, metadata !2769), !dbg !4629
  %3 = load %"struct.std::_Mem_fn.14"*, %"struct.std::_Mem_fn.14"** %2, align 8, !dbg !4630
  ret %"struct.std::_Mem_fn.14"* %3, !dbg !4631
}

; Function Attrs: nounwind uwtable
define linkonce_odr dereferenceable(16) %"struct.std::_Mem_fn.14"* @_ZNSt11_Tuple_implILm0EJSt7_Mem_fnIMN8peterson7Thread1EFvvEEPS2_EE7_M_headERS7_(%"struct.std::_Tuple_impl.10"* dereferenceable(24)) #4 comdat align 2 !dbg !4632 {
  %2 = alloca %"struct.std::_Tuple_impl.10"*, align 8
  store %"struct.std::_Tuple_impl.10"* %0, %"struct.std::_Tuple_impl.10"** %2, align 8
  call void @llvm.dbg.declare(metadata %"struct.std::_Tuple_impl.10"** %2, metadata !4633, metadata !2769), !dbg !4634
  %3 = load %"struct.std::_Tuple_impl.10"*, %"struct.std::_Tuple_impl.10"** %2, align 8, !dbg !4635
  %4 = bitcast %"struct.std::_Tuple_impl.10"* %3 to i8*, !dbg !4635
  %5 = getelementptr inbounds i8, i8* %4, i64 8, !dbg !4635
  %6 = bitcast i8* %5 to %"struct.std::_Head_base.13"*, !dbg !4635
  %7 = call dereferenceable(16) %"struct.std::_Mem_fn.14"* @_ZNSt10_Head_baseILm0ESt7_Mem_fnIMN8peterson7Thread1EFvvEELb0EE7_M_headERS6_(%"struct.std::_Head_base.13"* dereferenceable(16) %6) #3, !dbg !4636
  ret %"struct.std::_Mem_fn.14"* %7, !dbg !4637
}

; Function Attrs: nounwind uwtable
define linkonce_odr void @_ZNSt10_Head_baseILm0ESt7_Mem_fnIMN8peterson7Thread1EFvvEELb0EEC2IS5_EEOT_(%"struct.std::_Head_base.13"*, %"struct.std::_Mem_fn.14"* dereferenceable(16)) unnamed_addr #4 comdat align 2 !dbg !4638 {
  %3 = alloca %"struct.std::_Head_base.13"*, align 8
  %4 = alloca %"struct.std::_Mem_fn.14"*, align 8
  store %"struct.std::_Head_base.13"* %0, %"struct.std::_Head_base.13"** %3, align 8
  call void @llvm.dbg.declare(metadata %"struct.std::_Head_base.13"** %3, metadata !4644, metadata !2769), !dbg !4646
  store %"struct.std::_Mem_fn.14"* %1, %"struct.std::_Mem_fn.14"** %4, align 8
  call void @llvm.dbg.declare(metadata %"struct.std::_Mem_fn.14"** %4, metadata !4647, metadata !2769), !dbg !4648
  %5 = load %"struct.std::_Head_base.13"*, %"struct.std::_Head_base.13"** %3, align 8
  %6 = getelementptr inbounds %"struct.std::_Head_base.13", %"struct.std::_Head_base.13"* %5, i32 0, i32 0, !dbg !4649
  %7 = load %"struct.std::_Mem_fn.14"*, %"struct.std::_Mem_fn.14"** %4, align 8, !dbg !4650
  %8 = call dereferenceable(16) %"struct.std::_Mem_fn.14"* @_ZSt7forwardISt7_Mem_fnIMN8peterson7Thread1EFvvEEEOT_RNSt16remove_referenceIS6_E4typeE(%"struct.std::_Mem_fn.14"* dereferenceable(16) %7) #3, !dbg !4651
  %9 = bitcast %"struct.std::_Mem_fn.14"* %6 to i8*, !dbg !4649
  %10 = bitcast %"struct.std::_Mem_fn.14"* %8 to i8*, !dbg !4649
  call void @llvm.memcpy.p0i8.p0i8.i64(i8* %9, i8* %10, i64 16, i32 8, i1 false), !dbg !4652
  ret void, !dbg !4654
}

; Function Attrs: nounwind uwtable
define linkonce_odr dereferenceable(8) %"class.peterson::Thread1"** @_ZNSt11_Tuple_implILm1EJPN8peterson7Thread1EEE7_M_headERS3_(%"struct.std::_Tuple_impl.11"* dereferenceable(8)) #4 comdat align 2 !dbg !4655 {
  %2 = alloca %"struct.std::_Tuple_impl.11"*, align 8
  store %"struct.std::_Tuple_impl.11"* %0, %"struct.std::_Tuple_impl.11"** %2, align 8
  call void @llvm.dbg.declare(metadata %"struct.std::_Tuple_impl.11"** %2, metadata !4656, metadata !2769), !dbg !4657
  %3 = load %"struct.std::_Tuple_impl.11"*, %"struct.std::_Tuple_impl.11"** %2, align 8, !dbg !4658
  %4 = bitcast %"struct.std::_Tuple_impl.11"* %3 to %"struct.std::_Head_base.12"*, !dbg !4658
  %5 = call dereferenceable(8) %"class.peterson::Thread1"** @_ZNSt10_Head_baseILm1EPN8peterson7Thread1ELb0EE7_M_headERS3_(%"struct.std::_Head_base.12"* dereferenceable(8) %4) #3, !dbg !4659
  ret %"class.peterson::Thread1"** %5, !dbg !4660
}

; Function Attrs: nounwind uwtable
define linkonce_odr void @_ZNSt10_Head_baseILm1EPN8peterson7Thread1ELb0EEC2IS2_EEOT_(%"struct.std::_Head_base.12"*, %"class.peterson::Thread1"** dereferenceable(8)) unnamed_addr #4 comdat align 2 !dbg !4661 {
  %3 = alloca %"struct.std::_Head_base.12"*, align 8
  %4 = alloca %"class.peterson::Thread1"**, align 8
  store %"struct.std::_Head_base.12"* %0, %"struct.std::_Head_base.12"** %3, align 8
  call void @llvm.dbg.declare(metadata %"struct.std::_Head_base.12"** %3, metadata !4667, metadata !2769), !dbg !4669
  store %"class.peterson::Thread1"** %1, %"class.peterson::Thread1"*** %4, align 8
  call void @llvm.dbg.declare(metadata %"class.peterson::Thread1"*** %4, metadata !4670, metadata !2769), !dbg !4671
  %5 = load %"struct.std::_Head_base.12"*, %"struct.std::_Head_base.12"** %3, align 8
  %6 = getelementptr inbounds %"struct.std::_Head_base.12", %"struct.std::_Head_base.12"* %5, i32 0, i32 0, !dbg !4672
  %7 = load %"class.peterson::Thread1"**, %"class.peterson::Thread1"*** %4, align 8, !dbg !4673
  %8 = call dereferenceable(8) %"class.peterson::Thread1"** @_ZSt7forwardIPN8peterson7Thread1EEOT_RNSt16remove_referenceIS3_E4typeE(%"class.peterson::Thread1"** dereferenceable(8) %7) #3, !dbg !4674
  %9 = load %"class.peterson::Thread1"*, %"class.peterson::Thread1"** %8, align 8, !dbg !4674
  store %"class.peterson::Thread1"* %9, %"class.peterson::Thread1"** %6, align 8, !dbg !4672
  ret void, !dbg !4675
}

; Function Attrs: nounwind uwtable
define linkonce_odr dereferenceable(8) %"class.peterson::Thread1"** @_ZNSt10_Head_baseILm1EPN8peterson7Thread1ELb0EE7_M_headERS3_(%"struct.std::_Head_base.12"* dereferenceable(8)) #4 comdat align 2 !dbg !4676 {
  %2 = alloca %"struct.std::_Head_base.12"*, align 8
  store %"struct.std::_Head_base.12"* %0, %"struct.std::_Head_base.12"** %2, align 8
  call void @llvm.dbg.declare(metadata %"struct.std::_Head_base.12"** %2, metadata !4677, metadata !2769), !dbg !4678
  %3 = load %"struct.std::_Head_base.12"*, %"struct.std::_Head_base.12"** %2, align 8, !dbg !4679
  %4 = getelementptr inbounds %"struct.std::_Head_base.12", %"struct.std::_Head_base.12"* %3, i32 0, i32 0, !dbg !4680
  ret %"class.peterson::Thread1"** %4, !dbg !4681
}

; Function Attrs: nounwind uwtable
define linkonce_odr dereferenceable(16) %"struct.std::_Mem_fn.14"* @_ZNSt10_Head_baseILm0ESt7_Mem_fnIMN8peterson7Thread1EFvvEELb0EE7_M_headERS6_(%"struct.std::_Head_base.13"* dereferenceable(16)) #4 comdat align 2 !dbg !4682 {
  %2 = alloca %"struct.std::_Head_base.13"*, align 8
  store %"struct.std::_Head_base.13"* %0, %"struct.std::_Head_base.13"** %2, align 8
  call void @llvm.dbg.declare(metadata %"struct.std::_Head_base.13"** %2, metadata !4683, metadata !2769), !dbg !4684
  %3 = load %"struct.std::_Head_base.13"*, %"struct.std::_Head_base.13"** %2, align 8, !dbg !4685
  %4 = getelementptr inbounds %"struct.std::_Head_base.13", %"struct.std::_Head_base.13"* %3, i32 0, i32 0, !dbg !4686
  ret %"struct.std::_Mem_fn.14"* %4, !dbg !4687
}

; Function Attrs: uwtable
define linkonce_odr void @_ZNSt12_Bind_simpleIFSt7_Mem_fnIMN8peterson7Thread1EFvvEEPS2_EEclEv(%"struct.std::_Bind_simple.8"*) #0 comdat align 2 !dbg !4688 {
  %2 = alloca %"struct.std::_Bind_simple.8"*, align 8
  %3 = alloca %"struct.std::_Index_tuple", align 1
  store %"struct.std::_Bind_simple.8"* %0, %"struct.std::_Bind_simple.8"** %2, align 8
  call void @llvm.dbg.declare(metadata %"struct.std::_Bind_simple.8"** %2, metadata !4689, metadata !2769), !dbg !4690
  %4 = load %"struct.std::_Bind_simple.8"*, %"struct.std::_Bind_simple.8"** %2, align 8
  call void @_ZNSt12_Bind_simpleIFSt7_Mem_fnIMN8peterson7Thread1EFvvEEPS2_EE9_M_invokeIJLm0EEEEvSt12_Index_tupleIJXspT_EEE(%"struct.std::_Bind_simple.8"* %4), !dbg !4691
  ret void, !dbg !4692
}

; Function Attrs: uwtable
define linkonce_odr void @_ZNSt12_Bind_simpleIFSt7_Mem_fnIMN8peterson7Thread1EFvvEEPS2_EE9_M_invokeIJLm0EEEEvSt12_Index_tupleIJXspT_EEE(%"struct.std::_Bind_simple.8"*) #0 comdat align 2 !dbg !4693 {
  %2 = alloca %"struct.std::_Index_tuple", align 1
  %3 = alloca %"struct.std::_Bind_simple.8"*, align 8
  store %"struct.std::_Bind_simple.8"* %0, %"struct.std::_Bind_simple.8"** %3, align 8
  call void @llvm.dbg.declare(metadata %"struct.std::_Bind_simple.8"** %3, metadata !4697, metadata !2769), !dbg !4698
  call void @llvm.dbg.declare(metadata %"struct.std::_Index_tuple"* %2, metadata !4699, metadata !2769), !dbg !4700
  %4 = load %"struct.std::_Bind_simple.8"*, %"struct.std::_Bind_simple.8"** %3, align 8
  %5 = getelementptr inbounds %"struct.std::_Bind_simple.8", %"struct.std::_Bind_simple.8"* %4, i32 0, i32 0, !dbg !4701
  %6 = call dereferenceable(16) %"struct.std::_Mem_fn.14"* @_ZSt3getILm0EJSt7_Mem_fnIMN8peterson7Thread1EFvvEEPS2_EERNSt13tuple_elementIXT_ESt5tupleIJDpT0_EEE4typeERSB_(%"class.std::tuple.9"* dereferenceable(24) %5) #3, !dbg !4702
  %7 = call dereferenceable(16) %"struct.std::_Mem_fn.14"* @_ZSt7forwardISt7_Mem_fnIMN8peterson7Thread1EFvvEEEOT_RNSt16remove_referenceIS6_E4typeE(%"struct.std::_Mem_fn.14"* dereferenceable(16) %6) #3, !dbg !4703
  %8 = bitcast %"struct.std::_Mem_fn.14"* %7 to %"class.std::_Mem_fn_base.15"*, !dbg !4705
  %9 = getelementptr inbounds %"struct.std::_Bind_simple.8", %"struct.std::_Bind_simple.8"* %4, i32 0, i32 0, !dbg !4706
  %10 = call dereferenceable(8) %"class.peterson::Thread1"** @_ZSt3getILm1EJSt7_Mem_fnIMN8peterson7Thread1EFvvEEPS2_EERNSt13tuple_elementIXT_ESt5tupleIJDpT0_EEE4typeERSB_(%"class.std::tuple.9"* dereferenceable(24) %9) #3, !dbg !4707
  %11 = call dereferenceable(8) %"class.peterson::Thread1"** @_ZSt7forwardIPN8peterson7Thread1EEOT_RNSt16remove_referenceIS3_E4typeE(%"class.peterson::Thread1"** dereferenceable(8) %10) #3, !dbg !4708
  call void @_ZNKSt12_Mem_fn_baseIMN8peterson7Thread1EFvvELb1EEclIJPS1_EEEDTclsr3stdE8__invokedtdefpT6_M_pmfspclsr3stdE7forwardIT_Efp_EEEDpOS7_(%"class.std::_Mem_fn_base.15"* %8, %"class.peterson::Thread1"** dereferenceable(8) %11), !dbg !4709
  ret void, !dbg !4711
}

; Function Attrs: nounwind uwtable
define linkonce_odr dereferenceable(16) %"struct.std::_Mem_fn.14"* @_ZSt3getILm0EJSt7_Mem_fnIMN8peterson7Thread1EFvvEEPS2_EERNSt13tuple_elementIXT_ESt5tupleIJDpT0_EEE4typeERSB_(%"class.std::tuple.9"* dereferenceable(24)) #4 comdat !dbg !4712 {
  %2 = alloca %"class.std::tuple.9"*, align 8
  store %"class.std::tuple.9"* %0, %"class.std::tuple.9"** %2, align 8
  call void @llvm.dbg.declare(metadata %"class.std::tuple.9"** %2, metadata !4722, metadata !2769), !dbg !4723
  %3 = load %"class.std::tuple.9"*, %"class.std::tuple.9"** %2, align 8, !dbg !4724
  %4 = bitcast %"class.std::tuple.9"* %3 to %"struct.std::_Tuple_impl.10"*, !dbg !4724
  %5 = call dereferenceable(16) %"struct.std::_Mem_fn.14"* @_ZSt12__get_helperILm0ESt7_Mem_fnIMN8peterson7Thread1EFvvEEJPS2_EERT0_RSt11_Tuple_implIXT_EJS7_DpT1_EE(%"struct.std::_Tuple_impl.10"* dereferenceable(24) %4) #3, !dbg !4725
  ret %"struct.std::_Mem_fn.14"* %5, !dbg !4726
}

; Function Attrs: uwtable
define linkonce_odr void @_ZNKSt12_Mem_fn_baseIMN8peterson7Thread1EFvvELb1EEclIJPS1_EEEDTclsr3stdE8__invokedtdefpT6_M_pmfspclsr3stdE7forwardIT_Efp_EEEDpOS7_(%"class.std::_Mem_fn_base.15"*, %"class.peterson::Thread1"** dereferenceable(8)) #0 comdat align 2 !dbg !4727 {
  %3 = alloca %"class.std::_Mem_fn_base.15"*, align 8
  %4 = alloca %"class.peterson::Thread1"**, align 8
  store %"class.std::_Mem_fn_base.15"* %0, %"class.std::_Mem_fn_base.15"** %3, align 8
  call void @llvm.dbg.declare(metadata %"class.std::_Mem_fn_base.15"** %3, metadata !4734, metadata !2769), !dbg !4736
  store %"class.peterson::Thread1"** %1, %"class.peterson::Thread1"*** %4, align 8
  call void @llvm.dbg.declare(metadata %"class.peterson::Thread1"*** %4, metadata !4737, metadata !2769), !dbg !4738
  %5 = load %"class.std::_Mem_fn_base.15"*, %"class.std::_Mem_fn_base.15"** %3, align 8
  %6 = getelementptr inbounds %"class.std::_Mem_fn_base.15", %"class.std::_Mem_fn_base.15"* %5, i32 0, i32 0, !dbg !4739
  %7 = load %"class.peterson::Thread1"**, %"class.peterson::Thread1"*** %4, align 8, !dbg !4740
  %8 = call dereferenceable(8) %"class.peterson::Thread1"** @_ZSt7forwardIPN8peterson7Thread1EEOT_RNSt16remove_referenceIS3_E4typeE(%"class.peterson::Thread1"** dereferenceable(8) %7) #3, !dbg !4741
  call void @_ZSt8__invokeIRKMN8peterson7Thread1EFvvEJPS1_EENSt9result_ofIFOT_DpOT0_EE4typeES9_SC_({ i64, i64 }* dereferenceable(16) %6, %"class.peterson::Thread1"** dereferenceable(8) %8), !dbg !4742
  ret void, !dbg !4744
}

; Function Attrs: nounwind uwtable
define linkonce_odr dereferenceable(8) %"class.peterson::Thread1"** @_ZSt3getILm1EJSt7_Mem_fnIMN8peterson7Thread1EFvvEEPS2_EERNSt13tuple_elementIXT_ESt5tupleIJDpT0_EEE4typeERSB_(%"class.std::tuple.9"* dereferenceable(24)) #4 comdat !dbg !4745 {
  %2 = alloca %"class.std::tuple.9"*, align 8
  store %"class.std::tuple.9"* %0, %"class.std::tuple.9"** %2, align 8
  call void @llvm.dbg.declare(metadata %"class.std::tuple.9"** %2, metadata !4756, metadata !2769), !dbg !4757
  %3 = load %"class.std::tuple.9"*, %"class.std::tuple.9"** %2, align 8, !dbg !4758
  %4 = bitcast %"class.std::tuple.9"* %3 to %"struct.std::_Tuple_impl.11"*, !dbg !4758
  %5 = call dereferenceable(8) %"class.peterson::Thread1"** @_ZSt12__get_helperILm1EPN8peterson7Thread1EJEERT0_RSt11_Tuple_implIXT_EJS3_DpT1_EE(%"struct.std::_Tuple_impl.11"* dereferenceable(8) %4) #3, !dbg !4759
  ret %"class.peterson::Thread1"** %5, !dbg !4760
}

; Function Attrs: nounwind uwtable
define linkonce_odr dereferenceable(16) %"struct.std::_Mem_fn.14"* @_ZSt12__get_helperILm0ESt7_Mem_fnIMN8peterson7Thread1EFvvEEJPS2_EERT0_RSt11_Tuple_implIXT_EJS7_DpT1_EE(%"struct.std::_Tuple_impl.10"* dereferenceable(24)) #4 comdat !dbg !4761 {
  %2 = alloca %"struct.std::_Tuple_impl.10"*, align 8
  store %"struct.std::_Tuple_impl.10"* %0, %"struct.std::_Tuple_impl.10"** %2, align 8
  call void @llvm.dbg.declare(metadata %"struct.std::_Tuple_impl.10"** %2, metadata !4764, metadata !2769), !dbg !4765
  %3 = load %"struct.std::_Tuple_impl.10"*, %"struct.std::_Tuple_impl.10"** %2, align 8, !dbg !4766
  %4 = call dereferenceable(16) %"struct.std::_Mem_fn.14"* @_ZNSt11_Tuple_implILm0EJSt7_Mem_fnIMN8peterson7Thread1EFvvEEPS2_EE7_M_headERS7_(%"struct.std::_Tuple_impl.10"* dereferenceable(24) %3) #3, !dbg !4767
  ret %"struct.std::_Mem_fn.14"* %4, !dbg !4768
}

; Function Attrs: inlinehint uwtable
define linkonce_odr void @_ZSt8__invokeIRKMN8peterson7Thread1EFvvEJPS1_EENSt9result_ofIFOT_DpOT0_EE4typeES9_SC_({ i64, i64 }* dereferenceable(16), %"class.peterson::Thread1"** dereferenceable(8)) #13 comdat !dbg !534 {
  %3 = alloca { i64, i64 }*, align 8
  %4 = alloca %"class.peterson::Thread1"**, align 8
  %5 = alloca %"struct.std::__invoke_memfun_deref", align 1
  store { i64, i64 }* %0, { i64, i64 }** %3, align 8
  call void @llvm.dbg.declare(metadata { i64, i64 }** %3, metadata !4769, metadata !2769), !dbg !4770
  store %"class.peterson::Thread1"** %1, %"class.peterson::Thread1"*** %4, align 8
  call void @llvm.dbg.declare(metadata %"class.peterson::Thread1"*** %4, metadata !4771, metadata !2769), !dbg !4772
  %6 = load { i64, i64 }*, { i64, i64 }** %3, align 8, !dbg !4773
  %7 = call dereferenceable(16) { i64, i64 }* @_ZSt7forwardIRKMN8peterson7Thread1EFvvEEOT_RNSt16remove_referenceIS6_E4typeE({ i64, i64 }* dereferenceable(16) %6) #3, !dbg !4774
  %8 = load %"class.peterson::Thread1"**, %"class.peterson::Thread1"*** %4, align 8, !dbg !4775
  %9 = call dereferenceable(8) %"class.peterson::Thread1"** @_ZSt7forwardIPN8peterson7Thread1EEOT_RNSt16remove_referenceIS3_E4typeE(%"class.peterson::Thread1"** dereferenceable(8) %8) #3, !dbg !4776
  call void @_ZSt13__invoke_implIvRKMN8peterson7Thread1EFvvEPS1_JEET_St21__invoke_memfun_derefOT0_OT1_DpOT2_({ i64, i64 }* dereferenceable(16) %7, %"class.peterson::Thread1"** dereferenceable(8) %9), !dbg !4777
  ret void, !dbg !4779
}

; Function Attrs: inlinehint uwtable
define linkonce_odr void @_ZSt13__invoke_implIvRKMN8peterson7Thread1EFvvEPS1_JEET_St21__invoke_memfun_derefOT0_OT1_DpOT2_({ i64, i64 }* dereferenceable(16), %"class.peterson::Thread1"** dereferenceable(8)) #13 comdat !dbg !4780 {
  %3 = alloca %"struct.std::__invoke_memfun_deref", align 1
  %4 = alloca { i64, i64 }*, align 8
  %5 = alloca %"class.peterson::Thread1"**, align 8
  call void @llvm.dbg.declare(metadata %"struct.std::__invoke_memfun_deref"* %3, metadata !4785, metadata !2769), !dbg !4786
  store { i64, i64 }* %0, { i64, i64 }** %4, align 8
  call void @llvm.dbg.declare(metadata { i64, i64 }** %4, metadata !4787, metadata !2769), !dbg !4788
  store %"class.peterson::Thread1"** %1, %"class.peterson::Thread1"*** %5, align 8
  call void @llvm.dbg.declare(metadata %"class.peterson::Thread1"*** %5, metadata !4789, metadata !2769), !dbg !4790
  %6 = load { i64, i64 }*, { i64, i64 }** %4, align 8, !dbg !4791
  %7 = load { i64, i64 }, { i64, i64 }* %6, align 8, !dbg !4791
  %8 = load %"class.peterson::Thread1"**, %"class.peterson::Thread1"*** %5, align 8, !dbg !4792
  %9 = call dereferenceable(8) %"class.peterson::Thread1"** @_ZSt7forwardIPN8peterson7Thread1EEOT_RNSt16remove_referenceIS3_E4typeE(%"class.peterson::Thread1"** dereferenceable(8) %8) #3, !dbg !4793
  %10 = load %"class.peterson::Thread1"*, %"class.peterson::Thread1"** %9, align 8, !dbg !4793
  %11 = extractvalue { i64, i64 } %7, 1, !dbg !4794
  %12 = bitcast %"class.peterson::Thread1"* %10 to i8*, !dbg !4794
  %13 = getelementptr inbounds i8, i8* %12, i64 %11, !dbg !4794
  %14 = bitcast i8* %13 to %"class.peterson::Thread1"*, !dbg !4794
  %15 = extractvalue { i64, i64 } %7, 0, !dbg !4794
  %16 = and i64 %15, 1, !dbg !4794
  %17 = icmp ne i64 %16, 0, !dbg !4794
  br i1 %17, label %18, label %25, !dbg !4794

; <label>:18:                                     ; preds = %2
  %19 = bitcast %"class.peterson::Thread1"* %14 to i8**, !dbg !4795
  %20 = load i8*, i8** %19, align 8, !dbg !4795
  %21 = sub i64 %15, 1, !dbg !4795
  %22 = getelementptr i8, i8* %20, i64 %21, !dbg !4795
  %23 = bitcast i8* %22 to void (%"class.peterson::Thread1"*)**, !dbg !4795
  %24 = load void (%"class.peterson::Thread1"*)*, void (%"class.peterson::Thread1"*)** %23, align 8, !dbg !4795
  br label %27, !dbg !4795

; <label>:25:                                     ; preds = %2
  %26 = inttoptr i64 %15 to void (%"class.peterson::Thread1"*)*, !dbg !4797
  br label %27, !dbg !4797

; <label>:27:                                     ; preds = %25, %18
  %28 = phi void (%"class.peterson::Thread1"*)* [ %24, %18 ], [ %26, %25 ], !dbg !4799
  call void %28(%"class.peterson::Thread1"* %14), !dbg !4799
  ret void, !dbg !4801
}

; Function Attrs: nounwind uwtable
define linkonce_odr dereferenceable(16) { i64, i64 }* @_ZSt7forwardIRKMN8peterson7Thread1EFvvEEOT_RNSt16remove_referenceIS6_E4typeE({ i64, i64 }* dereferenceable(16)) #4 comdat !dbg !4802 {
  %2 = alloca { i64, i64 }*, align 8
  store { i64, i64 }* %0, { i64, i64 }** %2, align 8
  call void @llvm.dbg.declare(metadata { i64, i64 }** %2, metadata !4810, metadata !2769), !dbg !4811
  %3 = load { i64, i64 }*, { i64, i64 }** %2, align 8, !dbg !4812
  ret { i64, i64 }* %3, !dbg !4813
}

; Function Attrs: nounwind uwtable
define linkonce_odr dereferenceable(8) %"class.peterson::Thread1"** @_ZSt12__get_helperILm1EPN8peterson7Thread1EJEERT0_RSt11_Tuple_implIXT_EJS3_DpT1_EE(%"struct.std::_Tuple_impl.11"* dereferenceable(8)) #4 comdat !dbg !4814 {
  %2 = alloca %"struct.std::_Tuple_impl.11"*, align 8
  store %"struct.std::_Tuple_impl.11"* %0, %"struct.std::_Tuple_impl.11"** %2, align 8
  call void @llvm.dbg.declare(metadata %"struct.std::_Tuple_impl.11"** %2, metadata !4816, metadata !2769), !dbg !4817
  %3 = load %"struct.std::_Tuple_impl.11"*, %"struct.std::_Tuple_impl.11"** %2, align 8, !dbg !4818
  %4 = call dereferenceable(8) %"class.peterson::Thread1"** @_ZNSt11_Tuple_implILm1EJPN8peterson7Thread1EEE7_M_headERS3_(%"struct.std::_Tuple_impl.11"* dereferenceable(8) %3) #3, !dbg !4819
  ret %"class.peterson::Thread1"** %4, !dbg !4820
}

; Function Attrs: nounwind uwtable
define linkonce_odr { i64, i64 } @_ZNSt26_Maybe_wrap_member_pointerIMN8peterson7Thread1EFvvEE9__do_wrapES3_(i64, i64) #4 comdat align 2 !dbg !4821 {
  %3 = alloca %"struct.std::_Mem_fn.14", align 8
  %4 = alloca { i64, i64 }, align 8
  %5 = alloca { i64, i64 }, align 8
  %6 = alloca { i64, i64 }, align 8
  %7 = getelementptr inbounds { i64, i64 }, { i64, i64 }* %4, i32 0, i32 0
  store i64 %0, i64* %7, align 8
  %8 = getelementptr inbounds { i64, i64 }, { i64, i64 }* %4, i32 0, i32 1
  store i64 %1, i64* %8, align 8
  %9 = load { i64, i64 }, { i64, i64 }* %4, align 8
  store { i64, i64 } %9, { i64, i64 }* %5, align 8
  call void @llvm.dbg.declare(metadata { i64, i64 }* %5, metadata !4822, metadata !2769), !dbg !4823
  %10 = load { i64, i64 }, { i64, i64 }* %5, align 8, !dbg !4824
  store { i64, i64 } %10, { i64, i64 }* %6, align 8, !dbg !4825
  %11 = getelementptr inbounds { i64, i64 }, { i64, i64 }* %6, i32 0, i32 0, !dbg !4825
  %12 = load i64, i64* %11, align 8, !dbg !4825
  %13 = getelementptr inbounds { i64, i64 }, { i64, i64 }* %6, i32 0, i32 1, !dbg !4825
  %14 = load i64, i64* %13, align 8, !dbg !4825
  call void @_ZNSt7_Mem_fnIMN8peterson7Thread1EFvvEECI2St12_Mem_fn_baseIS3_Lb1EEES3_(%"struct.std::_Mem_fn.14"* %3, i64 %12, i64 %14) #3, !dbg !4825
  %15 = getelementptr inbounds %"struct.std::_Mem_fn.14", %"struct.std::_Mem_fn.14"* %3, i32 0, i32 0, !dbg !4826
  %16 = getelementptr inbounds %"class.std::_Mem_fn_base.15", %"class.std::_Mem_fn_base.15"* %15, i32 0, i32 0, !dbg !4826
  %17 = load { i64, i64 }, { i64, i64 }* %16, align 8, !dbg !4826
  ret { i64, i64 } %17, !dbg !4826
}

; Function Attrs: uwtable
define linkonce_odr void @_ZNSt12_Bind_simpleIFSt7_Mem_fnIMN8peterson7Thread1EFvvEEPS2_EEC2IS5_JS6_EEEOT_DpOT0_(%"struct.std::_Bind_simple.8"*, %"struct.std::_Mem_fn.14"* dereferenceable(16), %"class.peterson::Thread1"** dereferenceable(8)) unnamed_addr #0 comdat align 2 !dbg !4827 {
  %4 = alloca %"struct.std::_Bind_simple.8"*, align 8
  %5 = alloca %"struct.std::_Mem_fn.14"*, align 8
  %6 = alloca %"class.peterson::Thread1"**, align 8
  store %"struct.std::_Bind_simple.8"* %0, %"struct.std::_Bind_simple.8"** %4, align 8
  call void @llvm.dbg.declare(metadata %"struct.std::_Bind_simple.8"** %4, metadata !4833, metadata !2769), !dbg !4834
  store %"struct.std::_Mem_fn.14"* %1, %"struct.std::_Mem_fn.14"** %5, align 8
  call void @llvm.dbg.declare(metadata %"struct.std::_Mem_fn.14"** %5, metadata !4835, metadata !2769), !dbg !4836
  store %"class.peterson::Thread1"** %2, %"class.peterson::Thread1"*** %6, align 8
  call void @llvm.dbg.declare(metadata %"class.peterson::Thread1"*** %6, metadata !4837, metadata !2769), !dbg !4838
  %7 = load %"struct.std::_Bind_simple.8"*, %"struct.std::_Bind_simple.8"** %4, align 8
  %8 = getelementptr inbounds %"struct.std::_Bind_simple.8", %"struct.std::_Bind_simple.8"* %7, i32 0, i32 0, !dbg !4839
  %9 = load %"struct.std::_Mem_fn.14"*, %"struct.std::_Mem_fn.14"** %5, align 8, !dbg !4840
  %10 = call dereferenceable(16) %"struct.std::_Mem_fn.14"* @_ZSt7forwardISt7_Mem_fnIMN8peterson7Thread1EFvvEEEOT_RNSt16remove_referenceIS6_E4typeE(%"struct.std::_Mem_fn.14"* dereferenceable(16) %9) #3, !dbg !4841
  %11 = load %"class.peterson::Thread1"**, %"class.peterson::Thread1"*** %6, align 8, !dbg !4842
  %12 = call dereferenceable(8) %"class.peterson::Thread1"** @_ZSt7forwardIPN8peterson7Thread1EEOT_RNSt16remove_referenceIS3_E4typeE(%"class.peterson::Thread1"** dereferenceable(8) %11) #3, !dbg !4843
  call void @_ZNSt5tupleIJSt7_Mem_fnIMN8peterson7Thread1EFvvEEPS2_EEC2IS5_S6_Lb1EEEOT_OT0_(%"class.std::tuple.9"* %8, %"struct.std::_Mem_fn.14"* dereferenceable(16) %10, %"class.peterson::Thread1"** dereferenceable(8) %12), !dbg !4845
  ret void, !dbg !4847
}

; Function Attrs: inlinehint nounwind uwtable
define linkonce_odr void @_ZNSt7_Mem_fnIMN8peterson7Thread1EFvvEECI2St12_Mem_fn_baseIS3_Lb1EEES3_(%"struct.std::_Mem_fn.14"*, i64, i64) unnamed_addr #7 comdat align 2 !dbg !4848 {
  %4 = alloca { i64, i64 }, align 8
  %5 = alloca %"struct.std::_Mem_fn.14"*, align 8
  %6 = alloca { i64, i64 }, align 8
  %7 = alloca { i64, i64 }, align 8
  %8 = getelementptr inbounds { i64, i64 }, { i64, i64 }* %4, i32 0, i32 0
  store i64 %1, i64* %8, align 8
  %9 = getelementptr inbounds { i64, i64 }, { i64, i64 }* %4, i32 0, i32 1
  store i64 %2, i64* %9, align 8
  %10 = load { i64, i64 }, { i64, i64 }* %4, align 8
  store %"struct.std::_Mem_fn.14"* %0, %"struct.std::_Mem_fn.14"** %5, align 8
  call void @llvm.dbg.declare(metadata %"struct.std::_Mem_fn.14"** %5, metadata !4853, metadata !2769), !dbg !4855
  store { i64, i64 } %10, { i64, i64 }* %6, align 8
  call void @llvm.dbg.declare(metadata { i64, i64 }* %6, metadata !4856, metadata !2769), !dbg !4855
  %11 = load %"struct.std::_Mem_fn.14"*, %"struct.std::_Mem_fn.14"** %5, align 8
  %12 = bitcast %"struct.std::_Mem_fn.14"* %11 to %"class.std::_Mem_fn_base.15"*, !dbg !4857
  %13 = load { i64, i64 }, { i64, i64 }* %6, align 8, !dbg !4857
  store { i64, i64 } %13, { i64, i64 }* %7, align 8, !dbg !4857
  %14 = getelementptr inbounds { i64, i64 }, { i64, i64 }* %7, i32 0, i32 0, !dbg !4857
  %15 = load i64, i64* %14, align 8, !dbg !4857
  %16 = getelementptr inbounds { i64, i64 }, { i64, i64 }* %7, i32 0, i32 1, !dbg !4857
  %17 = load i64, i64* %16, align 8, !dbg !4857
  call void @_ZNSt12_Mem_fn_baseIMN8peterson7Thread1EFvvELb1EEC2ES3_(%"class.std::_Mem_fn_base.15"* %12, i64 %15, i64 %17) #3, !dbg !4857
  ret void, !dbg !4857
}

; Function Attrs: nounwind uwtable
define linkonce_odr void @_ZNSt12_Mem_fn_baseIMN8peterson7Thread1EFvvELb1EEC2ES3_(%"class.std::_Mem_fn_base.15"*, i64, i64) unnamed_addr #4 comdat align 2 !dbg !4858 {
  %4 = alloca { i64, i64 }, align 8
  %5 = alloca %"class.std::_Mem_fn_base.15"*, align 8
  %6 = alloca { i64, i64 }, align 8
  %7 = getelementptr inbounds { i64, i64 }, { i64, i64 }* %4, i32 0, i32 0
  store i64 %1, i64* %7, align 8
  %8 = getelementptr inbounds { i64, i64 }, { i64, i64 }* %4, i32 0, i32 1
  store i64 %2, i64* %8, align 8
  %9 = load { i64, i64 }, { i64, i64 }* %4, align 8
  store %"class.std::_Mem_fn_base.15"* %0, %"class.std::_Mem_fn_base.15"** %5, align 8
  call void @llvm.dbg.declare(metadata %"class.std::_Mem_fn_base.15"** %5, metadata !4859, metadata !2769), !dbg !4861
  store { i64, i64 } %9, { i64, i64 }* %6, align 8
  call void @llvm.dbg.declare(metadata { i64, i64 }* %6, metadata !4862, metadata !2769), !dbg !4863
  %10 = load %"class.std::_Mem_fn_base.15"*, %"class.std::_Mem_fn_base.15"** %5, align 8
  %11 = bitcast %"class.std::_Mem_fn_base.15"* %10 to %"struct.std::_Maybe_unary_or_binary_function.16"*, !dbg !4864
  %12 = getelementptr inbounds %"class.std::_Mem_fn_base.15", %"class.std::_Mem_fn_base.15"* %10, i32 0, i32 0, !dbg !4865
  %13 = load { i64, i64 }, { i64, i64 }* %6, align 8, !dbg !4866
  store { i64, i64 } %13, { i64, i64 }* %12, align 8, !dbg !4865
  ret void, !dbg !4867
}

; Function Attrs: uwtable
define linkonce_odr void @_ZNSt5tupleIJSt7_Mem_fnIMN8peterson7Thread1EFvvEEPS2_EEC2IS5_S6_Lb1EEEOT_OT0_(%"class.std::tuple.9"*, %"struct.std::_Mem_fn.14"* dereferenceable(16), %"class.peterson::Thread1"** dereferenceable(8)) unnamed_addr #0 comdat align 2 !dbg !4868 {
  %4 = alloca %"class.std::tuple.9"*, align 8
  %5 = alloca %"struct.std::_Mem_fn.14"*, align 8
  %6 = alloca %"class.peterson::Thread1"**, align 8
  store %"class.std::tuple.9"* %0, %"class.std::tuple.9"** %4, align 8
  call void @llvm.dbg.declare(metadata %"class.std::tuple.9"** %4, metadata !4875, metadata !2769), !dbg !4876
  store %"struct.std::_Mem_fn.14"* %1, %"struct.std::_Mem_fn.14"** %5, align 8
  call void @llvm.dbg.declare(metadata %"struct.std::_Mem_fn.14"** %5, metadata !4877, metadata !2769), !dbg !4878
  store %"class.peterson::Thread1"** %2, %"class.peterson::Thread1"*** %6, align 8
  call void @llvm.dbg.declare(metadata %"class.peterson::Thread1"*** %6, metadata !4879, metadata !2769), !dbg !4880
  %7 = load %"class.std::tuple.9"*, %"class.std::tuple.9"** %4, align 8
  %8 = bitcast %"class.std::tuple.9"* %7 to %"struct.std::_Tuple_impl.10"*, !dbg !4881
  %9 = load %"struct.std::_Mem_fn.14"*, %"struct.std::_Mem_fn.14"** %5, align 8, !dbg !4882
  %10 = call dereferenceable(16) %"struct.std::_Mem_fn.14"* @_ZSt7forwardISt7_Mem_fnIMN8peterson7Thread1EFvvEEEOT_RNSt16remove_referenceIS6_E4typeE(%"struct.std::_Mem_fn.14"* dereferenceable(16) %9) #3, !dbg !4883
  %11 = load %"class.peterson::Thread1"**, %"class.peterson::Thread1"*** %6, align 8, !dbg !4884
  %12 = call dereferenceable(8) %"class.peterson::Thread1"** @_ZSt7forwardIPN8peterson7Thread1EEOT_RNSt16remove_referenceIS3_E4typeE(%"class.peterson::Thread1"** dereferenceable(8) %11) #3, !dbg !4885
  call void @_ZNSt11_Tuple_implILm0EJSt7_Mem_fnIMN8peterson7Thread1EFvvEEPS2_EEC2IS5_JS6_EvEEOT_DpOT0_(%"struct.std::_Tuple_impl.10"* %8, %"struct.std::_Mem_fn.14"* dereferenceable(16) %10, %"class.peterson::Thread1"** dereferenceable(8) %12), !dbg !4887
  ret void, !dbg !4889
}

; Function Attrs: uwtable
define linkonce_odr void @_ZNSt11_Tuple_implILm0EJSt7_Mem_fnIMN8peterson7Thread1EFvvEEPS2_EEC2IS5_JS6_EvEEOT_DpOT0_(%"struct.std::_Tuple_impl.10"*, %"struct.std::_Mem_fn.14"* dereferenceable(16), %"class.peterson::Thread1"** dereferenceable(8)) unnamed_addr #0 comdat align 2 !dbg !4890 {
  %4 = alloca %"struct.std::_Tuple_impl.10"*, align 8
  %5 = alloca %"struct.std::_Mem_fn.14"*, align 8
  %6 = alloca %"class.peterson::Thread1"**, align 8
  store %"struct.std::_Tuple_impl.10"* %0, %"struct.std::_Tuple_impl.10"** %4, align 8
  call void @llvm.dbg.declare(metadata %"struct.std::_Tuple_impl.10"** %4, metadata !4896, metadata !2769), !dbg !4897
  store %"struct.std::_Mem_fn.14"* %1, %"struct.std::_Mem_fn.14"** %5, align 8
  call void @llvm.dbg.declare(metadata %"struct.std::_Mem_fn.14"** %5, metadata !4898, metadata !2769), !dbg !4899
  store %"class.peterson::Thread1"** %2, %"class.peterson::Thread1"*** %6, align 8
  call void @llvm.dbg.declare(metadata %"class.peterson::Thread1"*** %6, metadata !4900, metadata !2769), !dbg !4901
  %7 = load %"struct.std::_Tuple_impl.10"*, %"struct.std::_Tuple_impl.10"** %4, align 8
  %8 = bitcast %"struct.std::_Tuple_impl.10"* %7 to %"struct.std::_Tuple_impl.11"*, !dbg !4902
  %9 = load %"class.peterson::Thread1"**, %"class.peterson::Thread1"*** %6, align 8, !dbg !4903
  %10 = call dereferenceable(8) %"class.peterson::Thread1"** @_ZSt7forwardIPN8peterson7Thread1EEOT_RNSt16remove_referenceIS3_E4typeE(%"class.peterson::Thread1"** dereferenceable(8) %9) #3, !dbg !4904
  call void @_ZNSt11_Tuple_implILm1EJPN8peterson7Thread1EEEC2IS2_EEOT_(%"struct.std::_Tuple_impl.11"* %8, %"class.peterson::Thread1"** dereferenceable(8) %10), !dbg !4905
  %11 = bitcast %"struct.std::_Tuple_impl.10"* %7 to i8*, !dbg !4902
  %12 = getelementptr inbounds i8, i8* %11, i64 8, !dbg !4902
  %13 = bitcast i8* %12 to %"struct.std::_Head_base.13"*, !dbg !4902
  %14 = load %"struct.std::_Mem_fn.14"*, %"struct.std::_Mem_fn.14"** %5, align 8, !dbg !4907
  %15 = call dereferenceable(16) %"struct.std::_Mem_fn.14"* @_ZSt7forwardISt7_Mem_fnIMN8peterson7Thread1EFvvEEEOT_RNSt16remove_referenceIS6_E4typeE(%"struct.std::_Mem_fn.14"* dereferenceable(16) %14) #3, !dbg !4908
  call void @_ZNSt10_Head_baseILm0ESt7_Mem_fnIMN8peterson7Thread1EFvvEELb0EEC2IS5_EEOT_(%"struct.std::_Head_base.13"* %13, %"struct.std::_Mem_fn.14"* dereferenceable(16) %15), !dbg !4909
  ret void, !dbg !4910
}

; Function Attrs: nounwind uwtable
define linkonce_odr void @_ZNSt11_Tuple_implILm1EJPN8peterson7Thread1EEEC2IS2_EEOT_(%"struct.std::_Tuple_impl.11"*, %"class.peterson::Thread1"** dereferenceable(8)) unnamed_addr #4 comdat align 2 !dbg !4911 {
  %3 = alloca %"struct.std::_Tuple_impl.11"*, align 8
  %4 = alloca %"class.peterson::Thread1"**, align 8
  store %"struct.std::_Tuple_impl.11"* %0, %"struct.std::_Tuple_impl.11"** %3, align 8
  call void @llvm.dbg.declare(metadata %"struct.std::_Tuple_impl.11"** %3, metadata !4915, metadata !2769), !dbg !4916
  store %"class.peterson::Thread1"** %1, %"class.peterson::Thread1"*** %4, align 8
  call void @llvm.dbg.declare(metadata %"class.peterson::Thread1"*** %4, metadata !4917, metadata !2769), !dbg !4918
  %5 = load %"struct.std::_Tuple_impl.11"*, %"struct.std::_Tuple_impl.11"** %3, align 8
  %6 = bitcast %"struct.std::_Tuple_impl.11"* %5 to %"struct.std::_Head_base.12"*, !dbg !4919
  %7 = load %"class.peterson::Thread1"**, %"class.peterson::Thread1"*** %4, align 8, !dbg !4920
  %8 = call dereferenceable(8) %"class.peterson::Thread1"** @_ZSt7forwardIPN8peterson7Thread1EEOT_RNSt16remove_referenceIS3_E4typeE(%"class.peterson::Thread1"** dereferenceable(8) %7) #3, !dbg !4921
  call void @_ZNSt10_Head_baseILm1EPN8peterson7Thread1ELb0EEC2IS2_EEOT_(%"struct.std::_Head_base.12"* %6, %"class.peterson::Thread1"** dereferenceable(8) %8), !dbg !4922
  ret void, !dbg !4924
}

; Function Attrs: uwtable
define linkonce_odr void @_ZN9IrsThread4joinEv(%class.IrsThread*) #0 comdat align 2 !dbg !4925 {
  %2 = alloca %class.IrsThread*, align 8
  store %class.IrsThread* %0, %class.IrsThread** %2, align 8
  call void @llvm.dbg.declare(metadata %class.IrsThread** %2, metadata !4926, metadata !2769), !dbg !4927
  %3 = load %class.IrsThread*, %class.IrsThread** %2, align 8
  %4 = getelementptr inbounds %class.IrsThread, %class.IrsThread* %3, i32 0, i32 0, !dbg !4928
  %5 = call zeroext i1 @_ZNKSt6thread8joinableEv(%"class.std::thread"* %4) #3, !dbg !4930
  br i1 %5, label %6, label %8, !dbg !4931

; <label>:6:                                      ; preds = %1
  %7 = getelementptr inbounds %class.IrsThread, %class.IrsThread* %3, i32 0, i32 0, !dbg !4932
  call void @_ZNSt6thread4joinEv(%"class.std::thread"* %7), !dbg !4933
  br label %8, !dbg !4932

; <label>:8:                                      ; preds = %6, %1
  ret void, !dbg !4934
}

declare void @_ZNSt6thread4joinEv(%"class.std::thread"*) #1

; Function Attrs: uwtable
define linkonce_odr i64 @_ZNSt6chrono20__duration_cast_implINS_8durationIlSt5ratioILl1ELl1000000EEEES2_ILl1ELl1000EElLb1ELb0EE6__castIlS2_ILl1ELl1000000000EEEES4_RKNS1_IT_T0_EE(%"struct.std::chrono::duration"* dereferenceable(8)) #0 comdat align 2 !dbg !4935 {
  %2 = alloca %"struct.std::chrono::duration.0", align 8
  %3 = alloca %"struct.std::chrono::duration"*, align 8
  %4 = alloca i64, align 8
  store %"struct.std::chrono::duration"* %0, %"struct.std::chrono::duration"** %3, align 8
  call void @llvm.dbg.declare(metadata %"struct.std::chrono::duration"** %3, metadata !4945, metadata !2769), !dbg !4946
  %5 = load %"struct.std::chrono::duration"*, %"struct.std::chrono::duration"** %3, align 8, !dbg !4947
  %6 = call i64 @_ZNKSt6chrono8durationIlSt5ratioILl1ELl1000000000EEE5countEv(%"struct.std::chrono::duration"* %5), !dbg !4948
  %7 = sdiv i64 %6, 1000, !dbg !4949
  store i64 %7, i64* %4, align 8, !dbg !4950
  call void @_ZNSt6chrono8durationIlSt5ratioILl1ELl1000000EEEC2IlvEERKT_(%"struct.std::chrono::duration.0"* %2, i64* dereferenceable(8) %4), !dbg !4951
  %8 = getelementptr inbounds %"struct.std::chrono::duration.0", %"struct.std::chrono::duration.0"* %2, i32 0, i32 0, !dbg !4952
  %9 = load i64, i64* %8, align 8, !dbg !4952
  ret i64 %9, !dbg !4952
}

; Function Attrs: nounwind uwtable
define linkonce_odr i64 @_ZNKSt6chrono8durationIlSt5ratioILl1ELl1000000000EEE5countEv(%"struct.std::chrono::duration"*) #4 comdat align 2 !dbg !4953 {
  %2 = alloca %"struct.std::chrono::duration"*, align 8
  store %"struct.std::chrono::duration"* %0, %"struct.std::chrono::duration"** %2, align 8
  call void @llvm.dbg.declare(metadata %"struct.std::chrono::duration"** %2, metadata !4954, metadata !2769), !dbg !4956
  %3 = load %"struct.std::chrono::duration"*, %"struct.std::chrono::duration"** %2, align 8
  %4 = getelementptr inbounds %"struct.std::chrono::duration", %"struct.std::chrono::duration"* %3, i32 0, i32 0, !dbg !4957
  %5 = load i64, i64* %4, align 8, !dbg !4957
  ret i64 %5, !dbg !4958
}

; Function Attrs: nounwind uwtable
define linkonce_odr void @_ZNSt6chrono8durationIlSt5ratioILl1ELl1000000EEEC2IlvEERKT_(%"struct.std::chrono::duration.0"*, i64* dereferenceable(8)) unnamed_addr #4 comdat align 2 !dbg !4959 {
  %3 = alloca %"struct.std::chrono::duration.0"*, align 8
  %4 = alloca i64*, align 8
  store %"struct.std::chrono::duration.0"* %0, %"struct.std::chrono::duration.0"** %3, align 8
  call void @llvm.dbg.declare(metadata %"struct.std::chrono::duration.0"** %3, metadata !4966, metadata !2769), !dbg !4968
  store i64* %1, i64** %4, align 8
  call void @llvm.dbg.declare(metadata i64** %4, metadata !4969, metadata !2769), !dbg !4970
  %5 = load %"struct.std::chrono::duration.0"*, %"struct.std::chrono::duration.0"** %3, align 8
  %6 = getelementptr inbounds %"struct.std::chrono::duration.0", %"struct.std::chrono::duration.0"* %5, i32 0, i32 0, !dbg !4971
  %7 = load i64*, i64** %4, align 8, !dbg !4972
  %8 = load i64, i64* %7, align 8, !dbg !4972
  store i64 %8, i64* %6, align 8, !dbg !4971
  ret void, !dbg !4973
}

; Function Attrs: uwtable
define linkonce_odr i64 @_ZNSt6chronomiIlSt5ratioILl1ELl1000000000EElS2_EENSt11common_typeIJNS_8durationIT_T0_EENS4_IT1_T2_EEEE4typeERKS7_RKSA_(%"struct.std::chrono::duration"* dereferenceable(8), %"struct.std::chrono::duration"* dereferenceable(8)) #0 comdat !dbg !662 {
  %3 = alloca %"struct.std::chrono::duration", align 8
  %4 = alloca %"struct.std::chrono::duration"*, align 8
  %5 = alloca %"struct.std::chrono::duration"*, align 8
  %6 = alloca i64, align 8
  %7 = alloca %"struct.std::chrono::duration", align 8
  %8 = alloca %"struct.std::chrono::duration", align 8
  store %"struct.std::chrono::duration"* %0, %"struct.std::chrono::duration"** %4, align 8
  call void @llvm.dbg.declare(metadata %"struct.std::chrono::duration"** %4, metadata !4974, metadata !2769), !dbg !4975
  store %"struct.std::chrono::duration"* %1, %"struct.std::chrono::duration"** %5, align 8
  call void @llvm.dbg.declare(metadata %"struct.std::chrono::duration"** %5, metadata !4976, metadata !2769), !dbg !4977
  %9 = load %"struct.std::chrono::duration"*, %"struct.std::chrono::duration"** %4, align 8, !dbg !4978
  %10 = bitcast %"struct.std::chrono::duration"* %7 to i8*, !dbg !4979
  %11 = bitcast %"struct.std::chrono::duration"* %9 to i8*, !dbg !4979
  call void @llvm.memcpy.p0i8.p0i8.i64(i8* %10, i8* %11, i64 8, i32 8, i1 false), !dbg !4979
  %12 = call i64 @_ZNKSt6chrono8durationIlSt5ratioILl1ELl1000000000EEE5countEv(%"struct.std::chrono::duration"* %7), !dbg !4980
  %13 = load %"struct.std::chrono::duration"*, %"struct.std::chrono::duration"** %5, align 8, !dbg !4982
  %14 = bitcast %"struct.std::chrono::duration"* %8 to i8*, !dbg !4983
  %15 = bitcast %"struct.std::chrono::duration"* %13 to i8*, !dbg !4983
  call void @llvm.memcpy.p0i8.p0i8.i64(i8* %14, i8* %15, i64 8, i32 8, i1 false), !dbg !4984
  %16 = call i64 @_ZNKSt6chrono8durationIlSt5ratioILl1ELl1000000000EEE5countEv(%"struct.std::chrono::duration"* %8), !dbg !4986
  %17 = sub nsw i64 %12, %16, !dbg !4988
  store i64 %17, i64* %6, align 8, !dbg !4979
  call void @_ZNSt6chrono8durationIlSt5ratioILl1ELl1000000000EEEC2IlvEERKT_(%"struct.std::chrono::duration"* %3, i64* dereferenceable(8) %6), !dbg !4989
  %18 = getelementptr inbounds %"struct.std::chrono::duration", %"struct.std::chrono::duration"* %3, i32 0, i32 0, !dbg !4991
  %19 = load i64, i64* %18, align 8, !dbg !4991
  ret i64 %19, !dbg !4991
}

; Function Attrs: nounwind uwtable
define linkonce_odr i64 @_ZNKSt6chrono10time_pointINS_3_V212system_clockENS_8durationIlSt5ratioILl1ELl1000000000EEEEE16time_since_epochEv(%"struct.std::chrono::time_point"*) #4 comdat align 2 !dbg !4992 {
  %2 = alloca %"struct.std::chrono::duration", align 8
  %3 = alloca %"struct.std::chrono::time_point"*, align 8
  store %"struct.std::chrono::time_point"* %0, %"struct.std::chrono::time_point"** %3, align 8
  call void @llvm.dbg.declare(metadata %"struct.std::chrono::time_point"** %3, metadata !4993, metadata !2769), !dbg !4995
  %4 = load %"struct.std::chrono::time_point"*, %"struct.std::chrono::time_point"** %3, align 8
  %5 = getelementptr inbounds %"struct.std::chrono::time_point", %"struct.std::chrono::time_point"* %4, i32 0, i32 0, !dbg !4996
  %6 = bitcast %"struct.std::chrono::duration"* %2 to i8*, !dbg !4996
  %7 = bitcast %"struct.std::chrono::duration"* %5 to i8*, !dbg !4996
  call void @llvm.memcpy.p0i8.p0i8.i64(i8* %6, i8* %7, i64 8, i32 8, i1 false), !dbg !4996
  %8 = getelementptr inbounds %"struct.std::chrono::duration", %"struct.std::chrono::duration"* %2, i32 0, i32 0, !dbg !4997
  %9 = load i64, i64* %8, align 8, !dbg !4997
  ret i64 %9, !dbg !4997
}

; Function Attrs: nounwind uwtable
define linkonce_odr void @_ZNSt6chrono8durationIlSt5ratioILl1ELl1000000000EEEC2IlvEERKT_(%"struct.std::chrono::duration"*, i64* dereferenceable(8)) unnamed_addr #4 comdat align 2 !dbg !4998 {
  %3 = alloca %"struct.std::chrono::duration"*, align 8
  %4 = alloca i64*, align 8
  store %"struct.std::chrono::duration"* %0, %"struct.std::chrono::duration"** %3, align 8
  call void @llvm.dbg.declare(metadata %"struct.std::chrono::duration"** %3, metadata !5002, metadata !2769), !dbg !5004
  store i64* %1, i64** %4, align 8
  call void @llvm.dbg.declare(metadata i64** %4, metadata !5005, metadata !2769), !dbg !5006
  %5 = load %"struct.std::chrono::duration"*, %"struct.std::chrono::duration"** %3, align 8
  %6 = getelementptr inbounds %"struct.std::chrono::duration", %"struct.std::chrono::duration"* %5, i32 0, i32 0, !dbg !5007
  %7 = load i64*, i64** %4, align 8, !dbg !5008
  %8 = load i64, i64* %7, align 8, !dbg !5008
  store i64 %8, i64* %6, align 8, !dbg !5007
  ret void, !dbg !5009
}

; Function Attrs: inlinehint nounwind uwtable
define linkonce_odr void @_ZN9IrsThreadD2Ev(%class.IrsThread*) unnamed_addr #7 comdat align 2 !dbg !5010 {
  %2 = alloca %class.IrsThread*, align 8
  store %class.IrsThread* %0, %class.IrsThread** %2, align 8
  call void @llvm.dbg.declare(metadata %class.IrsThread** %2, metadata !5012, metadata !2769), !dbg !5013
  %3 = load %class.IrsThread*, %class.IrsThread** %2, align 8
  %4 = getelementptr inbounds %class.IrsThread, %class.IrsThread* %3, i32 0, i32 0, !dbg !5014
  call void @_ZNSt6threadD2Ev(%"class.std::thread"* %4) #3, !dbg !5014
  ret void, !dbg !5016
}

; Function Attrs: uwtable
define internal void @_GLOBAL__sub_I_peterson.cpp() #0 section ".text.startup" !dbg !5017 {
  call void @__cxx_global_var_init(), !dbg !5019
  call void @__cxx_global_var_init.1(), !dbg !5020
  call void @__cxx_global_var_init.2(), !dbg !5022
  ret void
}

attributes #0 = { uwtable "disable-tail-calls"="false" "less-precise-fpmad"="false" "no-frame-pointer-elim"="true" "no-frame-pointer-elim-non-leaf" "no-infs-fp-math"="false" "no-jump-tables"="false" "no-nans-fp-math"="false" "no-signed-zeros-fp-math"="false" "stack-protector-buffer-size"="8" "target-cpu"="x86-64" "target-features"="+fxsr,+mmx,+sse,+sse2,+x87" "unsafe-fp-math"="false" "use-soft-float"="false" }
attributes #1 = { "disable-tail-calls"="false" "less-precise-fpmad"="false" "no-frame-pointer-elim"="true" "no-frame-pointer-elim-non-leaf" "no-infs-fp-math"="false" "no-nans-fp-math"="false" "no-signed-zeros-fp-math"="false" "stack-protector-buffer-size"="8" "target-cpu"="x86-64" "target-features"="+fxsr,+mmx,+sse,+sse2,+x87" "unsafe-fp-math"="false" "use-soft-float"="false" }
attributes #2 = { nounwind "disable-tail-calls"="false" "less-precise-fpmad"="false" "no-frame-pointer-elim"="true" "no-frame-pointer-elim-non-leaf" "no-infs-fp-math"="false" "no-nans-fp-math"="false" "no-signed-zeros-fp-math"="false" "stack-protector-buffer-size"="8" "target-cpu"="x86-64" "target-features"="+fxsr,+mmx,+sse,+sse2,+x87" "unsafe-fp-math"="false" "use-soft-float"="false" }
attributes #3 = { nounwind }
attributes #4 = { nounwind uwtable "disable-tail-calls"="false" "less-precise-fpmad"="false" "no-frame-pointer-elim"="true" "no-frame-pointer-elim-non-leaf" "no-infs-fp-math"="false" "no-jump-tables"="false" "no-nans-fp-math"="false" "no-signed-zeros-fp-math"="false" "stack-protector-buffer-size"="8" "target-cpu"="x86-64" "target-features"="+fxsr,+mmx,+sse,+sse2,+x87" "unsafe-fp-math"="false" "use-soft-float"="false" }
attributes #5 = { nounwind readnone }
attributes #6 = { noinline uwtable "disable-tail-calls"="false" "less-precise-fpmad"="false" "no-frame-pointer-elim"="true" "no-frame-pointer-elim-non-leaf" "no-infs-fp-math"="false" "no-jump-tables"="false" "no-nans-fp-math"="false" "no-signed-zeros-fp-math"="false" "stack-protector-buffer-size"="8" "target-cpu"="x86-64" "target-features"="+fxsr,+mmx,+sse,+sse2,+x87" "unsafe-fp-math"="false" "use-soft-float"="false" }
attributes #7 = { inlinehint nounwind uwtable "disable-tail-calls"="false" "less-precise-fpmad"="false" "no-frame-pointer-elim"="true" "no-frame-pointer-elim-non-leaf" "no-infs-fp-math"="false" "no-jump-tables"="false" "no-nans-fp-math"="false" "no-signed-zeros-fp-math"="false" "stack-protector-buffer-size"="8" "target-cpu"="x86-64" "target-features"="+fxsr,+mmx,+sse,+sse2,+x87" "unsafe-fp-math"="false" "use-soft-float"="false" }
attributes #8 = { noreturn nounwind "disable-tail-calls"="false" "less-precise-fpmad"="false" "no-frame-pointer-elim"="true" "no-frame-pointer-elim-non-leaf" "no-infs-fp-math"="false" "no-nans-fp-math"="false" "no-signed-zeros-fp-math"="false" "stack-protector-buffer-size"="8" "target-cpu"="x86-64" "target-features"="+fxsr,+mmx,+sse,+sse2,+x87" "unsafe-fp-math"="false" "use-soft-float"="false" }
attributes #9 = { argmemonly nounwind }
attributes #10 = { nobuiltin "disable-tail-calls"="false" "less-precise-fpmad"="false" "no-frame-pointer-elim"="true" "no-frame-pointer-elim-non-leaf" "no-infs-fp-math"="false" "no-nans-fp-math"="false" "no-signed-zeros-fp-math"="false" "stack-protector-buffer-size"="8" "target-cpu"="x86-64" "target-features"="+fxsr,+mmx,+sse,+sse2,+x87" "unsafe-fp-math"="false" "use-soft-float"="false" }
attributes #11 = { nobuiltin nounwind "disable-tail-calls"="false" "less-precise-fpmad"="false" "no-frame-pointer-elim"="true" "no-frame-pointer-elim-non-leaf" "no-infs-fp-math"="false" "no-nans-fp-math"="false" "no-signed-zeros-fp-math"="false" "stack-protector-buffer-size"="8" "target-cpu"="x86-64" "target-features"="+fxsr,+mmx,+sse,+sse2,+x87" "unsafe-fp-math"="false" "use-soft-float"="false" }
attributes #12 = { noinline noreturn nounwind }
attributes #13 = { inlinehint uwtable "disable-tail-calls"="false" "less-precise-fpmad"="false" "no-frame-pointer-elim"="true" "no-frame-pointer-elim-non-leaf" "no-infs-fp-math"="false" "no-jump-tables"="false" "no-nans-fp-math"="false" "no-signed-zeros-fp-math"="false" "stack-protector-buffer-size"="8" "target-cpu"="x86-64" "target-features"="+fxsr,+mmx,+sse,+sse2,+x87" "unsafe-fp-math"="false" "use-soft-float"="false" }
attributes #14 = { noreturn nounwind }
attributes #15 = { builtin }
attributes #16 = { builtin nounwind }

!llvm.dbg.cu = !{!0}
!llvm.module.flags = !{!2756, !2757}
!llvm.ident = !{!2758}

!0 = distinct !DICompileUnit(language: DW_LANG_C_plus_plus, file: !1, producer: "clang version 3.9.1-4ubuntu3~16.10.1 (tags/RELEASE_391/rc2)", isOptimized: false, runtimeVersion: 0, emissionKind: FullDebug, enums: !2, retainedTypes: !36, globals: !735, imports: !788)
!1 = !DIFile(filename: "/home/sreeram/Dev/mastersthesis/userspace_implementation/MemoryCheck/src/Benchmark/peterson.cpp", directory: "/home/sreeram/Dev/mastersthesis/userspace_implementation/MemoryCheck/build/src/Benchmark")
!2 = !{!3, !11, !21}
!3 = distinct !DICompositeType(tag: DW_TAG_enumeration_type, name: "_Lock_policy", scope: !5, file: !4, line: 49, size: 32, align: 32, elements: !7, identifier: "_ZTSN9__gnu_cxx12_Lock_policyE")
!4 = !DIFile(filename: "/usr/bin/../lib/gcc/x86_64-linux-gnu/6.2.0/../../../../include/c++/6.2.0/ext/concurrence.h", directory: "/home/sreeram/Dev/mastersthesis/userspace_implementation/MemoryCheck/build/src/Benchmark")
!5 = !DINamespace(name: "__gnu_cxx", scope: null, file: !6, line: 225)
!6 = !DIFile(filename: "/usr/bin/../lib/gcc/x86_64-linux-gnu/6.2.0/../../../../include/x86_64-linux-gnu/c++/6.2.0/bits/c++config.h", directory: "/home/sreeram/Dev/mastersthesis/userspace_implementation/MemoryCheck/build/src/Benchmark")
!7 = !{!8, !9, !10}
!8 = !DIEnumerator(name: "_S_single", value: 0)
!9 = !DIEnumerator(name: "_S_mutex", value: 1)
!10 = !DIEnumerator(name: "_S_atomic", value: 2)
!11 = distinct !DICompositeType(tag: DW_TAG_enumeration_type, name: "default_color_type", scope: !13, file: !12, line: 32, size: 32, align: 32, elements: !15, identifier: "_ZTSN5boost18default_color_typeE")
!12 = !DIFile(filename: "/usr/include/boost/graph/properties.hpp", directory: "/home/sreeram/Dev/mastersthesis/userspace_implementation/MemoryCheck/build/src/Benchmark")
!13 = !DINamespace(name: "boost", scope: null, file: !14, line: 484)
!14 = !DIFile(filename: "/usr/include/boost/config/suffix.hpp", directory: "/home/sreeram/Dev/mastersthesis/userspace_implementation/MemoryCheck/build/src/Benchmark")
!15 = !{!16, !17, !18, !19, !20}
!16 = !DIEnumerator(name: "white_color", value: 0)
!17 = !DIEnumerator(name: "gray_color", value: 1)
!18 = !DIEnumerator(name: "green_color", value: 2)
!19 = !DIEnumerator(name: "red_color", value: 3)
!20 = !DIEnumerator(name: "black_color", value: 4)
!21 = distinct !DICompositeType(tag: DW_TAG_enumeration_type, name: "syntax_option_type", scope: !23, file: !22, line: 29, size: 32, align: 32, elements: !26, identifier: "_ZTSN5boost9xpressive15regex_constants18syntax_option_typeE")
!22 = !DIFile(filename: "/usr/include/boost/xpressive/regex_constants.hpp", directory: "/home/sreeram/Dev/mastersthesis/userspace_implementation/MemoryCheck/build/src/Benchmark")
!23 = !DINamespace(name: "regex_constants", scope: !24, file: !22, line: 24)
!24 = !DINamespace(name: "xpressive", scope: !13, file: !25, line: 52)
!25 = !DIFile(filename: "/usr/include/boost/xpressive/xpressive_fwd.hpp", directory: "/home/sreeram/Dev/mastersthesis/userspace_implementation/MemoryCheck/build/src/Benchmark")
!26 = !{!27, !28, !29, !30, !31, !32, !33, !34, !35}
!27 = !DIEnumerator(name: "ECMAScript", value: 0)
!28 = !DIEnumerator(name: "icase_", value: 2)
!29 = !DIEnumerator(name: "nosubs", value: 4)
!30 = !DIEnumerator(name: "optimize", value: 8)
!31 = !DIEnumerator(name: "collate", value: 16)
!32 = !DIEnumerator(name: "single_line", value: 1024)
!33 = !DIEnumerator(name: "not_dot_null", value: 2048)
!34 = !DIEnumerator(name: "not_dot_newline", value: 4096)
!35 = !DIEnumerator(name: "ignore_white_space", value: 8192)
!36 = !{!37, !40, !493, !533, !562, !597, !603, !602, !661, !672, !729}
!37 = !DIDerivedType(tag: DW_TAG_pointer_type, baseType: !38, size: 64, align: 64)
!38 = !DISubroutineType(types: !39)
!39 = !{null}
!40 = !DIDerivedType(tag: DW_TAG_typedef, name: "__tag", scope: !42, file: !41, line: 258, baseType: !486)
!41 = !DIFile(filename: "/usr/bin/../lib/gcc/x86_64-linux-gnu/6.2.0/../../../../include/c++/6.2.0/functional", directory: "/home/sreeram/Dev/mastersthesis/userspace_implementation/MemoryCheck/build/src/Benchmark")
!42 = distinct !DISubprogram(name: "__invoke<void (peterson::Thread0::*const &)(), peterson::Thread0 *>", linkageName: "_ZSt8__invokeIRKMN8peterson7Thread0EFvvEJPS1_EENSt9result_ofIFOT_DpOT0_EE4typeES9_SC_", scope: !43, file: !41, line: 254, type: !44, isLocal: false, isDefinition: true, scopeLine: 255, flags: DIFlagPrototyped, isOptimized: false, unit: !0, templateParams: !481, variables: !49)
!43 = !DINamespace(name: "std", scope: null, file: !6, line: 199)
!44 = !DISubroutineType(types: !45)
!45 = !{!46, !52, !479}
!46 = !DIDerivedType(tag: DW_TAG_typedef, name: "type", scope: !48, file: !47, line: 191, baseType: null)
!47 = !DIFile(filename: "/usr/bin/../lib/gcc/x86_64-linux-gnu/6.2.0/../../../../include/c++/6.2.0/type_traits", directory: "/home/sreeram/Dev/mastersthesis/userspace_implementation/MemoryCheck/build/src/Benchmark")
!48 = distinct !DICompositeType(tag: DW_TAG_structure_type, name: "__success_type<void>", scope: !43, file: !47, line: 190, size: 8, align: 8, elements: !49, templateParams: !50, identifier: "_ZTSSt14__success_typeIvE")
!49 = !{}
!50 = !{!51}
!51 = !DITemplateTypeParameter(name: "_Tp", type: null)
!52 = !DIDerivedType(tag: DW_TAG_reference_type, baseType: !53, size: 64, align: 64)
!53 = !DIDerivedType(tag: DW_TAG_const_type, baseType: !54)
!54 = !DIDerivedType(tag: DW_TAG_ptr_to_member_type, baseType: !55, size: 128, extraData: !58)
!55 = !DISubroutineType(types: !56)
!56 = !{null, !57}
!57 = !DIDerivedType(tag: DW_TAG_pointer_type, baseType: !58, size: 64, align: 64, flags: DIFlagArtificial | DIFlagObjectPointer)
!58 = distinct !DICompositeType(tag: DW_TAG_class_type, name: "Thread0", scope: !59, file: !1, line: 17, size: 128, align: 64, elements: !61, identifier: "_ZTSN8peterson7Thread0E")
!59 = !DINamespace(name: "peterson", scope: null, file: !60, line: 4)
!60 = !DIFile(filename: "/home/sreeram/Dev/mastersthesis/userspace_implementation/MemoryCheck/src/Benchmark/../../include/Benchmark/peterson.h", directory: "/home/sreeram/Dev/mastersthesis/userspace_implementation/MemoryCheck/build/src/Benchmark")
!61 = !{!62, !470, !473, !476, !477, !478}
!62 = !DIDerivedType(tag: DW_TAG_member, name: "m_thread", scope: !58, file: !1, line: 38, baseType: !63, size: 128, align: 64)
!63 = distinct !DICompositeType(tag: DW_TAG_class_type, name: "IrsThread", file: !64, line: 10, size: 128, align: 64, elements: !65, identifier: "_ZTS9IrsThread")
!64 = !DIFile(filename: "/home/sreeram/Dev/mastersthesis/userspace_implementation/MemoryCheck/src/Benchmark/../../include/Benchmark/IrsThread.h", directory: "/home/sreeram/Dev/mastersthesis/userspace_implementation/MemoryCheck/build/src/Benchmark")
!65 = !{!66, !445, !447, !451, !456, !459, !462, !466}
!66 = !DIDerivedType(tag: DW_TAG_member, name: "m_thread", scope: !63, file: !64, line: 30, baseType: !67, size: 64, align: 64)
!67 = distinct !DICompositeType(tag: DW_TAG_class_type, name: "thread", scope: !43, file: !68, line: 61, size: 64, align: 64, elements: !69, identifier: "_ZTSSt6thread")
!68 = !DIFile(filename: "/usr/bin/../lib/gcc/x86_64-linux-gnu/6.2.0/../../../../include/c++/6.2.0/thread", directory: "/home/sreeram/Dev/mastersthesis/userspace_implementation/MemoryCheck/build/src/Benchmark")
!69 = !{!70, !87, !91, !95, !100, !104, !105, !108, !111, !112, !117, !118, !119, !122, !125, !129}
!70 = !DIDerivedType(tag: DW_TAG_member, name: "_M_id", scope: !67, file: !68, line: 114, baseType: !71, size: 64, align: 64)
!71 = distinct !DICompositeType(tag: DW_TAG_class_type, name: "id", scope: !67, file: !68, line: 76, size: 64, align: 64, elements: !72, identifier: "_ZTSNSt6thread2idE")
!72 = !{!73, !80, !84}
!73 = !DIDerivedType(tag: DW_TAG_member, name: "_M_thread", scope: !71, file: !68, line: 78, baseType: !74, size: 64, align: 64)
!74 = !DIDerivedType(tag: DW_TAG_typedef, name: "native_handle_type", scope: !67, file: !68, line: 73, baseType: !75)
!75 = !DIDerivedType(tag: DW_TAG_typedef, name: "__gthread_t", file: !76, line: 47, baseType: !77)
!76 = !DIFile(filename: "/usr/bin/../lib/gcc/x86_64-linux-gnu/6.2.0/../../../../include/x86_64-linux-gnu/c++/6.2.0/bits/gthr-default.h", directory: "/home/sreeram/Dev/mastersthesis/userspace_implementation/MemoryCheck/build/src/Benchmark")
!77 = !DIDerivedType(tag: DW_TAG_typedef, name: "pthread_t", file: !78, line: 60, baseType: !79)
!78 = !DIFile(filename: "/usr/include/x86_64-linux-gnu/bits/pthreadtypes.h", directory: "/home/sreeram/Dev/mastersthesis/userspace_implementation/MemoryCheck/build/src/Benchmark")
!79 = !DIBasicType(name: "long unsigned int", size: 64, align: 64, encoding: DW_ATE_unsigned)
!80 = !DISubprogram(name: "id", scope: !71, file: !68, line: 81, type: !81, isLocal: false, isDefinition: false, scopeLine: 81, flags: DIFlagPublic | DIFlagPrototyped, isOptimized: false)
!81 = !DISubroutineType(types: !82)
!82 = !{null, !83}
!83 = !DIDerivedType(tag: DW_TAG_pointer_type, baseType: !71, size: 64, align: 64, flags: DIFlagArtificial | DIFlagObjectPointer)
!84 = !DISubprogram(name: "id", scope: !71, file: !68, line: 84, type: !85, isLocal: false, isDefinition: false, scopeLine: 84, flags: DIFlagPublic | DIFlagExplicit | DIFlagPrototyped, isOptimized: false)
!85 = !DISubroutineType(types: !86)
!86 = !{null, !83, !74}
!87 = !DISubprogram(name: "thread", scope: !67, file: !68, line: 117, type: !88, isLocal: false, isDefinition: false, scopeLine: 117, flags: DIFlagPublic | DIFlagPrototyped, isOptimized: false)
!88 = !DISubroutineType(types: !89)
!89 = !{null, !90}
!90 = !DIDerivedType(tag: DW_TAG_pointer_type, baseType: !67, size: 64, align: 64, flags: DIFlagArtificial | DIFlagObjectPointer)
!91 = !DISubprogram(name: "thread", scope: !67, file: !68, line: 120, type: !92, isLocal: false, isDefinition: false, scopeLine: 120, flags: DIFlagPublic | DIFlagPrototyped, isOptimized: false)
!92 = !DISubroutineType(types: !93)
!93 = !{null, !90, !94}
!94 = !DIDerivedType(tag: DW_TAG_reference_type, baseType: !67, size: 64, align: 64)
!95 = !DISubprogram(name: "thread", scope: !67, file: !68, line: 121, type: !96, isLocal: false, isDefinition: false, scopeLine: 121, flags: DIFlagPublic | DIFlagPrototyped, isOptimized: false)
!96 = !DISubroutineType(types: !97)
!97 = !{null, !90, !98}
!98 = !DIDerivedType(tag: DW_TAG_reference_type, baseType: !99, size: 64, align: 64)
!99 = !DIDerivedType(tag: DW_TAG_const_type, baseType: !67)
!100 = !DISubprogram(name: "thread", scope: !67, file: !68, line: 123, type: !101, isLocal: false, isDefinition: false, scopeLine: 123, flags: DIFlagPublic | DIFlagPrototyped, isOptimized: false)
!101 = !DISubroutineType(types: !102)
!102 = !{null, !90, !103}
!103 = !DIDerivedType(tag: DW_TAG_rvalue_reference_type, baseType: !67, size: 64, align: 64)
!104 = !DISubprogram(name: "~thread", scope: !67, file: !68, line: 142, type: !88, isLocal: false, isDefinition: false, scopeLine: 142, flags: DIFlagPublic | DIFlagPrototyped, isOptimized: false)
!105 = !DISubprogram(name: "operator=", linkageName: "_ZNSt6threadaSERKS_", scope: !67, file: !68, line: 148, type: !106, isLocal: false, isDefinition: false, scopeLine: 148, flags: DIFlagPublic | DIFlagPrototyped, isOptimized: false)
!106 = !DISubroutineType(types: !107)
!107 = !{!94, !90, !98}
!108 = !DISubprogram(name: "operator=", linkageName: "_ZNSt6threadaSEOS_", scope: !67, file: !68, line: 150, type: !109, isLocal: false, isDefinition: false, scopeLine: 150, flags: DIFlagPublic | DIFlagPrototyped, isOptimized: false)
!109 = !DISubroutineType(types: !110)
!110 = !{!94, !90, !103}
!111 = !DISubprogram(name: "swap", linkageName: "_ZNSt6thread4swapERS_", scope: !67, file: !68, line: 159, type: !92, isLocal: false, isDefinition: false, scopeLine: 159, flags: DIFlagPublic | DIFlagPrototyped, isOptimized: false)
!112 = !DISubprogram(name: "joinable", linkageName: "_ZNKSt6thread8joinableEv", scope: !67, file: !68, line: 163, type: !113, isLocal: false, isDefinition: false, scopeLine: 163, flags: DIFlagPublic | DIFlagPrototyped, isOptimized: false)
!113 = !DISubroutineType(types: !114)
!114 = !{!115, !116}
!115 = !DIBasicType(name: "bool", size: 8, align: 8, encoding: DW_ATE_boolean)
!116 = !DIDerivedType(tag: DW_TAG_pointer_type, baseType: !99, size: 64, align: 64, flags: DIFlagArtificial | DIFlagObjectPointer)
!117 = !DISubprogram(name: "join", linkageName: "_ZNSt6thread4joinEv", scope: !67, file: !68, line: 167, type: !88, isLocal: false, isDefinition: false, scopeLine: 167, flags: DIFlagPublic | DIFlagPrototyped, isOptimized: false)
!118 = !DISubprogram(name: "detach", linkageName: "_ZNSt6thread6detachEv", scope: !67, file: !68, line: 170, type: !88, isLocal: false, isDefinition: false, scopeLine: 170, flags: DIFlagPublic | DIFlagPrototyped, isOptimized: false)
!119 = !DISubprogram(name: "get_id", linkageName: "_ZNKSt6thread6get_idEv", scope: !67, file: !68, line: 173, type: !120, isLocal: false, isDefinition: false, scopeLine: 173, flags: DIFlagPublic | DIFlagPrototyped, isOptimized: false)
!120 = !DISubroutineType(types: !121)
!121 = !{!71, !116}
!122 = !DISubprogram(name: "native_handle", linkageName: "_ZNSt6thread13native_handleEv", scope: !67, file: !68, line: 179, type: !123, isLocal: false, isDefinition: false, scopeLine: 179, flags: DIFlagPublic | DIFlagPrototyped, isOptimized: false)
!123 = !DISubroutineType(types: !124)
!124 = !{!74, !90}
!125 = !DISubprogram(name: "hardware_concurrency", linkageName: "_ZNSt6thread20hardware_concurrencyEv", scope: !67, file: !68, line: 184, type: !126, isLocal: false, isDefinition: false, scopeLine: 184, flags: DIFlagPublic | DIFlagPrototyped, isOptimized: false)
!126 = !DISubroutineType(types: !127)
!127 = !{!128}
!128 = !DIBasicType(name: "unsigned int", size: 32, align: 32, encoding: DW_ATE_unsigned)
!129 = !DISubprogram(name: "_M_start_thread", linkageName: "_ZNSt6thread15_M_start_threadESt10unique_ptrINS_6_StateESt14default_deleteIS1_EEPFvvE", scope: !67, file: !68, line: 200, type: !130, isLocal: false, isDefinition: false, scopeLine: 200, flags: DIFlagPrototyped, isOptimized: false)
!130 = !DISubroutineType(types: !131)
!131 = !{null, !90, !132, !37}
!132 = !DIDerivedType(tag: DW_TAG_typedef, name: "_State_ptr", scope: !67, file: !68, line: 71, baseType: !133)
!133 = distinct !DICompositeType(tag: DW_TAG_class_type, name: "unique_ptr<std::thread::_State, std::default_delete<std::thread::_State> >", scope: !43, file: !134, line: 116, size: 64, align: 64, elements: !135, templateParams: !443, identifier: "_ZTSSt10unique_ptrINSt6thread6_StateESt14default_deleteIS1_EE")
!134 = !DIFile(filename: "/usr/bin/../lib/gcc/x86_64-linux-gnu/6.2.0/../../../../include/c++/6.2.0/bits/unique_ptr.h", directory: "/home/sreeram/Dev/mastersthesis/userspace_implementation/MemoryCheck/build/src/Benchmark")
!135 = !{!136, !358, !362, !368, !377, !385, !390, !394, !395, !399, !402, !412, !415, !416, !421, !426, !429, !432, !433, !436, !440}
!136 = !DIDerivedType(tag: DW_TAG_member, name: "_M_t", scope: !133, file: !134, line: 134, baseType: !137, size: 64, align: 64)
!137 = !DIDerivedType(tag: DW_TAG_typedef, name: "__tuple_type", scope: !133, file: !134, line: 133, baseType: !138)
!138 = distinct !DICompositeType(tag: DW_TAG_class_type, name: "tuple<std::thread::_State *, std::default_delete<std::thread::_State> >", scope: !43, file: !139, line: 866, size: 64, align: 64, elements: !140, templateParams: !357, identifier: "_ZTSSt5tupleIJPNSt6thread6_StateESt14default_deleteIS1_EEE")
!139 = !DIFile(filename: "/usr/bin/../lib/gcc/x86_64-linux-gnu/6.2.0/../../../../include/c++/6.2.0/tuple", directory: "/home/sreeram/Dev/mastersthesis/userspace_implementation/MemoryCheck/build/src/Benchmark")
!140 = !{!141, !337, !343, !347, !351, !354}
!141 = !DIDerivedType(tag: DW_TAG_inheritance, scope: !138, baseType: !142, flags: DIFlagPublic)
!142 = distinct !DICompositeType(tag: DW_TAG_structure_type, name: "_Tuple_impl<0, std::thread::_State *, std::default_delete<std::thread::_State> >", scope: !43, file: !139, line: 180, size: 64, align: 64, elements: !143, templateParams: !333, identifier: "_ZTSSt11_Tuple_implILm0EJPNSt6thread6_StateESt14default_deleteIS1_EEE")
!143 = !{!144, !254, !291, !295, !300, !305, !310, !314, !317, !320, !324, !327, !330}
!144 = !DIDerivedType(tag: DW_TAG_inheritance, scope: !142, baseType: !145)
!145 = distinct !DICompositeType(tag: DW_TAG_structure_type, name: "_Tuple_impl<1, std::default_delete<std::thread::_State> >", scope: !43, file: !139, line: 338, size: 8, align: 8, elements: !146, templateParams: !250, identifier: "_ZTSSt11_Tuple_implILm1EJSt14default_deleteINSt6thread6_StateEEEE")
!146 = !{!147, !218, !222, !227, !231, !234, !237, !241, !244, !247}
!147 = !DIDerivedType(tag: DW_TAG_inheritance, scope: !145, baseType: !148, flags: DIFlagPrivate)
!148 = distinct !DICompositeType(tag: DW_TAG_structure_type, name: "_Head_base<1, std::default_delete<std::thread::_State>, true>", scope: !43, file: !139, line: 55, size: 8, align: 8, elements: !149, templateParams: !214, identifier: "_ZTSSt10_Head_baseILm1ESt14default_deleteINSt6thread6_StateEELb1EE")
!149 = !{!150, !166, !170, !174, !179, !183, !206, !211}
!150 = !DIDerivedType(tag: DW_TAG_inheritance, scope: !148, baseType: !151)
!151 = distinct !DICompositeType(tag: DW_TAG_structure_type, name: "default_delete<std::thread::_State>", scope: !43, file: !134, line: 54, size: 8, align: 8, elements: !152, templateParams: !164, identifier: "_ZTSSt14default_deleteINSt6thread6_StateEE")
!152 = !{!153, !157}
!153 = !DISubprogram(name: "default_delete", scope: !151, file: !134, line: 57, type: !154, isLocal: false, isDefinition: false, scopeLine: 57, flags: DIFlagPrototyped, isOptimized: false)
!154 = !DISubroutineType(types: !155)
!155 = !{null, !156}
