; ModuleID = '/home/sreeram/Dev/mastersthesis/MemoryCheck/build/gen/fibonacci.bc'
source_filename = "/home/sreeram/Dev/mastersthesis/MemoryCheck/src/Benchmark/fibonacci.cpp"
target datalayout = "e-m:e-i64:64-f80:128-n8:16:32:64-S128"
target triple = "x86_64-pc-linux-gnu"

%"class.std::ios_base::Init" = type { i8 }
%"struct.boost::none_t" = type { i8 }
%"class.boost::detail::make_property_map_from_arg_pack_gen" = type { i32 }
%"class.std::basic_ostream" = type { i32 (...)**, %"class.std::basic_ios" }
%"class.std::basic_ios" = type { %"class.std::ios_base", %"class.std::basic_ostream"*, i8, i8, %"class.std::basic_streambuf"*, %"class.std::ctype"*, %"class.std::num_put"*, %"class.std::num_get"* }
%"class.std::ios_base" = type { i32 (...)**, i64, i64, i32, i32, i32, %"struct.std::ios_base::_Callback_list"*, %"struct.std::ios_base::_Words", [8 x %"struct.std::ios_base::_Words"], i32, %"struct.std::ios_base::_Words"*, %"class.std::locale" }
%"struct.std::ios_base::_Callback_list" = type { %"struct.std::ios_base::_Callback_list"*, void (i32, %"class.std::ios_base"*, i32)*, i32, i32 }
%"struct.std::ios_base::_Words" = type { i8*, i64 }
%"class.std::locale" = type { %"class.std::locale::_Impl"* }
%"class.std::locale::_Impl" = type { i32, %"class.std::locale::facet"**, i64, %"class.std::locale::facet"**, i8** }
%"class.std::locale::facet" = type <{ i32 (...)**, i32, [4 x i8] }>
%"class.std::basic_streambuf" = type { i32 (...)**, i8*, i8*, i8*, i8*, i8*, i8*, %"class.std::locale" }
%"class.std::ctype" = type <{ %"class.std::locale::facet.base", [4 x i8], %struct.__locale_struct*, i8, [7 x i8], i32*, i32*, i16*, i8, [256 x i8], [256 x i8], i8, [6 x i8] }>
%"class.std::locale::facet.base" = type <{ i32 (...)**, i32 }>
%struct.__locale_struct = type { [13 x %struct.__locale_data*], i16*, i32*, i32*, [13 x i8*] }
%struct.__locale_data = type opaque
%"class.std::num_put" = type { %"class.std::locale::facet.base", [4 x i8] }
%"class.std::num_get" = type { %"class.std::locale::facet.base", [4 x i8] }
%"struct.boost::none_t::init_tag" = type { i8 }
%"class.fibonacci::Thread0" = type { %class.IrsThread }
%class.IrsThread = type <{ %"class.std::thread", i32, [4 x i8] }>
%"class.std::thread" = type { %"class.std::thread::id" }
%"class.std::thread::id" = type { i64 }
%"class.fibonacci::Thread1" = type { %class.IrsThread }
%"struct.std::chrono::time_point" = type { %"struct.std::chrono::duration" }
%"struct.std::chrono::duration" = type { i64 }
%"struct.std::chrono::duration.0" = type { i64 }
%"class.std::unique_ptr" = type { %"class.std::tuple" }
%"class.std::tuple" = type { %"struct.std::_Tuple_impl" }
%"struct.std::_Tuple_impl" = type { %"struct.std::_Head_base.2" }
%"struct.std::_Head_base.2" = type { %"struct.std::thread::_State"* }
%"struct.std::thread::_State" = type { i32 (...)** }
%"struct.std::_Bind_simple" = type { %"class.std::tuple.3" }
%"class.std::tuple.3" = type { %"struct.std::_Tuple_impl.4" }
%"struct.std::_Tuple_impl.4" = type { %"struct.std::_Tuple_impl.5", %"struct.std::_Head_base.7" }
%"struct.std::_Tuple_impl.5" = type { %"struct.std::_Head_base.6" }
%"struct.std::_Head_base.6" = type { %"class.fibonacci::Thread0"* }
%"struct.std::_Head_base.7" = type { %"struct.std::_Mem_fn" }
%"struct.std::_Mem_fn" = type { %"class.std::_Mem_fn_base" }
%"class.std::_Mem_fn_base" = type { { i64, i64 } }
%union.pthread_attr_t = type { i64, [48 x i8] }
%"struct.std::thread::_State_impl" = type { %"struct.std::thread::_State", %"struct.std::_Bind_simple" }
%"struct.std::default_delete" = type { i8 }
%"struct.std::_Index_tuple" = type { i8 }
%"struct.std::__invoke_memfun_deref" = type { i8 }
%"struct.std::_Tuple_impl.1" = type { i8 }
%"struct.std::_Head_base" = type { i8 }
%"struct.std::_Maybe_unary_or_binary_function" = type { i8 }
%"struct.std::_Bind_simple.8" = type { %"class.std::tuple.9" }
%"class.std::tuple.9" = type { %"struct.std::_Tuple_impl.10" }
%"struct.std::_Tuple_impl.10" = type { %"struct.std::_Tuple_impl.11", %"struct.std::_Head_base.13" }
%"struct.std::_Tuple_impl.11" = type { %"struct.std::_Head_base.12" }
%"struct.std::_Head_base.12" = type { %"class.fibonacci::Thread1"* }
%"struct.std::_Head_base.13" = type { %"struct.std::_Mem_fn.14" }
%"struct.std::_Mem_fn.14" = type { %"class.std::_Mem_fn_base.15" }
%"class.std::_Mem_fn_base.15" = type { { i64, i64 } }
%"struct.std::thread::_State_impl.18" = type { %"struct.std::thread::_State", %"struct.std::_Bind_simple.8" }
%"struct.std::_Maybe_unary_or_binary_function.16" = type { i8 }

$_ZN5boost6none_tC2ENS0_8init_tagE = comdat any

$_ZN5boost6detail35make_property_map_from_arg_pack_genINS_5graph8keywords3tag9color_mapENS_18default_color_typeEEC2ES6_ = comdat any

$_ZN9fibonacci7Thread011getThreadIdEv = comdat any

$_ZNK9IrsThread6getTidEv = comdat any

$_ZN9fibonacci7Thread111getThreadIdEv = comdat any

$_ZN9fibonacci7Thread0C2Ei = comdat any

$_ZN9fibonacci7Thread1C2Ei = comdat any

$_ZN9fibonacci7Thread05startEv = comdat any

$_ZN9fibonacci7Thread15startEv = comdat any

$_ZN9fibonacci7Thread04joinEv = comdat any

$_ZN9fibonacci7Thread14joinEv = comdat any

$_ZNSt6chrono13duration_castINS_8durationIlSt5ratioILl1ELl1000000EEEElS2_ILl1ELl1000000000EEEENSt9enable_ifIXsr13__is_durationIT_EE5valueES7_E4typeERKNS1_IT0_T1_EE = comdat any

$_ZNSt6chronomiINS_3_V212system_clockENS_8durationIlSt5ratioILl1ELl1000000000EEEES6_EENSt11common_typeIJT0_T1_EE4typeERKNS_10time_pointIT_S8_EERKNSC_ISD_S9_EE = comdat any

$_ZNKSt6chrono8durationIlSt5ratioILl1ELl1000000EEE5countEv = comdat any

$_ZN9fibonacci7Thread1D2Ev = comdat any

$_ZN9fibonacci7Thread0D2Ev = comdat any

$_ZN9IrsThreadC2Ei = comdat any

$_ZNSt6threadC2Ev = comdat any

$_ZNSt6thread2idC2Ev = comdat any

$_ZN9IrsThreadclIJMN9fibonacci7Thread0EFvvEPS2_EEEvDpOT_ = comdat any

$_ZN9fibonacci7Thread04thr0Ev = comdat any

$_ZNSt6threadaSEOS_ = comdat any

$_ZSt7forwardIMN9fibonacci7Thread0EFvvEEOT_RNSt16remove_referenceIS4_E4typeE = comdat any

$_ZSt7forwardIPN9fibonacci7Thread0EEOT_RNSt16remove_referenceIS3_E4typeE = comdat any

$_ZNSt6threadC2IMN9fibonacci7Thread0EFvvEJPS2_EEEOT_DpOT0_ = comdat any

$_ZNSt6threadD2Ev = comdat any

$_ZNKSt6thread8joinableEv = comdat any

$_ZNSt6thread4swapERS_ = comdat any

$_ZSteqNSt6thread2idES0_ = comdat any

$_ZSt4swapINSt6thread2idEENSt9enable_ifIXsr6__and_ISt21is_move_constructibleIT_ESt18is_move_assignableIS4_EEE5valueEvE4typeERS4_SA_ = comdat any

$_ZSt4moveIRNSt6thread2idEEONSt16remove_referenceIT_E4typeEOS4_ = comdat any

$_ZNSt6thread13_S_make_stateISt12_Bind_simpleIFSt7_Mem_fnIMN9fibonacci7Thread0EFvvEEPS4_EEEESt10unique_ptrINS_6_StateESt14default_deleteISC_EEOT_ = comdat any

$_ZSt13__bind_simpleIMN9fibonacci7Thread0EFvvEJPS1_EENSt19_Bind_simple_helperIT_JDpT0_EE6__typeEOS6_DpOS7_ = comdat any

$_ZNSt10unique_ptrINSt6thread6_StateESt14default_deleteIS1_EED2Ev = comdat any

$_ZSt7forwardISt12_Bind_simpleIFSt7_Mem_fnIMN9fibonacci7Thread0EFvvEEPS3_EEEOT_RNSt16remove_referenceISA_E4typeE = comdat any

$_ZNSt6thread11_State_implISt12_Bind_simpleIFSt7_Mem_fnIMN9fibonacci7Thread0EFvvEEPS4_EEEC2EOSA_ = comdat any

$_ZNSt10unique_ptrINSt6thread6_StateESt14default_deleteIS1_EEC2EPS1_ = comdat any

$_ZNSt6thread6_StateC2Ev = comdat any

$_ZNSt12_Bind_simpleIFSt7_Mem_fnIMN9fibonacci7Thread0EFvvEEPS2_EEC2EOS8_ = comdat any

$_ZNSt6thread11_State_implISt12_Bind_simpleIFSt7_Mem_fnIMN9fibonacci7Thread0EFvvEEPS4_EEED2Ev = comdat any

$_ZNSt6thread11_State_implISt12_Bind_simpleIFSt7_Mem_fnIMN9fibonacci7Thread0EFvvEEPS4_EEED0Ev = comdat any

$_ZNSt6thread11_State_implISt12_Bind_simpleIFSt7_Mem_fnIMN9fibonacci7Thread0EFvvEEPS4_EEE6_M_runEv = comdat any

$_ZNSt5tupleIJSt7_Mem_fnIMN9fibonacci7Thread0EFvvEEPS2_EEC2EOS7_ = comdat any

$_ZNSt11_Tuple_implILm0EJSt7_Mem_fnIMN9fibonacci7Thread0EFvvEEPS2_EEC2EOS7_ = comdat any

$_ZSt4moveIRSt11_Tuple_implILm1EJPN9fibonacci7Thread0EEEEONSt16remove_referenceIT_E4typeEOS7_ = comdat any

$_ZNSt11_Tuple_implILm0EJSt7_Mem_fnIMN9fibonacci7Thread0EFvvEEPS2_EE7_M_tailERS7_ = comdat any

$_ZNSt11_Tuple_implILm1EJPN9fibonacci7Thread0EEEC2EOS3_ = comdat any

$_ZSt7forwardISt7_Mem_fnIMN9fibonacci7Thread0EFvvEEEOT_RNSt16remove_referenceIS6_E4typeE = comdat any

$_ZNSt11_Tuple_implILm0EJSt7_Mem_fnIMN9fibonacci7Thread0EFvvEEPS2_EE7_M_headERS7_ = comdat any

$_ZNSt10_Head_baseILm0ESt7_Mem_fnIMN9fibonacci7Thread0EFvvEELb0EEC2IS5_EEOT_ = comdat any

$__clang_call_terminate = comdat any

$_ZNSt11_Tuple_implILm1EJPN9fibonacci7Thread0EEE7_M_headERS3_ = comdat any

$_ZNSt10_Head_baseILm1EPN9fibonacci7Thread0ELb0EEC2IS2_EEOT_ = comdat any

$_ZNSt10_Head_baseILm1EPN9fibonacci7Thread0ELb0EE7_M_headERS3_ = comdat any

$_ZNSt10_Head_baseILm0ESt7_Mem_fnIMN9fibonacci7Thread0EFvvEELb0EE7_M_headERS6_ = comdat any

$_ZNSt12_Bind_simpleIFSt7_Mem_fnIMN9fibonacci7Thread0EFvvEEPS2_EEclEv = comdat any

$_ZNSt12_Bind_simpleIFSt7_Mem_fnIMN9fibonacci7Thread0EFvvEEPS2_EE9_M_invokeIJLm0EEEEvSt12_Index_tupleIJXspT_EEE = comdat any

$_ZSt3getILm0EJSt7_Mem_fnIMN9fibonacci7Thread0EFvvEEPS2_EERNSt13tuple_elementIXT_ESt5tupleIJDpT0_EEE4typeERSB_ = comdat any

$_ZNKSt12_Mem_fn_baseIMN9fibonacci7Thread0EFvvELb1EEclIJPS1_EEEDTclsr3stdE8__invokedtdefpT6_M_pmfspclsr3stdE7forwardIT_Efp_EEEDpOS7_ = comdat any

$_ZSt3getILm1EJSt7_Mem_fnIMN9fibonacci7Thread0EFvvEEPS2_EERNSt13tuple_elementIXT_ESt5tupleIJDpT0_EEE4typeERSB_ = comdat any

$_ZSt12__get_helperILm0ESt7_Mem_fnIMN9fibonacci7Thread0EFvvEEJPS2_EERT0_RSt11_Tuple_implIXT_EJS7_DpT1_EE = comdat any

$_ZSt8__invokeIRKMN9fibonacci7Thread0EFvvEJPS1_EENSt9result_ofIFOT_DpOT0_EE4typeES9_SC_ = comdat any

$_ZSt13__invoke_implIvRKMN9fibonacci7Thread0EFvvEPS1_JEET_St21__invoke_memfun_derefOT0_OT1_DpOT2_ = comdat any

$_ZSt7forwardIRKMN9fibonacci7Thread0EFvvEEOT_RNSt16remove_referenceIS6_E4typeE = comdat any

$_ZSt12__get_helperILm1EPN9fibonacci7Thread0EJEERT0_RSt11_Tuple_implIXT_EJS3_DpT1_EE = comdat any

$_ZNSt5tupleIJPNSt6thread6_StateESt14default_deleteIS1_EEEC2IRS2_S4_Lb1EEEOT_OT0_ = comdat any

$_ZSt7forwardIRPNSt6thread6_StateEEOT_RNSt16remove_referenceIS4_E4typeE = comdat any

$_ZSt7forwardISt14default_deleteINSt6thread6_StateEEEOT_RNSt16remove_referenceIS4_E4typeE = comdat any

$_ZNSt11_Tuple_implILm0EJPNSt6thread6_StateESt14default_deleteIS1_EEEC2IRS2_JS4_EvEEOT_DpOT0_ = comdat any

$_ZNSt11_Tuple_implILm1EJSt14default_deleteINSt6thread6_StateEEEEC2IS3_EEOT_ = comdat any

$_ZNSt10_Head_baseILm0EPNSt6thread6_StateELb0EEC2IRS2_EEOT_ = comdat any

$_ZNSt10_Head_baseILm1ESt14default_deleteINSt6thread6_StateEELb1EEC2IS3_EEOT_ = comdat any

$_ZNSt26_Maybe_wrap_member_pointerIMN9fibonacci7Thread0EFvvEE9__do_wrapES3_ = comdat any

$_ZNSt12_Bind_simpleIFSt7_Mem_fnIMN9fibonacci7Thread0EFvvEEPS2_EEC2IS5_JS6_EEEOT_DpOT0_ = comdat any

$_ZNSt7_Mem_fnIMN9fibonacci7Thread0EFvvEECI2St12_Mem_fn_baseIS3_Lb1EEES3_ = comdat any

$_ZNSt12_Mem_fn_baseIMN9fibonacci7Thread0EFvvELb1EEC2ES3_ = comdat any

$_ZNSt5tupleIJSt7_Mem_fnIMN9fibonacci7Thread0EFvvEEPS2_EEC2IS5_S6_Lb1EEEOT_OT0_ = comdat any

$_ZNSt11_Tuple_implILm0EJSt7_Mem_fnIMN9fibonacci7Thread0EFvvEEPS2_EEC2IS5_JS6_EvEEOT_DpOT0_ = comdat any

$_ZNSt11_Tuple_implILm1EJPN9fibonacci7Thread0EEEC2IS2_EEOT_ = comdat any

$_ZSt3getILm0EJPNSt6thread6_StateESt14default_deleteIS1_EEERNSt13tuple_elementIXT_ESt5tupleIJDpT0_EEE4typeERS9_ = comdat any

$_ZNSt10unique_ptrINSt6thread6_StateESt14default_deleteIS1_EE11get_deleterEv = comdat any

$_ZNKSt14default_deleteINSt6thread6_StateEEclEPS1_ = comdat any

$_ZSt12__get_helperILm0EPNSt6thread6_StateEJSt14default_deleteIS1_EEERT0_RSt11_Tuple_implIXT_EJS5_DpT1_EE = comdat any

$_ZNSt11_Tuple_implILm0EJPNSt6thread6_StateESt14default_deleteIS1_EEE7_M_headERS5_ = comdat any

$_ZNSt10_Head_baseILm0EPNSt6thread6_StateELb0EE7_M_headERS3_ = comdat any

$_ZSt3getILm1EJPNSt6thread6_StateESt14default_deleteIS1_EEERNSt13tuple_elementIXT_ESt5tupleIJDpT0_EEE4typeERS9_ = comdat any

$_ZSt12__get_helperILm1ESt14default_deleteINSt6thread6_StateEEJEERT0_RSt11_Tuple_implIXT_EJS4_DpT1_EE = comdat any

$_ZNSt11_Tuple_implILm1EJSt14default_deleteINSt6thread6_StateEEEE7_M_headERS4_ = comdat any

$_ZNSt10_Head_baseILm1ESt14default_deleteINSt6thread6_StateEELb1EE7_M_headERS4_ = comdat any

$_ZN9IrsThreadclIJMN9fibonacci7Thread1EFvvEPS2_EEEvDpOT_ = comdat any

$_ZN9fibonacci7Thread14thr1Ev = comdat any

$_ZSt7forwardIMN9fibonacci7Thread1EFvvEEOT_RNSt16remove_referenceIS4_E4typeE = comdat any

$_ZSt7forwardIPN9fibonacci7Thread1EEOT_RNSt16remove_referenceIS3_E4typeE = comdat any

$_ZNSt6threadC2IMN9fibonacci7Thread1EFvvEJPS2_EEEOT_DpOT0_ = comdat any

$_ZNSt6thread13_S_make_stateISt12_Bind_simpleIFSt7_Mem_fnIMN9fibonacci7Thread1EFvvEEPS4_EEEESt10unique_ptrINS_6_StateESt14default_deleteISC_EEOT_ = comdat any

$_ZSt13__bind_simpleIMN9fibonacci7Thread1EFvvEJPS1_EENSt19_Bind_simple_helperIT_JDpT0_EE6__typeEOS6_DpOS7_ = comdat any

$_ZSt7forwardISt12_Bind_simpleIFSt7_Mem_fnIMN9fibonacci7Thread1EFvvEEPS3_EEEOT_RNSt16remove_referenceISA_E4typeE = comdat any

$_ZNSt6thread11_State_implISt12_Bind_simpleIFSt7_Mem_fnIMN9fibonacci7Thread1EFvvEEPS4_EEEC2EOSA_ = comdat any

$_ZNSt12_Bind_simpleIFSt7_Mem_fnIMN9fibonacci7Thread1EFvvEEPS2_EEC2EOS8_ = comdat any

$_ZNSt6thread11_State_implISt12_Bind_simpleIFSt7_Mem_fnIMN9fibonacci7Thread1EFvvEEPS4_EEED2Ev = comdat any

$_ZNSt6thread11_State_implISt12_Bind_simpleIFSt7_Mem_fnIMN9fibonacci7Thread1EFvvEEPS4_EEED0Ev = comdat any

$_ZNSt6thread11_State_implISt12_Bind_simpleIFSt7_Mem_fnIMN9fibonacci7Thread1EFvvEEPS4_EEE6_M_runEv = comdat any

$_ZNSt5tupleIJSt7_Mem_fnIMN9fibonacci7Thread1EFvvEEPS2_EEC2EOS7_ = comdat any

$_ZNSt11_Tuple_implILm0EJSt7_Mem_fnIMN9fibonacci7Thread1EFvvEEPS2_EEC2EOS7_ = comdat any

$_ZSt4moveIRSt11_Tuple_implILm1EJPN9fibonacci7Thread1EEEEONSt16remove_referenceIT_E4typeEOS7_ = comdat any

$_ZNSt11_Tuple_implILm0EJSt7_Mem_fnIMN9fibonacci7Thread1EFvvEEPS2_EE7_M_tailERS7_ = comdat any

$_ZNSt11_Tuple_implILm1EJPN9fibonacci7Thread1EEEC2EOS3_ = comdat any

$_ZSt7forwardISt7_Mem_fnIMN9fibonacci7Thread1EFvvEEEOT_RNSt16remove_referenceIS6_E4typeE = comdat any

$_ZNSt11_Tuple_implILm0EJSt7_Mem_fnIMN9fibonacci7Thread1EFvvEEPS2_EE7_M_headERS7_ = comdat any

$_ZNSt10_Head_baseILm0ESt7_Mem_fnIMN9fibonacci7Thread1EFvvEELb0EEC2IS5_EEOT_ = comdat any

$_ZNSt11_Tuple_implILm1EJPN9fibonacci7Thread1EEE7_M_headERS3_ = comdat any

$_ZNSt10_Head_baseILm1EPN9fibonacci7Thread1ELb0EEC2IS2_EEOT_ = comdat any

$_ZNSt10_Head_baseILm1EPN9fibonacci7Thread1ELb0EE7_M_headERS3_ = comdat any

$_ZNSt10_Head_baseILm0ESt7_Mem_fnIMN9fibonacci7Thread1EFvvEELb0EE7_M_headERS6_ = comdat any

$_ZNSt12_Bind_simpleIFSt7_Mem_fnIMN9fibonacci7Thread1EFvvEEPS2_EEclEv = comdat any

$_ZNSt12_Bind_simpleIFSt7_Mem_fnIMN9fibonacci7Thread1EFvvEEPS2_EE9_M_invokeIJLm0EEEEvSt12_Index_tupleIJXspT_EEE = comdat any

$_ZSt3getILm0EJSt7_Mem_fnIMN9fibonacci7Thread1EFvvEEPS2_EERNSt13tuple_elementIXT_ESt5tupleIJDpT0_EEE4typeERSB_ = comdat any

$_ZNKSt12_Mem_fn_baseIMN9fibonacci7Thread1EFvvELb1EEclIJPS1_EEEDTclsr3stdE8__invokedtdefpT6_M_pmfspclsr3stdE7forwardIT_Efp_EEEDpOS7_ = comdat any

$_ZSt3getILm1EJSt7_Mem_fnIMN9fibonacci7Thread1EFvvEEPS2_EERNSt13tuple_elementIXT_ESt5tupleIJDpT0_EEE4typeERSB_ = comdat any

$_ZSt12__get_helperILm0ESt7_Mem_fnIMN9fibonacci7Thread1EFvvEEJPS2_EERT0_RSt11_Tuple_implIXT_EJS7_DpT1_EE = comdat any

$_ZSt8__invokeIRKMN9fibonacci7Thread1EFvvEJPS1_EENSt9result_ofIFOT_DpOT0_EE4typeES9_SC_ = comdat any

$_ZSt13__invoke_implIvRKMN9fibonacci7Thread1EFvvEPS1_JEET_St21__invoke_memfun_derefOT0_OT1_DpOT2_ = comdat any

$_ZSt7forwardIRKMN9fibonacci7Thread1EFvvEEOT_RNSt16remove_referenceIS6_E4typeE = comdat any

$_ZSt12__get_helperILm1EPN9fibonacci7Thread1EJEERT0_RSt11_Tuple_implIXT_EJS3_DpT1_EE = comdat any

$_ZNSt26_Maybe_wrap_member_pointerIMN9fibonacci7Thread1EFvvEE9__do_wrapES3_ = comdat any

$_ZNSt12_Bind_simpleIFSt7_Mem_fnIMN9fibonacci7Thread1EFvvEEPS2_EEC2IS5_JS6_EEEOT_DpOT0_ = comdat any

$_ZNSt7_Mem_fnIMN9fibonacci7Thread1EFvvEECI2St12_Mem_fn_baseIS3_Lb1EEES3_ = comdat any

$_ZNSt12_Mem_fn_baseIMN9fibonacci7Thread1EFvvELb1EEC2ES3_ = comdat any

$_ZNSt5tupleIJSt7_Mem_fnIMN9fibonacci7Thread1EFvvEEPS2_EEC2IS5_S6_Lb1EEEOT_OT0_ = comdat any

$_ZNSt11_Tuple_implILm0EJSt7_Mem_fnIMN9fibonacci7Thread1EFvvEEPS2_EEC2IS5_JS6_EvEEOT_DpOT0_ = comdat any

$_ZNSt11_Tuple_implILm1EJPN9fibonacci7Thread1EEEC2IS2_EEOT_ = comdat any

$_ZN9IrsThread4joinEv = comdat any

$_ZNSt6chrono20__duration_cast_implINS_8durationIlSt5ratioILl1ELl1000000EEEES2_ILl1ELl1000EElLb1ELb0EE6__castIlS2_ILl1ELl1000000000EEEES4_RKNS1_IT_T0_EE = comdat any

$_ZNKSt6chrono8durationIlSt5ratioILl1ELl1000000000EEE5countEv = comdat any

$_ZNSt6chrono8durationIlSt5ratioILl1ELl1000000EEEC2IlvEERKT_ = comdat any

$_ZNSt6chronomiIlSt5ratioILl1ELl1000000000EElS2_EENSt11common_typeIJNS_8durationIT_T0_EENS4_IT1_T2_EEEE4typeERKS7_RKSA_ = comdat any

$_ZNKSt6chrono10time_pointINS_3_V212system_clockENS_8durationIlSt5ratioILl1ELl1000000000EEEEE16time_since_epochEv = comdat any

$_ZNSt6chrono8durationIlSt5ratioILl1ELl1000000000EEEC2IlvEERKT_ = comdat any

$_ZN9IrsThreadD2Ev = comdat any

$_ZTVNSt6thread11_State_implISt12_Bind_simpleIFSt7_Mem_fnIMN9fibonacci7Thread0EFvvEEPS4_EEEE = comdat any

$_ZTSNSt6thread11_State_implISt12_Bind_simpleIFSt7_Mem_fnIMN9fibonacci7Thread0EFvvEEPS4_EEEE = comdat any

$_ZTINSt6thread11_State_implISt12_Bind_simpleIFSt7_Mem_fnIMN9fibonacci7Thread0EFvvEEPS4_EEEE = comdat any

$_ZTVNSt6thread11_State_implISt12_Bind_simpleIFSt7_Mem_fnIMN9fibonacci7Thread1EFvvEEPS4_EEEE = comdat any

$_ZTSNSt6thread11_State_implISt12_Bind_simpleIFSt7_Mem_fnIMN9fibonacci7Thread1EFvvEEPS4_EEEE = comdat any

$_ZTINSt6thread11_State_implISt12_Bind_simpleIFSt7_Mem_fnIMN9fibonacci7Thread1EFvvEEPS4_EEEE = comdat any

@_ZStL8__ioinit = internal global %"class.std::ios_base::Init" zeroinitializer, align 1
@__dso_handle = external global i8
@_ZN5boostL4noneE = internal global %"struct.boost::none_t" zeroinitializer, align 1
@_ZN5boost6detailL28make_color_map_from_arg_packE = internal global %"class.boost::detail::make_property_map_from_arg_pack_gen" zeroinitializer, align 4
@.str = private unnamed_addr constant [15 x i8] c"after_callback\00", section "llvm.metadata"
@.str.3 = private unnamed_addr constant [94 x i8] c"/home/sreeram/Dev/mastersthesis/MemoryCheck/src/Benchmark/../../include/Benchmark/benchmark.h\00", section "llvm.metadata"
@.str.4 = private unnamed_addr constant [16 x i8] c"before_callback\00", section "llvm.metadata"
@_ZN9fibonacci12THREAD_COUNTE = constant i32 2, align 4
@_ZN9fibonacci1iE = global i32 1, align 4
@.str.5 = private unnamed_addr constant [5 x i8] c"gvar\00", section "llvm.metadata"
@.str.6 = private unnamed_addr constant [72 x i8] c"/home/sreeram/Dev/mastersthesis/MemoryCheck/src/Benchmark/fibonacci.cpp\00", section "llvm.metadata"
@_ZN9fibonacci1jE = global i32 1, align 4
@_ZSt4cout = external global %"class.std::basic_ostream", align 8
@.str.7 = private unnamed_addr constant [5 x i8] c"ignr\00", section "llvm.metadata"
@_ZTVNSt6thread11_State_implISt12_Bind_simpleIFSt7_Mem_fnIMN9fibonacci7Thread0EFvvEEPS4_EEEE = linkonce_odr unnamed_addr constant [5 x i8*] [i8* null, i8* bitcast ({ i8*, i8*, i8* }* @_ZTINSt6thread11_State_implISt12_Bind_simpleIFSt7_Mem_fnIMN9fibonacci7Thread0EFvvEEPS4_EEEE to i8*), i8* bitcast (void (%"struct.std::thread::_State_impl"*)* @_ZNSt6thread11_State_implISt12_Bind_simpleIFSt7_Mem_fnIMN9fibonacci7Thread0EFvvEEPS4_EEED2Ev to i8*), i8* bitcast (void (%"struct.std::thread::_State_impl"*)* @_ZNSt6thread11_State_implISt12_Bind_simpleIFSt7_Mem_fnIMN9fibonacci7Thread0EFvvEEPS4_EEED0Ev to i8*), i8* bitcast (void (%"struct.std::thread::_State_impl"*)* @_ZNSt6thread11_State_implISt12_Bind_simpleIFSt7_Mem_fnIMN9fibonacci7Thread0EFvvEEPS4_EEE6_M_runEv to i8*)], comdat, align 8
@_ZTVN10__cxxabiv120__si_class_type_infoE = external global i8*
@_ZTSNSt6thread11_State_implISt12_Bind_simpleIFSt7_Mem_fnIMN9fibonacci7Thread0EFvvEEPS4_EEEE = linkonce_odr constant [88 x i8] c"NSt6thread11_State_implISt12_Bind_simpleIFSt7_Mem_fnIMN9fibonacci7Thread0EFvvEEPS4_EEEE\00", comdat
@_ZTINSt6thread6_StateE = external constant i8*
@_ZTINSt6thread11_State_implISt12_Bind_simpleIFSt7_Mem_fnIMN9fibonacci7Thread0EFvvEEPS4_EEEE = linkonce_odr constant { i8*, i8*, i8* } { i8* bitcast (i8** getelementptr inbounds (i8*, i8** @_ZTVN10__cxxabiv120__si_class_type_infoE, i64 2) to i8*), i8* getelementptr inbounds ([88 x i8], [88 x i8]* @_ZTSNSt6thread11_State_implISt12_Bind_simpleIFSt7_Mem_fnIMN9fibonacci7Thread0EFvvEEPS4_EEEE, i32 0, i32 0), i8* bitcast (i8** @_ZTINSt6thread6_StateE to i8*) }, comdat
@_ZTVNSt6thread6_StateE = external unnamed_addr constant [5 x i8*]
@_ZTVNSt6thread11_State_implISt12_Bind_simpleIFSt7_Mem_fnIMN9fibonacci7Thread1EFvvEEPS4_EEEE = linkonce_odr unnamed_addr constant [5 x i8*] [i8* null, i8* bitcast ({ i8*, i8*, i8* }* @_ZTINSt6thread11_State_implISt12_Bind_simpleIFSt7_Mem_fnIMN9fibonacci7Thread1EFvvEEPS4_EEEE to i8*), i8* bitcast (void (%"struct.std::thread::_State_impl.18"*)* @_ZNSt6thread11_State_implISt12_Bind_simpleIFSt7_Mem_fnIMN9fibonacci7Thread1EFvvEEPS4_EEED2Ev to i8*), i8* bitcast (void (%"struct.std::thread::_State_impl.18"*)* @_ZNSt6thread11_State_implISt12_Bind_simpleIFSt7_Mem_fnIMN9fibonacci7Thread1EFvvEEPS4_EEED0Ev to i8*), i8* bitcast (void (%"struct.std::thread::_State_impl.18"*)* @_ZNSt6thread11_State_implISt12_Bind_simpleIFSt7_Mem_fnIMN9fibonacci7Thread1EFvvEEPS4_EEE6_M_runEv to i8*)], comdat, align 8
@_ZTSNSt6thread11_State_implISt12_Bind_simpleIFSt7_Mem_fnIMN9fibonacci7Thread1EFvvEEPS4_EEEE = linkonce_odr constant [88 x i8] c"NSt6thread11_State_implISt12_Bind_simpleIFSt7_Mem_fnIMN9fibonacci7Thread1EFvvEEPS4_EEEE\00", comdat
@_ZTINSt6thread11_State_implISt12_Bind_simpleIFSt7_Mem_fnIMN9fibonacci7Thread1EFvvEEPS4_EEEE = linkonce_odr constant { i8*, i8*, i8* } { i8* bitcast (i8** getelementptr inbounds (i8*, i8** @_ZTVN10__cxxabiv120__si_class_type_infoE, i64 2) to i8*), i8* getelementptr inbounds ([88 x i8], [88 x i8]* @_ZTSNSt6thread11_State_implISt12_Bind_simpleIFSt7_Mem_fnIMN9fibonacci7Thread1EFvvEEPS4_EEEE, i32 0, i32 0), i8* bitcast (i8** @_ZTINSt6thread6_StateE to i8*) }, comdat
@llvm.global_ctors = appending global [1 x { i32, void ()*, i8* }] [{ i32, void ()*, i8* } { i32 65535, void ()* @_GLOBAL__sub_I_fibonacci.cpp, i8* null }]
@llvm.global.annotations = appending global [5 x { i8*, i8*, i8*, i32 }] [{ i8*, i8*, i8*, i32 } { i8* bitcast (void (i32)* @_Z9__afterMAi to i8*), i8* getelementptr inbounds ([15 x i8], [15 x i8]* @.str, i32 0, i32 0), i8* getelementptr inbounds ([94 x i8], [94 x i8]* @.str.3, i32 0, i32 0), i32 23 }, { i8*, i8*, i8*, i32 } { i8* bitcast (void (i32, i8*, i64, i32)* @_Z10__beforeMAiPvli to i8*), i8* getelementptr inbounds ([16 x i8], [16 x i8]* @.str.4, i32 0, i32 0), i8* getelementptr inbounds ([94 x i8], [94 x i8]* @.str.3, i32 0, i32 0), i32 26 }, { i8*, i8*, i8*, i32 } { i8* bitcast (i32* @_ZN9fibonacci1iE to i8*), i8* getelementptr inbounds ([5 x i8], [5 x i8]* @.str.5, i32 0, i32 0), i8* getelementptr inbounds ([72 x i8], [72 x i8]* @.str.6, i32 0, i32 0), i32 12 }, { i8*, i8*, i8*, i32 } { i8* bitcast (i32* @_ZN9fibonacci1jE to i8*), i8* getelementptr inbounds ([5 x i8], [5 x i8]* @.str.5, i32 0, i32 0), i8* getelementptr inbounds ([72 x i8], [72 x i8]* @.str.6, i32 0, i32 0), i32 13 }, { i8*, i8*, i8*, i32 } { i8* bitcast (void ()* @_ZN9fibonacci13run_benchmarkEv to i8*), i8* getelementptr inbounds ([5 x i8], [5 x i8]* @.str.7, i32 0, i32 0), i8* getelementptr inbounds ([72 x i8], [72 x i8]* @.str.6, i32 0, i32 0), i32 60 }], section "llvm.metadata"
@llvm.used = appending global [2 x i8*] [i8* bitcast (i32 (%"class.fibonacci::Thread0"*)* @_ZN9fibonacci7Thread011getThreadIdEv to i8*), i8* bitcast (i32 (%"class.fibonacci::Thread1"*)* @_ZN9fibonacci7Thread111getThreadIdEv to i8*)], section "llvm.metadata"

; Function Attrs: uwtable
define internal void @__cxx_global_var_init() #0 section ".text.startup" !dbg !2758 {
  call void @_ZNSt8ios_base4InitC1Ev(%"class.std::ios_base::Init"* @_ZStL8__ioinit), !dbg !2759
  %1 = call i32 @__cxa_atexit(void (i8*)* bitcast (void (%"class.std::ios_base::Init"*)* @_ZNSt8ios_base4InitD1Ev to void (i8*)*), i8* getelementptr inbounds (%"class.std::ios_base::Init", %"class.std::ios_base::Init"* @_ZStL8__ioinit, i32 0, i32 0), i8* @__dso_handle) #3, !dbg !2760
  ret void, !dbg !2759
}

declare void @_ZNSt8ios_base4InitC1Ev(%"class.std::ios_base::Init"*) unnamed_addr #1

; Function Attrs: nounwind
declare void @_ZNSt8ios_base4InitD1Ev(%"class.std::ios_base::Init"*) unnamed_addr #2

; Function Attrs: nounwind
declare i32 @__cxa_atexit(void (i8*)*, i8*, i8*) #3

; Function Attrs: uwtable
define internal void @__cxx_global_var_init.1() #0 section ".text.startup" !dbg !2762 {
  %1 = alloca %"struct.boost::none_t::init_tag", align 1
  call void @_ZN5boost6none_tC2ENS0_8init_tagE(%"struct.boost::none_t"* @_ZN5boostL4noneE), !dbg !2763
  ret void, !dbg !2764
}

; Function Attrs: nounwind uwtable
define linkonce_odr void @_ZN5boost6none_tC2ENS0_8init_tagE(%"struct.boost::none_t"*) unnamed_addr #4 comdat align 2 !dbg !2765 {
  %2 = alloca %"struct.boost::none_t::init_tag", align 1
  %3 = alloca %"struct.boost::none_t"*, align 8
  store %"struct.boost::none_t"* %0, %"struct.boost::none_t"** %3, align 8
  call void @llvm.dbg.declare(metadata %"struct.boost::none_t"** %3, metadata !2766, metadata !2768), !dbg !2769
  call void @llvm.dbg.declare(metadata %"struct.boost::none_t::init_tag"* %2, metadata !2770, metadata !2768), !dbg !2771
  %4 = load %"struct.boost::none_t"*, %"struct.boost::none_t"** %3, align 8
  ret void, !dbg !2772
}

; Function Attrs: uwtable
define internal void @__cxx_global_var_init.2() #0 section ".text.startup" !dbg !2773 {
  call void @_ZN5boost6detail35make_property_map_from_arg_pack_genINS_5graph8keywords3tag9color_mapENS_18default_color_typeEEC2ES6_(%"class.boost::detail::make_property_map_from_arg_pack_gen"* @_ZN5boost6detailL28make_color_map_from_arg_packE, i32 0), !dbg !2774
  ret void, !dbg !2775
}

; Function Attrs: nounwind uwtable
define linkonce_odr void @_ZN5boost6detail35make_property_map_from_arg_pack_genINS_5graph8keywords3tag9color_mapENS_18default_color_typeEEC2ES6_(%"class.boost::detail::make_property_map_from_arg_pack_gen"*, i32) unnamed_addr #4 comdat align 2 !dbg !2776 {
  %3 = alloca %"class.boost::detail::make_property_map_from_arg_pack_gen"*, align 8
  %4 = alloca i32, align 4
  store %"class.boost::detail::make_property_map_from_arg_pack_gen"* %0, %"class.boost::detail::make_property_map_from_arg_pack_gen"** %3, align 8
  call void @llvm.dbg.declare(metadata %"class.boost::detail::make_property_map_from_arg_pack_gen"** %3, metadata !2777, metadata !2768), !dbg !2779
  store i32 %1, i32* %4, align 4
  call void @llvm.dbg.declare(metadata i32* %4, metadata !2780, metadata !2768), !dbg !2781
  %5 = load %"class.boost::detail::make_property_map_from_arg_pack_gen"*, %"class.boost::detail::make_property_map_from_arg_pack_gen"** %3, align 8
  %6 = getelementptr inbounds %"class.boost::detail::make_property_map_from_arg_pack_gen", %"class.boost::detail::make_property_map_from_arg_pack_gen"* %5, i32 0, i32 0, !dbg !2782
  %7 = load i32, i32* %4, align 4, !dbg !2783
  store i32 %7, i32* %6, align 4, !dbg !2782
  ret void, !dbg !2784
}

; Function Attrs: uwtable
define void @_Z9__afterMAi(i32) #0 !dbg !2785 {
  %2 = alloca i32, align 4
  store i32 %0, i32* %2, align 4
  call void @llvm.dbg.declare(metadata i32* %2, metadata !2787, metadata !2768), !dbg !2788
  %3 = load i32, i32* %2, align 4, !dbg !2789
  call void @_ZN7Runtime7afterMAEi(i32 %3), !dbg !2790
  ret void, !dbg !2791
}

; Function Attrs: nounwind readnone
declare void @llvm.dbg.declare(metadata, metadata, metadata) #5

declare void @_ZN7Runtime7afterMAEi(i32) #1

; Function Attrs: uwtable
define void @_Z10__beforeMAiPvli(i32, i8*, i64, i32) #0 !dbg !2792 {
  %5 = alloca i32, align 4
  %6 = alloca i8*, align 8
  %7 = alloca i64, align 8
  %8 = alloca i32, align 4
  store i32 %0, i32* %5, align 4
  call void @llvm.dbg.declare(metadata i32* %5, metadata !2795, metadata !2768), !dbg !2796
  store i8* %1, i8** %6, align 8
  call void @llvm.dbg.declare(metadata i8** %6, metadata !2797, metadata !2768), !dbg !2798
  store i64 %2, i64* %7, align 8
  call void @llvm.dbg.declare(metadata i64* %7, metadata !2799, metadata !2768), !dbg !2800
  store i32 %3, i32* %8, align 4
  call void @llvm.dbg.declare(metadata i32* %8, metadata !2801, metadata !2768), !dbg !2802
  %9 = load i32, i32* %5, align 4, !dbg !2803
  %10 = load i8*, i8** %6, align 8, !dbg !2804
  %11 = load i32, i32* %8, align 4, !dbg !2805
  %12 = icmp ne i32 %11, 0, !dbg !2805
  call void @_ZN7Runtime8beforeMAEiPvb(i32 %9, i8* %10, i1 zeroext %12), !dbg !2806
  ret void, !dbg !2807
}

declare void @_ZN7Runtime8beforeMAEiPvb(i32, i8*, i1 zeroext) #1

; Function Attrs: noinline uwtable
define linkonce_odr i32 @_ZN9fibonacci7Thread011getThreadIdEv(%"class.fibonacci::Thread0"*) #6 comdat align 2 !dbg !2808 {
  %2 = alloca %"class.fibonacci::Thread0"*, align 8
  store %"class.fibonacci::Thread0"* %0, %"class.fibonacci::Thread0"** %2, align 8
  call void @llvm.dbg.declare(metadata %"class.fibonacci::Thread0"** %2, metadata !2809, metadata !2768), !dbg !2810
  %3 = load %"class.fibonacci::Thread0"*, %"class.fibonacci::Thread0"** %2, align 8
  %4 = getelementptr inbounds %"class.fibonacci::Thread0", %"class.fibonacci::Thread0"* %3, i32 0, i32 0, !dbg !2811
  %5 = call i32 @_ZNK9IrsThread6getTidEv(%class.IrsThread* %4), !dbg !2812
  ret i32 %5, !dbg !2813
}

; Function Attrs: nounwind uwtable
define linkonce_odr i32 @_ZNK9IrsThread6getTidEv(%class.IrsThread*) #4 comdat align 2 !dbg !2814 {
  %2 = alloca %class.IrsThread*, align 8
  store %class.IrsThread* %0, %class.IrsThread** %2, align 8
  call void @llvm.dbg.declare(metadata %class.IrsThread** %2, metadata !2815, metadata !2768), !dbg !2817
  %3 = load %class.IrsThread*, %class.IrsThread** %2, align 8
  %4 = getelementptr inbounds %class.IrsThread, %class.IrsThread* %3, i32 0, i32 1, !dbg !2818
  %5 = load i32, i32* %4, align 8, !dbg !2818
  ret i32 %5, !dbg !2819
}

; Function Attrs: noinline uwtable
define linkonce_odr i32 @_ZN9fibonacci7Thread111getThreadIdEv(%"class.fibonacci::Thread1"*) #6 comdat align 2 !dbg !2820 {
  %2 = alloca %"class.fibonacci::Thread1"*, align 8
  store %"class.fibonacci::Thread1"* %0, %"class.fibonacci::Thread1"** %2, align 8
  call void @llvm.dbg.declare(metadata %"class.fibonacci::Thread1"** %2, metadata !2821, metadata !2768), !dbg !2822
  %3 = load %"class.fibonacci::Thread1"*, %"class.fibonacci::Thread1"** %2, align 8
  %4 = getelementptr inbounds %"class.fibonacci::Thread1", %"class.fibonacci::Thread1"* %3, i32 0, i32 0, !dbg !2823
  %5 = call i32 @_ZNK9IrsThread6getTidEv(%class.IrsThread* %4), !dbg !2824
  ret i32 %5, !dbg !2825
}

; Function Attrs: uwtable
define void @_ZN9fibonacci13run_benchmarkEv() #0 personality i8* bitcast (i32 (...)* @__gxx_personality_v0 to i8*) !dbg !2826 {
  %1 = alloca %"class.fibonacci::Thread0", align 8
  %2 = alloca %"class.fibonacci::Thread1", align 8
  %3 = alloca i8*
  %4 = alloca i32
  %5 = alloca %"struct.std::chrono::time_point", align 8
  %6 = alloca %"struct.std::chrono::time_point", align 8
  %7 = alloca i64, align 8
  %8 = alloca %"struct.std::chrono::duration", align 8
  %9 = alloca %"struct.std::chrono::duration.0", align 8
  call void @llvm.dbg.declare(metadata %"class.fibonacci::Thread0"* %1, metadata !2827, metadata !2768), !dbg !2828
  call void @_ZN9fibonacci7Thread0C2Ei(%"class.fibonacci::Thread0"* %1, i32 0), !dbg !2828
  call void @llvm.dbg.declare(metadata %"class.fibonacci::Thread1"* %2, metadata !2829, metadata !2768), !dbg !2830
  invoke void @_ZN9fibonacci7Thread1C2Ei(%"class.fibonacci::Thread1"* %2, i32 1)
          to label %10 unwind label %34, !dbg !2830

; <label>:10:                                     ; preds = %0
  call void @llvm.dbg.declare(metadata %"struct.std::chrono::time_point"* %5, metadata !2831, metadata !2768), !dbg !2878
  %11 = call i64 @_ZNSt6chrono3_V212system_clock3nowEv() #3, !dbg !2878
  %12 = getelementptr inbounds %"struct.std::chrono::time_point", %"struct.std::chrono::time_point"* %5, i32 0, i32 0, !dbg !2878
  %13 = getelementptr inbounds %"struct.std::chrono::duration", %"struct.std::chrono::duration"* %12, i32 0, i32 0, !dbg !2878
  store i64 %11, i64* %13, align 8, !dbg !2878
  invoke void @_ZN9fibonacci7Thread05startEv(%"class.fibonacci::Thread0"* %1)
          to label %14 unwind label %38, !dbg !2879

; <label>:14:                                     ; preds = %10
  invoke void @_ZN9fibonacci7Thread15startEv(%"class.fibonacci::Thread1"* %2)
          to label %15 unwind label %38, !dbg !2880

; <label>:15:                                     ; preds = %14
  invoke void @_ZN9fibonacci7Thread04joinEv(%"class.fibonacci::Thread0"* %1)
          to label %16 unwind label %38, !dbg !2881

; <label>:16:                                     ; preds = %15
  invoke void @_ZN9fibonacci7Thread14joinEv(%"class.fibonacci::Thread1"* %2)
          to label %17 unwind label %38, !dbg !2882

; <label>:17:                                     ; preds = %16
  call void @llvm.dbg.declare(metadata %"struct.std::chrono::time_point"* %6, metadata !2883, metadata !2768), !dbg !2884
  %18 = call i64 @_ZNSt6chrono3_V212system_clock3nowEv() #3, !dbg !2884
  %19 = getelementptr inbounds %"struct.std::chrono::time_point", %"struct.std::chrono::time_point"* %6, i32 0, i32 0, !dbg !2884
  %20 = getelementptr inbounds %"struct.std::chrono::duration", %"struct.std::chrono::duration"* %19, i32 0, i32 0, !dbg !2884
  store i64 %18, i64* %20, align 8, !dbg !2884
  call void @llvm.dbg.declare(metadata i64* %7, metadata !2885, metadata !2768), !dbg !2884
  %21 = invoke i64 @_ZNSt6chronomiINS_3_V212system_clockENS_8durationIlSt5ratioILl1ELl1000000000EEEES6_EENSt11common_typeIJT0_T1_EE4typeERKNS_10time_pointIT_S8_EERKNSC_ISD_S9_EE(%"struct.std::chrono::time_point"* dereferenceable(8) %6, %"struct.std::chrono::time_point"* dereferenceable(8) %5)
          to label %22 unwind label %38, !dbg !2884

; <label>:22:                                     ; preds = %17
  %23 = getelementptr inbounds %"struct.std::chrono::duration", %"struct.std::chrono::duration"* %8, i32 0, i32 0, !dbg !2886
  store i64 %21, i64* %23, align 8, !dbg !2886
  %24 = invoke i64 @_ZNSt6chrono13duration_castINS_8durationIlSt5ratioILl1ELl1000000EEEElS2_ILl1ELl1000000000EEEENSt9enable_ifIXsr13__is_durationIT_EE5valueES7_E4typeERKNS1_IT0_T1_EE(%"struct.std::chrono::duration"* dereferenceable(8) %8)
          to label %25 unwind label %38, !dbg !2886

; <label>:25:                                     ; preds = %22
  %26 = getelementptr inbounds %"struct.std::chrono::duration.0", %"struct.std::chrono::duration.0"* %9, i32 0, i32 0, !dbg !2888
  store i64 %24, i64* %26, align 8, !dbg !2888
  %27 = invoke i64 @_ZNKSt6chrono8durationIlSt5ratioILl1ELl1000000EEE5countEv(%"struct.std::chrono::duration.0"* %9)
          to label %28 unwind label %38, !dbg !2888

; <label>:28:                                     ; preds = %25
  store i64 %27, i64* %7, align 8, !dbg !2890
  %29 = load i64, i64* %7, align 8, !dbg !2890
  %30 = invoke dereferenceable(272) %"class.std::basic_ostream"* @_ZNSolsEl(%"class.std::basic_ostream"* @_ZSt4cout, i64 %29)
          to label %31 unwind label %38, !dbg !2890

; <label>:31:                                     ; preds = %28
  %32 = invoke dereferenceable(272) %"class.std::basic_ostream"* @_ZNSolsEPFRSoS_E(%"class.std::basic_ostream"* %30, %"class.std::basic_ostream"* (%"class.std::basic_ostream"*)* @_ZSt4endlIcSt11char_traitsIcEERSt13basic_ostreamIT_T0_ES6_)
          to label %33 unwind label %38, !dbg !2892

; <label>:33:                                     ; preds = %31
  call void @_ZN9fibonacci7Thread1D2Ev(%"class.fibonacci::Thread1"* %2) #3, !dbg !2894
  call void @_ZN9fibonacci7Thread0D2Ev(%"class.fibonacci::Thread0"* %1) #3, !dbg !2895
  ret void, !dbg !2894

; <label>:34:                                     ; preds = %0
  %35 = landingpad { i8*, i32 }
          cleanup, !dbg !2897
  %36 = extractvalue { i8*, i32 } %35, 0, !dbg !2897
  store i8* %36, i8** %3, align 8, !dbg !2897
  %37 = extractvalue { i8*, i32 } %35, 1, !dbg !2897
  store i32 %37, i32* %4, align 4, !dbg !2897
  br label %42, !dbg !2897

; <label>:38:                                     ; preds = %31, %28, %25, %22, %17, %16, %15, %14, %10
  %39 = landingpad { i8*, i32 }
          cleanup, !dbg !2898
  %40 = extractvalue { i8*, i32 } %39, 0, !dbg !2898
  store i8* %40, i8** %3, align 8, !dbg !2898
  %41 = extractvalue { i8*, i32 } %39, 1, !dbg !2898
  store i32 %41, i32* %4, align 4, !dbg !2898
  call void @_ZN9fibonacci7Thread1D2Ev(%"class.fibonacci::Thread1"* %2) #3, !dbg !2898
  br label %42, !dbg !2898

; <label>:42:                                     ; preds = %38, %34
  call void @_ZN9fibonacci7Thread0D2Ev(%"class.fibonacci::Thread0"* %1) #3, !dbg !2899
  br label %43, !dbg !2899

; <label>:43:                                     ; preds = %42
  %44 = load i8*, i8** %3, align 8, !dbg !2900
  %45 = load i32, i32* %4, align 4, !dbg !2900
  %46 = insertvalue { i8*, i32 } undef, i8* %44, 0, !dbg !2900
  %47 = insertvalue { i8*, i32 } %46, i32 %45, 1, !dbg !2900
  resume { i8*, i32 } %47, !dbg !2900
}

; Function Attrs: uwtable
define linkonce_odr void @_ZN9fibonacci7Thread0C2Ei(%"class.fibonacci::Thread0"*, i32) unnamed_addr #0 comdat align 2 !dbg !2901 {
  %3 = alloca %"class.fibonacci::Thread0"*, align 8
  %4 = alloca i32, align 4
  store %"class.fibonacci::Thread0"* %0, %"class.fibonacci::Thread0"** %3, align 8
  call void @llvm.dbg.declare(metadata %"class.fibonacci::Thread0"** %3, metadata !2902, metadata !2768), !dbg !2903
  store i32 %1, i32* %4, align 4
  call void @llvm.dbg.declare(metadata i32* %4, metadata !2904, metadata !2768), !dbg !2905
  %5 = load %"class.fibonacci::Thread0"*, %"class.fibonacci::Thread0"** %3, align 8
  %6 = getelementptr inbounds %"class.fibonacci::Thread0", %"class.fibonacci::Thread0"* %5, i32 0, i32 0, !dbg !2906
  %7 = load i32, i32* %4, align 4, !dbg !2907
  call void @_ZN9IrsThreadC2Ei(%class.IrsThread* %6, i32 %7), !dbg !2906
  ret void, !dbg !2908
}

; Function Attrs: uwtable
define linkonce_odr void @_ZN9fibonacci7Thread1C2Ei(%"class.fibonacci::Thread1"*, i32) unnamed_addr #0 comdat align 2 !dbg !2909 {
  %3 = alloca %"class.fibonacci::Thread1"*, align 8
  %4 = alloca i32, align 4
  store %"class.fibonacci::Thread1"* %0, %"class.fibonacci::Thread1"** %3, align 8
  call void @llvm.dbg.declare(metadata %"class.fibonacci::Thread1"** %3, metadata !2910, metadata !2768), !dbg !2911
  store i32 %1, i32* %4, align 4
  call void @llvm.dbg.declare(metadata i32* %4, metadata !2912, metadata !2768), !dbg !2913
  %5 = load %"class.fibonacci::Thread1"*, %"class.fibonacci::Thread1"** %3, align 8
  %6 = getelementptr inbounds %"class.fibonacci::Thread1", %"class.fibonacci::Thread1"* %5, i32 0, i32 0, !dbg !2914
  %7 = load i32, i32* %4, align 4, !dbg !2915
  call void @_ZN9IrsThreadC2Ei(%class.IrsThread* %6, i32 %7), !dbg !2914
  ret void, !dbg !2916
}

declare i32 @__gxx_personality_v0(...)

; Function Attrs: nounwind
declare i64 @_ZNSt6chrono3_V212system_clock3nowEv() #2

; Function Attrs: uwtable
define linkonce_odr void @_ZN9fibonacci7Thread05startEv(%"class.fibonacci::Thread0"*) #0 comdat align 2 !dbg !2917 {
  %2 = alloca %"class.fibonacci::Thread0"*, align 8
  %3 = alloca { i64, i64 }, align 8
  %4 = alloca %"class.fibonacci::Thread0"*, align 8
  store %"class.fibonacci::Thread0"* %0, %"class.fibonacci::Thread0"** %2, align 8
  call void @llvm.dbg.declare(metadata %"class.fibonacci::Thread0"** %2, metadata !2918, metadata !2768), !dbg !2919
  %5 = load %"class.fibonacci::Thread0"*, %"class.fibonacci::Thread0"** %2, align 8
  %6 = getelementptr inbounds %"class.fibonacci::Thread0", %"class.fibonacci::Thread0"* %5, i32 0, i32 0, !dbg !2920
  store { i64, i64 } { i64 ptrtoint (void (%"class.fibonacci::Thread0"*)* @_ZN9fibonacci7Thread04thr0Ev to i64), i64 0 }, { i64, i64 }* %3, align 8, !dbg !2921
  store %"class.fibonacci::Thread0"* %5, %"class.fibonacci::Thread0"** %4, align 8, !dbg !2922
  call void @_ZN9IrsThreadclIJMN9fibonacci7Thread0EFvvEPS2_EEEvDpOT_(%class.IrsThread* %6, { i64, i64 }* dereferenceable(16) %3, %"class.fibonacci::Thread0"** dereferenceable(8) %4), !dbg !2920
  ret void, !dbg !2923
}

; Function Attrs: uwtable
define linkonce_odr void @_ZN9fibonacci7Thread15startEv(%"class.fibonacci::Thread1"*) #0 comdat align 2 !dbg !2924 {
  %2 = alloca %"class.fibonacci::Thread1"*, align 8
  %3 = alloca { i64, i64 }, align 8
  %4 = alloca %"class.fibonacci::Thread1"*, align 8
  store %"class.fibonacci::Thread1"* %0, %"class.fibonacci::Thread1"** %2, align 8
  call void @llvm.dbg.declare(metadata %"class.fibonacci::Thread1"** %2, metadata !2925, metadata !2768), !dbg !2926
  %5 = load %"class.fibonacci::Thread1"*, %"class.fibonacci::Thread1"** %2, align 8
  %6 = getelementptr inbounds %"class.fibonacci::Thread1", %"class.fibonacci::Thread1"* %5, i32 0, i32 0, !dbg !2927
  store { i64, i64 } { i64 ptrtoint (void (%"class.fibonacci::Thread1"*)* @_ZN9fibonacci7Thread14thr1Ev to i64), i64 0 }, { i64, i64 }* %3, align 8, !dbg !2928
  store %"class.fibonacci::Thread1"* %5, %"class.fibonacci::Thread1"** %4, align 8, !dbg !2929
  call void @_ZN9IrsThreadclIJMN9fibonacci7Thread1EFvvEPS2_EEEvDpOT_(%class.IrsThread* %6, { i64, i64 }* dereferenceable(16) %3, %"class.fibonacci::Thread1"** dereferenceable(8) %4), !dbg !2927
  ret void, !dbg !2930
}

; Function Attrs: uwtable
define linkonce_odr void @_ZN9fibonacci7Thread04joinEv(%"class.fibonacci::Thread0"*) #0 comdat align 2 !dbg !2931 {
  %2 = alloca %"class.fibonacci::Thread0"*, align 8
  store %"class.fibonacci::Thread0"* %0, %"class.fibonacci::Thread0"** %2, align 8
  call void @llvm.dbg.declare(metadata %"class.fibonacci::Thread0"** %2, metadata !2932, metadata !2768), !dbg !2933
  %3 = load %"class.fibonacci::Thread0"*, %"class.fibonacci::Thread0"** %2, align 8
  %4 = getelementptr inbounds %"class.fibonacci::Thread0", %"class.fibonacci::Thread0"* %3, i32 0, i32 0, !dbg !2934
  call void @_ZN9IrsThread4joinEv(%class.IrsThread* %4), !dbg !2935
  ret void, !dbg !2936
}

; Function Attrs: uwtable
define linkonce_odr void @_ZN9fibonacci7Thread14joinEv(%"class.fibonacci::Thread1"*) #0 comdat align 2 !dbg !2937 {
  %2 = alloca %"class.fibonacci::Thread1"*, align 8
  store %"class.fibonacci::Thread1"* %0, %"class.fibonacci::Thread1"** %2, align 8
  call void @llvm.dbg.declare(metadata %"class.fibonacci::Thread1"** %2, metadata !2938, metadata !2768), !dbg !2939
  %3 = load %"class.fibonacci::Thread1"*, %"class.fibonacci::Thread1"** %2, align 8
  %4 = getelementptr inbounds %"class.fibonacci::Thread1", %"class.fibonacci::Thread1"* %3, i32 0, i32 0, !dbg !2940
  call void @_ZN9IrsThread4joinEv(%class.IrsThread* %4), !dbg !2941
  ret void, !dbg !2942
}

; Function Attrs: uwtable
define linkonce_odr i64 @_ZNSt6chrono13duration_castINS_8durationIlSt5ratioILl1ELl1000000EEEElS2_ILl1ELl1000000000EEEENSt9enable_ifIXsr13__is_durationIT_EE5valueES7_E4typeERKNS1_IT0_T1_EE(%"struct.std::chrono::duration"* dereferenceable(8)) #0 comdat !dbg !2943 {
  %2 = alloca %"struct.std::chrono::duration.0", align 8
  %3 = alloca %"struct.std::chrono::duration"*, align 8
  store %"struct.std::chrono::duration"* %0, %"struct.std::chrono::duration"** %3, align 8
  call void @llvm.dbg.declare(metadata %"struct.std::chrono::duration"** %3, metadata !2952, metadata !2768), !dbg !2953
  %4 = load %"struct.std::chrono::duration"*, %"struct.std::chrono::duration"** %3, align 8, !dbg !2954
  %5 = call i64 @_ZNSt6chrono20__duration_cast_implINS_8durationIlSt5ratioILl1ELl1000000EEEES2_ILl1ELl1000EElLb1ELb0EE6__castIlS2_ILl1ELl1000000000EEEES4_RKNS1_IT_T0_EE(%"struct.std::chrono::duration"* dereferenceable(8) %4), !dbg !2955
  %6 = getelementptr inbounds %"struct.std::chrono::duration.0", %"struct.std::chrono::duration.0"* %2, i32 0, i32 0, !dbg !2955
  store i64 %5, i64* %6, align 8, !dbg !2955
  %7 = getelementptr inbounds %"struct.std::chrono::duration.0", %"struct.std::chrono::duration.0"* %2, i32 0, i32 0, !dbg !2956
  %8 = load i64, i64* %7, align 8, !dbg !2956
  ret i64 %8, !dbg !2956
}

; Function Attrs: uwtable
define linkonce_odr i64 @_ZNSt6chronomiINS_3_V212system_clockENS_8durationIlSt5ratioILl1ELl1000000000EEEES6_EENSt11common_typeIJT0_T1_EE4typeERKNS_10time_pointIT_S8_EERKNSC_ISD_S9_EE(%"struct.std::chrono::time_point"* dereferenceable(8), %"struct.std::chrono::time_point"* dereferenceable(8)) #0 comdat !dbg !2957 {
  %3 = alloca %"struct.std::chrono::duration", align 8
  %4 = alloca %"struct.std::chrono::time_point"*, align 8
  %5 = alloca %"struct.std::chrono::time_point"*, align 8
  %6 = alloca %"struct.std::chrono::duration", align 8
  %7 = alloca %"struct.std::chrono::duration", align 8
  store %"struct.std::chrono::time_point"* %0, %"struct.std::chrono::time_point"** %4, align 8
  call void @llvm.dbg.declare(metadata %"struct.std::chrono::time_point"** %4, metadata !2964, metadata !2768), !dbg !2965
  store %"struct.std::chrono::time_point"* %1, %"struct.std::chrono::time_point"** %5, align 8
  call void @llvm.dbg.declare(metadata %"struct.std::chrono::time_point"** %5, metadata !2966, metadata !2768), !dbg !2967
  %8 = load %"struct.std::chrono::time_point"*, %"struct.std::chrono::time_point"** %4, align 8, !dbg !2968
  %9 = call i64 @_ZNKSt6chrono10time_pointINS_3_V212system_clockENS_8durationIlSt5ratioILl1ELl1000000000EEEEE16time_since_epochEv(%"struct.std::chrono::time_point"* %8), !dbg !2969
  %10 = getelementptr inbounds %"struct.std::chrono::duration", %"struct.std::chrono::duration"* %6, i32 0, i32 0, !dbg !2969
  store i64 %9, i64* %10, align 8, !dbg !2969
  %11 = load %"struct.std::chrono::time_point"*, %"struct.std::chrono::time_point"** %5, align 8, !dbg !2970
  %12 = call i64 @_ZNKSt6chrono10time_pointINS_3_V212system_clockENS_8durationIlSt5ratioILl1ELl1000000000EEEEE16time_since_epochEv(%"struct.std::chrono::time_point"* %11), !dbg !2971
  %13 = getelementptr inbounds %"struct.std::chrono::duration", %"struct.std::chrono::duration"* %7, i32 0, i32 0, !dbg !2973
  store i64 %12, i64* %13, align 8, !dbg !2973
  %14 = call i64 @_ZNSt6chronomiIlSt5ratioILl1ELl1000000000EElS2_EENSt11common_typeIJNS_8durationIT_T0_EENS4_IT1_T2_EEEE4typeERKS7_RKSA_(%"struct.std::chrono::duration"* dereferenceable(8) %6, %"struct.std::chrono::duration"* dereferenceable(8) %7), !dbg !2974
  %15 = getelementptr inbounds %"struct.std::chrono::duration", %"struct.std::chrono::duration"* %3, i32 0, i32 0, !dbg !2976
  store i64 %14, i64* %15, align 8, !dbg !2976
  %16 = getelementptr inbounds %"struct.std::chrono::duration", %"struct.std::chrono::duration"* %3, i32 0, i32 0, !dbg !2977
  %17 = load i64, i64* %16, align 8, !dbg !2977
  ret i64 %17, !dbg !2977
}

; Function Attrs: nounwind uwtable
define linkonce_odr i64 @_ZNKSt6chrono8durationIlSt5ratioILl1ELl1000000EEE5countEv(%"struct.std::chrono::duration.0"*) #4 comdat align 2 !dbg !2978 {
  %2 = alloca %"struct.std::chrono::duration.0"*, align 8
  store %"struct.std::chrono::duration.0"* %0, %"struct.std::chrono::duration.0"** %2, align 8
  call void @llvm.dbg.declare(metadata %"struct.std::chrono::duration.0"** %2, metadata !2979, metadata !2768), !dbg !2981
  %3 = load %"struct.std::chrono::duration.0"*, %"struct.std::chrono::duration.0"** %2, align 8
  %4 = getelementptr inbounds %"struct.std::chrono::duration.0", %"struct.std::chrono::duration.0"* %3, i32 0, i32 0, !dbg !2982
  %5 = load i64, i64* %4, align 8, !dbg !2982
  ret i64 %5, !dbg !2983
}

declare dereferenceable(272) %"class.std::basic_ostream"* @_ZNSolsEl(%"class.std::basic_ostream"*, i64) #1

declare dereferenceable(272) %"class.std::basic_ostream"* @_ZNSolsEPFRSoS_E(%"class.std::basic_ostream"*, %"class.std::basic_ostream"* (%"class.std::basic_ostream"*)*) #1

declare dereferenceable(272) %"class.std::basic_ostream"* @_ZSt4endlIcSt11char_traitsIcEERSt13basic_ostreamIT_T0_ES6_(%"class.std::basic_ostream"* dereferenceable(272)) #1

; Function Attrs: inlinehint nounwind uwtable
define linkonce_odr void @_ZN9fibonacci7Thread1D2Ev(%"class.fibonacci::Thread1"*) unnamed_addr #7 comdat align 2 !dbg !2984 {
  %2 = alloca %"class.fibonacci::Thread1"*, align 8
  store %"class.fibonacci::Thread1"* %0, %"class.fibonacci::Thread1"** %2, align 8
  call void @llvm.dbg.declare(metadata %"class.fibonacci::Thread1"** %2, metadata !2986, metadata !2768), !dbg !2987
  %3 = load %"class.fibonacci::Thread1"*, %"class.fibonacci::Thread1"** %2, align 8
  %4 = getelementptr inbounds %"class.fibonacci::Thread1", %"class.fibonacci::Thread1"* %3, i32 0, i32 0, !dbg !2988
  call void @_ZN9IrsThreadD2Ev(%class.IrsThread* %4) #3, !dbg !2988
  ret void, !dbg !2990
}

; Function Attrs: inlinehint nounwind uwtable
define linkonce_odr void @_ZN9fibonacci7Thread0D2Ev(%"class.fibonacci::Thread0"*) unnamed_addr #7 comdat align 2 !dbg !2991 {
  %2 = alloca %"class.fibonacci::Thread0"*, align 8
  store %"class.fibonacci::Thread0"* %0, %"class.fibonacci::Thread0"** %2, align 8
  call void @llvm.dbg.declare(metadata %"class.fibonacci::Thread0"** %2, metadata !2993, metadata !2768), !dbg !2994
  %3 = load %"class.fibonacci::Thread0"*, %"class.fibonacci::Thread0"** %2, align 8
  %4 = getelementptr inbounds %"class.fibonacci::Thread0", %"class.fibonacci::Thread0"* %3, i32 0, i32 0, !dbg !2995
  call void @_ZN9IrsThreadD2Ev(%class.IrsThread* %4) #3, !dbg !2995
  ret void, !dbg !2997
}

; Function Attrs: nounwind uwtable
define linkonce_odr void @_ZN9IrsThreadC2Ei(%class.IrsThread*, i32) unnamed_addr #4 comdat align 2 !dbg !2998 {
  %3 = alloca %class.IrsThread*, align 8
  %4 = alloca i32, align 4
  store %class.IrsThread* %0, %class.IrsThread** %3, align 8
  call void @llvm.dbg.declare(metadata %class.IrsThread** %3, metadata !2999, metadata !2768), !dbg !3001
  store i32 %1, i32* %4, align 4
  call void @llvm.dbg.declare(metadata i32* %4, metadata !3002, metadata !2768), !dbg !3003
  %5 = load %class.IrsThread*, %class.IrsThread** %3, align 8
  %6 = getelementptr inbounds %class.IrsThread, %class.IrsThread* %5, i32 0, i32 0, !dbg !3004
  call void @_ZNSt6threadC2Ev(%"class.std::thread"* %6) #3, !dbg !3004
  %7 = getelementptr inbounds %class.IrsThread, %class.IrsThread* %5, i32 0, i32 1, !dbg !3005
  %8 = load i32, i32* %4, align 4, !dbg !3006
  store i32 %8, i32* %7, align 8, !dbg !3005
  ret void, !dbg !3007
}

; Function Attrs: nounwind uwtable
define linkonce_odr void @_ZNSt6threadC2Ev(%"class.std::thread"*) unnamed_addr #4 comdat align 2 !dbg !3008 {
  %2 = alloca %"class.std::thread"*, align 8
  store %"class.std::thread"* %0, %"class.std::thread"** %2, align 8
  call void @llvm.dbg.declare(metadata %"class.std::thread"** %2, metadata !3009, metadata !2768), !dbg !3011
  %3 = load %"class.std::thread"*, %"class.std::thread"** %2, align 8
  %4 = getelementptr inbounds %"class.std::thread", %"class.std::thread"* %3, i32 0, i32 0, !dbg !3012
  call void @_ZNSt6thread2idC2Ev(%"class.std::thread::id"* %4) #3, !dbg !3012
  ret void, !dbg !3013
}

; Function Attrs: nounwind uwtable
define linkonce_odr void @_ZNSt6thread2idC2Ev(%"class.std::thread::id"*) unnamed_addr #4 comdat align 2 !dbg !3014 {
  %2 = alloca %"class.std::thread::id"*, align 8
  store %"class.std::thread::id"* %0, %"class.std::thread::id"** %2, align 8
  call void @llvm.dbg.declare(metadata %"class.std::thread::id"** %2, metadata !3015, metadata !2768), !dbg !3017
  %3 = load %"class.std::thread::id"*, %"class.std::thread::id"** %2, align 8
  %4 = getelementptr inbounds %"class.std::thread::id", %"class.std::thread::id"* %3, i32 0, i32 0, !dbg !3018
  store i64 0, i64* %4, align 8, !dbg !3018
  ret void, !dbg !3019
}

; Function Attrs: uwtable
define linkonce_odr void @_ZN9IrsThreadclIJMN9fibonacci7Thread0EFvvEPS2_EEEvDpOT_(%class.IrsThread*, { i64, i64 }* dereferenceable(16), %"class.fibonacci::Thread0"** dereferenceable(8)) #0 comdat align 2 !dbg !3020 {
  %4 = alloca %class.IrsThread*, align 8
  %5 = alloca { i64, i64 }*, align 8
  %6 = alloca %"class.fibonacci::Thread0"**, align 8
  %7 = alloca %"class.std::thread", align 8
  store %class.IrsThread* %0, %class.IrsThread** %4, align 8
  call void @llvm.dbg.declare(metadata %class.IrsThread** %4, metadata !3029, metadata !2768), !dbg !3030
  store { i64, i64 }* %1, { i64, i64 }** %5, align 8
  call void @llvm.dbg.declare(metadata { i64, i64 }** %5, metadata !3031, metadata !2768), !dbg !3032
  store %"class.fibonacci::Thread0"** %2, %"class.fibonacci::Thread0"*** %6, align 8
  call void @llvm.dbg.declare(metadata %"class.fibonacci::Thread0"*** %6, metadata !3033, metadata !2768), !dbg !3032
  %8 = load %class.IrsThread*, %class.IrsThread** %4, align 8
  %9 = getelementptr inbounds %class.IrsThread, %class.IrsThread* %8, i32 0, i32 0, !dbg !3034
  %10 = load { i64, i64 }*, { i64, i64 }** %5, align 8, !dbg !3035
  %11 = call dereferenceable(16) { i64, i64 }* @_ZSt7forwardIMN9fibonacci7Thread0EFvvEEOT_RNSt16remove_referenceIS4_E4typeE({ i64, i64 }* dereferenceable(16) %10) #3, !dbg !3036
  %12 = load %"class.fibonacci::Thread0"**, %"class.fibonacci::Thread0"*** %6, align 8, !dbg !3035
  %13 = call dereferenceable(8) %"class.fibonacci::Thread0"** @_ZSt7forwardIPN9fibonacci7Thread0EEOT_RNSt16remove_referenceIS3_E4typeE(%"class.fibonacci::Thread0"** dereferenceable(8) %12) #3, !dbg !3037
  call void @_ZNSt6threadC2IMN9fibonacci7Thread0EFvvEJPS2_EEEOT_DpOT0_(%"class.std::thread"* %7, { i64, i64 }* dereferenceable(16) %11, %"class.fibonacci::Thread0"** dereferenceable(8) %13), !dbg !3039
  %14 = call dereferenceable(8) %"class.std::thread"* @_ZNSt6threadaSEOS_(%"class.std::thread"* %9, %"class.std::thread"* dereferenceable(8) %7) #3, !dbg !3041
  call void @_ZNSt6threadD2Ev(%"class.std::thread"* %7) #3, !dbg !3043
  ret void, !dbg !3045
}

; Function Attrs: uwtable
define linkonce_odr void @_ZN9fibonacci7Thread04thr0Ev(%"class.fibonacci::Thread0"*) #0 comdat align 2 !dbg !3046 {
  %2 = alloca %"class.fibonacci::Thread0"*, align 8
  %3 = alloca i32, align 4
  store %"class.fibonacci::Thread0"* %0, %"class.fibonacci::Thread0"** %2, align 8
  call void @llvm.dbg.declare(metadata %"class.fibonacci::Thread0"** %2, metadata !3047, metadata !2768), !dbg !3048
  %4 = load %"class.fibonacci::Thread0"*, %"class.fibonacci::Thread0"** %2, align 8
  call void @llvm.dbg.declare(metadata i32* %3, metadata !3049, metadata !2768), !dbg !3050
  store i32 0, i32* %3, align 4, !dbg !3050
  store i32 0, i32* %3, align 4, !dbg !3051
  br label %5, !dbg !3053

; <label>:5:                                      ; preds = %21, %1
  %6 = load i32, i32* %3, align 4, !dbg !3054
  %7 = icmp slt i32 %6, 5, !dbg !3057
  br i1 %7, label %8, label %24, !dbg !3058

; <label>:8:                                      ; preds = %5
  %9 = call i32 @_ZN9fibonacci7Thread011getThreadIdEv(%"class.fibonacci::Thread0"* %0), !dbg !3059
  %10 = alloca i32, !dbg !3059
  store i32 %9, i32* %10, !dbg !3059
  %11 = load i32, i32* %10, !dbg !3059
  call void @_Z10__beforeMAiPvli(i32 %11, i8* bitcast (i32* @_ZN9fibonacci1jE to i8*), i64 4, i32 0), !dbg !3059
  %12 = load i32, i32* @_ZN9fibonacci1jE, align 4, !dbg !3059
  call void @_Z9__afterMAi(i32 %11), !dbg !3059
  %13 = call i32 @_ZN9fibonacci7Thread011getThreadIdEv(%"class.fibonacci::Thread0"* %0), !dbg !3060
  %14 = alloca i32, !dbg !3060
  store i32 %13, i32* %14, !dbg !3060
  %15 = load i32, i32* %14, !dbg !3060
  call void @_Z10__beforeMAiPvli(i32 %15, i8* bitcast (i32* @_ZN9fibonacci1iE to i8*), i64 4, i32 0), !dbg !3060
  %16 = load i32, i32* @_ZN9fibonacci1iE, align 4, !dbg !3060
  call void @_Z9__afterMAi(i32 %15), !dbg !3060
  %17 = add nsw i32 %16, %12, !dbg !3060
  %18 = call i32 @_ZN9fibonacci7Thread011getThreadIdEv(%"class.fibonacci::Thread0"* %0), !dbg !3060
  %19 = alloca i32, !dbg !3060
  store i32 %18, i32* %19, !dbg !3060
  %20 = load i32, i32* %19, !dbg !3060
  call void @_Z10__beforeMAiPvli(i32 %20, i8* bitcast (i32* @_ZN9fibonacci1iE to i8*), i64 4, i32 1), !dbg !3060
  store i32 %17, i32* @_ZN9fibonacci1iE, align 4, !dbg !3060
  call void @_Z9__afterMAi(i32 %20), !dbg !3060
  br label %21, !dbg !3061

; <label>:21:                                     ; preds = %8
  %22 = load i32, i32* %3, align 4, !dbg !3062
  %23 = add nsw i32 %22, 1, !dbg !3062
  store i32 %23, i32* %3, align 4, !dbg !3062
  br label %5, !dbg !3064, !llvm.loop !3065

; <label>:24:                                     ; preds = %5
  call void @pthread_exit(i8* null) #15, !dbg !3067
  unreachable, !dbg !3067
                                                  ; No predecessors!
  ret void, !dbg !3068
}

; Function Attrs: nounwind uwtable
define linkonce_odr dereferenceable(8) %"class.std::thread"* @_ZNSt6threadaSEOS_(%"class.std::thread"*, %"class.std::thread"* dereferenceable(8)) #4 comdat align 2 !dbg !3069 {
  %3 = alloca %"class.std::thread"*, align 8
  %4 = alloca %"class.std::thread"*, align 8
  store %"class.std::thread"* %0, %"class.std::thread"** %3, align 8
  call void @llvm.dbg.declare(metadata %"class.std::thread"** %3, metadata !3070, metadata !2768), !dbg !3071
  store %"class.std::thread"* %1, %"class.std::thread"** %4, align 8
  call void @llvm.dbg.declare(metadata %"class.std::thread"** %4, metadata !3072, metadata !2768), !dbg !3073
  %5 = load %"class.std::thread"*, %"class.std::thread"** %3, align 8
  %6 = call zeroext i1 @_ZNKSt6thread8joinableEv(%"class.std::thread"* %5) #3, !dbg !3074
  br i1 %6, label %7, label %8, !dbg !3076

; <label>:7:                                      ; preds = %2
  call void @_ZSt9terminatev() #16, !dbg !3077
  unreachable, !dbg !3077

; <label>:8:                                      ; preds = %2
  %9 = load %"class.std::thread"*, %"class.std::thread"** %4, align 8, !dbg !3078
  call void @_ZNSt6thread4swapERS_(%"class.std::thread"* %5, %"class.std::thread"* dereferenceable(8) %9) #3, !dbg !3079
  ret %"class.std::thread"* %5, !dbg !3080
}

; Function Attrs: nounwind uwtable
define linkonce_odr dereferenceable(16) { i64, i64 }* @_ZSt7forwardIMN9fibonacci7Thread0EFvvEEOT_RNSt16remove_referenceIS4_E4typeE({ i64, i64 }* dereferenceable(16)) #4 comdat !dbg !3081 {
  %2 = alloca { i64, i64 }*, align 8
  store { i64, i64 }* %0, { i64, i64 }** %2, align 8
  call void @llvm.dbg.declare(metadata { i64, i64 }** %2, metadata !3088, metadata !2768), !dbg !3089
  %3 = load { i64, i64 }*, { i64, i64 }** %2, align 8, !dbg !3090
  ret { i64, i64 }* %3, !dbg !3091
}

; Function Attrs: nounwind uwtable
define linkonce_odr dereferenceable(8) %"class.fibonacci::Thread0"** @_ZSt7forwardIPN9fibonacci7Thread0EEOT_RNSt16remove_referenceIS3_E4typeE(%"class.fibonacci::Thread0"** dereferenceable(8)) #4 comdat !dbg !3092 {
  %2 = alloca %"class.fibonacci::Thread0"**, align 8
  store %"class.fibonacci::Thread0"** %0, %"class.fibonacci::Thread0"*** %2, align 8
  call void @llvm.dbg.declare(metadata %"class.fibonacci::Thread0"*** %2, metadata !3100, metadata !2768), !dbg !3101
  %3 = load %"class.fibonacci::Thread0"**, %"class.fibonacci::Thread0"*** %2, align 8, !dbg !3102
  ret %"class.fibonacci::Thread0"** %3, !dbg !3103
}

; Function Attrs: uwtable
define linkonce_odr void @_ZNSt6threadC2IMN9fibonacci7Thread0EFvvEJPS2_EEEOT_DpOT0_(%"class.std::thread"*, { i64, i64 }* dereferenceable(16), %"class.fibonacci::Thread0"** dereferenceable(8)) unnamed_addr #0 comdat align 2 personality i8* bitcast (i32 (...)* @__gxx_personality_v0 to i8*) !dbg !3104 {
  %4 = alloca %"class.std::thread"*, align 8
  %5 = alloca { i64, i64 }*, align 8
  %6 = alloca %"class.fibonacci::Thread0"**, align 8
  %7 = alloca void ()*, align 8
  %8 = alloca %"class.std::unique_ptr", align 8
  %9 = alloca %"struct.std::_Bind_simple", align 8
  %10 = alloca i8*
  %11 = alloca i32
  store %"class.std::thread"* %0, %"class.std::thread"** %4, align 8
  call void @llvm.dbg.declare(metadata %"class.std::thread"** %4, metadata !3110, metadata !2768), !dbg !3111
  store { i64, i64 }* %1, { i64, i64 }** %5, align 8
  call void @llvm.dbg.declare(metadata { i64, i64 }** %5, metadata !3112, metadata !2768), !dbg !3113
  store %"class.fibonacci::Thread0"** %2, %"class.fibonacci::Thread0"*** %6, align 8
  call void @llvm.dbg.declare(metadata %"class.fibonacci::Thread0"*** %6, metadata !3114, metadata !2768), !dbg !3115
  %12 = load %"class.std::thread"*, %"class.std::thread"** %4, align 8
  %13 = getelementptr inbounds %"class.std::thread", %"class.std::thread"* %12, i32 0, i32 0, !dbg !3116
  call void @_ZNSt6thread2idC2Ev(%"class.std::thread::id"* %13) #3, !dbg !3116
  call void @llvm.dbg.declare(metadata void ()** %7, metadata !3117, metadata !2768), !dbg !3119
  store void ()* bitcast (i32 (i64*, %union.pthread_attr_t*, i8* (i8*)*, i8*)* @pthread_create to void ()*), void ()** %7, align 8, !dbg !3119
  %14 = load { i64, i64 }*, { i64, i64 }** %5, align 8, !dbg !3120
  %15 = call dereferenceable(16) { i64, i64 }* @_ZSt7forwardIMN9fibonacci7Thread0EFvvEEOT_RNSt16remove_referenceIS4_E4typeE({ i64, i64 }* dereferenceable(16) %14) #3, !dbg !3121
  %16 = load %"class.fibonacci::Thread0"**, %"class.fibonacci::Thread0"*** %6, align 8, !dbg !3122
  %17 = call dereferenceable(8) %"class.fibonacci::Thread0"** @_ZSt7forwardIPN9fibonacci7Thread0EEOT_RNSt16remove_referenceIS3_E4typeE(%"class.fibonacci::Thread0"** dereferenceable(8) %16) #3, !dbg !3123
  call void @_ZSt13__bind_simpleIMN9fibonacci7Thread0EFvvEJPS1_EENSt19_Bind_simple_helperIT_JDpT0_EE6__typeEOS6_DpOS7_(%"struct.std::_Bind_simple"* sret %9, { i64, i64 }* dereferenceable(16) %15, %"class.fibonacci::Thread0"** dereferenceable(8) %17), !dbg !3124
  call void @_ZNSt6thread13_S_make_stateISt12_Bind_simpleIFSt7_Mem_fnIMN9fibonacci7Thread0EFvvEEPS4_EEEESt10unique_ptrINS_6_StateESt14default_deleteISC_EEOT_(%"class.std::unique_ptr"* sret %8, %"struct.std::_Bind_simple"* dereferenceable(24) %9), !dbg !3126
  %18 = load void ()*, void ()** %7, align 8, !dbg !3127
  invoke void @_ZNSt6thread15_M_start_threadESt10unique_ptrINS_6_StateESt14default_deleteIS1_EEPFvvE(%"class.std::thread"* %12, %"class.std::unique_ptr"* %8, void ()* %18)
          to label %19 unwind label %20, !dbg !3128

; <label>:19:                                     ; preds = %3
  call void @_ZNSt10unique_ptrINSt6thread6_StateESt14default_deleteIS1_EED2Ev(%"class.std::unique_ptr"* %8) #3, !dbg !3129
  ret void, !dbg !3130

; <label>:20:                                     ; preds = %3
  %21 = landingpad { i8*, i32 }
          cleanup, !dbg !3131
  %22 = extractvalue { i8*, i32 } %21, 0, !dbg !3131
  store i8* %22, i8** %10, align 8, !dbg !3131
  %23 = extractvalue { i8*, i32 } %21, 1, !dbg !3131
  store i32 %23, i32* %11, align 4, !dbg !3131
  call void @_ZNSt10unique_ptrINSt6thread6_StateESt14default_deleteIS1_EED2Ev(%"class.std::unique_ptr"* %8) #3, !dbg !3132
  br label %24, !dbg !3132

; <label>:24:                                     ; preds = %20
  %25 = load i8*, i8** %10, align 8, !dbg !3134
  %26 = load i32, i32* %11, align 4, !dbg !3134
  %27 = insertvalue { i8*, i32 } undef, i8* %25, 0, !dbg !3134
  %28 = insertvalue { i8*, i32 } %27, i32 %26, 1, !dbg !3134
  resume { i8*, i32 } %28, !dbg !3134
}

; Function Attrs: nounwind uwtable
define linkonce_odr void @_ZNSt6threadD2Ev(%"class.std::thread"*) unnamed_addr #4 comdat align 2 !dbg !3136 {
  %2 = alloca %"class.std::thread"*, align 8
  store %"class.std::thread"* %0, %"class.std::thread"** %2, align 8
  call void @llvm.dbg.declare(metadata %"class.std::thread"** %2, metadata !3137, metadata !2768), !dbg !3138
  %3 = load %"class.std::thread"*, %"class.std::thread"** %2, align 8
  %4 = call zeroext i1 @_ZNKSt6thread8joinableEv(%"class.std::thread"* %3) #3, !dbg !3139
  br i1 %4, label %5, label %6, !dbg !3142

; <label>:5:                                      ; preds = %1
  call void @_ZSt9terminatev() #16, !dbg !3143
  unreachable, !dbg !3143

; <label>:6:                                      ; preds = %1
  ret void, !dbg !3144
}

; Function Attrs: nounwind uwtable
define linkonce_odr zeroext i1 @_ZNKSt6thread8joinableEv(%"class.std::thread"*) #4 comdat align 2 !dbg !3145 {
  %2 = alloca %"class.std::thread"*, align 8
  %3 = alloca %"class.std::thread::id", align 8
  %4 = alloca %"class.std::thread::id", align 8
  store %"class.std::thread"* %0, %"class.std::thread"** %2, align 8
  call void @llvm.dbg.declare(metadata %"class.std::thread"** %2, metadata !3146, metadata !2768), !dbg !3148
  %5 = load %"class.std::thread"*, %"class.std::thread"** %2, align 8
  %6 = getelementptr inbounds %"class.std::thread", %"class.std::thread"* %5, i32 0, i32 0, !dbg !3149
  %7 = bitcast %"class.std::thread::id"* %3 to i8*, !dbg !3149
  %8 = bitcast %"class.std::thread::id"* %6 to i8*, !dbg !3149
  call void @llvm.memcpy.p0i8.p0i8.i64(i8* %7, i8* %8, i64 8, i32 8, i1 false), !dbg !3149
  call void @_ZNSt6thread2idC2Ev(%"class.std::thread::id"* %4) #3, !dbg !3150
  %9 = getelementptr inbounds %"class.std::thread::id", %"class.std::thread::id"* %3, i32 0, i32 0, !dbg !3152
  %10 = load i64, i64* %9, align 8, !dbg !3152
  %11 = getelementptr inbounds %"class.std::thread::id", %"class.std::thread::id"* %4, i32 0, i32 0, !dbg !3152
  %12 = load i64, i64* %11, align 8, !dbg !3152
  %13 = call zeroext i1 @_ZSteqNSt6thread2idES0_(i64 %10, i64 %12) #3, !dbg !3153
  %14 = xor i1 %13, true, !dbg !3155
  ret i1 %14, !dbg !3156
}

; Function Attrs: noreturn nounwind
declare void @_ZSt9terminatev() #8

; Function Attrs: nounwind uwtable
define linkonce_odr void @_ZNSt6thread4swapERS_(%"class.std::thread"*, %"class.std::thread"* dereferenceable(8)) #4 comdat align 2 !dbg !3157 {
  %3 = alloca %"class.std::thread"*, align 8
  %4 = alloca %"class.std::thread"*, align 8
  store %"class.std::thread"* %0, %"class.std::thread"** %3, align 8
  call void @llvm.dbg.declare(metadata %"class.std::thread"** %3, metadata !3158, metadata !2768), !dbg !3159
  store %"class.std::thread"* %1, %"class.std::thread"** %4, align 8
  call void @llvm.dbg.declare(metadata %"class.std::thread"** %4, metadata !3160, metadata !2768), !dbg !3161
  %5 = load %"class.std::thread"*, %"class.std::thread"** %3, align 8
  %6 = getelementptr inbounds %"class.std::thread", %"class.std::thread"* %5, i32 0, i32 0, !dbg !3162
  %7 = load %"class.std::thread"*, %"class.std::thread"** %4, align 8, !dbg !3163
  %8 = getelementptr inbounds %"class.std::thread", %"class.std::thread"* %7, i32 0, i32 0, !dbg !3164
  call void @_ZSt4swapINSt6thread2idEENSt9enable_ifIXsr6__and_ISt21is_move_constructibleIT_ESt18is_move_assignableIS4_EEE5valueEvE4typeERS4_SA_(%"class.std::thread::id"* dereferenceable(8) %6, %"class.std::thread::id"* dereferenceable(8) %8) #3, !dbg !3165
  ret void, !dbg !3166
}

; Function Attrs: nounwind uwtable
define linkonce_odr zeroext i1 @_ZSteqNSt6thread2idES0_(i64, i64) #4 comdat !dbg !3167 {
  %3 = alloca %"class.std::thread::id", align 8
  %4 = alloca %"class.std::thread::id", align 8
  %5 = getelementptr inbounds %"class.std::thread::id", %"class.std::thread::id"* %3, i32 0, i32 0
  store i64 %0, i64* %5, align 8
  %6 = getelementptr inbounds %"class.std::thread::id", %"class.std::thread::id"* %4, i32 0, i32 0
  store i64 %1, i64* %6, align 8
  call void @llvm.dbg.declare(metadata %"class.std::thread::id"* %3, metadata !3170, metadata !2768), !dbg !3171
  call void @llvm.dbg.declare(metadata %"class.std::thread::id"* %4, metadata !3172, metadata !2768), !dbg !3173
  %7 = getelementptr inbounds %"class.std::thread::id", %"class.std::thread::id"* %3, i32 0, i32 0, !dbg !3174
  %8 = load i64, i64* %7, align 8, !dbg !3174
  %9 = getelementptr inbounds %"class.std::thread::id", %"class.std::thread::id"* %4, i32 0, i32 0, !dbg !3175
  %10 = load i64, i64* %9, align 8, !dbg !3175
  %11 = icmp eq i64 %8, %10, !dbg !3176
  ret i1 %11, !dbg !3177
}

; Function Attrs: argmemonly nounwind
declare void @llvm.memcpy.p0i8.p0i8.i64(i8* nocapture writeonly, i8* nocapture readonly, i64, i32, i1) #9

; Function Attrs: inlinehint nounwind uwtable
define linkonce_odr void @_ZSt4swapINSt6thread2idEENSt9enable_ifIXsr6__and_ISt21is_move_constructibleIT_ESt18is_move_assignableIS4_EEE5valueEvE4typeERS4_SA_(%"class.std::thread::id"* dereferenceable(8), %"class.std::thread::id"* dereferenceable(8)) #7 comdat !dbg !3178 {
  %3 = alloca %"class.std::thread::id"*, align 8
  %4 = alloca %"class.std::thread::id"*, align 8
  %5 = alloca %"class.std::thread::id", align 8
  store %"class.std::thread::id"* %0, %"class.std::thread::id"** %3, align 8
  call void @llvm.dbg.declare(metadata %"class.std::thread::id"** %3, metadata !3187, metadata !2768), !dbg !3188
  store %"class.std::thread::id"* %1, %"class.std::thread::id"** %4, align 8
  call void @llvm.dbg.declare(metadata %"class.std::thread::id"** %4, metadata !3189, metadata !2768), !dbg !3190
  call void @llvm.dbg.declare(metadata %"class.std::thread::id"* %5, metadata !3191, metadata !2768), !dbg !3192
  %6 = load %"class.std::thread::id"*, %"class.std::thread::id"** %3, align 8, !dbg !3193
  %7 = call dereferenceable(8) %"class.std::thread::id"* @_ZSt4moveIRNSt6thread2idEEONSt16remove_referenceIT_E4typeEOS4_(%"class.std::thread::id"* dereferenceable(8) %6) #3, !dbg !3193
  %8 = bitcast %"class.std::thread::id"* %5 to i8*, !dbg !3193
  %9 = bitcast %"class.std::thread::id"* %7 to i8*, !dbg !3193
  call void @llvm.memcpy.p0i8.p0i8.i64(i8* %8, i8* %9, i64 8, i32 8, i1 false), !dbg !3194
  %10 = load %"class.std::thread::id"*, %"class.std::thread::id"** %3, align 8, !dbg !3196
  %11 = load %"class.std::thread::id"*, %"class.std::thread::id"** %4, align 8, !dbg !3197
  %12 = call dereferenceable(8) %"class.std::thread::id"* @_ZSt4moveIRNSt6thread2idEEONSt16remove_referenceIT_E4typeEOS4_(%"class.std::thread::id"* dereferenceable(8) %11) #3, !dbg !3197
  %13 = bitcast %"class.std::thread::id"* %10 to i8*, !dbg !3198
  %14 = bitcast %"class.std::thread::id"* %12 to i8*, !dbg !3198
  call void @llvm.memcpy.p0i8.p0i8.i64(i8* %13, i8* %14, i64 8, i32 8, i1 false), !dbg !3199
  %15 = load %"class.std::thread::id"*, %"class.std::thread::id"** %4, align 8, !dbg !3200
  %16 = call dereferenceable(8) %"class.std::thread::id"* @_ZSt4moveIRNSt6thread2idEEONSt16remove_referenceIT_E4typeEOS4_(%"class.std::thread::id"* dereferenceable(8) %5) #3, !dbg !3201
  %17 = bitcast %"class.std::thread::id"* %15 to i8*, !dbg !3202
  %18 = bitcast %"class.std::thread::id"* %16 to i8*, !dbg !3202
  call void @llvm.memcpy.p0i8.p0i8.i64(i8* %17, i8* %18, i64 8, i32 8, i1 false), !dbg !3203
  ret void, !dbg !3204
}

; Function Attrs: nounwind uwtable
define linkonce_odr dereferenceable(8) %"class.std::thread::id"* @_ZSt4moveIRNSt6thread2idEEONSt16remove_referenceIT_E4typeEOS4_(%"class.std::thread::id"* dereferenceable(8)) #4 comdat !dbg !3205 {
  %2 = alloca %"class.std::thread::id"*, align 8
  store %"class.std::thread::id"* %0, %"class.std::thread::id"** %2, align 8
  call void @llvm.dbg.declare(metadata %"class.std::thread::id"** %2, metadata !3213, metadata !2768), !dbg !3214
  %3 = load %"class.std::thread::id"*, %"class.std::thread::id"** %2, align 8, !dbg !3215
  ret %"class.std::thread::id"* %3, !dbg !3216
}

; Function Attrs: nounwind
declare i32 @pthread_create(i64*, %union.pthread_attr_t*, i8* (i8*)*, i8*) #2

declare void @_ZNSt6thread15_M_start_threadESt10unique_ptrINS_6_StateESt14default_deleteIS1_EEPFvvE(%"class.std::thread"*, %"class.std::unique_ptr"*, void ()*) #1

; Function Attrs: uwtable
define linkonce_odr void @_ZNSt6thread13_S_make_stateISt12_Bind_simpleIFSt7_Mem_fnIMN9fibonacci7Thread0EFvvEEPS4_EEEESt10unique_ptrINS_6_StateESt14default_deleteISC_EEOT_(%"class.std::unique_ptr"* noalias sret, %"struct.std::_Bind_simple"* dereferenceable(24)) #0 comdat align 2 personality i8* bitcast (i32 (...)* @__gxx_personality_v0 to i8*) !dbg !3217 {
  %3 = alloca %"struct.std::_Bind_simple"*, align 8
  %4 = alloca i8*
  %5 = alloca i32
  store %"struct.std::_Bind_simple"* %1, %"struct.std::_Bind_simple"** %3, align 8
  call void @llvm.dbg.declare(metadata %"struct.std::_Bind_simple"** %3, metadata !3423, metadata !2768), !dbg !3424
  %6 = call i8* @_Znwm(i64 32) #17, !dbg !3425
  %7 = bitcast i8* %6 to %"struct.std::thread::_State_impl"*, !dbg !3425
  %8 = load %"struct.std::_Bind_simple"*, %"struct.std::_Bind_simple"** %3, align 8, !dbg !3426
  %9 = call dereferenceable(24) %"struct.std::_Bind_simple"* @_ZSt7forwardISt12_Bind_simpleIFSt7_Mem_fnIMN9fibonacci7Thread0EFvvEEPS3_EEEOT_RNSt16remove_referenceISA_E4typeE(%"struct.std::_Bind_simple"* dereferenceable(24) %8) #3, !dbg !3427
  invoke void @_ZNSt6thread11_State_implISt12_Bind_simpleIFSt7_Mem_fnIMN9fibonacci7Thread0EFvvEEPS4_EEEC2EOSA_(%"struct.std::thread::_State_impl"* %7, %"struct.std::_Bind_simple"* dereferenceable(24) %9)
          to label %10 unwind label %12, !dbg !3429

; <label>:10:                                     ; preds = %2
  %11 = bitcast %"struct.std::thread::_State_impl"* %7 to %"struct.std::thread::_State"*, !dbg !3430
  call void @_ZNSt10unique_ptrINSt6thread6_StateESt14default_deleteIS1_EEC2EPS1_(%"class.std::unique_ptr"* %0, %"struct.std::thread::_State"* %11) #3, !dbg !3432
  ret void, !dbg !3433

; <label>:12:                                     ; preds = %2
  %13 = landingpad { i8*, i32 }
          cleanup, !dbg !3434
  %14 = extractvalue { i8*, i32 } %13, 0, !dbg !3434
  store i8* %14, i8** %4, align 8, !dbg !3434
  %15 = extractvalue { i8*, i32 } %13, 1, !dbg !3434
  store i32 %15, i32* %5, align 4, !dbg !3434
  call void @_ZdlPv(i8* %6) #18, !dbg !3435
  br label %16, !dbg !3435

; <label>:16:                                     ; preds = %12
  %17 = load i8*, i8** %4, align 8, !dbg !3437
  %18 = load i32, i32* %5, align 4, !dbg !3437
  %19 = insertvalue { i8*, i32 } undef, i8* %17, 0, !dbg !3437
  %20 = insertvalue { i8*, i32 } %19, i32 %18, 1, !dbg !3437
  resume { i8*, i32 } %20, !dbg !3437
}

; Function Attrs: uwtable
define linkonce_odr void @_ZSt13__bind_simpleIMN9fibonacci7Thread0EFvvEJPS1_EENSt19_Bind_simple_helperIT_JDpT0_EE6__typeEOS6_DpOS7_(%"struct.std::_Bind_simple"* noalias sret, { i64, i64 }* dereferenceable(16), %"class.fibonacci::Thread0"** dereferenceable(8)) #0 comdat !dbg !3439 {
  %4 = alloca { i64, i64 }*, align 8
  %5 = alloca %"class.fibonacci::Thread0"**, align 8
  %6 = alloca %"struct.std::_Mem_fn", align 8
  %7 = alloca { i64, i64 }, align 8
  store { i64, i64 }* %1, { i64, i64 }** %4, align 8
  call void @llvm.dbg.declare(metadata { i64, i64 }** %4, metadata !3450, metadata !2768), !dbg !3451
  store %"class.fibonacci::Thread0"** %2, %"class.fibonacci::Thread0"*** %5, align 8
  call void @llvm.dbg.declare(metadata %"class.fibonacci::Thread0"*** %5, metadata !3452, metadata !2768), !dbg !3453
  %8 = load { i64, i64 }*, { i64, i64 }** %4, align 8, !dbg !3454
  %9 = call dereferenceable(16) { i64, i64 }* @_ZSt7forwardIMN9fibonacci7Thread0EFvvEEOT_RNSt16remove_referenceIS4_E4typeE({ i64, i64 }* dereferenceable(16) %8) #3, !dbg !3455
  %10 = load { i64, i64 }, { i64, i64 }* %9, align 8, !dbg !3455
  store { i64, i64 } %10, { i64, i64 }* %7, align 8, !dbg !3456
  %11 = getelementptr inbounds { i64, i64 }, { i64, i64 }* %7, i32 0, i32 0, !dbg !3456
  %12 = load i64, i64* %11, align 8, !dbg !3456
  %13 = getelementptr inbounds { i64, i64 }, { i64, i64 }* %7, i32 0, i32 1, !dbg !3456
  %14 = load i64, i64* %13, align 8, !dbg !3456
  %15 = call { i64, i64 } @_ZNSt26_Maybe_wrap_member_pointerIMN9fibonacci7Thread0EFvvEE9__do_wrapES3_(i64 %12, i64 %14), !dbg !3457
  %16 = getelementptr inbounds %"struct.std::_Mem_fn", %"struct.std::_Mem_fn"* %6, i32 0, i32 0, !dbg !3456
  %17 = getelementptr inbounds %"class.std::_Mem_fn_base", %"class.std::_Mem_fn_base"* %16, i32 0, i32 0, !dbg !3456
  %18 = getelementptr inbounds { i64, i64 }, { i64, i64 }* %17, i32 0, i32 0, !dbg !3456
  %19 = extractvalue { i64, i64 } %15, 0, !dbg !3456
  store i64 %19, i64* %18, align 8, !dbg !3456
  %20 = getelementptr inbounds { i64, i64 }, { i64, i64 }* %17, i32 0, i32 1, !dbg !3456
  %21 = extractvalue { i64, i64 } %15, 1, !dbg !3456
  store i64 %21, i64* %20, align 8, !dbg !3456
  %22 = load %"class.fibonacci::Thread0"**, %"class.fibonacci::Thread0"*** %5, align 8, !dbg !3459
  %23 = call dereferenceable(8) %"class.fibonacci::Thread0"** @_ZSt7forwardIPN9fibonacci7Thread0EEOT_RNSt16remove_referenceIS3_E4typeE(%"class.fibonacci::Thread0"** dereferenceable(8) %22) #3, !dbg !3460
  call void @_ZNSt12_Bind_simpleIFSt7_Mem_fnIMN9fibonacci7Thread0EFvvEEPS2_EEC2IS5_JS6_EEEOT_DpOT0_(%"struct.std::_Bind_simple"* %0, %"struct.std::_Mem_fn"* dereferenceable(16) %6, %"class.fibonacci::Thread0"** dereferenceable(8) %23), !dbg !3461
  ret void, !dbg !3462
}

; Function Attrs: nounwind uwtable
define linkonce_odr void @_ZNSt10unique_ptrINSt6thread6_StateESt14default_deleteIS1_EED2Ev(%"class.std::unique_ptr"*) unnamed_addr #4 comdat align 2 personality i8* bitcast (i32 (...)* @__gxx_personality_v0 to i8*) !dbg !3463 {
  %2 = alloca %"class.std::unique_ptr"*, align 8
  %3 = alloca %"struct.std::thread::_State"**, align 8
  store %"class.std::unique_ptr"* %0, %"class.std::unique_ptr"** %2, align 8
  call void @llvm.dbg.declare(metadata %"class.std::unique_ptr"** %2, metadata !3464, metadata !2768), !dbg !3466
  %4 = load %"class.std::unique_ptr"*, %"class.std::unique_ptr"** %2, align 8
  call void @llvm.dbg.declare(metadata %"struct.std::thread::_State"*** %3, metadata !3467, metadata !2768), !dbg !3469
  %5 = getelementptr inbounds %"class.std::unique_ptr", %"class.std::unique_ptr"* %4, i32 0, i32 0, !dbg !3470
  %6 = call dereferenceable(8) %"struct.std::thread::_State"** @_ZSt3getILm0EJPNSt6thread6_StateESt14default_deleteIS1_EEERNSt13tuple_elementIXT_ESt5tupleIJDpT0_EEE4typeERS9_(%"class.std::tuple"* dereferenceable(8) %5) #3, !dbg !3471
  store %"struct.std::thread::_State"** %6, %"struct.std::thread::_State"*** %3, align 8, !dbg !3469
  %7 = load %"struct.std::thread::_State"**, %"struct.std::thread::_State"*** %3, align 8, !dbg !3472
  %8 = load %"struct.std::thread::_State"*, %"struct.std::thread::_State"** %7, align 8, !dbg !3472
  %9 = icmp ne %"struct.std::thread::_State"* %8, null, !dbg !3474
  br i1 %9, label %10, label %15, !dbg !3475

; <label>:10:                                     ; preds = %1
  %11 = call dereferenceable(1) %"struct.std::default_delete"* @_ZNSt10unique_ptrINSt6thread6_StateESt14default_deleteIS1_EE11get_deleterEv(%"class.std::unique_ptr"* %4) #3, !dbg !3476
  %12 = load %"struct.std::thread::_State"**, %"struct.std::thread::_State"*** %3, align 8, !dbg !3477
  %13 = load %"struct.std::thread::_State"*, %"struct.std::thread::_State"** %12, align 8, !dbg !3477
  invoke void @_ZNKSt14default_deleteINSt6thread6_StateEEclEPS1_(%"struct.std::default_delete"* %11, %"struct.std::thread::_State"* %13)
          to label %14 unwind label %17, !dbg !3476

; <label>:14:                                     ; preds = %10
  br label %15, !dbg !3478

; <label>:15:                                     ; preds = %14, %1
  %16 = load %"struct.std::thread::_State"**, %"struct.std::thread::_State"*** %3, align 8, !dbg !3480
  store %"struct.std::thread::_State"* null, %"struct.std::thread::_State"** %16, align 8, !dbg !3481
  ret void, !dbg !3482

; <label>:17:                                     ; preds = %10
  %18 = landingpad { i8*, i32 }
          catch i8* null, !dbg !3483
  %19 = extractvalue { i8*, i32 } %18, 0, !dbg !3483
  call void @__clang_call_terminate(i8* %19) #16, !dbg !3483
  unreachable, !dbg !3483
}

; Function Attrs: nobuiltin
declare noalias i8* @_Znwm(i64) #10

; Function Attrs: nounwind uwtable
define linkonce_odr dereferenceable(24) %"struct.std::_Bind_simple"* @_ZSt7forwardISt12_Bind_simpleIFSt7_Mem_fnIMN9fibonacci7Thread0EFvvEEPS3_EEEOT_RNSt16remove_referenceISA_E4typeE(%"struct.std::_Bind_simple"* dereferenceable(24)) #4 comdat !dbg !3485 {
  %2 = alloca %"struct.std::_Bind_simple"*, align 8
  store %"struct.std::_Bind_simple"* %0, %"struct.std::_Bind_simple"** %2, align 8
  call void @llvm.dbg.declare(metadata %"struct.std::_Bind_simple"** %2, metadata !3493, metadata !2768), !dbg !3494
  %3 = load %"struct.std::_Bind_simple"*, %"struct.std::_Bind_simple"** %2, align 8, !dbg !3495
  ret %"struct.std::_Bind_simple"* %3, !dbg !3496
}

; Function Attrs: nounwind uwtable
define linkonce_odr void @_ZNSt6thread11_State_implISt12_Bind_simpleIFSt7_Mem_fnIMN9fibonacci7Thread0EFvvEEPS4_EEEC2EOSA_(%"struct.std::thread::_State_impl"*, %"struct.std::_Bind_simple"* dereferenceable(24)) unnamed_addr #4 comdat align 2 !dbg !3497 {
  %3 = alloca %"struct.std::thread::_State_impl"*, align 8
  %4 = alloca %"struct.std::_Bind_simple"*, align 8
  store %"struct.std::thread::_State_impl"* %0, %"struct.std::thread::_State_impl"** %3, align 8
  call void @llvm.dbg.declare(metadata %"struct.std::thread::_State_impl"** %3, metadata !3509, metadata !2768), !dbg !3511
  store %"struct.std::_Bind_simple"* %1, %"struct.std::_Bind_simple"** %4, align 8
  call void @llvm.dbg.declare(metadata %"struct.std::_Bind_simple"** %4, metadata !3512, metadata !2768), !dbg !3513
  %5 = load %"struct.std::thread::_State_impl"*, %"struct.std::thread::_State_impl"** %3, align 8
  %6 = bitcast %"struct.std::thread::_State_impl"* %5 to %"struct.std::thread::_State"*, !dbg !3514
  call void @_ZNSt6thread6_StateC2Ev(%"struct.std::thread::_State"* %6) #3, !dbg !3515
  %7 = bitcast %"struct.std::thread::_State_impl"* %5 to i32 (...)***, !dbg !3514
  store i32 (...)** bitcast (i8** getelementptr inbounds ([5 x i8*], [5 x i8*]* @_ZTVNSt6thread11_State_implISt12_Bind_simpleIFSt7_Mem_fnIMN9fibonacci7Thread0EFvvEEPS4_EEEE, i32 0, i32 2) to i32 (...)**), i32 (...)*** %7, align 8, !dbg !3514
  %8 = getelementptr inbounds %"struct.std::thread::_State_impl", %"struct.std::thread::_State_impl"* %5, i32 0, i32 1, !dbg !3516
  %9 = load %"struct.std::_Bind_simple"*, %"struct.std::_Bind_simple"** %4, align 8, !dbg !3517
  %10 = call dereferenceable(24) %"struct.std::_Bind_simple"* @_ZSt7forwardISt12_Bind_simpleIFSt7_Mem_fnIMN9fibonacci7Thread0EFvvEEPS3_EEEOT_RNSt16remove_referenceISA_E4typeE(%"struct.std::_Bind_simple"* dereferenceable(24) %9) #3, !dbg !3518
  call void @_ZNSt12_Bind_simpleIFSt7_Mem_fnIMN9fibonacci7Thread0EFvvEEPS2_EEC2EOS8_(%"struct.std::_Bind_simple"* %8, %"struct.std::_Bind_simple"* dereferenceable(24) %10) #3, !dbg !3520
  ret void, !dbg !3522
}

; Function Attrs: nobuiltin nounwind
declare void @_ZdlPv(i8*) #11

; Function Attrs: nounwind uwtable
define linkonce_odr void @_ZNSt10unique_ptrINSt6thread6_StateESt14default_deleteIS1_EEC2EPS1_(%"class.std::unique_ptr"*, %"struct.std::thread::_State"*) unnamed_addr #4 comdat align 2 personality i8* bitcast (i32 (...)* @__gxx_personality_v0 to i8*) !dbg !3523 {
  %3 = alloca %"class.std::unique_ptr"*, align 8
  %4 = alloca %"struct.std::thread::_State"*, align 8
  %5 = alloca %"struct.std::default_delete", align 1
  store %"class.std::unique_ptr"* %0, %"class.std::unique_ptr"** %3, align 8
  call void @llvm.dbg.declare(metadata %"class.std::unique_ptr"** %3, metadata !3524, metadata !2768), !dbg !3525
  store %"struct.std::thread::_State"* %1, %"struct.std::thread::_State"** %4, align 8
  call void @llvm.dbg.declare(metadata %"struct.std::thread::_State"** %4, metadata !3526, metadata !2768), !dbg !3527
  %6 = load %"class.std::unique_ptr"*, %"class.std::unique_ptr"** %3, align 8
  %7 = getelementptr inbounds %"class.std::unique_ptr", %"class.std::unique_ptr"* %6, i32 0, i32 0, !dbg !3528
  invoke void @_ZNSt5tupleIJPNSt6thread6_StateESt14default_deleteIS1_EEEC2IRS2_S4_Lb1EEEOT_OT0_(%"class.std::tuple"* %7, %"struct.std::thread::_State"** dereferenceable(8) %4, %"struct.std::default_delete"* dereferenceable(1) %5)
          to label %8 unwind label %9, !dbg !3528

; <label>:8:                                      ; preds = %2
  ret void, !dbg !3529

; <label>:9:                                      ; preds = %2
  %10 = landingpad { i8*, i32 }
          catch i8* null, !dbg !3530
  %11 = extractvalue { i8*, i32 } %10, 0, !dbg !3530
  call void @__clang_call_terminate(i8* %11) #16, !dbg !3530
  unreachable, !dbg !3530
}

; Function Attrs: inlinehint nounwind uwtable
define linkonce_odr void @_ZNSt6thread6_StateC2Ev(%"struct.std::thread::_State"*) unnamed_addr #7 comdat align 2 !dbg !3532 {
  %2 = alloca %"struct.std::thread::_State"*, align 8
  store %"struct.std::thread::_State"* %0, %"struct.std::thread::_State"** %2, align 8
  call void @llvm.dbg.declare(metadata %"struct.std::thread::_State"** %2, metadata !3537, metadata !2768), !dbg !3538
  %3 = load %"struct.std::thread::_State"*, %"struct.std::thread::_State"** %2, align 8
  %4 = bitcast %"struct.std::thread::_State"* %3 to i32 (...)***, !dbg !3539
  store i32 (...)** bitcast (i8** getelementptr inbounds ([5 x i8*], [5 x i8*]* @_ZTVNSt6thread6_StateE, i32 0, i32 2) to i32 (...)**), i32 (...)*** %4, align 8, !dbg !3539
  ret void, !dbg !3539
}

; Function Attrs: nounwind uwtable
define linkonce_odr void @_ZNSt12_Bind_simpleIFSt7_Mem_fnIMN9fibonacci7Thread0EFvvEEPS2_EEC2EOS8_(%"struct.std::_Bind_simple"*, %"struct.std::_Bind_simple"* dereferenceable(24)) unnamed_addr #4 comdat align 2 !dbg !3540 {
  %3 = alloca %"struct.std::_Bind_simple"*, align 8
  %4 = alloca %"struct.std::_Bind_simple"*, align 8
  store %"struct.std::_Bind_simple"* %0, %"struct.std::_Bind_simple"** %3, align 8
  call void @llvm.dbg.declare(metadata %"struct.std::_Bind_simple"** %3, metadata !3541, metadata !2768), !dbg !3543
  store %"struct.std::_Bind_simple"* %1, %"struct.std::_Bind_simple"** %4, align 8
  call void @llvm.dbg.declare(metadata %"struct.std::_Bind_simple"** %4, metadata !3544, metadata !2768), !dbg !3545
  %5 = load %"struct.std::_Bind_simple"*, %"struct.std::_Bind_simple"** %3, align 8
  %6 = getelementptr inbounds %"struct.std::_Bind_simple", %"struct.std::_Bind_simple"* %5, i32 0, i32 0, !dbg !3546
  %7 = load %"struct.std::_Bind_simple"*, %"struct.std::_Bind_simple"** %4, align 8, !dbg !3546
  %8 = getelementptr inbounds %"struct.std::_Bind_simple", %"struct.std::_Bind_simple"* %7, i32 0, i32 0, !dbg !3546
  call void @_ZNSt5tupleIJSt7_Mem_fnIMN9fibonacci7Thread0EFvvEEPS2_EEC2EOS7_(%"class.std::tuple.3"* %6, %"class.std::tuple.3"* dereferenceable(24) %8) #3, !dbg !3546
  ret void, !dbg !3546
}

; Function Attrs: inlinehint nounwind uwtable
define linkonce_odr void @_ZNSt6thread11_State_implISt12_Bind_simpleIFSt7_Mem_fnIMN9fibonacci7Thread0EFvvEEPS4_EEED2Ev(%"struct.std::thread::_State_impl"*) unnamed_addr #7 comdat align 2 !dbg !3547 {
  %2 = alloca %"struct.std::thread::_State_impl"*, align 8
  store %"struct.std::thread::_State_impl"* %0, %"struct.std::thread::_State_impl"** %2, align 8
  call void @llvm.dbg.declare(metadata %"struct.std::thread::_State_impl"** %2, metadata !3549, metadata !2768), !dbg !3550
  %3 = load %"struct.std::thread::_State_impl"*, %"struct.std::thread::_State_impl"** %2, align 8
  %4 = bitcast %"struct.std::thread::_State_impl"* %3 to %"struct.std::thread::_State"*, !dbg !3551
  call void @_ZNSt6thread6_StateD2Ev(%"struct.std::thread::_State"* %4) #3, !dbg !3551
  ret void, !dbg !3553
}

; Function Attrs: inlinehint nounwind uwtable
define linkonce_odr void @_ZNSt6thread11_State_implISt12_Bind_simpleIFSt7_Mem_fnIMN9fibonacci7Thread0EFvvEEPS4_EEED0Ev(%"struct.std::thread::_State_impl"*) unnamed_addr #7 comdat align 2 !dbg !3554 {
  %2 = alloca %"struct.std::thread::_State_impl"*, align 8
  store %"struct.std::thread::_State_impl"* %0, %"struct.std::thread::_State_impl"** %2, align 8
  call void @llvm.dbg.declare(metadata %"struct.std::thread::_State_impl"** %2, metadata !3555, metadata !2768), !dbg !3556
  %3 = load %"struct.std::thread::_State_impl"*, %"struct.std::thread::_State_impl"** %2, align 8
  call void @_ZNSt6thread11_State_implISt12_Bind_simpleIFSt7_Mem_fnIMN9fibonacci7Thread0EFvvEEPS4_EEED2Ev(%"struct.std::thread::_State_impl"* %3) #3, !dbg !3557
  %4 = bitcast %"struct.std::thread::_State_impl"* %3 to i8*, !dbg !3557
  call void @_ZdlPv(i8* %4) #18, !dbg !3558
  ret void, !dbg !3557
}

; Function Attrs: uwtable
define linkonce_odr void @_ZNSt6thread11_State_implISt12_Bind_simpleIFSt7_Mem_fnIMN9fibonacci7Thread0EFvvEEPS4_EEE6_M_runEv(%"struct.std::thread::_State_impl"*) unnamed_addr #0 comdat align 2 !dbg !3560 {
  %2 = alloca %"struct.std::thread::_State_impl"*, align 8
  store %"struct.std::thread::_State_impl"* %0, %"struct.std::thread::_State_impl"** %2, align 8
  call void @llvm.dbg.declare(metadata %"struct.std::thread::_State_impl"** %2, metadata !3561, metadata !2768), !dbg !3562
  %3 = load %"struct.std::thread::_State_impl"*, %"struct.std::thread::_State_impl"** %2, align 8
  %4 = getelementptr inbounds %"struct.std::thread::_State_impl", %"struct.std::thread::_State_impl"* %3, i32 0, i32 1, !dbg !3563
  call void @_ZNSt12_Bind_simpleIFSt7_Mem_fnIMN9fibonacci7Thread0EFvvEEPS2_EEclEv(%"struct.std::_Bind_simple"* %4), !dbg !3563
  ret void, !dbg !3564
}

; Function Attrs: nounwind uwtable
define linkonce_odr void @_ZNSt5tupleIJSt7_Mem_fnIMN9fibonacci7Thread0EFvvEEPS2_EEC2EOS7_(%"class.std::tuple.3"*, %"class.std::tuple.3"* dereferenceable(24)) unnamed_addr #4 comdat align 2 !dbg !3565 {
  %3 = alloca %"class.std::tuple.3"*, align 8
  %4 = alloca %"class.std::tuple.3"*, align 8
  store %"class.std::tuple.3"* %0, %"class.std::tuple.3"** %3, align 8
  call void @llvm.dbg.declare(metadata %"class.std::tuple.3"** %3, metadata !3566, metadata !2768), !dbg !3568
  store %"class.std::tuple.3"* %1, %"class.std::tuple.3"** %4, align 8
  call void @llvm.dbg.declare(metadata %"class.std::tuple.3"** %4, metadata !3569, metadata !2768), !dbg !3570
  %5 = load %"class.std::tuple.3"*, %"class.std::tuple.3"** %3, align 8
  %6 = bitcast %"class.std::tuple.3"* %5 to %"struct.std::_Tuple_impl.4"*, !dbg !3571
  %7 = load %"class.std::tuple.3"*, %"class.std::tuple.3"** %4, align 8, !dbg !3571
  %8 = bitcast %"class.std::tuple.3"* %7 to %"struct.std::_Tuple_impl.4"*, !dbg !3571
  call void @_ZNSt11_Tuple_implILm0EJSt7_Mem_fnIMN9fibonacci7Thread0EFvvEEPS2_EEC2EOS7_(%"struct.std::_Tuple_impl.4"* %6, %"struct.std::_Tuple_impl.4"* dereferenceable(24) %8) #3, !dbg !3571
  ret void, !dbg !3571
}

; Function Attrs: nounwind uwtable
define linkonce_odr void @_ZNSt11_Tuple_implILm0EJSt7_Mem_fnIMN9fibonacci7Thread0EFvvEEPS2_EEC2EOS7_(%"struct.std::_Tuple_impl.4"*, %"struct.std::_Tuple_impl.4"* dereferenceable(24)) unnamed_addr #4 comdat align 2 personality i8* bitcast (i32 (...)* @__gxx_personality_v0 to i8*) !dbg !3572 {
  %3 = alloca %"struct.std::_Tuple_impl.4"*, align 8
  %4 = alloca %"struct.std::_Tuple_impl.4"*, align 8
  store %"struct.std::_Tuple_impl.4"* %0, %"struct.std::_Tuple_impl.4"** %3, align 8
  call void @llvm.dbg.declare(metadata %"struct.std::_Tuple_impl.4"** %3, metadata !3573, metadata !2768), !dbg !3575
  store %"struct.std::_Tuple_impl.4"* %1, %"struct.std::_Tuple_impl.4"** %4, align 8
  call void @llvm.dbg.declare(metadata %"struct.std::_Tuple_impl.4"** %4, metadata !3576, metadata !2768), !dbg !3577
  %5 = load %"struct.std::_Tuple_impl.4"*, %"struct.std::_Tuple_impl.4"** %3, align 8
  %6 = bitcast %"struct.std::_Tuple_impl.4"* %5 to %"struct.std::_Tuple_impl.5"*, !dbg !3578
  %7 = load %"struct.std::_Tuple_impl.4"*, %"struct.std::_Tuple_impl.4"** %4, align 8, !dbg !3579
  %8 = call dereferenceable(8) %"struct.std::_Tuple_impl.5"* @_ZNSt11_Tuple_implILm0EJSt7_Mem_fnIMN9fibonacci7Thread0EFvvEEPS2_EE7_M_tailERS7_(%"struct.std::_Tuple_impl.4"* dereferenceable(24) %7) #3, !dbg !3580
  %9 = call dereferenceable(8) %"struct.std::_Tuple_impl.5"* @_ZSt4moveIRSt11_Tuple_implILm1EJPN9fibonacci7Thread0EEEEONSt16remove_referenceIT_E4typeEOS7_(%"struct.std::_Tuple_impl.5"* dereferenceable(8) %8) #3, !dbg !3581
  call void @_ZNSt11_Tuple_implILm1EJPN9fibonacci7Thread0EEEC2EOS3_(%"struct.std::_Tuple_impl.5"* %6, %"struct.std::_Tuple_impl.5"* dereferenceable(8) %9) #3, !dbg !3583
  %10 = bitcast %"struct.std::_Tuple_impl.4"* %5 to i8*, !dbg !3578
  %11 = getelementptr inbounds i8, i8* %10, i64 8, !dbg !3578
  %12 = bitcast i8* %11 to %"struct.std::_Head_base.7"*, !dbg !3578
  %13 = load %"struct.std::_Tuple_impl.4"*, %"struct.std::_Tuple_impl.4"** %4, align 8, !dbg !3585
  %14 = call dereferenceable(16) %"struct.std::_Mem_fn"* @_ZNSt11_Tuple_implILm0EJSt7_Mem_fnIMN9fibonacci7Thread0EFvvEEPS2_EE7_M_headERS7_(%"struct.std::_Tuple_impl.4"* dereferenceable(24) %13) #3, !dbg !3586
  %15 = call dereferenceable(16) %"struct.std::_Mem_fn"* @_ZSt7forwardISt7_Mem_fnIMN9fibonacci7Thread0EFvvEEEOT_RNSt16remove_referenceIS6_E4typeE(%"struct.std::_Mem_fn"* dereferenceable(16) %14) #3, !dbg !3587
  invoke void @_ZNSt10_Head_baseILm0ESt7_Mem_fnIMN9fibonacci7Thread0EFvvEELb0EEC2IS5_EEOT_(%"struct.std::_Head_base.7"* %12, %"struct.std::_Mem_fn"* dereferenceable(16) %15)
          to label %16 unwind label %17, !dbg !3589

; <label>:16:                                     ; preds = %2
  ret void, !dbg !3590

; <label>:17:                                     ; preds = %2
  %18 = landingpad { i8*, i32 }
          catch i8* null, !dbg !3591
  %19 = extractvalue { i8*, i32 } %18, 0, !dbg !3591
  call void @__clang_call_terminate(i8* %19) #16, !dbg !3591
  unreachable, !dbg !3591
}

; Function Attrs: nounwind uwtable
define linkonce_odr dereferenceable(8) %"struct.std::_Tuple_impl.5"* @_ZSt4moveIRSt11_Tuple_implILm1EJPN9fibonacci7Thread0EEEEONSt16remove_referenceIT_E4typeEOS7_(%"struct.std::_Tuple_impl.5"* dereferenceable(8)) #4 comdat !dbg !3592 {
  %2 = alloca %"struct.std::_Tuple_impl.5"*, align 8
  store %"struct.std::_Tuple_impl.5"* %0, %"struct.std::_Tuple_impl.5"** %2, align 8
  call void @llvm.dbg.declare(metadata %"struct.std::_Tuple_impl.5"** %2, metadata !3600, metadata !2768), !dbg !3601
  %3 = load %"struct.std::_Tuple_impl.5"*, %"struct.std::_Tuple_impl.5"** %2, align 8, !dbg !3602
  ret %"struct.std::_Tuple_impl.5"* %3, !dbg !3603
}

; Function Attrs: nounwind uwtable
define linkonce_odr dereferenceable(8) %"struct.std::_Tuple_impl.5"* @_ZNSt11_Tuple_implILm0EJSt7_Mem_fnIMN9fibonacci7Thread0EFvvEEPS2_EE7_M_tailERS7_(%"struct.std::_Tuple_impl.4"* dereferenceable(24)) #4 comdat align 2 !dbg !3604 {
  %2 = alloca %"struct.std::_Tuple_impl.4"*, align 8
  store %"struct.std::_Tuple_impl.4"* %0, %"struct.std::_Tuple_impl.4"** %2, align 8
  call void @llvm.dbg.declare(metadata %"struct.std::_Tuple_impl.4"** %2, metadata !3605, metadata !2768), !dbg !3606
  %3 = load %"struct.std::_Tuple_impl.4"*, %"struct.std::_Tuple_impl.4"** %2, align 8, !dbg !3607
  %4 = bitcast %"struct.std::_Tuple_impl.4"* %3 to %"struct.std::_Tuple_impl.5"*, !dbg !3607
  ret %"struct.std::_Tuple_impl.5"* %4, !dbg !3608
}

; Function Attrs: nounwind uwtable
define linkonce_odr void @_ZNSt11_Tuple_implILm1EJPN9fibonacci7Thread0EEEC2EOS3_(%"struct.std::_Tuple_impl.5"*, %"struct.std::_Tuple_impl.5"* dereferenceable(8)) unnamed_addr #4 comdat align 2 personality i8* bitcast (i32 (...)* @__gxx_personality_v0 to i8*) !dbg !3609 {
  %3 = alloca %"struct.std::_Tuple_impl.5"*, align 8
  %4 = alloca %"struct.std::_Tuple_impl.5"*, align 8
  store %"struct.std::_Tuple_impl.5"* %0, %"struct.std::_Tuple_impl.5"** %3, align 8
  call void @llvm.dbg.declare(metadata %"struct.std::_Tuple_impl.5"** %3, metadata !3610, metadata !2768), !dbg !3612
  store %"struct.std::_Tuple_impl.5"* %1, %"struct.std::_Tuple_impl.5"** %4, align 8
  call void @llvm.dbg.declare(metadata %"struct.std::_Tuple_impl.5"** %4, metadata !3613, metadata !2768), !dbg !3614
  %5 = load %"struct.std::_Tuple_impl.5"*, %"struct.std::_Tuple_impl.5"** %3, align 8
  %6 = bitcast %"struct.std::_Tuple_impl.5"* %5 to %"struct.std::_Head_base.6"*, !dbg !3615
  %7 = load %"struct.std::_Tuple_impl.5"*, %"struct.std::_Tuple_impl.5"** %4, align 8, !dbg !3616
  %8 = call dereferenceable(8) %"class.fibonacci::Thread0"** @_ZNSt11_Tuple_implILm1EJPN9fibonacci7Thread0EEE7_M_headERS3_(%"struct.std::_Tuple_impl.5"* dereferenceable(8) %7) #3, !dbg !3617
  %9 = call dereferenceable(8) %"class.fibonacci::Thread0"** @_ZSt7forwardIPN9fibonacci7Thread0EEOT_RNSt16remove_referenceIS3_E4typeE(%"class.fibonacci::Thread0"** dereferenceable(8) %8) #3, !dbg !3618
  invoke void @_ZNSt10_Head_baseILm1EPN9fibonacci7Thread0ELb0EEC2IS2_EEOT_(%"struct.std::_Head_base.6"* %6, %"class.fibonacci::Thread0"** dereferenceable(8) %9)
          to label %10 unwind label %11, !dbg !3620

; <label>:10:                                     ; preds = %2
  ret void, !dbg !3621

; <label>:11:                                     ; preds = %2
  %12 = landingpad { i8*, i32 }
          catch i8* null, !dbg !3623
  %13 = extractvalue { i8*, i32 } %12, 0, !dbg !3623
  call void @__clang_call_terminate(i8* %13) #16, !dbg !3623
  unreachable, !dbg !3623
}

; Function Attrs: nounwind uwtable
define linkonce_odr dereferenceable(16) %"struct.std::_Mem_fn"* @_ZSt7forwardISt7_Mem_fnIMN9fibonacci7Thread0EFvvEEEOT_RNSt16remove_referenceIS6_E4typeE(%"struct.std::_Mem_fn"* dereferenceable(16)) #4 comdat !dbg !3625 {
  %2 = alloca %"struct.std::_Mem_fn"*, align 8
  store %"struct.std::_Mem_fn"* %0, %"struct.std::_Mem_fn"** %2, align 8
  call void @llvm.dbg.declare(metadata %"struct.std::_Mem_fn"** %2, metadata !3634, metadata !2768), !dbg !3635
  %3 = load %"struct.std::_Mem_fn"*, %"struct.std::_Mem_fn"** %2, align 8, !dbg !3636
  ret %"struct.std::_Mem_fn"* %3, !dbg !3637
}

; Function Attrs: nounwind uwtable
define linkonce_odr dereferenceable(16) %"struct.std::_Mem_fn"* @_ZNSt11_Tuple_implILm0EJSt7_Mem_fnIMN9fibonacci7Thread0EFvvEEPS2_EE7_M_headERS7_(%"struct.std::_Tuple_impl.4"* dereferenceable(24)) #4 comdat align 2 !dbg !3638 {
  %2 = alloca %"struct.std::_Tuple_impl.4"*, align 8
  store %"struct.std::_Tuple_impl.4"* %0, %"struct.std::_Tuple_impl.4"** %2, align 8
  call void @llvm.dbg.declare(metadata %"struct.std::_Tuple_impl.4"** %2, metadata !3639, metadata !2768), !dbg !3640
  %3 = load %"struct.std::_Tuple_impl.4"*, %"struct.std::_Tuple_impl.4"** %2, align 8, !dbg !3641
  %4 = bitcast %"struct.std::_Tuple_impl.4"* %3 to i8*, !dbg !3641
  %5 = getelementptr inbounds i8, i8* %4, i64 8, !dbg !3641
  %6 = bitcast i8* %5 to %"struct.std::_Head_base.7"*, !dbg !3641
  %7 = call dereferenceable(16) %"struct.std::_Mem_fn"* @_ZNSt10_Head_baseILm0ESt7_Mem_fnIMN9fibonacci7Thread0EFvvEELb0EE7_M_headERS6_(%"struct.std::_Head_base.7"* dereferenceable(16) %6) #3, !dbg !3642
  ret %"struct.std::_Mem_fn"* %7, !dbg !3643
}

; Function Attrs: nounwind uwtable
define linkonce_odr void @_ZNSt10_Head_baseILm0ESt7_Mem_fnIMN9fibonacci7Thread0EFvvEELb0EEC2IS5_EEOT_(%"struct.std::_Head_base.7"*, %"struct.std::_Mem_fn"* dereferenceable(16)) unnamed_addr #4 comdat align 2 !dbg !3644 {
  %3 = alloca %"struct.std::_Head_base.7"*, align 8
  %4 = alloca %"struct.std::_Mem_fn"*, align 8
  store %"struct.std::_Head_base.7"* %0, %"struct.std::_Head_base.7"** %3, align 8
  call void @llvm.dbg.declare(metadata %"struct.std::_Head_base.7"** %3, metadata !3650, metadata !2768), !dbg !3652
  store %"struct.std::_Mem_fn"* %1, %"struct.std::_Mem_fn"** %4, align 8
  call void @llvm.dbg.declare(metadata %"struct.std::_Mem_fn"** %4, metadata !3653, metadata !2768), !dbg !3654
  %5 = load %"struct.std::_Head_base.7"*, %"struct.std::_Head_base.7"** %3, align 8
  %6 = getelementptr inbounds %"struct.std::_Head_base.7", %"struct.std::_Head_base.7"* %5, i32 0, i32 0, !dbg !3655
  %7 = load %"struct.std::_Mem_fn"*, %"struct.std::_Mem_fn"** %4, align 8, !dbg !3656
  %8 = call dereferenceable(16) %"struct.std::_Mem_fn"* @_ZSt7forwardISt7_Mem_fnIMN9fibonacci7Thread0EFvvEEEOT_RNSt16remove_referenceIS6_E4typeE(%"struct.std::_Mem_fn"* dereferenceable(16) %7) #3, !dbg !3657
  %9 = bitcast %"struct.std::_Mem_fn"* %6 to i8*, !dbg !3655
  %10 = bitcast %"struct.std::_Mem_fn"* %8 to i8*, !dbg !3655
  call void @llvm.memcpy.p0i8.p0i8.i64(i8* %9, i8* %10, i64 16, i32 8, i1 false), !dbg !3658
  ret void, !dbg !3660
}

; Function Attrs: noinline noreturn nounwind
define linkonce_odr hidden void @__clang_call_terminate(i8*) #12 comdat {
  %2 = call i8* @__cxa_begin_catch(i8* %0) #3
  call void @_ZSt9terminatev() #16
  unreachable
}

declare i8* @__cxa_begin_catch(i8*)

; Function Attrs: nounwind uwtable
define linkonce_odr dereferenceable(8) %"class.fibonacci::Thread0"** @_ZNSt11_Tuple_implILm1EJPN9fibonacci7Thread0EEE7_M_headERS3_(%"struct.std::_Tuple_impl.5"* dereferenceable(8)) #4 comdat align 2 !dbg !3661 {
  %2 = alloca %"struct.std::_Tuple_impl.5"*, align 8
  store %"struct.std::_Tuple_impl.5"* %0, %"struct.std::_Tuple_impl.5"** %2, align 8
  call void @llvm.dbg.declare(metadata %"struct.std::_Tuple_impl.5"** %2, metadata !3662, metadata !2768), !dbg !3663
  %3 = load %"struct.std::_Tuple_impl.5"*, %"struct.std::_Tuple_impl.5"** %2, align 8, !dbg !3664
  %4 = bitcast %"struct.std::_Tuple_impl.5"* %3 to %"struct.std::_Head_base.6"*, !dbg !3664
  %5 = call dereferenceable(8) %"class.fibonacci::Thread0"** @_ZNSt10_Head_baseILm1EPN9fibonacci7Thread0ELb0EE7_M_headERS3_(%"struct.std::_Head_base.6"* dereferenceable(8) %4) #3, !dbg !3665
  ret %"class.fibonacci::Thread0"** %5, !dbg !3666
}

; Function Attrs: nounwind uwtable
define linkonce_odr void @_ZNSt10_Head_baseILm1EPN9fibonacci7Thread0ELb0EEC2IS2_EEOT_(%"struct.std::_Head_base.6"*, %"class.fibonacci::Thread0"** dereferenceable(8)) unnamed_addr #4 comdat align 2 !dbg !3667 {
  %3 = alloca %"struct.std::_Head_base.6"*, align 8
  %4 = alloca %"class.fibonacci::Thread0"**, align 8
  store %"struct.std::_Head_base.6"* %0, %"struct.std::_Head_base.6"** %3, align 8
  call void @llvm.dbg.declare(metadata %"struct.std::_Head_base.6"** %3, metadata !3673, metadata !2768), !dbg !3675
  store %"class.fibonacci::Thread0"** %1, %"class.fibonacci::Thread0"*** %4, align 8
  call void @llvm.dbg.declare(metadata %"class.fibonacci::Thread0"*** %4, metadata !3676, metadata !2768), !dbg !3677
  %5 = load %"struct.std::_Head_base.6"*, %"struct.std::_Head_base.6"** %3, align 8
  %6 = getelementptr inbounds %"struct.std::_Head_base.6", %"struct.std::_Head_base.6"* %5, i32 0, i32 0, !dbg !3678
  %7 = load %"class.fibonacci::Thread0"**, %"class.fibonacci::Thread0"*** %4, align 8, !dbg !3679
  %8 = call dereferenceable(8) %"class.fibonacci::Thread0"** @_ZSt7forwardIPN9fibonacci7Thread0EEOT_RNSt16remove_referenceIS3_E4typeE(%"class.fibonacci::Thread0"** dereferenceable(8) %7) #3, !dbg !3680
  %9 = load %"class.fibonacci::Thread0"*, %"class.fibonacci::Thread0"** %8, align 8, !dbg !3680
  store %"class.fibonacci::Thread0"* %9, %"class.fibonacci::Thread0"** %6, align 8, !dbg !3678
  ret void, !dbg !3681
}

; Function Attrs: nounwind uwtable
define linkonce_odr dereferenceable(8) %"class.fibonacci::Thread0"** @_ZNSt10_Head_baseILm1EPN9fibonacci7Thread0ELb0EE7_M_headERS3_(%"struct.std::_Head_base.6"* dereferenceable(8)) #4 comdat align 2 !dbg !3682 {
  %2 = alloca %"struct.std::_Head_base.6"*, align 8
  store %"struct.std::_Head_base.6"* %0, %"struct.std::_Head_base.6"** %2, align 8
  call void @llvm.dbg.declare(metadata %"struct.std::_Head_base.6"** %2, metadata !3683, metadata !2768), !dbg !3684
  %3 = load %"struct.std::_Head_base.6"*, %"struct.std::_Head_base.6"** %2, align 8, !dbg !3685
  %4 = getelementptr inbounds %"struct.std::_Head_base.6", %"struct.std::_Head_base.6"* %3, i32 0, i32 0, !dbg !3686
  ret %"class.fibonacci::Thread0"** %4, !dbg !3687
}

; Function Attrs: nounwind uwtable
define linkonce_odr dereferenceable(16) %"struct.std::_Mem_fn"* @_ZNSt10_Head_baseILm0ESt7_Mem_fnIMN9fibonacci7Thread0EFvvEELb0EE7_M_headERS6_(%"struct.std::_Head_base.7"* dereferenceable(16)) #4 comdat align 2 !dbg !3688 {
  %2 = alloca %"struct.std::_Head_base.7"*, align 8
  store %"struct.std::_Head_base.7"* %0, %"struct.std::_Head_base.7"** %2, align 8
  call void @llvm.dbg.declare(metadata %"struct.std::_Head_base.7"** %2, metadata !3689, metadata !2768), !dbg !3690
  %3 = load %"struct.std::_Head_base.7"*, %"struct.std::_Head_base.7"** %2, align 8, !dbg !3691
  %4 = getelementptr inbounds %"struct.std::_Head_base.7", %"struct.std::_Head_base.7"* %3, i32 0, i32 0, !dbg !3692
  ret %"struct.std::_Mem_fn"* %4, !dbg !3693
}

; Function Attrs: nounwind
declare void @_ZNSt6thread6_StateD2Ev(%"struct.std::thread::_State"*) unnamed_addr #2

; Function Attrs: uwtable
define linkonce_odr void @_ZNSt12_Bind_simpleIFSt7_Mem_fnIMN9fibonacci7Thread0EFvvEEPS2_EEclEv(%"struct.std::_Bind_simple"*) #0 comdat align 2 !dbg !3694 {
  %2 = alloca %"struct.std::_Bind_simple"*, align 8
  %3 = alloca %"struct.std::_Index_tuple", align 1
  store %"struct.std::_Bind_simple"* %0, %"struct.std::_Bind_simple"** %2, align 8
  call void @llvm.dbg.declare(metadata %"struct.std::_Bind_simple"** %2, metadata !3695, metadata !2768), !dbg !3696
  %4 = load %"struct.std::_Bind_simple"*, %"struct.std::_Bind_simple"** %2, align 8
  call void @_ZNSt12_Bind_simpleIFSt7_Mem_fnIMN9fibonacci7Thread0EFvvEEPS2_EE9_M_invokeIJLm0EEEEvSt12_Index_tupleIJXspT_EEE(%"struct.std::_Bind_simple"* %4), !dbg !3697
  ret void, !dbg !3698
}

; Function Attrs: uwtable
define linkonce_odr void @_ZNSt12_Bind_simpleIFSt7_Mem_fnIMN9fibonacci7Thread0EFvvEEPS2_EE9_M_invokeIJLm0EEEEvSt12_Index_tupleIJXspT_EEE(%"struct.std::_Bind_simple"*) #0 comdat align 2 !dbg !3699 {
  %2 = alloca %"struct.std::_Index_tuple", align 1
  %3 = alloca %"struct.std::_Bind_simple"*, align 8
  store %"struct.std::_Bind_simple"* %0, %"struct.std::_Bind_simple"** %3, align 8
  call void @llvm.dbg.declare(metadata %"struct.std::_Bind_simple"** %3, metadata !3711, metadata !2768), !dbg !3712
  call void @llvm.dbg.declare(metadata %"struct.std::_Index_tuple"* %2, metadata !3713, metadata !2768), !dbg !3714
  %4 = load %"struct.std::_Bind_simple"*, %"struct.std::_Bind_simple"** %3, align 8
  %5 = getelementptr inbounds %"struct.std::_Bind_simple", %"struct.std::_Bind_simple"* %4, i32 0, i32 0, !dbg !3715
  %6 = call dereferenceable(16) %"struct.std::_Mem_fn"* @_ZSt3getILm0EJSt7_Mem_fnIMN9fibonacci7Thread0EFvvEEPS2_EERNSt13tuple_elementIXT_ESt5tupleIJDpT0_EEE4typeERSB_(%"class.std::tuple.3"* dereferenceable(24) %5) #3, !dbg !3716
  %7 = call dereferenceable(16) %"struct.std::_Mem_fn"* @_ZSt7forwardISt7_Mem_fnIMN9fibonacci7Thread0EFvvEEEOT_RNSt16remove_referenceIS6_E4typeE(%"struct.std::_Mem_fn"* dereferenceable(16) %6) #3, !dbg !3717
  %8 = bitcast %"struct.std::_Mem_fn"* %7 to %"class.std::_Mem_fn_base"*, !dbg !3719
  %9 = getelementptr inbounds %"struct.std::_Bind_simple", %"struct.std::_Bind_simple"* %4, i32 0, i32 0, !dbg !3720
  %10 = call dereferenceable(8) %"class.fibonacci::Thread0"** @_ZSt3getILm1EJSt7_Mem_fnIMN9fibonacci7Thread0EFvvEEPS2_EERNSt13tuple_elementIXT_ESt5tupleIJDpT0_EEE4typeERSB_(%"class.std::tuple.3"* dereferenceable(24) %9) #3, !dbg !3721
  %11 = call dereferenceable(8) %"class.fibonacci::Thread0"** @_ZSt7forwardIPN9fibonacci7Thread0EEOT_RNSt16remove_referenceIS3_E4typeE(%"class.fibonacci::Thread0"** dereferenceable(8) %10) #3, !dbg !3722
  call void @_ZNKSt12_Mem_fn_baseIMN9fibonacci7Thread0EFvvELb1EEclIJPS1_EEEDTclsr3stdE8__invokedtdefpT6_M_pmfspclsr3stdE7forwardIT_Efp_EEEDpOS7_(%"class.std::_Mem_fn_base"* %8, %"class.fibonacci::Thread0"** dereferenceable(8) %11), !dbg !3723
  ret void, !dbg !3725
}

; Function Attrs: nounwind uwtable
define linkonce_odr dereferenceable(16) %"struct.std::_Mem_fn"* @_ZSt3getILm0EJSt7_Mem_fnIMN9fibonacci7Thread0EFvvEEPS2_EERNSt13tuple_elementIXT_ESt5tupleIJDpT0_EEE4typeERSB_(%"class.std::tuple.3"* dereferenceable(24)) #4 comdat !dbg !3726 {
  %2 = alloca %"class.std::tuple.3"*, align 8
  store %"class.std::tuple.3"* %0, %"class.std::tuple.3"** %2, align 8
  call void @llvm.dbg.declare(metadata %"class.std::tuple.3"** %2, metadata !3738, metadata !2768), !dbg !3739
  %3 = load %"class.std::tuple.3"*, %"class.std::tuple.3"** %2, align 8, !dbg !3740
  %4 = bitcast %"class.std::tuple.3"* %3 to %"struct.std::_Tuple_impl.4"*, !dbg !3740
  %5 = call dereferenceable(16) %"struct.std::_Mem_fn"* @_ZSt12__get_helperILm0ESt7_Mem_fnIMN9fibonacci7Thread0EFvvEEJPS2_EERT0_RSt11_Tuple_implIXT_EJS7_DpT1_EE(%"struct.std::_Tuple_impl.4"* dereferenceable(24) %4) #3, !dbg !3741
  ret %"struct.std::_Mem_fn"* %5, !dbg !3742
}

; Function Attrs: uwtable
define linkonce_odr void @_ZNKSt12_Mem_fn_baseIMN9fibonacci7Thread0EFvvELb1EEclIJPS1_EEEDTclsr3stdE8__invokedtdefpT6_M_pmfspclsr3stdE7forwardIT_Efp_EEEDpOS7_(%"class.std::_Mem_fn_base"*, %"class.fibonacci::Thread0"** dereferenceable(8)) #0 comdat align 2 !dbg !3743 {
  %3 = alloca %"class.std::_Mem_fn_base"*, align 8
  %4 = alloca %"class.fibonacci::Thread0"**, align 8
  store %"class.std::_Mem_fn_base"* %0, %"class.std::_Mem_fn_base"** %3, align 8
  call void @llvm.dbg.declare(metadata %"class.std::_Mem_fn_base"** %3, metadata !3750, metadata !2768), !dbg !3752
  store %"class.fibonacci::Thread0"** %1, %"class.fibonacci::Thread0"*** %4, align 8
  call void @llvm.dbg.declare(metadata %"class.fibonacci::Thread0"*** %4, metadata !3753, metadata !2768), !dbg !3754
  %5 = load %"class.std::_Mem_fn_base"*, %"class.std::_Mem_fn_base"** %3, align 8
  %6 = getelementptr inbounds %"class.std::_Mem_fn_base", %"class.std::_Mem_fn_base"* %5, i32 0, i32 0, !dbg !3755
  %7 = load %"class.fibonacci::Thread0"**, %"class.fibonacci::Thread0"*** %4, align 8, !dbg !3756
  %8 = call dereferenceable(8) %"class.fibonacci::Thread0"** @_ZSt7forwardIPN9fibonacci7Thread0EEOT_RNSt16remove_referenceIS3_E4typeE(%"class.fibonacci::Thread0"** dereferenceable(8) %7) #3, !dbg !3757
  call void @_ZSt8__invokeIRKMN9fibonacci7Thread0EFvvEJPS1_EENSt9result_ofIFOT_DpOT0_EE4typeES9_SC_({ i64, i64 }* dereferenceable(16) %6, %"class.fibonacci::Thread0"** dereferenceable(8) %8), !dbg !3758
  ret void, !dbg !3760
}

; Function Attrs: nounwind uwtable
define linkonce_odr dereferenceable(8) %"class.fibonacci::Thread0"** @_ZSt3getILm1EJSt7_Mem_fnIMN9fibonacci7Thread0EFvvEEPS2_EERNSt13tuple_elementIXT_ESt5tupleIJDpT0_EEE4typeERSB_(%"class.std::tuple.3"* dereferenceable(24)) #4 comdat !dbg !3761 {
  %2 = alloca %"class.std::tuple.3"*, align 8
  store %"class.std::tuple.3"* %0, %"class.std::tuple.3"** %2, align 8
  call void @llvm.dbg.declare(metadata %"class.std::tuple.3"** %2, metadata !3773, metadata !2768), !dbg !3774
  %3 = load %"class.std::tuple.3"*, %"class.std::tuple.3"** %2, align 8, !dbg !3775
  %4 = bitcast %"class.std::tuple.3"* %3 to %"struct.std::_Tuple_impl.5"*, !dbg !3775
  %5 = call dereferenceable(8) %"class.fibonacci::Thread0"** @_ZSt12__get_helperILm1EPN9fibonacci7Thread0EJEERT0_RSt11_Tuple_implIXT_EJS3_DpT1_EE(%"struct.std::_Tuple_impl.5"* dereferenceable(8) %4) #3, !dbg !3776
  ret %"class.fibonacci::Thread0"** %5, !dbg !3777
}

; Function Attrs: nounwind uwtable
define linkonce_odr dereferenceable(16) %"struct.std::_Mem_fn"* @_ZSt12__get_helperILm0ESt7_Mem_fnIMN9fibonacci7Thread0EFvvEEJPS2_EERT0_RSt11_Tuple_implIXT_EJS7_DpT1_EE(%"struct.std::_Tuple_impl.4"* dereferenceable(24)) #4 comdat !dbg !3778 {
  %2 = alloca %"struct.std::_Tuple_impl.4"*, align 8
  store %"struct.std::_Tuple_impl.4"* %0, %"struct.std::_Tuple_impl.4"** %2, align 8
  call void @llvm.dbg.declare(metadata %"struct.std::_Tuple_impl.4"** %2, metadata !3781, metadata !2768), !dbg !3782
  %3 = load %"struct.std::_Tuple_impl.4"*, %"struct.std::_Tuple_impl.4"** %2, align 8, !dbg !3783
  %4 = call dereferenceable(16) %"struct.std::_Mem_fn"* @_ZNSt11_Tuple_implILm0EJSt7_Mem_fnIMN9fibonacci7Thread0EFvvEEPS2_EE7_M_headERS7_(%"struct.std::_Tuple_impl.4"* dereferenceable(24) %3) #3, !dbg !3784
  ret %"struct.std::_Mem_fn"* %4, !dbg !3785
}

; Function Attrs: inlinehint uwtable
define linkonce_odr void @_ZSt8__invokeIRKMN9fibonacci7Thread0EFvvEJPS1_EENSt9result_ofIFOT_DpOT0_EE4typeES9_SC_({ i64, i64 }* dereferenceable(16), %"class.fibonacci::Thread0"** dereferenceable(8)) #13 comdat !dbg !42 {
  %3 = alloca { i64, i64 }*, align 8
  %4 = alloca %"class.fibonacci::Thread0"**, align 8
  %5 = alloca %"struct.std::__invoke_memfun_deref", align 1
  store { i64, i64 }* %0, { i64, i64 }** %3, align 8
  call void @llvm.dbg.declare(metadata { i64, i64 }** %3, metadata !3786, metadata !2768), !dbg !3787
  store %"class.fibonacci::Thread0"** %1, %"class.fibonacci::Thread0"*** %4, align 8
  call void @llvm.dbg.declare(metadata %"class.fibonacci::Thread0"*** %4, metadata !3788, metadata !2768), !dbg !3789
  %6 = load { i64, i64 }*, { i64, i64 }** %3, align 8, !dbg !3790
  %7 = call dereferenceable(16) { i64, i64 }* @_ZSt7forwardIRKMN9fibonacci7Thread0EFvvEEOT_RNSt16remove_referenceIS6_E4typeE({ i64, i64 }* dereferenceable(16) %6) #3, !dbg !3791
  %8 = load %"class.fibonacci::Thread0"**, %"class.fibonacci::Thread0"*** %4, align 8, !dbg !3792
  %9 = call dereferenceable(8) %"class.fibonacci::Thread0"** @_ZSt7forwardIPN9fibonacci7Thread0EEOT_RNSt16remove_referenceIS3_E4typeE(%"class.fibonacci::Thread0"** dereferenceable(8) %8) #3, !dbg !3793
  call void @_ZSt13__invoke_implIvRKMN9fibonacci7Thread0EFvvEPS1_JEET_St21__invoke_memfun_derefOT0_OT1_DpOT2_({ i64, i64 }* dereferenceable(16) %7, %"class.fibonacci::Thread0"** dereferenceable(8) %9), !dbg !3794
  ret void, !dbg !3796
}

; Function Attrs: inlinehint uwtable
define linkonce_odr void @_ZSt13__invoke_implIvRKMN9fibonacci7Thread0EFvvEPS1_JEET_St21__invoke_memfun_derefOT0_OT1_DpOT2_({ i64, i64 }* dereferenceable(16), %"class.fibonacci::Thread0"** dereferenceable(8)) #13 comdat !dbg !3797 {
  %3 = alloca %"struct.std::__invoke_memfun_deref", align 1
  %4 = alloca { i64, i64 }*, align 8
  %5 = alloca %"class.fibonacci::Thread0"**, align 8
  call void @llvm.dbg.declare(metadata %"struct.std::__invoke_memfun_deref"* %3, metadata !3803, metadata !2768), !dbg !3804
  store { i64, i64 }* %0, { i64, i64 }** %4, align 8
  call void @llvm.dbg.declare(metadata { i64, i64 }** %4, metadata !3805, metadata !2768), !dbg !3806
  store %"class.fibonacci::Thread0"** %1, %"class.fibonacci::Thread0"*** %5, align 8
  call void @llvm.dbg.declare(metadata %"class.fibonacci::Thread0"*** %5, metadata !3807, metadata !2768), !dbg !3808
  %6 = load { i64, i64 }*, { i64, i64 }** %4, align 8, !dbg !3809
  %7 = load { i64, i64 }, { i64, i64 }* %6, align 8, !dbg !3809
  %8 = load %"class.fibonacci::Thread0"**, %"class.fibonacci::Thread0"*** %5, align 8, !dbg !3810
  %9 = call dereferenceable(8) %"class.fibonacci::Thread0"** @_ZSt7forwardIPN9fibonacci7Thread0EEOT_RNSt16remove_referenceIS3_E4typeE(%"class.fibonacci::Thread0"** dereferenceable(8) %8) #3, !dbg !3811
  %10 = load %"class.fibonacci::Thread0"*, %"class.fibonacci::Thread0"** %9, align 8, !dbg !3811
  %11 = extractvalue { i64, i64 } %7, 1, !dbg !3812
  %12 = bitcast %"class.fibonacci::Thread0"* %10 to i8*, !dbg !3812
  %13 = getelementptr inbounds i8, i8* %12, i64 %11, !dbg !3812
  %14 = bitcast i8* %13 to %"class.fibonacci::Thread0"*, !dbg !3812
  %15 = extractvalue { i64, i64 } %7, 0, !dbg !3812
  %16 = and i64 %15, 1, !dbg !3812
  %17 = icmp ne i64 %16, 0, !dbg !3812
  br i1 %17, label %18, label %25, !dbg !3812

; <label>:18:                                     ; preds = %2
  %19 = bitcast %"class.fibonacci::Thread0"* %14 to i8**, !dbg !3813
  %20 = load i8*, i8** %19, align 8, !dbg !3813
  %21 = sub i64 %15, 1, !dbg !3813
  %22 = getelementptr i8, i8* %20, i64 %21, !dbg !3813
  %23 = bitcast i8* %22 to void (%"class.fibonacci::Thread0"*)**, !dbg !3813
  %24 = load void (%"class.fibonacci::Thread0"*)*, void (%"class.fibonacci::Thread0"*)** %23, align 8, !dbg !3813
  br label %27, !dbg !3813

; <label>:25:                                     ; preds = %2
  %26 = inttoptr i64 %15 to void (%"class.fibonacci::Thread0"*)*, !dbg !3815
  br label %27, !dbg !3815

; <label>:27:                                     ; preds = %25, %18
  %28 = phi void (%"class.fibonacci::Thread0"*)* [ %24, %18 ], [ %26, %25 ], !dbg !3817
  call void %28(%"class.fibonacci::Thread0"* %14), !dbg !3817
  ret void, !dbg !3819
}

; Function Attrs: nounwind uwtable
define linkonce_odr dereferenceable(16) { i64, i64 }* @_ZSt7forwardIRKMN9fibonacci7Thread0EFvvEEOT_RNSt16remove_referenceIS6_E4typeE({ i64, i64 }* dereferenceable(16)) #4 comdat !dbg !3820 {
  %2 = alloca { i64, i64 }*, align 8
  store { i64, i64 }* %0, { i64, i64 }** %2, align 8
  call void @llvm.dbg.declare(metadata { i64, i64 }** %2, metadata !3828, metadata !2768), !dbg !3829
  %3 = load { i64, i64 }*, { i64, i64 }** %2, align 8, !dbg !3830
  ret { i64, i64 }* %3, !dbg !3831
}

; Function Attrs: nounwind uwtable
define linkonce_odr dereferenceable(8) %"class.fibonacci::Thread0"** @_ZSt12__get_helperILm1EPN9fibonacci7Thread0EJEERT0_RSt11_Tuple_implIXT_EJS3_DpT1_EE(%"struct.std::_Tuple_impl.5"* dereferenceable(8)) #4 comdat !dbg !3832 {
  %2 = alloca %"struct.std::_Tuple_impl.5"*, align 8
  store %"struct.std::_Tuple_impl.5"* %0, %"struct.std::_Tuple_impl.5"** %2, align 8
  call void @llvm.dbg.declare(metadata %"struct.std::_Tuple_impl.5"** %2, metadata !3835, metadata !2768), !dbg !3836
  %3 = load %"struct.std::_Tuple_impl.5"*, %"struct.std::_Tuple_impl.5"** %2, align 8, !dbg !3837
  %4 = call dereferenceable(8) %"class.fibonacci::Thread0"** @_ZNSt11_Tuple_implILm1EJPN9fibonacci7Thread0EEE7_M_headERS3_(%"struct.std::_Tuple_impl.5"* dereferenceable(8) %3) #3, !dbg !3838
  ret %"class.fibonacci::Thread0"** %4, !dbg !3839
}

; Function Attrs: uwtable
define linkonce_odr void @_ZNSt5tupleIJPNSt6thread6_StateESt14default_deleteIS1_EEEC2IRS2_S4_Lb1EEEOT_OT0_(%"class.std::tuple"*, %"struct.std::thread::_State"** dereferenceable(8), %"struct.std::default_delete"* dereferenceable(1)) unnamed_addr #0 comdat align 2 !dbg !3840 {
  %4 = alloca %"class.std::tuple"*, align 8
  %5 = alloca %"struct.std::thread::_State"**, align 8
  %6 = alloca %"struct.std::default_delete"*, align 8
  store %"class.std::tuple"* %0, %"class.std::tuple"** %4, align 8
  call void @llvm.dbg.declare(metadata %"class.std::tuple"** %4, metadata !3848, metadata !2768), !dbg !3850
  store %"struct.std::thread::_State"** %1, %"struct.std::thread::_State"*** %5, align 8
  call void @llvm.dbg.declare(metadata %"struct.std::thread::_State"*** %5, metadata !3851, metadata !2768), !dbg !3852
  store %"struct.std::default_delete"* %2, %"struct.std::default_delete"** %6, align 8
  call void @llvm.dbg.declare(metadata %"struct.std::default_delete"** %6, metadata !3853, metadata !2768), !dbg !3854
  %7 = load %"class.std::tuple"*, %"class.std::tuple"** %4, align 8
  %8 = bitcast %"class.std::tuple"* %7 to %"struct.std::_Tuple_impl"*, !dbg !3855
  %9 = load %"struct.std::thread::_State"**, %"struct.std::thread::_State"*** %5, align 8, !dbg !3856
  %10 = call dereferenceable(8) %"struct.std::thread::_State"** @_ZSt7forwardIRPNSt6thread6_StateEEOT_RNSt16remove_referenceIS4_E4typeE(%"struct.std::thread::_State"** dereferenceable(8) %9) #3, !dbg !3857
  %11 = load %"struct.std::default_delete"*, %"struct.std::default_delete"** %6, align 8, !dbg !3858
  %12 = call dereferenceable(1) %"struct.std::default_delete"* @_ZSt7forwardISt14default_deleteINSt6thread6_StateEEEOT_RNSt16remove_referenceIS4_E4typeE(%"struct.std::default_delete"* dereferenceable(1) %11) #3, !dbg !3859
  call void @_ZNSt11_Tuple_implILm0EJPNSt6thread6_StateESt14default_deleteIS1_EEEC2IRS2_JS4_EvEEOT_DpOT0_(%"struct.std::_Tuple_impl"* %8, %"struct.std::thread::_State"** dereferenceable(8) %10, %"struct.std::default_delete"* dereferenceable(1) %12), !dbg !3861
  ret void, !dbg !3863
}

; Function Attrs: nounwind uwtable
define linkonce_odr dereferenceable(8) %"struct.std::thread::_State"** @_ZSt7forwardIRPNSt6thread6_StateEEOT_RNSt16remove_referenceIS4_E4typeE(%"struct.std::thread::_State"** dereferenceable(8)) #4 comdat !dbg !3864 {
  %2 = alloca %"struct.std::thread::_State"**, align 8
  store %"struct.std::thread::_State"** %0, %"struct.std::thread::_State"*** %2, align 8
  call void @llvm.dbg.declare(metadata %"struct.std::thread::_State"*** %2, metadata !3872, metadata !2768), !dbg !3873
  %3 = load %"struct.std::thread::_State"**, %"struct.std::thread::_State"*** %2, align 8, !dbg !3874
  ret %"struct.std::thread::_State"** %3, !dbg !3875
}

; Function Attrs: nounwind uwtable
define linkonce_odr dereferenceable(1) %"struct.std::default_delete"* @_ZSt7forwardISt14default_deleteINSt6thread6_StateEEEOT_RNSt16remove_referenceIS4_E4typeE(%"struct.std::default_delete"* dereferenceable(1)) #4 comdat !dbg !3876 {
  %2 = alloca %"struct.std::default_delete"*, align 8
  store %"struct.std::default_delete"* %0, %"struct.std::default_delete"** %2, align 8
  call void @llvm.dbg.declare(metadata %"struct.std::default_delete"** %2, metadata !3880, metadata !2768), !dbg !3881
  %3 = load %"struct.std::default_delete"*, %"struct.std::default_delete"** %2, align 8, !dbg !3882
  ret %"struct.std::default_delete"* %3, !dbg !3883
}

; Function Attrs: uwtable
define linkonce_odr void @_ZNSt11_Tuple_implILm0EJPNSt6thread6_StateESt14default_deleteIS1_EEEC2IRS2_JS4_EvEEOT_DpOT0_(%"struct.std::_Tuple_impl"*, %"struct.std::thread::_State"** dereferenceable(8), %"struct.std::default_delete"* dereferenceable(1)) unnamed_addr #0 comdat align 2 !dbg !3884 {
  %4 = alloca %"struct.std::_Tuple_impl"*, align 8
  %5 = alloca %"struct.std::thread::_State"**, align 8
  %6 = alloca %"struct.std::default_delete"*, align 8
  store %"struct.std::_Tuple_impl"* %0, %"struct.std::_Tuple_impl"** %4, align 8
  call void @llvm.dbg.declare(metadata %"struct.std::_Tuple_impl"** %4, metadata !3892, metadata !2768), !dbg !3894
  store %"struct.std::thread::_State"** %1, %"struct.std::thread::_State"*** %5, align 8
  call void @llvm.dbg.declare(metadata %"struct.std::thread::_State"*** %5, metadata !3895, metadata !2768), !dbg !3896
  store %"struct.std::default_delete"* %2, %"struct.std::default_delete"** %6, align 8
  call void @llvm.dbg.declare(metadata %"struct.std::default_delete"** %6, metadata !3897, metadata !2768), !dbg !3898
  %7 = load %"struct.std::_Tuple_impl"*, %"struct.std::_Tuple_impl"** %4, align 8
  %8 = bitcast %"struct.std::_Tuple_impl"* %7 to %"struct.std::_Tuple_impl.1"*, !dbg !3899
  %9 = load %"struct.std::default_delete"*, %"struct.std::default_delete"** %6, align 8, !dbg !3900
  %10 = call dereferenceable(1) %"struct.std::default_delete"* @_ZSt7forwardISt14default_deleteINSt6thread6_StateEEEOT_RNSt16remove_referenceIS4_E4typeE(%"struct.std::default_delete"* dereferenceable(1) %9) #3, !dbg !3901
  call void @_ZNSt11_Tuple_implILm1EJSt14default_deleteINSt6thread6_StateEEEEC2IS3_EEOT_(%"struct.std::_Tuple_impl.1"* %8, %"struct.std::default_delete"* dereferenceable(1) %10), !dbg !3902
  %11 = bitcast %"struct.std::_Tuple_impl"* %7 to %"struct.std::_Head_base.2"*, !dbg !3899
  %12 = load %"struct.std::thread::_State"**, %"struct.std::thread::_State"*** %5, align 8, !dbg !3904
  %13 = call dereferenceable(8) %"struct.std::thread::_State"** @_ZSt7forwardIRPNSt6thread6_StateEEOT_RNSt16remove_referenceIS4_E4typeE(%"struct.std::thread::_State"** dereferenceable(8) %12) #3, !dbg !3905
  call void @_ZNSt10_Head_baseILm0EPNSt6thread6_StateELb0EEC2IRS2_EEOT_(%"struct.std::_Head_base.2"* %11, %"struct.std::thread::_State"** dereferenceable(8) %13), !dbg !3906
  ret void, !dbg !3907
}

; Function Attrs: uwtable
define linkonce_odr void @_ZNSt11_Tuple_implILm1EJSt14default_deleteINSt6thread6_StateEEEEC2IS3_EEOT_(%"struct.std::_Tuple_impl.1"*, %"struct.std::default_delete"* dereferenceable(1)) unnamed_addr #0 comdat align 2 !dbg !3908 {
  %3 = alloca %"struct.std::_Tuple_impl.1"*, align 8
  %4 = alloca %"struct.std::default_delete"*, align 8
  store %"struct.std::_Tuple_impl.1"* %0, %"struct.std::_Tuple_impl.1"** %3, align 8
  call void @llvm.dbg.declare(metadata %"struct.std::_Tuple_impl.1"** %3, metadata !3914, metadata !2768), !dbg !3916
  store %"struct.std::default_delete"* %1, %"struct.std::default_delete"** %4, align 8
  call void @llvm.dbg.declare(metadata %"struct.std::default_delete"** %4, metadata !3917, metadata !2768), !dbg !3918
  %5 = load %"struct.std::_Tuple_impl.1"*, %"struct.std::_Tuple_impl.1"** %3, align 8
  %6 = bitcast %"struct.std::_Tuple_impl.1"* %5 to %"struct.std::_Head_base"*, !dbg !3919
  %7 = load %"struct.std::default_delete"*, %"struct.std::default_delete"** %4, align 8, !dbg !3920
  %8 = call dereferenceable(1) %"struct.std::default_delete"* @_ZSt7forwardISt14default_deleteINSt6thread6_StateEEEOT_RNSt16remove_referenceIS4_E4typeE(%"struct.std::default_delete"* dereferenceable(1) %7) #3, !dbg !3921
  call void @_ZNSt10_Head_baseILm1ESt14default_deleteINSt6thread6_StateEELb1EEC2IS3_EEOT_(%"struct.std::_Head_base"* %6, %"struct.std::default_delete"* dereferenceable(1) %8), !dbg !3922
  ret void, !dbg !3924
}

; Function Attrs: nounwind uwtable
define linkonce_odr void @_ZNSt10_Head_baseILm0EPNSt6thread6_StateELb0EEC2IRS2_EEOT_(%"struct.std::_Head_base.2"*, %"struct.std::thread::_State"** dereferenceable(8)) unnamed_addr #4 comdat align 2 !dbg !3925 {
  %3 = alloca %"struct.std::_Head_base.2"*, align 8
  %4 = alloca %"struct.std::thread::_State"**, align 8
  store %"struct.std::_Head_base.2"* %0, %"struct.std::_Head_base.2"** %3, align 8
  call void @llvm.dbg.declare(metadata %"struct.std::_Head_base.2"** %3, metadata !3930, metadata !2768), !dbg !3932
  store %"struct.std::thread::_State"** %1, %"struct.std::thread::_State"*** %4, align 8
  call void @llvm.dbg.declare(metadata %"struct.std::thread::_State"*** %4, metadata !3933, metadata !2768), !dbg !3934
  %5 = load %"struct.std::_Head_base.2"*, %"struct.std::_Head_base.2"** %3, align 8
  %6 = getelementptr inbounds %"struct.std::_Head_base.2", %"struct.std::_Head_base.2"* %5, i32 0, i32 0, !dbg !3935
  %7 = load %"struct.std::thread::_State"**, %"struct.std::thread::_State"*** %4, align 8, !dbg !3936
  %8 = call dereferenceable(8) %"struct.std::thread::_State"** @_ZSt7forwardIRPNSt6thread6_StateEEOT_RNSt16remove_referenceIS4_E4typeE(%"struct.std::thread::_State"** dereferenceable(8) %7) #3, !dbg !3937
  %9 = load %"struct.std::thread::_State"*, %"struct.std::thread::_State"** %8, align 8, !dbg !3937
  store %"struct.std::thread::_State"* %9, %"struct.std::thread::_State"** %6, align 8, !dbg !3935
  ret void, !dbg !3938
}

; Function Attrs: nounwind uwtable
define linkonce_odr void @_ZNSt10_Head_baseILm1ESt14default_deleteINSt6thread6_StateEELb1EEC2IS3_EEOT_(%"struct.std::_Head_base"*, %"struct.std::default_delete"* dereferenceable(1)) unnamed_addr #4 comdat align 2 !dbg !3939 {
  %3 = alloca %"struct.std::_Head_base"*, align 8
  %4 = alloca %"struct.std::default_delete"*, align 8
  store %"struct.std::_Head_base"* %0, %"struct.std::_Head_base"** %3, align 8
  call void @llvm.dbg.declare(metadata %"struct.std::_Head_base"** %3, metadata !3943, metadata !2768), !dbg !3945
  store %"struct.std::default_delete"* %1, %"struct.std::default_delete"** %4, align 8
  call void @llvm.dbg.declare(metadata %"struct.std::default_delete"** %4, metadata !3946, metadata !2768), !dbg !3947
  %5 = load %"struct.std::_Head_base"*, %"struct.std::_Head_base"** %3, align 8
  %6 = bitcast %"struct.std::_Head_base"* %5 to %"struct.std::default_delete"*, !dbg !3948
  %7 = load %"struct.std::default_delete"*, %"struct.std::default_delete"** %4, align 8, !dbg !3949
  %8 = call dereferenceable(1) %"struct.std::default_delete"* @_ZSt7forwardISt14default_deleteINSt6thread6_StateEEEOT_RNSt16remove_referenceIS4_E4typeE(%"struct.std::default_delete"* dereferenceable(1) %7) #3, !dbg !3950
  ret void, !dbg !3951
}

; Function Attrs: nounwind uwtable
define linkonce_odr { i64, i64 } @_ZNSt26_Maybe_wrap_member_pointerIMN9fibonacci7Thread0EFvvEE9__do_wrapES3_(i64, i64) #4 comdat align 2 !dbg !3952 {
  %3 = alloca %"struct.std::_Mem_fn", align 8
  %4 = alloca { i64, i64 }, align 8
  %5 = alloca { i64, i64 }, align 8
  %6 = alloca { i64, i64 }, align 8
  %7 = getelementptr inbounds { i64, i64 }, { i64, i64 }* %4, i32 0, i32 0
  store i64 %0, i64* %7, align 8
  %8 = getelementptr inbounds { i64, i64 }, { i64, i64 }* %4, i32 0, i32 1
  store i64 %1, i64* %8, align 8
  %9 = load { i64, i64 }, { i64, i64 }* %4, align 8
  store { i64, i64 } %9, { i64, i64 }* %5, align 8
  call void @llvm.dbg.declare(metadata { i64, i64 }* %5, metadata !3953, metadata !2768), !dbg !3954
  %10 = load { i64, i64 }, { i64, i64 }* %5, align 8, !dbg !3955
  store { i64, i64 } %10, { i64, i64 }* %6, align 8, !dbg !3956
  %11 = getelementptr inbounds { i64, i64 }, { i64, i64 }* %6, i32 0, i32 0, !dbg !3956
  %12 = load i64, i64* %11, align 8, !dbg !3956
  %13 = getelementptr inbounds { i64, i64 }, { i64, i64 }* %6, i32 0, i32 1, !dbg !3956
  %14 = load i64, i64* %13, align 8, !dbg !3956
  call void @_ZNSt7_Mem_fnIMN9fibonacci7Thread0EFvvEECI2St12_Mem_fn_baseIS3_Lb1EEES3_(%"struct.std::_Mem_fn"* %3, i64 %12, i64 %14) #3, !dbg !3956
  %15 = getelementptr inbounds %"struct.std::_Mem_fn", %"struct.std::_Mem_fn"* %3, i32 0, i32 0, !dbg !3957
  %16 = getelementptr inbounds %"class.std::_Mem_fn_base", %"class.std::_Mem_fn_base"* %15, i32 0, i32 0, !dbg !3957
  %17 = load { i64, i64 }, { i64, i64 }* %16, align 8, !dbg !3957
  ret { i64, i64 } %17, !dbg !3957
}

; Function Attrs: uwtable
define linkonce_odr void @_ZNSt12_Bind_simpleIFSt7_Mem_fnIMN9fibonacci7Thread0EFvvEEPS2_EEC2IS5_JS6_EEEOT_DpOT0_(%"struct.std::_Bind_simple"*, %"struct.std::_Mem_fn"* dereferenceable(16), %"class.fibonacci::Thread0"** dereferenceable(8)) unnamed_addr #0 comdat align 2 !dbg !3958 {
  %4 = alloca %"struct.std::_Bind_simple"*, align 8
  %5 = alloca %"struct.std::_Mem_fn"*, align 8
  %6 = alloca %"class.fibonacci::Thread0"**, align 8
  store %"struct.std::_Bind_simple"* %0, %"struct.std::_Bind_simple"** %4, align 8
  call void @llvm.dbg.declare(metadata %"struct.std::_Bind_simple"** %4, metadata !3964, metadata !2768), !dbg !3965
  store %"struct.std::_Mem_fn"* %1, %"struct.std::_Mem_fn"** %5, align 8
  call void @llvm.dbg.declare(metadata %"struct.std::_Mem_fn"** %5, metadata !3966, metadata !2768), !dbg !3967
  store %"class.fibonacci::Thread0"** %2, %"class.fibonacci::Thread0"*** %6, align 8
  call void @llvm.dbg.declare(metadata %"class.fibonacci::Thread0"*** %6, metadata !3968, metadata !2768), !dbg !3969
  %7 = load %"struct.std::_Bind_simple"*, %"struct.std::_Bind_simple"** %4, align 8
  %8 = getelementptr inbounds %"struct.std::_Bind_simple", %"struct.std::_Bind_simple"* %7, i32 0, i32 0, !dbg !3970
  %9 = load %"struct.std::_Mem_fn"*, %"struct.std::_Mem_fn"** %5, align 8, !dbg !3971
  %10 = call dereferenceable(16) %"struct.std::_Mem_fn"* @_ZSt7forwardISt7_Mem_fnIMN9fibonacci7Thread0EFvvEEEOT_RNSt16remove_referenceIS6_E4typeE(%"struct.std::_Mem_fn"* dereferenceable(16) %9) #3, !dbg !3972
  %11 = load %"class.fibonacci::Thread0"**, %"class.fibonacci::Thread0"*** %6, align 8, !dbg !3973
  %12 = call dereferenceable(8) %"class.fibonacci::Thread0"** @_ZSt7forwardIPN9fibonacci7Thread0EEOT_RNSt16remove_referenceIS3_E4typeE(%"class.fibonacci::Thread0"** dereferenceable(8) %11) #3, !dbg !3974
  call void @_ZNSt5tupleIJSt7_Mem_fnIMN9fibonacci7Thread0EFvvEEPS2_EEC2IS5_S6_Lb1EEEOT_OT0_(%"class.std::tuple.3"* %8, %"struct.std::_Mem_fn"* dereferenceable(16) %10, %"class.fibonacci::Thread0"** dereferenceable(8) %12), !dbg !3976
  ret void, !dbg !3978
}

; Function Attrs: inlinehint nounwind uwtable
define linkonce_odr void @_ZNSt7_Mem_fnIMN9fibonacci7Thread0EFvvEECI2St12_Mem_fn_baseIS3_Lb1EEES3_(%"struct.std::_Mem_fn"*, i64, i64) unnamed_addr #7 comdat align 2 !dbg !3979 {
  %4 = alloca { i64, i64 }, align 8
  %5 = alloca %"struct.std::_Mem_fn"*, align 8
  %6 = alloca { i64, i64 }, align 8
  %7 = alloca { i64, i64 }, align 8
  %8 = getelementptr inbounds { i64, i64 }, { i64, i64 }* %4, i32 0, i32 0
  store i64 %1, i64* %8, align 8
  %9 = getelementptr inbounds { i64, i64 }, { i64, i64 }* %4, i32 0, i32 1
  store i64 %2, i64* %9, align 8
  %10 = load { i64, i64 }, { i64, i64 }* %4, align 8
  store %"struct.std::_Mem_fn"* %0, %"struct.std::_Mem_fn"** %5, align 8
  call void @llvm.dbg.declare(metadata %"struct.std::_Mem_fn"** %5, metadata !3984, metadata !2768), !dbg !3986
  store { i64, i64 } %10, { i64, i64 }* %6, align 8
  call void @llvm.dbg.declare(metadata { i64, i64 }* %6, metadata !3987, metadata !2768), !dbg !3986
  %11 = load %"struct.std::_Mem_fn"*, %"struct.std::_Mem_fn"** %5, align 8
  %12 = bitcast %"struct.std::_Mem_fn"* %11 to %"class.std::_Mem_fn_base"*, !dbg !3988
  %13 = load { i64, i64 }, { i64, i64 }* %6, align 8, !dbg !3988
  store { i64, i64 } %13, { i64, i64 }* %7, align 8, !dbg !3988
  %14 = getelementptr inbounds { i64, i64 }, { i64, i64 }* %7, i32 0, i32 0, !dbg !3988
  %15 = load i64, i64* %14, align 8, !dbg !3988
  %16 = getelementptr inbounds { i64, i64 }, { i64, i64 }* %7, i32 0, i32 1, !dbg !3988
  %17 = load i64, i64* %16, align 8, !dbg !3988
  call void @_ZNSt12_Mem_fn_baseIMN9fibonacci7Thread0EFvvELb1EEC2ES3_(%"class.std::_Mem_fn_base"* %12, i64 %15, i64 %17) #3, !dbg !3988
  ret void, !dbg !3988
}

; Function Attrs: nounwind uwtable
define linkonce_odr void @_ZNSt12_Mem_fn_baseIMN9fibonacci7Thread0EFvvELb1EEC2ES3_(%"class.std::_Mem_fn_base"*, i64, i64) unnamed_addr #4 comdat align 2 !dbg !3989 {
  %4 = alloca { i64, i64 }, align 8
  %5 = alloca %"class.std::_Mem_fn_base"*, align 8
  %6 = alloca { i64, i64 }, align 8
  %7 = getelementptr inbounds { i64, i64 }, { i64, i64 }* %4, i32 0, i32 0
  store i64 %1, i64* %7, align 8
  %8 = getelementptr inbounds { i64, i64 }, { i64, i64 }* %4, i32 0, i32 1
  store i64 %2, i64* %8, align 8
  %9 = load { i64, i64 }, { i64, i64 }* %4, align 8
  store %"class.std::_Mem_fn_base"* %0, %"class.std::_Mem_fn_base"** %5, align 8
  call void @llvm.dbg.declare(metadata %"class.std::_Mem_fn_base"** %5, metadata !3990, metadata !2768), !dbg !3992
  store { i64, i64 } %9, { i64, i64 }* %6, align 8
  call void @llvm.dbg.declare(metadata { i64, i64 }* %6, metadata !3993, metadata !2768), !dbg !3994
  %10 = load %"class.std::_Mem_fn_base"*, %"class.std::_Mem_fn_base"** %5, align 8
  %11 = bitcast %"class.std::_Mem_fn_base"* %10 to %"struct.std::_Maybe_unary_or_binary_function"*, !dbg !3995
  %12 = getelementptr inbounds %"class.std::_Mem_fn_base", %"class.std::_Mem_fn_base"* %10, i32 0, i32 0, !dbg !3996
  %13 = load { i64, i64 }, { i64, i64 }* %6, align 8, !dbg !3997
  store { i64, i64 } %13, { i64, i64 }* %12, align 8, !dbg !3996
  ret void, !dbg !3998
}

; Function Attrs: uwtable
define linkonce_odr void @_ZNSt5tupleIJSt7_Mem_fnIMN9fibonacci7Thread0EFvvEEPS2_EEC2IS5_S6_Lb1EEEOT_OT0_(%"class.std::tuple.3"*, %"struct.std::_Mem_fn"* dereferenceable(16), %"class.fibonacci::Thread0"** dereferenceable(8)) unnamed_addr #0 comdat align 2 !dbg !3999 {
  %4 = alloca %"class.std::tuple.3"*, align 8
  %5 = alloca %"struct.std::_Mem_fn"*, align 8
  %6 = alloca %"class.fibonacci::Thread0"**, align 8
  store %"class.std::tuple.3"* %0, %"class.std::tuple.3"** %4, align 8
  call void @llvm.dbg.declare(metadata %"class.std::tuple.3"** %4, metadata !4006, metadata !2768), !dbg !4007
  store %"struct.std::_Mem_fn"* %1, %"struct.std::_Mem_fn"** %5, align 8
  call void @llvm.dbg.declare(metadata %"struct.std::_Mem_fn"** %5, metadata !4008, metadata !2768), !dbg !4009
  store %"class.fibonacci::Thread0"** %2, %"class.fibonacci::Thread0"*** %6, align 8
  call void @llvm.dbg.declare(metadata %"class.fibonacci::Thread0"*** %6, metadata !4010, metadata !2768), !dbg !4011
  %7 = load %"class.std::tuple.3"*, %"class.std::tuple.3"** %4, align 8
  %8 = bitcast %"class.std::tuple.3"* %7 to %"struct.std::_Tuple_impl.4"*, !dbg !4012
  %9 = load %"struct.std::_Mem_fn"*, %"struct.std::_Mem_fn"** %5, align 8, !dbg !4013
  %10 = call dereferenceable(16) %"struct.std::_Mem_fn"* @_ZSt7forwardISt7_Mem_fnIMN9fibonacci7Thread0EFvvEEEOT_RNSt16remove_referenceIS6_E4typeE(%"struct.std::_Mem_fn"* dereferenceable(16) %9) #3, !dbg !4014
  %11 = load %"class.fibonacci::Thread0"**, %"class.fibonacci::Thread0"*** %6, align 8, !dbg !4015
  %12 = call dereferenceable(8) %"class.fibonacci::Thread0"** @_ZSt7forwardIPN9fibonacci7Thread0EEOT_RNSt16remove_referenceIS3_E4typeE(%"class.fibonacci::Thread0"** dereferenceable(8) %11) #3, !dbg !4016
  call void @_ZNSt11_Tuple_implILm0EJSt7_Mem_fnIMN9fibonacci7Thread0EFvvEEPS2_EEC2IS5_JS6_EvEEOT_DpOT0_(%"struct.std::_Tuple_impl.4"* %8, %"struct.std::_Mem_fn"* dereferenceable(16) %10, %"class.fibonacci::Thread0"** dereferenceable(8) %12), !dbg !4018
  ret void, !dbg !4020
}

; Function Attrs: uwtable
define linkonce_odr void @_ZNSt11_Tuple_implILm0EJSt7_Mem_fnIMN9fibonacci7Thread0EFvvEEPS2_EEC2IS5_JS6_EvEEOT_DpOT0_(%"struct.std::_Tuple_impl.4"*, %"struct.std::_Mem_fn"* dereferenceable(16), %"class.fibonacci::Thread0"** dereferenceable(8)) unnamed_addr #0 comdat align 2 !dbg !4021 {
  %4 = alloca %"struct.std::_Tuple_impl.4"*, align 8
  %5 = alloca %"struct.std::_Mem_fn"*, align 8
  %6 = alloca %"class.fibonacci::Thread0"**, align 8
  store %"struct.std::_Tuple_impl.4"* %0, %"struct.std::_Tuple_impl.4"** %4, align 8
  call void @llvm.dbg.declare(metadata %"struct.std::_Tuple_impl.4"** %4, metadata !4027, metadata !2768), !dbg !4028
  store %"struct.std::_Mem_fn"* %1, %"struct.std::_Mem_fn"** %5, align 8
  call void @llvm.dbg.declare(metadata %"struct.std::_Mem_fn"** %5, metadata !4029, metadata !2768), !dbg !4030
  store %"class.fibonacci::Thread0"** %2, %"class.fibonacci::Thread0"*** %6, align 8
  call void @llvm.dbg.declare(metadata %"class.fibonacci::Thread0"*** %6, metadata !4031, metadata !2768), !dbg !4032
  %7 = load %"struct.std::_Tuple_impl.4"*, %"struct.std::_Tuple_impl.4"** %4, align 8
  %8 = bitcast %"struct.std::_Tuple_impl.4"* %7 to %"struct.std::_Tuple_impl.5"*, !dbg !4033
  %9 = load %"class.fibonacci::Thread0"**, %"class.fibonacci::Thread0"*** %6, align 8, !dbg !4034
  %10 = call dereferenceable(8) %"class.fibonacci::Thread0"** @_ZSt7forwardIPN9fibonacci7Thread0EEOT_RNSt16remove_referenceIS3_E4typeE(%"class.fibonacci::Thread0"** dereferenceable(8) %9) #3, !dbg !4035
  call void @_ZNSt11_Tuple_implILm1EJPN9fibonacci7Thread0EEEC2IS2_EEOT_(%"struct.std::_Tuple_impl.5"* %8, %"class.fibonacci::Thread0"** dereferenceable(8) %10), !dbg !4036
  %11 = bitcast %"struct.std::_Tuple_impl.4"* %7 to i8*, !dbg !4033
  %12 = getelementptr inbounds i8, i8* %11, i64 8, !dbg !4033
  %13 = bitcast i8* %12 to %"struct.std::_Head_base.7"*, !dbg !4033
  %14 = load %"struct.std::_Mem_fn"*, %"struct.std::_Mem_fn"** %5, align 8, !dbg !4038
  %15 = call dereferenceable(16) %"struct.std::_Mem_fn"* @_ZSt7forwardISt7_Mem_fnIMN9fibonacci7Thread0EFvvEEEOT_RNSt16remove_referenceIS6_E4typeE(%"struct.std::_Mem_fn"* dereferenceable(16) %14) #3, !dbg !4039
  call void @_ZNSt10_Head_baseILm0ESt7_Mem_fnIMN9fibonacci7Thread0EFvvEELb0EEC2IS5_EEOT_(%"struct.std::_Head_base.7"* %13, %"struct.std::_Mem_fn"* dereferenceable(16) %15), !dbg !4040
  ret void, !dbg !4041
}

; Function Attrs: nounwind uwtable
define linkonce_odr void @_ZNSt11_Tuple_implILm1EJPN9fibonacci7Thread0EEEC2IS2_EEOT_(%"struct.std::_Tuple_impl.5"*, %"class.fibonacci::Thread0"** dereferenceable(8)) unnamed_addr #4 comdat align 2 !dbg !4042 {
  %3 = alloca %"struct.std::_Tuple_impl.5"*, align 8
  %4 = alloca %"class.fibonacci::Thread0"**, align 8
  store %"struct.std::_Tuple_impl.5"* %0, %"struct.std::_Tuple_impl.5"** %3, align 8
  call void @llvm.dbg.declare(metadata %"struct.std::_Tuple_impl.5"** %3, metadata !4046, metadata !2768), !dbg !4047
  store %"class.fibonacci::Thread0"** %1, %"class.fibonacci::Thread0"*** %4, align 8
  call void @llvm.dbg.declare(metadata %"class.fibonacci::Thread0"*** %4, metadata !4048, metadata !2768), !dbg !4049
  %5 = load %"struct.std::_Tuple_impl.5"*, %"struct.std::_Tuple_impl.5"** %3, align 8
  %6 = bitcast %"struct.std::_Tuple_impl.5"* %5 to %"struct.std::_Head_base.6"*, !dbg !4050
  %7 = load %"class.fibonacci::Thread0"**, %"class.fibonacci::Thread0"*** %4, align 8, !dbg !4051
  %8 = call dereferenceable(8) %"class.fibonacci::Thread0"** @_ZSt7forwardIPN9fibonacci7Thread0EEOT_RNSt16remove_referenceIS3_E4typeE(%"class.fibonacci::Thread0"** dereferenceable(8) %7) #3, !dbg !4052
  call void @_ZNSt10_Head_baseILm1EPN9fibonacci7Thread0ELb0EEC2IS2_EEOT_(%"struct.std::_Head_base.6"* %6, %"class.fibonacci::Thread0"** dereferenceable(8) %8), !dbg !4053
  ret void, !dbg !4055
}

; Function Attrs: nounwind uwtable
define linkonce_odr dereferenceable(8) %"struct.std::thread::_State"** @_ZSt3getILm0EJPNSt6thread6_StateESt14default_deleteIS1_EEERNSt13tuple_elementIXT_ESt5tupleIJDpT0_EEE4typeERS9_(%"class.std::tuple"* dereferenceable(8)) #4 comdat !dbg !4056 {
  %2 = alloca %"class.std::tuple"*, align 8
  store %"class.std::tuple"* %0, %"class.std::tuple"** %2, align 8
  call void @llvm.dbg.declare(metadata %"class.std::tuple"** %2, metadata !4066, metadata !2768), !dbg !4067
  %3 = load %"class.std::tuple"*, %"class.std::tuple"** %2, align 8, !dbg !4068
  %4 = bitcast %"class.std::tuple"* %3 to %"struct.std::_Tuple_impl"*, !dbg !4068
  %5 = call dereferenceable(8) %"struct.std::thread::_State"** @_ZSt12__get_helperILm0EPNSt6thread6_StateEJSt14default_deleteIS1_EEERT0_RSt11_Tuple_implIXT_EJS5_DpT1_EE(%"struct.std::_Tuple_impl"* dereferenceable(8) %4) #3, !dbg !4069
  ret %"struct.std::thread::_State"** %5, !dbg !4070
}

; Function Attrs: nounwind uwtable
define linkonce_odr dereferenceable(1) %"struct.std::default_delete"* @_ZNSt10unique_ptrINSt6thread6_StateESt14default_deleteIS1_EE11get_deleterEv(%"class.std::unique_ptr"*) #4 comdat align 2 !dbg !4071 {
  %2 = alloca %"class.std::unique_ptr"*, align 8
  store %"class.std::unique_ptr"* %0, %"class.std::unique_ptr"** %2, align 8
  call void @llvm.dbg.declare(metadata %"class.std::unique_ptr"** %2, metadata !4072, metadata !2768), !dbg !4073
  %3 = load %"class.std::unique_ptr"*, %"class.std::unique_ptr"** %2, align 8
  %4 = getelementptr inbounds %"class.std::unique_ptr", %"class.std::unique_ptr"* %3, i32 0, i32 0, !dbg !4074
  %5 = call dereferenceable(1) %"struct.std::default_delete"* @_ZSt3getILm1EJPNSt6thread6_StateESt14default_deleteIS1_EEERNSt13tuple_elementIXT_ESt5tupleIJDpT0_EEE4typeERS9_(%"class.std::tuple"* dereferenceable(8) %4) #3, !dbg !4075
  ret %"struct.std::default_delete"* %5, !dbg !4076
}

; Function Attrs: nounwind uwtable
define linkonce_odr void @_ZNKSt14default_deleteINSt6thread6_StateEEclEPS1_(%"struct.std::default_delete"*, %"struct.std::thread::_State"*) #4 comdat align 2 !dbg !4077 {
  %3 = alloca %"struct.std::default_delete"*, align 8
  %4 = alloca %"struct.std::thread::_State"*, align 8
  store %"struct.std::default_delete"* %0, %"struct.std::default_delete"** %3, align 8
  call void @llvm.dbg.declare(metadata %"struct.std::default_delete"** %3, metadata !4078, metadata !2768), !dbg !4080
  store %"struct.std::thread::_State"* %1, %"struct.std::thread::_State"** %4, align 8
  call void @llvm.dbg.declare(metadata %"struct.std::thread::_State"** %4, metadata !4081, metadata !2768), !dbg !4082
  %5 = load %"struct.std::default_delete"*, %"struct.std::default_delete"** %3, align 8
  %6 = load %"struct.std::thread::_State"*, %"struct.std::thread::_State"** %4, align 8, !dbg !4083
  %7 = icmp eq %"struct.std::thread::_State"* %6, null, !dbg !4084
  br i1 %7, label %13, label %8, !dbg !4084

; <label>:8:                                      ; preds = %2
  %9 = bitcast %"struct.std::thread::_State"* %6 to void (%"struct.std::thread::_State"*)***, !dbg !4085
  %10 = load void (%"struct.std::thread::_State"*)**, void (%"struct.std::thread::_State"*)*** %9, align 8, !dbg !4085
  %11 = getelementptr inbounds void (%"struct.std::thread::_State"*)*, void (%"struct.std::thread::_State"*)** %10, i64 1, !dbg !4085
  %12 = load void (%"struct.std::thread::_State"*)*, void (%"struct.std::thread::_State"*)** %11, align 8, !dbg !4085
  call void %12(%"struct.std::thread::_State"* %6) #3, !dbg !4085
  br label %13, !dbg !4085

; <label>:13:                                     ; preds = %8, %2
  ret void, !dbg !4087
}

; Function Attrs: nounwind uwtable
define linkonce_odr dereferenceable(8) %"struct.std::thread::_State"** @_ZSt12__get_helperILm0EPNSt6thread6_StateEJSt14default_deleteIS1_EEERT0_RSt11_Tuple_implIXT_EJS5_DpT1_EE(%"struct.std::_Tuple_impl"* dereferenceable(8)) #4 comdat !dbg !4088 {
  %2 = alloca %"struct.std::_Tuple_impl"*, align 8
  store %"struct.std::_Tuple_impl"* %0, %"struct.std::_Tuple_impl"** %2, align 8
  call void @llvm.dbg.declare(metadata %"struct.std::_Tuple_impl"** %2, metadata !4091, metadata !2768), !dbg !4092
  %3 = load %"struct.std::_Tuple_impl"*, %"struct.std::_Tuple_impl"** %2, align 8, !dbg !4093
  %4 = call dereferenceable(8) %"struct.std::thread::_State"** @_ZNSt11_Tuple_implILm0EJPNSt6thread6_StateESt14default_deleteIS1_EEE7_M_headERS5_(%"struct.std::_Tuple_impl"* dereferenceable(8) %3) #3, !dbg !4094
  ret %"struct.std::thread::_State"** %4, !dbg !4095
}

; Function Attrs: nounwind uwtable
define linkonce_odr dereferenceable(8) %"struct.std::thread::_State"** @_ZNSt11_Tuple_implILm0EJPNSt6thread6_StateESt14default_deleteIS1_EEE7_M_headERS5_(%"struct.std::_Tuple_impl"* dereferenceable(8)) #4 comdat align 2 !dbg !4096 {
  %2 = alloca %"struct.std::_Tuple_impl"*, align 8
  store %"struct.std::_Tuple_impl"* %0, %"struct.std::_Tuple_impl"** %2, align 8
  call void @llvm.dbg.declare(metadata %"struct.std::_Tuple_impl"** %2, metadata !4097, metadata !2768), !dbg !4098
  %3 = load %"struct.std::_Tuple_impl"*, %"struct.std::_Tuple_impl"** %2, align 8, !dbg !4099
  %4 = bitcast %"struct.std::_Tuple_impl"* %3 to %"struct.std::_Head_base.2"*, !dbg !4099
  %5 = call dereferenceable(8) %"struct.std::thread::_State"** @_ZNSt10_Head_baseILm0EPNSt6thread6_StateELb0EE7_M_headERS3_(%"struct.std::_Head_base.2"* dereferenceable(8) %4) #3, !dbg !4100
  ret %"struct.std::thread::_State"** %5, !dbg !4101
}

; Function Attrs: nounwind uwtable
define linkonce_odr dereferenceable(8) %"struct.std::thread::_State"** @_ZNSt10_Head_baseILm0EPNSt6thread6_StateELb0EE7_M_headERS3_(%"struct.std::_Head_base.2"* dereferenceable(8)) #4 comdat align 2 !dbg !4102 {
  %2 = alloca %"struct.std::_Head_base.2"*, align 8
  store %"struct.std::_Head_base.2"* %0, %"struct.std::_Head_base.2"** %2, align 8
  call void @llvm.dbg.declare(metadata %"struct.std::_Head_base.2"** %2, metadata !4103, metadata !2768), !dbg !4104
  %3 = load %"struct.std::_Head_base.2"*, %"struct.std::_Head_base.2"** %2, align 8, !dbg !4105
  %4 = getelementptr inbounds %"struct.std::_Head_base.2", %"struct.std::_Head_base.2"* %3, i32 0, i32 0, !dbg !4106
  ret %"struct.std::thread::_State"** %4, !dbg !4107
}

; Function Attrs: nounwind uwtable
define linkonce_odr dereferenceable(1) %"struct.std::default_delete"* @_ZSt3getILm1EJPNSt6thread6_StateESt14default_deleteIS1_EEERNSt13tuple_elementIXT_ESt5tupleIJDpT0_EEE4typeERS9_(%"class.std::tuple"* dereferenceable(8)) #4 comdat !dbg !4108 {
  %2 = alloca %"class.std::tuple"*, align 8
  store %"class.std::tuple"* %0, %"class.std::tuple"** %2, align 8
  call void @llvm.dbg.declare(metadata %"class.std::tuple"** %2, metadata !4119, metadata !2768), !dbg !4120
  %3 = load %"class.std::tuple"*, %"class.std::tuple"** %2, align 8, !dbg !4121
  %4 = bitcast %"class.std::tuple"* %3 to %"struct.std::_Tuple_impl.1"*, !dbg !4121
  %5 = call dereferenceable(1) %"struct.std::default_delete"* @_ZSt12__get_helperILm1ESt14default_deleteINSt6thread6_StateEEJEERT0_RSt11_Tuple_implIXT_EJS4_DpT1_EE(%"struct.std::_Tuple_impl.1"* dereferenceable(1) %4) #3, !dbg !4122
  ret %"struct.std::default_delete"* %5, !dbg !4123
}

; Function Attrs: nounwind uwtable
define linkonce_odr dereferenceable(1) %"struct.std::default_delete"* @_ZSt12__get_helperILm1ESt14default_deleteINSt6thread6_StateEEJEERT0_RSt11_Tuple_implIXT_EJS4_DpT1_EE(%"struct.std::_Tuple_impl.1"* dereferenceable(1)) #4 comdat !dbg !4124 {
  %2 = alloca %"struct.std::_Tuple_impl.1"*, align 8
  store %"struct.std::_Tuple_impl.1"* %0, %"struct.std::_Tuple_impl.1"** %2, align 8
  call void @llvm.dbg.declare(metadata %"struct.std::_Tuple_impl.1"** %2, metadata !4126, metadata !2768), !dbg !4127
  %3 = load %"struct.std::_Tuple_impl.1"*, %"struct.std::_Tuple_impl.1"** %2, align 8, !dbg !4128
  %4 = call dereferenceable(1) %"struct.std::default_delete"* @_ZNSt11_Tuple_implILm1EJSt14default_deleteINSt6thread6_StateEEEE7_M_headERS4_(%"struct.std::_Tuple_impl.1"* dereferenceable(1) %3) #3, !dbg !4129
  ret %"struct.std::default_delete"* %4, !dbg !4130
}

; Function Attrs: nounwind uwtable
define linkonce_odr dereferenceable(1) %"struct.std::default_delete"* @_ZNSt11_Tuple_implILm1EJSt14default_deleteINSt6thread6_StateEEEE7_M_headERS4_(%"struct.std::_Tuple_impl.1"* dereferenceable(1)) #4 comdat align 2 !dbg !4131 {
  %2 = alloca %"struct.std::_Tuple_impl.1"*, align 8
  store %"struct.std::_Tuple_impl.1"* %0, %"struct.std::_Tuple_impl.1"** %2, align 8
  call void @llvm.dbg.declare(metadata %"struct.std::_Tuple_impl.1"** %2, metadata !4132, metadata !2768), !dbg !4133
  %3 = load %"struct.std::_Tuple_impl.1"*, %"struct.std::_Tuple_impl.1"** %2, align 8, !dbg !4134
  %4 = bitcast %"struct.std::_Tuple_impl.1"* %3 to %"struct.std::_Head_base"*, !dbg !4134
  %5 = call dereferenceable(1) %"struct.std::default_delete"* @_ZNSt10_Head_baseILm1ESt14default_deleteINSt6thread6_StateEELb1EE7_M_headERS4_(%"struct.std::_Head_base"* dereferenceable(1) %4) #3, !dbg !4135
  ret %"struct.std::default_delete"* %5, !dbg !4136
}

; Function Attrs: nounwind uwtable
define linkonce_odr dereferenceable(1) %"struct.std::default_delete"* @_ZNSt10_Head_baseILm1ESt14default_deleteINSt6thread6_StateEELb1EE7_M_headERS4_(%"struct.std::_Head_base"* dereferenceable(1)) #4 comdat align 2 !dbg !4137 {
  %2 = alloca %"struct.std::_Head_base"*, align 8
  store %"struct.std::_Head_base"* %0, %"struct.std::_Head_base"** %2, align 8
  call void @llvm.dbg.declare(metadata %"struct.std::_Head_base"** %2, metadata !4138, metadata !2768), !dbg !4139
  %3 = load %"struct.std::_Head_base"*, %"struct.std::_Head_base"** %2, align 8, !dbg !4140
  %4 = bitcast %"struct.std::_Head_base"* %3 to %"struct.std::default_delete"*, !dbg !4140
  ret %"struct.std::default_delete"* %4, !dbg !4141
}

; Function Attrs: noreturn
declare void @pthread_exit(i8*) #14

; Function Attrs: uwtable
define linkonce_odr void @_ZN9IrsThreadclIJMN9fibonacci7Thread1EFvvEPS2_EEEvDpOT_(%class.IrsThread*, { i64, i64 }* dereferenceable(16), %"class.fibonacci::Thread1"** dereferenceable(8)) #0 comdat align 2 !dbg !4142 {
  %4 = alloca %class.IrsThread*, align 8
  %5 = alloca { i64, i64 }*, align 8
  %6 = alloca %"class.fibonacci::Thread1"**, align 8
  %7 = alloca %"class.std::thread", align 8
  store %class.IrsThread* %0, %class.IrsThread** %4, align 8
  call void @llvm.dbg.declare(metadata %class.IrsThread** %4, metadata !4151, metadata !2768), !dbg !4152
  store { i64, i64 }* %1, { i64, i64 }** %5, align 8
  call void @llvm.dbg.declare(metadata { i64, i64 }** %5, metadata !4153, metadata !2768), !dbg !4154
  store %"class.fibonacci::Thread1"** %2, %"class.fibonacci::Thread1"*** %6, align 8
  call void @llvm.dbg.declare(metadata %"class.fibonacci::Thread1"*** %6, metadata !4155, metadata !2768), !dbg !4154
  %8 = load %class.IrsThread*, %class.IrsThread** %4, align 8
  %9 = getelementptr inbounds %class.IrsThread, %class.IrsThread* %8, i32 0, i32 0, !dbg !4156
  %10 = load { i64, i64 }*, { i64, i64 }** %5, align 8, !dbg !4157
  %11 = call dereferenceable(16) { i64, i64 }* @_ZSt7forwardIMN9fibonacci7Thread1EFvvEEOT_RNSt16remove_referenceIS4_E4typeE({ i64, i64 }* dereferenceable(16) %10) #3, !dbg !4158
  %12 = load %"class.fibonacci::Thread1"**, %"class.fibonacci::Thread1"*** %6, align 8, !dbg !4157
  %13 = call dereferenceable(8) %"class.fibonacci::Thread1"** @_ZSt7forwardIPN9fibonacci7Thread1EEOT_RNSt16remove_referenceIS3_E4typeE(%"class.fibonacci::Thread1"** dereferenceable(8) %12) #3, !dbg !4159
  call void @_ZNSt6threadC2IMN9fibonacci7Thread1EFvvEJPS2_EEEOT_DpOT0_(%"class.std::thread"* %7, { i64, i64 }* dereferenceable(16) %11, %"class.fibonacci::Thread1"** dereferenceable(8) %13), !dbg !4161
  %14 = call dereferenceable(8) %"class.std::thread"* @_ZNSt6threadaSEOS_(%"class.std::thread"* %9, %"class.std::thread"* dereferenceable(8) %7) #3, !dbg !4163
  call void @_ZNSt6threadD2Ev(%"class.std::thread"* %7) #3, !dbg !4165
  ret void, !dbg !4167
}

; Function Attrs: uwtable
define linkonce_odr void @_ZN9fibonacci7Thread14thr1Ev(%"class.fibonacci::Thread1"*) #0 comdat align 2 !dbg !4168 {
  %2 = alloca %"class.fibonacci::Thread1"*, align 8
  %3 = alloca i32, align 4
  store %"class.fibonacci::Thread1"* %0, %"class.fibonacci::Thread1"** %2, align 8
  call void @llvm.dbg.declare(metadata %"class.fibonacci::Thread1"** %2, metadata !4169, metadata !2768), !dbg !4170
  %4 = load %"class.fibonacci::Thread1"*, %"class.fibonacci::Thread1"** %2, align 8
  call void @llvm.dbg.declare(metadata i32* %3, metadata !4171, metadata !2768), !dbg !4172
  store i32 0, i32* %3, align 4, !dbg !4172
  store i32 0, i32* %3, align 4, !dbg !4173
  br label %5, !dbg !4175

; <label>:5:                                      ; preds = %21, %1
  %6 = load i32, i32* %3, align 4, !dbg !4176
  %7 = icmp slt i32 %6, 5, !dbg !4179
  br i1 %7, label %8, label %24, !dbg !4180

; <label>:8:                                      ; preds = %5
  %9 = call i32 @_ZN9fibonacci7Thread111getThreadIdEv(%"class.fibonacci::Thread1"* %0), !dbg !4181
  %10 = alloca i32, !dbg !4181
  store i32 %9, i32* %10, !dbg !4181
  %11 = load i32, i32* %10, !dbg !4181
  call void @_Z10__beforeMAiPvli(i32 %11, i8* bitcast (i32* @_ZN9fibonacci1iE to i8*), i64 4, i32 0), !dbg !4181
  %12 = load i32, i32* @_ZN9fibonacci1iE, align 4, !dbg !4181
  call void @_Z9__afterMAi(i32 %11), !dbg !4181
  %13 = call i32 @_ZN9fibonacci7Thread111getThreadIdEv(%"class.fibonacci::Thread1"* %0), !dbg !4182
  %14 = alloca i32, !dbg !4182
  store i32 %13, i32* %14, !dbg !4182
  %15 = load i32, i32* %14, !dbg !4182
  call void @_Z10__beforeMAiPvli(i32 %15, i8* bitcast (i32* @_ZN9fibonacci1jE to i8*), i64 4, i32 0), !dbg !4182
  %16 = load i32, i32* @_ZN9fibonacci1jE, align 4, !dbg !4182
  call void @_Z9__afterMAi(i32 %15), !dbg !4182
  %17 = add nsw i32 %16, %12, !dbg !4182
  %18 = call i32 @_ZN9fibonacci7Thread111getThreadIdEv(%"class.fibonacci::Thread1"* %0), !dbg !4182
  %19 = alloca i32, !dbg !4182
  store i32 %18, i32* %19, !dbg !4182
  %20 = load i32, i32* %19, !dbg !4182
  call void @_Z10__beforeMAiPvli(i32 %20, i8* bitcast (i32* @_ZN9fibonacci1jE to i8*), i64 4, i32 1), !dbg !4182
  store i32 %17, i32* @_ZN9fibonacci1jE, align 4, !dbg !4182
  call void @_Z9__afterMAi(i32 %20), !dbg !4182
  br label %21, !dbg !4183

; <label>:21:                                     ; preds = %8
  %22 = load i32, i32* %3, align 4, !dbg !4184
  %23 = add nsw i32 %22, 1, !dbg !4184
  store i32 %23, i32* %3, align 4, !dbg !4184
  br label %5, !dbg !4186, !llvm.loop !4187

; <label>:24:                                     ; preds = %5
  call void @pthread_exit(i8* null) #15, !dbg !4189
  unreachable, !dbg !4189
                                                  ; No predecessors!
  ret void, !dbg !4190
}

; Function Attrs: nounwind uwtable
define linkonce_odr dereferenceable(16) { i64, i64 }* @_ZSt7forwardIMN9fibonacci7Thread1EFvvEEOT_RNSt16remove_referenceIS4_E4typeE({ i64, i64 }* dereferenceable(16)) #4 comdat !dbg !4191 {
  %2 = alloca { i64, i64 }*, align 8
  store { i64, i64 }* %0, { i64, i64 }** %2, align 8
  call void @llvm.dbg.declare(metadata { i64, i64 }** %2, metadata !4197, metadata !2768), !dbg !4198
  %3 = load { i64, i64 }*, { i64, i64 }** %2, align 8, !dbg !4199
  ret { i64, i64 }* %3, !dbg !4200
}

; Function Attrs: nounwind uwtable
define linkonce_odr dereferenceable(8) %"class.fibonacci::Thread1"** @_ZSt7forwardIPN9fibonacci7Thread1EEOT_RNSt16remove_referenceIS3_E4typeE(%"class.fibonacci::Thread1"** dereferenceable(8)) #4 comdat !dbg !4201 {
  %2 = alloca %"class.fibonacci::Thread1"**, align 8
  store %"class.fibonacci::Thread1"** %0, %"class.fibonacci::Thread1"*** %2, align 8
  call void @llvm.dbg.declare(metadata %"class.fibonacci::Thread1"*** %2, metadata !4209, metadata !2768), !dbg !4210
  %3 = load %"class.fibonacci::Thread1"**, %"class.fibonacci::Thread1"*** %2, align 8, !dbg !4211
  ret %"class.fibonacci::Thread1"** %3, !dbg !4212
}

; Function Attrs: uwtable
define linkonce_odr void @_ZNSt6threadC2IMN9fibonacci7Thread1EFvvEJPS2_EEEOT_DpOT0_(%"class.std::thread"*, { i64, i64 }* dereferenceable(16), %"class.fibonacci::Thread1"** dereferenceable(8)) unnamed_addr #0 comdat align 2 personality i8* bitcast (i32 (...)* @__gxx_personality_v0 to i8*) !dbg !4213 {
  %4 = alloca %"class.std::thread"*, align 8
  %5 = alloca { i64, i64 }*, align 8
  %6 = alloca %"class.fibonacci::Thread1"**, align 8
  %7 = alloca void ()*, align 8
  %8 = alloca %"class.std::unique_ptr", align 8
  %9 = alloca %"struct.std::_Bind_simple.8", align 8
  %10 = alloca i8*
  %11 = alloca i32
  store %"class.std::thread"* %0, %"class.std::thread"** %4, align 8
  call void @llvm.dbg.declare(metadata %"class.std::thread"** %4, metadata !4219, metadata !2768), !dbg !4220
  store { i64, i64 }* %1, { i64, i64 }** %5, align 8
  call void @llvm.dbg.declare(metadata { i64, i64 }** %5, metadata !4221, metadata !2768), !dbg !4222
  store %"class.fibonacci::Thread1"** %2, %"class.fibonacci::Thread1"*** %6, align 8
  call void @llvm.dbg.declare(metadata %"class.fibonacci::Thread1"*** %6, metadata !4223, metadata !2768), !dbg !4224
  %12 = load %"class.std::thread"*, %"class.std::thread"** %4, align 8
  %13 = getelementptr inbounds %"class.std::thread", %"class.std::thread"* %12, i32 0, i32 0, !dbg !4225
  call void @_ZNSt6thread2idC2Ev(%"class.std::thread::id"* %13) #3, !dbg !4225
  call void @llvm.dbg.declare(metadata void ()** %7, metadata !4226, metadata !2768), !dbg !4228
  store void ()* bitcast (i32 (i64*, %union.pthread_attr_t*, i8* (i8*)*, i8*)* @pthread_create to void ()*), void ()** %7, align 8, !dbg !4228
  %14 = load { i64, i64 }*, { i64, i64 }** %5, align 8, !dbg !4229
  %15 = call dereferenceable(16) { i64, i64 }* @_ZSt7forwardIMN9fibonacci7Thread1EFvvEEOT_RNSt16remove_referenceIS4_E4typeE({ i64, i64 }* dereferenceable(16) %14) #3, !dbg !4230
  %16 = load %"class.fibonacci::Thread1"**, %"class.fibonacci::Thread1"*** %6, align 8, !dbg !4231
  %17 = call dereferenceable(8) %"class.fibonacci::Thread1"** @_ZSt7forwardIPN9fibonacci7Thread1EEOT_RNSt16remove_referenceIS3_E4typeE(%"class.fibonacci::Thread1"** dereferenceable(8) %16) #3, !dbg !4232
  call void @_ZSt13__bind_simpleIMN9fibonacci7Thread1EFvvEJPS1_EENSt19_Bind_simple_helperIT_JDpT0_EE6__typeEOS6_DpOS7_(%"struct.std::_Bind_simple.8"* sret %9, { i64, i64 }* dereferenceable(16) %15, %"class.fibonacci::Thread1"** dereferenceable(8) %17), !dbg !4233
  call void @_ZNSt6thread13_S_make_stateISt12_Bind_simpleIFSt7_Mem_fnIMN9fibonacci7Thread1EFvvEEPS4_EEEESt10unique_ptrINS_6_StateESt14default_deleteISC_EEOT_(%"class.std::unique_ptr"* sret %8, %"struct.std::_Bind_simple.8"* dereferenceable(24) %9), !dbg !4235
  %18 = load void ()*, void ()** %7, align 8, !dbg !4236
  invoke void @_ZNSt6thread15_M_start_threadESt10unique_ptrINS_6_StateESt14default_deleteIS1_EEPFvvE(%"class.std::thread"* %12, %"class.std::unique_ptr"* %8, void ()* %18)
          to label %19 unwind label %20, !dbg !4237

; <label>:19:                                     ; preds = %3
  call void @_ZNSt10unique_ptrINSt6thread6_StateESt14default_deleteIS1_EED2Ev(%"class.std::unique_ptr"* %8) #3, !dbg !4238
  ret void, !dbg !4239

; <label>:20:                                     ; preds = %3
  %21 = landingpad { i8*, i32 }
          cleanup, !dbg !4240
  %22 = extractvalue { i8*, i32 } %21, 0, !dbg !4240
  store i8* %22, i8** %10, align 8, !dbg !4240
  %23 = extractvalue { i8*, i32 } %21, 1, !dbg !4240
  store i32 %23, i32* %11, align 4, !dbg !4240
  call void @_ZNSt10unique_ptrINSt6thread6_StateESt14default_deleteIS1_EED2Ev(%"class.std::unique_ptr"* %8) #3, !dbg !4241
  br label %24, !dbg !4241

; <label>:24:                                     ; preds = %20
  %25 = load i8*, i8** %10, align 8, !dbg !4243
  %26 = load i32, i32* %11, align 4, !dbg !4243
  %27 = insertvalue { i8*, i32 } undef, i8* %25, 0, !dbg !4243
  %28 = insertvalue { i8*, i32 } %27, i32 %26, 1, !dbg !4243
  resume { i8*, i32 } %28, !dbg !4243
}

; Function Attrs: uwtable
define linkonce_odr void @_ZNSt6thread13_S_make_stateISt12_Bind_simpleIFSt7_Mem_fnIMN9fibonacci7Thread1EFvvEEPS4_EEEESt10unique_ptrINS_6_StateESt14default_deleteISC_EEOT_(%"class.std::unique_ptr"* noalias sret, %"struct.std::_Bind_simple.8"* dereferenceable(24)) #0 comdat align 2 personality i8* bitcast (i32 (...)* @__gxx_personality_v0 to i8*) !dbg !4245 {
  %3 = alloca %"struct.std::_Bind_simple.8"*, align 8
  %4 = alloca i8*
  %5 = alloca i32
  store %"struct.std::_Bind_simple.8"* %1, %"struct.std::_Bind_simple.8"** %3, align 8
  call void @llvm.dbg.declare(metadata %"struct.std::_Bind_simple.8"** %3, metadata !4451, metadata !2768), !dbg !4452
  %6 = call i8* @_Znwm(i64 32) #17, !dbg !4453
  %7 = bitcast i8* %6 to %"struct.std::thread::_State_impl.18"*, !dbg !4453
  %8 = load %"struct.std::_Bind_simple.8"*, %"struct.std::_Bind_simple.8"** %3, align 8, !dbg !4454
  %9 = call dereferenceable(24) %"struct.std::_Bind_simple.8"* @_ZSt7forwardISt12_Bind_simpleIFSt7_Mem_fnIMN9fibonacci7Thread1EFvvEEPS3_EEEOT_RNSt16remove_referenceISA_E4typeE(%"struct.std::_Bind_simple.8"* dereferenceable(24) %8) #3, !dbg !4455
  invoke void @_ZNSt6thread11_State_implISt12_Bind_simpleIFSt7_Mem_fnIMN9fibonacci7Thread1EFvvEEPS4_EEEC2EOSA_(%"struct.std::thread::_State_impl.18"* %7, %"struct.std::_Bind_simple.8"* dereferenceable(24) %9)
          to label %10 unwind label %12, !dbg !4457

; <label>:10:                                     ; preds = %2
  %11 = bitcast %"struct.std::thread::_State_impl.18"* %7 to %"struct.std::thread::_State"*, !dbg !4458
  call void @_ZNSt10unique_ptrINSt6thread6_StateESt14default_deleteIS1_EEC2EPS1_(%"class.std::unique_ptr"* %0, %"struct.std::thread::_State"* %11) #3, !dbg !4460
  ret void, !dbg !4461

; <label>:12:                                     ; preds = %2
  %13 = landingpad { i8*, i32 }
          cleanup, !dbg !4462
  %14 = extractvalue { i8*, i32 } %13, 0, !dbg !4462
  store i8* %14, i8** %4, align 8, !dbg !4462
  %15 = extractvalue { i8*, i32 } %13, 1, !dbg !4462
  store i32 %15, i32* %5, align 4, !dbg !4462
  call void @_ZdlPv(i8* %6) #18, !dbg !4463
  br label %16, !dbg !4463

; <label>:16:                                     ; preds = %12
  %17 = load i8*, i8** %4, align 8, !dbg !4465
  %18 = load i32, i32* %5, align 4, !dbg !4465
  %19 = insertvalue { i8*, i32 } undef, i8* %17, 0, !dbg !4465
  %20 = insertvalue { i8*, i32 } %19, i32 %18, 1, !dbg !4465
  resume { i8*, i32 } %20, !dbg !4465
}

; Function Attrs: uwtable
define linkonce_odr void @_ZSt13__bind_simpleIMN9fibonacci7Thread1EFvvEJPS1_EENSt19_Bind_simple_helperIT_JDpT0_EE6__typeEOS6_DpOS7_(%"struct.std::_Bind_simple.8"* noalias sret, { i64, i64 }* dereferenceable(16), %"class.fibonacci::Thread1"** dereferenceable(8)) #0 comdat !dbg !4467 {
  %4 = alloca { i64, i64 }*, align 8
  %5 = alloca %"class.fibonacci::Thread1"**, align 8
  %6 = alloca %"struct.std::_Mem_fn.14", align 8
  %7 = alloca { i64, i64 }, align 8
  store { i64, i64 }* %1, { i64, i64 }** %4, align 8
  call void @llvm.dbg.declare(metadata { i64, i64 }** %4, metadata !4478, metadata !2768), !dbg !4479
  store %"class.fibonacci::Thread1"** %2, %"class.fibonacci::Thread1"*** %5, align 8
  call void @llvm.dbg.declare(metadata %"class.fibonacci::Thread1"*** %5, metadata !4480, metadata !2768), !dbg !4481
  %8 = load { i64, i64 }*, { i64, i64 }** %4, align 8, !dbg !4482
  %9 = call dereferenceable(16) { i64, i64 }* @_ZSt7forwardIMN9fibonacci7Thread1EFvvEEOT_RNSt16remove_referenceIS4_E4typeE({ i64, i64 }* dereferenceable(16) %8) #3, !dbg !4483
  %10 = load { i64, i64 }, { i64, i64 }* %9, align 8, !dbg !4483
  store { i64, i64 } %10, { i64, i64 }* %7, align 8, !dbg !4484
  %11 = getelementptr inbounds { i64, i64 }, { i64, i64 }* %7, i32 0, i32 0, !dbg !4484
  %12 = load i64, i64* %11, align 8, !dbg !4484
  %13 = getelementptr inbounds { i64, i64 }, { i64, i64 }* %7, i32 0, i32 1, !dbg !4484
  %14 = load i64, i64* %13, align 8, !dbg !4484
  %15 = call { i64, i64 } @_ZNSt26_Maybe_wrap_member_pointerIMN9fibonacci7Thread1EFvvEE9__do_wrapES3_(i64 %12, i64 %14), !dbg !4485
  %16 = getelementptr inbounds %"struct.std::_Mem_fn.14", %"struct.std::_Mem_fn.14"* %6, i32 0, i32 0, !dbg !4484
  %17 = getelementptr inbounds %"class.std::_Mem_fn_base.15", %"class.std::_Mem_fn_base.15"* %16, i32 0, i32 0, !dbg !4484
  %18 = getelementptr inbounds { i64, i64 }, { i64, i64 }* %17, i32 0, i32 0, !dbg !4484
  %19 = extractvalue { i64, i64 } %15, 0, !dbg !4484
  store i64 %19, i64* %18, align 8, !dbg !4484
  %20 = getelementptr inbounds { i64, i64 }, { i64, i64 }* %17, i32 0, i32 1, !dbg !4484
  %21 = extractvalue { i64, i64 } %15, 1, !dbg !4484
  store i64 %21, i64* %20, align 8, !dbg !4484
  %22 = load %"class.fibonacci::Thread1"**, %"class.fibonacci::Thread1"*** %5, align 8, !dbg !4487
  %23 = call dereferenceable(8) %"class.fibonacci::Thread1"** @_ZSt7forwardIPN9fibonacci7Thread1EEOT_RNSt16remove_referenceIS3_E4typeE(%"class.fibonacci::Thread1"** dereferenceable(8) %22) #3, !dbg !4488
  call void @_ZNSt12_Bind_simpleIFSt7_Mem_fnIMN9fibonacci7Thread1EFvvEEPS2_EEC2IS5_JS6_EEEOT_DpOT0_(%"struct.std::_Bind_simple.8"* %0, %"struct.std::_Mem_fn.14"* dereferenceable(16) %6, %"class.fibonacci::Thread1"** dereferenceable(8) %23), !dbg !4489
  ret void, !dbg !4490
}

; Function Attrs: nounwind uwtable
define linkonce_odr dereferenceable(24) %"struct.std::_Bind_simple.8"* @_ZSt7forwardISt12_Bind_simpleIFSt7_Mem_fnIMN9fibonacci7Thread1EFvvEEPS3_EEEOT_RNSt16remove_referenceISA_E4typeE(%"struct.std::_Bind_simple.8"* dereferenceable(24)) #4 comdat !dbg !4491 {
  %2 = alloca %"struct.std::_Bind_simple.8"*, align 8
  store %"struct.std::_Bind_simple.8"* %0, %"struct.std::_Bind_simple.8"** %2, align 8
  call void @llvm.dbg.declare(metadata %"struct.std::_Bind_simple.8"** %2, metadata !4499, metadata !2768), !dbg !4500
  %3 = load %"struct.std::_Bind_simple.8"*, %"struct.std::_Bind_simple.8"** %2, align 8, !dbg !4501
  ret %"struct.std::_Bind_simple.8"* %3, !dbg !4502
}

; Function Attrs: nounwind uwtable
define linkonce_odr void @_ZNSt6thread11_State_implISt12_Bind_simpleIFSt7_Mem_fnIMN9fibonacci7Thread1EFvvEEPS4_EEEC2EOSA_(%"struct.std::thread::_State_impl.18"*, %"struct.std::_Bind_simple.8"* dereferenceable(24)) unnamed_addr #4 comdat align 2 !dbg !4503 {
  %3 = alloca %"struct.std::thread::_State_impl.18"*, align 8
  %4 = alloca %"struct.std::_Bind_simple.8"*, align 8
  store %"struct.std::thread::_State_impl.18"* %0, %"struct.std::thread::_State_impl.18"** %3, align 8
  call void @llvm.dbg.declare(metadata %"struct.std::thread::_State_impl.18"** %3, metadata !4515, metadata !2768), !dbg !4517
  store %"struct.std::_Bind_simple.8"* %1, %"struct.std::_Bind_simple.8"** %4, align 8
  call void @llvm.dbg.declare(metadata %"struct.std::_Bind_simple.8"** %4, metadata !4518, metadata !2768), !dbg !4519
  %5 = load %"struct.std::thread::_State_impl.18"*, %"struct.std::thread::_State_impl.18"** %3, align 8
  %6 = bitcast %"struct.std::thread::_State_impl.18"* %5 to %"struct.std::thread::_State"*, !dbg !4520
  call void @_ZNSt6thread6_StateC2Ev(%"struct.std::thread::_State"* %6) #3, !dbg !4521
  %7 = bitcast %"struct.std::thread::_State_impl.18"* %5 to i32 (...)***, !dbg !4520
  store i32 (...)** bitcast (i8** getelementptr inbounds ([5 x i8*], [5 x i8*]* @_ZTVNSt6thread11_State_implISt12_Bind_simpleIFSt7_Mem_fnIMN9fibonacci7Thread1EFvvEEPS4_EEEE, i32 0, i32 2) to i32 (...)**), i32 (...)*** %7, align 8, !dbg !4520
  %8 = getelementptr inbounds %"struct.std::thread::_State_impl.18", %"struct.std::thread::_State_impl.18"* %5, i32 0, i32 1, !dbg !4522
  %9 = load %"struct.std::_Bind_simple.8"*, %"struct.std::_Bind_simple.8"** %4, align 8, !dbg !4523
  %10 = call dereferenceable(24) %"struct.std::_Bind_simple.8"* @_ZSt7forwardISt12_Bind_simpleIFSt7_Mem_fnIMN9fibonacci7Thread1EFvvEEPS3_EEEOT_RNSt16remove_referenceISA_E4typeE(%"struct.std::_Bind_simple.8"* dereferenceable(24) %9) #3, !dbg !4524
  call void @_ZNSt12_Bind_simpleIFSt7_Mem_fnIMN9fibonacci7Thread1EFvvEEPS2_EEC2EOS8_(%"struct.std::_Bind_simple.8"* %8, %"struct.std::_Bind_simple.8"* dereferenceable(24) %10) #3, !dbg !4526
  ret void, !dbg !4528
}

; Function Attrs: nounwind uwtable
define linkonce_odr void @_ZNSt12_Bind_simpleIFSt7_Mem_fnIMN9fibonacci7Thread1EFvvEEPS2_EEC2EOS8_(%"struct.std::_Bind_simple.8"*, %"struct.std::_Bind_simple.8"* dereferenceable(24)) unnamed_addr #4 comdat align 2 !dbg !4529 {
  %3 = alloca %"struct.std::_Bind_simple.8"*, align 8
  %4 = alloca %"struct.std::_Bind_simple.8"*, align 8
  store %"struct.std::_Bind_simple.8"* %0, %"struct.std::_Bind_simple.8"** %3, align 8
  call void @llvm.dbg.declare(metadata %"struct.std::_Bind_simple.8"** %3, metadata !4530, metadata !2768), !dbg !4532
  store %"struct.std::_Bind_simple.8"* %1, %"struct.std::_Bind_simple.8"** %4, align 8
  call void @llvm.dbg.declare(metadata %"struct.std::_Bind_simple.8"** %4, metadata !4533, metadata !2768), !dbg !4534
  %5 = load %"struct.std::_Bind_simple.8"*, %"struct.std::_Bind_simple.8"** %3, align 8
  %6 = getelementptr inbounds %"struct.std::_Bind_simple.8", %"struct.std::_Bind_simple.8"* %5, i32 0, i32 0, !dbg !4535
  %7 = load %"struct.std::_Bind_simple.8"*, %"struct.std::_Bind_simple.8"** %4, align 8, !dbg !4535
  %8 = getelementptr inbounds %"struct.std::_Bind_simple.8", %"struct.std::_Bind_simple.8"* %7, i32 0, i32 0, !dbg !4535
  call void @_ZNSt5tupleIJSt7_Mem_fnIMN9fibonacci7Thread1EFvvEEPS2_EEC2EOS7_(%"class.std::tuple.9"* %6, %"class.std::tuple.9"* dereferenceable(24) %8) #3, !dbg !4535
  ret void, !dbg !4535
}

; Function Attrs: inlinehint nounwind uwtable
define linkonce_odr void @_ZNSt6thread11_State_implISt12_Bind_simpleIFSt7_Mem_fnIMN9fibonacci7Thread1EFvvEEPS4_EEED2Ev(%"struct.std::thread::_State_impl.18"*) unnamed_addr #7 comdat align 2 !dbg !4536 {
  %2 = alloca %"struct.std::thread::_State_impl.18"*, align 8
  store %"struct.std::thread::_State_impl.18"* %0, %"struct.std::thread::_State_impl.18"** %2, align 8
  call void @llvm.dbg.declare(metadata %"struct.std::thread::_State_impl.18"** %2, metadata !4538, metadata !2768), !dbg !4539
  %3 = load %"struct.std::thread::_State_impl.18"*, %"struct.std::thread::_State_impl.18"** %2, align 8
  %4 = bitcast %"struct.std::thread::_State_impl.18"* %3 to %"struct.std::thread::_State"*, !dbg !4540
  call void @_ZNSt6thread6_StateD2Ev(%"struct.std::thread::_State"* %4) #3, !dbg !4540
  ret void, !dbg !4542
}

; Function Attrs: inlinehint nounwind uwtable
define linkonce_odr void @_ZNSt6thread11_State_implISt12_Bind_simpleIFSt7_Mem_fnIMN9fibonacci7Thread1EFvvEEPS4_EEED0Ev(%"struct.std::thread::_State_impl.18"*) unnamed_addr #7 comdat align 2 !dbg !4543 {
  %2 = alloca %"struct.std::thread::_State_impl.18"*, align 8
  store %"struct.std::thread::_State_impl.18"* %0, %"struct.std::thread::_State_impl.18"** %2, align 8
  call void @llvm.dbg.declare(metadata %"struct.std::thread::_State_impl.18"** %2, metadata !4544, metadata !2768), !dbg !4545
  %3 = load %"struct.std::thread::_State_impl.18"*, %"struct.std::thread::_State_impl.18"** %2, align 8
  call void @_ZNSt6thread11_State_implISt12_Bind_simpleIFSt7_Mem_fnIMN9fibonacci7Thread1EFvvEEPS4_EEED2Ev(%"struct.std::thread::_State_impl.18"* %3) #3, !dbg !4546
  %4 = bitcast %"struct.std::thread::_State_impl.18"* %3 to i8*, !dbg !4546
  call void @_ZdlPv(i8* %4) #18, !dbg !4547
  ret void, !dbg !4546
}

; Function Attrs: uwtable
define linkonce_odr void @_ZNSt6thread11_State_implISt12_Bind_simpleIFSt7_Mem_fnIMN9fibonacci7Thread1EFvvEEPS4_EEE6_M_runEv(%"struct.std::thread::_State_impl.18"*) unnamed_addr #0 comdat align 2 !dbg !4549 {
  %2 = alloca %"struct.std::thread::_State_impl.18"*, align 8
  store %"struct.std::thread::_State_impl.18"* %0, %"struct.std::thread::_State_impl.18"** %2, align 8
  call void @llvm.dbg.declare(metadata %"struct.std::thread::_State_impl.18"** %2, metadata !4550, metadata !2768), !dbg !4551
  %3 = load %"struct.std::thread::_State_impl.18"*, %"struct.std::thread::_State_impl.18"** %2, align 8
  %4 = getelementptr inbounds %"struct.std::thread::_State_impl.18", %"struct.std::thread::_State_impl.18"* %3, i32 0, i32 1, !dbg !4552
  call void @_ZNSt12_Bind_simpleIFSt7_Mem_fnIMN9fibonacci7Thread1EFvvEEPS2_EEclEv(%"struct.std::_Bind_simple.8"* %4), !dbg !4552
  ret void, !dbg !4553
}

; Function Attrs: nounwind uwtable
define linkonce_odr void @_ZNSt5tupleIJSt7_Mem_fnIMN9fibonacci7Thread1EFvvEEPS2_EEC2EOS7_(%"class.std::tuple.9"*, %"class.std::tuple.9"* dereferenceable(24)) unnamed_addr #4 comdat align 2 !dbg !4554 {
  %3 = alloca %"class.std::tuple.9"*, align 8
  %4 = alloca %"class.std::tuple.9"*, align 8
  store %"class.std::tuple.9"* %0, %"class.std::tuple.9"** %3, align 8
  call void @llvm.dbg.declare(metadata %"class.std::tuple.9"** %3, metadata !4555, metadata !2768), !dbg !4557
  store %"class.std::tuple.9"* %1, %"class.std::tuple.9"** %4, align 8
  call void @llvm.dbg.declare(metadata %"class.std::tuple.9"** %4, metadata !4558, metadata !2768), !dbg !4559
  %5 = load %"class.std::tuple.9"*, %"class.std::tuple.9"** %3, align 8
  %6 = bitcast %"class.std::tuple.9"* %5 to %"struct.std::_Tuple_impl.10"*, !dbg !4560
  %7 = load %"class.std::tuple.9"*, %"class.std::tuple.9"** %4, align 8, !dbg !4560
  %8 = bitcast %"class.std::tuple.9"* %7 to %"struct.std::_Tuple_impl.10"*, !dbg !4560
  call void @_ZNSt11_Tuple_implILm0EJSt7_Mem_fnIMN9fibonacci7Thread1EFvvEEPS2_EEC2EOS7_(%"struct.std::_Tuple_impl.10"* %6, %"struct.std::_Tuple_impl.10"* dereferenceable(24) %8) #3, !dbg !4560
  ret void, !dbg !4560
}

; Function Attrs: nounwind uwtable
define linkonce_odr void @_ZNSt11_Tuple_implILm0EJSt7_Mem_fnIMN9fibonacci7Thread1EFvvEEPS2_EEC2EOS7_(%"struct.std::_Tuple_impl.10"*, %"struct.std::_Tuple_impl.10"* dereferenceable(24)) unnamed_addr #4 comdat align 2 personality i8* bitcast (i32 (...)* @__gxx_personality_v0 to i8*) !dbg !4561 {
  %3 = alloca %"struct.std::_Tuple_impl.10"*, align 8
  %4 = alloca %"struct.std::_Tuple_impl.10"*, align 8
  store %"struct.std::_Tuple_impl.10"* %0, %"struct.std::_Tuple_impl.10"** %3, align 8
  call void @llvm.dbg.declare(metadata %"struct.std::_Tuple_impl.10"** %3, metadata !4562, metadata !2768), !dbg !4564
  store %"struct.std::_Tuple_impl.10"* %1, %"struct.std::_Tuple_impl.10"** %4, align 8
  call void @llvm.dbg.declare(metadata %"struct.std::_Tuple_impl.10"** %4, metadata !4565, metadata !2768), !dbg !4566
  %5 = load %"struct.std::_Tuple_impl.10"*, %"struct.std::_Tuple_impl.10"** %3, align 8
  %6 = bitcast %"struct.std::_Tuple_impl.10"* %5 to %"struct.std::_Tuple_impl.11"*, !dbg !4567
  %7 = load %"struct.std::_Tuple_impl.10"*, %"struct.std::_Tuple_impl.10"** %4, align 8, !dbg !4568
  %8 = call dereferenceable(8) %"struct.std::_Tuple_impl.11"* @_ZNSt11_Tuple_implILm0EJSt7_Mem_fnIMN9fibonacci7Thread1EFvvEEPS2_EE7_M_tailERS7_(%"struct.std::_Tuple_impl.10"* dereferenceable(24) %7) #3, !dbg !4569
  %9 = call dereferenceable(8) %"struct.std::_Tuple_impl.11"* @_ZSt4moveIRSt11_Tuple_implILm1EJPN9fibonacci7Thread1EEEEONSt16remove_referenceIT_E4typeEOS7_(%"struct.std::_Tuple_impl.11"* dereferenceable(8) %8) #3, !dbg !4570
  call void @_ZNSt11_Tuple_implILm1EJPN9fibonacci7Thread1EEEC2EOS3_(%"struct.std::_Tuple_impl.11"* %6, %"struct.std::_Tuple_impl.11"* dereferenceable(8) %9) #3, !dbg !4572
  %10 = bitcast %"struct.std::_Tuple_impl.10"* %5 to i8*, !dbg !4567
  %11 = getelementptr inbounds i8, i8* %10, i64 8, !dbg !4567
  %12 = bitcast i8* %11 to %"struct.std::_Head_base.13"*, !dbg !4567
  %13 = load %"struct.std::_Tuple_impl.10"*, %"struct.std::_Tuple_impl.10"** %4, align 8, !dbg !4574
  %14 = call dereferenceable(16) %"struct.std::_Mem_fn.14"* @_ZNSt11_Tuple_implILm0EJSt7_Mem_fnIMN9fibonacci7Thread1EFvvEEPS2_EE7_M_headERS7_(%"struct.std::_Tuple_impl.10"* dereferenceable(24) %13) #3, !dbg !4575
  %15 = call dereferenceable(16) %"struct.std::_Mem_fn.14"* @_ZSt7forwardISt7_Mem_fnIMN9fibonacci7Thread1EFvvEEEOT_RNSt16remove_referenceIS6_E4typeE(%"struct.std::_Mem_fn.14"* dereferenceable(16) %14) #3, !dbg !4576
  invoke void @_ZNSt10_Head_baseILm0ESt7_Mem_fnIMN9fibonacci7Thread1EFvvEELb0EEC2IS5_EEOT_(%"struct.std::_Head_base.13"* %12, %"struct.std::_Mem_fn.14"* dereferenceable(16) %15)
          to label %16 unwind label %17, !dbg !4578

; <label>:16:                                     ; preds = %2
  ret void, !dbg !4579

; <label>:17:                                     ; preds = %2
  %18 = landingpad { i8*, i32 }
          catch i8* null, !dbg !4580
  %19 = extractvalue { i8*, i32 } %18, 0, !dbg !4580
  call void @__clang_call_terminate(i8* %19) #16, !dbg !4580
  unreachable, !dbg !4580
}

; Function Attrs: nounwind uwtable
define linkonce_odr dereferenceable(8) %"struct.std::_Tuple_impl.11"* @_ZSt4moveIRSt11_Tuple_implILm1EJPN9fibonacci7Thread1EEEEONSt16remove_referenceIT_E4typeEOS7_(%"struct.std::_Tuple_impl.11"* dereferenceable(8)) #4 comdat !dbg !4581 {
  %2 = alloca %"struct.std::_Tuple_impl.11"*, align 8
  store %"struct.std::_Tuple_impl.11"* %0, %"struct.std::_Tuple_impl.11"** %2, align 8
  call void @llvm.dbg.declare(metadata %"struct.std::_Tuple_impl.11"** %2, metadata !4589, metadata !2768), !dbg !4590
  %3 = load %"struct.std::_Tuple_impl.11"*, %"struct.std::_Tuple_impl.11"** %2, align 8, !dbg !4591
  ret %"struct.std::_Tuple_impl.11"* %3, !dbg !4592
}

; Function Attrs: nounwind uwtable
define linkonce_odr dereferenceable(8) %"struct.std::_Tuple_impl.11"* @_ZNSt11_Tuple_implILm0EJSt7_Mem_fnIMN9fibonacci7Thread1EFvvEEPS2_EE7_M_tailERS7_(%"struct.std::_Tuple_impl.10"* dereferenceable(24)) #4 comdat align 2 !dbg !4593 {
  %2 = alloca %"struct.std::_Tuple_impl.10"*, align 8
  store %"struct.std::_Tuple_impl.10"* %0, %"struct.std::_Tuple_impl.10"** %2, align 8
  call void @llvm.dbg.declare(metadata %"struct.std::_Tuple_impl.10"** %2, metadata !4594, metadata !2768), !dbg !4595
  %3 = load %"struct.std::_Tuple_impl.10"*, %"struct.std::_Tuple_impl.10"** %2, align 8, !dbg !4596
  %4 = bitcast %"struct.std::_Tuple_impl.10"* %3 to %"struct.std::_Tuple_impl.11"*, !dbg !4596
  ret %"struct.std::_Tuple_impl.11"* %4, !dbg !4597
}

; Function Attrs: nounwind uwtable
define linkonce_odr void @_ZNSt11_Tuple_implILm1EJPN9fibonacci7Thread1EEEC2EOS3_(%"struct.std::_Tuple_impl.11"*, %"struct.std::_Tuple_impl.11"* dereferenceable(8)) unnamed_addr #4 comdat align 2 personality i8* bitcast (i32 (...)* @__gxx_personality_v0 to i8*) !dbg !4598 {
  %3 = alloca %"struct.std::_Tuple_impl.11"*, align 8
  %4 = alloca %"struct.std::_Tuple_impl.11"*, align 8
  store %"struct.std::_Tuple_impl.11"* %0, %"struct.std::_Tuple_impl.11"** %3, align 8
  call void @llvm.dbg.declare(metadata %"struct.std::_Tuple_impl.11"** %3, metadata !4599, metadata !2768), !dbg !4601
  store %"struct.std::_Tuple_impl.11"* %1, %"struct.std::_Tuple_impl.11"** %4, align 8
  call void @llvm.dbg.declare(metadata %"struct.std::_Tuple_impl.11"** %4, metadata !4602, metadata !2768), !dbg !4603
  %5 = load %"struct.std::_Tuple_impl.11"*, %"struct.std::_Tuple_impl.11"** %3, align 8
  %6 = bitcast %"struct.std::_Tuple_impl.11"* %5 to %"struct.std::_Head_base.12"*, !dbg !4604
  %7 = load %"struct.std::_Tuple_impl.11"*, %"struct.std::_Tuple_impl.11"** %4, align 8, !dbg !4605
  %8 = call dereferenceable(8) %"class.fibonacci::Thread1"** @_ZNSt11_Tuple_implILm1EJPN9fibonacci7Thread1EEE7_M_headERS3_(%"struct.std::_Tuple_impl.11"* dereferenceable(8) %7) #3, !dbg !4606
  %9 = call dereferenceable(8) %"class.fibonacci::Thread1"** @_ZSt7forwardIPN9fibonacci7Thread1EEOT_RNSt16remove_referenceIS3_E4typeE(%"class.fibonacci::Thread1"** dereferenceable(8) %8) #3, !dbg !4607
  invoke void @_ZNSt10_Head_baseILm1EPN9fibonacci7Thread1ELb0EEC2IS2_EEOT_(%"struct.std::_Head_base.12"* %6, %"class.fibonacci::Thread1"** dereferenceable(8) %9)
          to label %10 unwind label %11, !dbg !4609

; <label>:10:                                     ; preds = %2
  ret void, !dbg !4610

; <label>:11:                                     ; preds = %2
  %12 = landingpad { i8*, i32 }
          catch i8* null, !dbg !4612
  %13 = extractvalue { i8*, i32 } %12, 0, !dbg !4612
  call void @__clang_call_terminate(i8* %13) #16, !dbg !4612
  unreachable, !dbg !4612
}

; Function Attrs: nounwind uwtable
define linkonce_odr dereferenceable(16) %"struct.std::_Mem_fn.14"* @_ZSt7forwardISt7_Mem_fnIMN9fibonacci7Thread1EFvvEEEOT_RNSt16remove_referenceIS6_E4typeE(%"struct.std::_Mem_fn.14"* dereferenceable(16)) #4 comdat !dbg !4614 {
  %2 = alloca %"struct.std::_Mem_fn.14"*, align 8
  store %"struct.std::_Mem_fn.14"* %0, %"struct.std::_Mem_fn.14"** %2, align 8
  call void @llvm.dbg.declare(metadata %"struct.std::_Mem_fn.14"** %2, metadata !4623, metadata !2768), !dbg !4624
  %3 = load %"struct.std::_Mem_fn.14"*, %"struct.std::_Mem_fn.14"** %2, align 8, !dbg !4625
  ret %"struct.std::_Mem_fn.14"* %3, !dbg !4626
}

; Function Attrs: nounwind uwtable
define linkonce_odr dereferenceable(16) %"struct.std::_Mem_fn.14"* @_ZNSt11_Tuple_implILm0EJSt7_Mem_fnIMN9fibonacci7Thread1EFvvEEPS2_EE7_M_headERS7_(%"struct.std::_Tuple_impl.10"* dereferenceable(24)) #4 comdat align 2 !dbg !4627 {
  %2 = alloca %"struct.std::_Tuple_impl.10"*, align 8
  store %"struct.std::_Tuple_impl.10"* %0, %"struct.std::_Tuple_impl.10"** %2, align 8
  call void @llvm.dbg.declare(metadata %"struct.std::_Tuple_impl.10"** %2, metadata !4628, metadata !2768), !dbg !4629
  %3 = load %"struct.std::_Tuple_impl.10"*, %"struct.std::_Tuple_impl.10"** %2, align 8, !dbg !4630
  %4 = bitcast %"struct.std::_Tuple_impl.10"* %3 to i8*, !dbg !4630
  %5 = getelementptr inbounds i8, i8* %4, i64 8, !dbg !4630
  %6 = bitcast i8* %5 to %"struct.std::_Head_base.13"*, !dbg !4630
  %7 = call dereferenceable(16) %"struct.std::_Mem_fn.14"* @_ZNSt10_Head_baseILm0ESt7_Mem_fnIMN9fibonacci7Thread1EFvvEELb0EE7_M_headERS6_(%"struct.std::_Head_base.13"* dereferenceable(16) %6) #3, !dbg !4631
  ret %"struct.std::_Mem_fn.14"* %7, !dbg !4632
}

; Function Attrs: nounwind uwtable
define linkonce_odr void @_ZNSt10_Head_baseILm0ESt7_Mem_fnIMN9fibonacci7Thread1EFvvEELb0EEC2IS5_EEOT_(%"struct.std::_Head_base.13"*, %"struct.std::_Mem_fn.14"* dereferenceable(16)) unnamed_addr #4 comdat align 2 !dbg !4633 {
  %3 = alloca %"struct.std::_Head_base.13"*, align 8
  %4 = alloca %"struct.std::_Mem_fn.14"*, align 8
  store %"struct.std::_Head_base.13"* %0, %"struct.std::_Head_base.13"** %3, align 8
  call void @llvm.dbg.declare(metadata %"struct.std::_Head_base.13"** %3, metadata !4639, metadata !2768), !dbg !4641
  store %"struct.std::_Mem_fn.14"* %1, %"struct.std::_Mem_fn.14"** %4, align 8
  call void @llvm.dbg.declare(metadata %"struct.std::_Mem_fn.14"** %4, metadata !4642, metadata !2768), !dbg !4643
  %5 = load %"struct.std::_Head_base.13"*, %"struct.std::_Head_base.13"** %3, align 8
  %6 = getelementptr inbounds %"struct.std::_Head_base.13", %"struct.std::_Head_base.13"* %5, i32 0, i32 0, !dbg !4644
  %7 = load %"struct.std::_Mem_fn.14"*, %"struct.std::_Mem_fn.14"** %4, align 8, !dbg !4645
  %8 = call dereferenceable(16) %"struct.std::_Mem_fn.14"* @_ZSt7forwardISt7_Mem_fnIMN9fibonacci7Thread1EFvvEEEOT_RNSt16remove_referenceIS6_E4typeE(%"struct.std::_Mem_fn.14"* dereferenceable(16) %7) #3, !dbg !4646
  %9 = bitcast %"struct.std::_Mem_fn.14"* %6 to i8*, !dbg !4644
  %10 = bitcast %"struct.std::_Mem_fn.14"* %8 to i8*, !dbg !4644
  call void @llvm.memcpy.p0i8.p0i8.i64(i8* %9, i8* %10, i64 16, i32 8, i1 false), !dbg !4647
  ret void, !dbg !4649
}

; Function Attrs: nounwind uwtable
define linkonce_odr dereferenceable(8) %"class.fibonacci::Thread1"** @_ZNSt11_Tuple_implILm1EJPN9fibonacci7Thread1EEE7_M_headERS3_(%"struct.std::_Tuple_impl.11"* dereferenceable(8)) #4 comdat align 2 !dbg !4650 {
  %2 = alloca %"struct.std::_Tuple_impl.11"*, align 8
  store %"struct.std::_Tuple_impl.11"* %0, %"struct.std::_Tuple_impl.11"** %2, align 8
  call void @llvm.dbg.declare(metadata %"struct.std::_Tuple_impl.11"** %2, metadata !4651, metadata !2768), !dbg !4652
  %3 = load %"struct.std::_Tuple_impl.11"*, %"struct.std::_Tuple_impl.11"** %2, align 8, !dbg !4653
  %4 = bitcast %"struct.std::_Tuple_impl.11"* %3 to %"struct.std::_Head_base.12"*, !dbg !4653
  %5 = call dereferenceable(8) %"class.fibonacci::Thread1"** @_ZNSt10_Head_baseILm1EPN9fibonacci7Thread1ELb0EE7_M_headERS3_(%"struct.std::_Head_base.12"* dereferenceable(8) %4) #3, !dbg !4654
  ret %"class.fibonacci::Thread1"** %5, !dbg !4655
}

; Function Attrs: nounwind uwtable
define linkonce_odr void @_ZNSt10_Head_baseILm1EPN9fibonacci7Thread1ELb0EEC2IS2_EEOT_(%"struct.std::_Head_base.12"*, %"class.fibonacci::Thread1"** dereferenceable(8)) unnamed_addr #4 comdat align 2 !dbg !4656 {
  %3 = alloca %"struct.std::_Head_base.12"*, align 8
  %4 = alloca %"class.fibonacci::Thread1"**, align 8
  store %"struct.std::_Head_base.12"* %0, %"struct.std::_Head_base.12"** %3, align 8
  call void @llvm.dbg.declare(metadata %"struct.std::_Head_base.12"** %3, metadata !4662, metadata !2768), !dbg !4664
  store %"class.fibonacci::Thread1"** %1, %"class.fibonacci::Thread1"*** %4, align 8
  call void @llvm.dbg.declare(metadata %"class.fibonacci::Thread1"*** %4, metadata !4665, metadata !2768), !dbg !4666
  %5 = load %"struct.std::_Head_base.12"*, %"struct.std::_Head_base.12"** %3, align 8
  %6 = getelementptr inbounds %"struct.std::_Head_base.12", %"struct.std::_Head_base.12"* %5, i32 0, i32 0, !dbg !4667
  %7 = load %"class.fibonacci::Thread1"**, %"class.fibonacci::Thread1"*** %4, align 8, !dbg !4668
  %8 = call dereferenceable(8) %"class.fibonacci::Thread1"** @_ZSt7forwardIPN9fibonacci7Thread1EEOT_RNSt16remove_referenceIS3_E4typeE(%"class.fibonacci::Thread1"** dereferenceable(8) %7) #3, !dbg !4669
  %9 = load %"class.fibonacci::Thread1"*, %"class.fibonacci::Thread1"** %8, align 8, !dbg !4669
  store %"class.fibonacci::Thread1"* %9, %"class.fibonacci::Thread1"** %6, align 8, !dbg !4667
  ret void, !dbg !4670
}

; Function Attrs: nounwind uwtable
define linkonce_odr dereferenceable(8) %"class.fibonacci::Thread1"** @_ZNSt10_Head_baseILm1EPN9fibonacci7Thread1ELb0EE7_M_headERS3_(%"struct.std::_Head_base.12"* dereferenceable(8)) #4 comdat align 2 !dbg !4671 {
  %2 = alloca %"struct.std::_Head_base.12"*, align 8
  store %"struct.std::_Head_base.12"* %0, %"struct.std::_Head_base.12"** %2, align 8
  call void @llvm.dbg.declare(metadata %"struct.std::_Head_base.12"** %2, metadata !4672, metadata !2768), !dbg !4673
  %3 = load %"struct.std::_Head_base.12"*, %"struct.std::_Head_base.12"** %2, align 8, !dbg !4674
  %4 = getelementptr inbounds %"struct.std::_Head_base.12", %"struct.std::_Head_base.12"* %3, i32 0, i32 0, !dbg !4675
  ret %"class.fibonacci::Thread1"** %4, !dbg !4676
}

; Function Attrs: nounwind uwtable
define linkonce_odr dereferenceable(16) %"struct.std::_Mem_fn.14"* @_ZNSt10_Head_baseILm0ESt7_Mem_fnIMN9fibonacci7Thread1EFvvEELb0EE7_M_headERS6_(%"struct.std::_Head_base.13"* dereferenceable(16)) #4 comdat align 2 !dbg !4677 {
  %2 = alloca %"struct.std::_Head_base.13"*, align 8
  store %"struct.std::_Head_base.13"* %0, %"struct.std::_Head_base.13"** %2, align 8
  call void @llvm.dbg.declare(metadata %"struct.std::_Head_base.13"** %2, metadata !4678, metadata !2768), !dbg !4679
  %3 = load %"struct.std::_Head_base.13"*, %"struct.std::_Head_base.13"** %2, align 8, !dbg !4680
  %4 = getelementptr inbounds %"struct.std::_Head_base.13", %"struct.std::_Head_base.13"* %3, i32 0, i32 0, !dbg !4681
  ret %"struct.std::_Mem_fn.14"* %4, !dbg !4682
}

; Function Attrs: uwtable
define linkonce_odr void @_ZNSt12_Bind_simpleIFSt7_Mem_fnIMN9fibonacci7Thread1EFvvEEPS2_EEclEv(%"struct.std::_Bind_simple.8"*) #0 comdat align 2 !dbg !4683 {
  %2 = alloca %"struct.std::_Bind_simple.8"*, align 8
  %3 = alloca %"struct.std::_Index_tuple", align 1
  store %"struct.std::_Bind_simple.8"* %0, %"struct.std::_Bind_simple.8"** %2, align 8
  call void @llvm.dbg.declare(metadata %"struct.std::_Bind_simple.8"** %2, metadata !4684, metadata !2768), !dbg !4685
  %4 = load %"struct.std::_Bind_simple.8"*, %"struct.std::_Bind_simple.8"** %2, align 8
  call void @_ZNSt12_Bind_simpleIFSt7_Mem_fnIMN9fibonacci7Thread1EFvvEEPS2_EE9_M_invokeIJLm0EEEEvSt12_Index_tupleIJXspT_EEE(%"struct.std::_Bind_simple.8"* %4), !dbg !4686
  ret void, !dbg !4687
}

; Function Attrs: uwtable
define linkonce_odr void @_ZNSt12_Bind_simpleIFSt7_Mem_fnIMN9fibonacci7Thread1EFvvEEPS2_EE9_M_invokeIJLm0EEEEvSt12_Index_tupleIJXspT_EEE(%"struct.std::_Bind_simple.8"*) #0 comdat align 2 !dbg !4688 {
  %2 = alloca %"struct.std::_Index_tuple", align 1
  %3 = alloca %"struct.std::_Bind_simple.8"*, align 8
  store %"struct.std::_Bind_simple.8"* %0, %"struct.std::_Bind_simple.8"** %3, align 8
  call void @llvm.dbg.declare(metadata %"struct.std::_Bind_simple.8"** %3, metadata !4692, metadata !2768), !dbg !4693
  call void @llvm.dbg.declare(metadata %"struct.std::_Index_tuple"* %2, metadata !4694, metadata !2768), !dbg !4695
  %4 = load %"struct.std::_Bind_simple.8"*, %"struct.std::_Bind_simple.8"** %3, align 8
  %5 = getelementptr inbounds %"struct.std::_Bind_simple.8", %"struct.std::_Bind_simple.8"* %4, i32 0, i32 0, !dbg !4696
  %6 = call dereferenceable(16) %"struct.std::_Mem_fn.14"* @_ZSt3getILm0EJSt7_Mem_fnIMN9fibonacci7Thread1EFvvEEPS2_EERNSt13tuple_elementIXT_ESt5tupleIJDpT0_EEE4typeERSB_(%"class.std::tuple.9"* dereferenceable(24) %5) #3, !dbg !4697
  %7 = call dereferenceable(16) %"struct.std::_Mem_fn.14"* @_ZSt7forwardISt7_Mem_fnIMN9fibonacci7Thread1EFvvEEEOT_RNSt16remove_referenceIS6_E4typeE(%"struct.std::_Mem_fn.14"* dereferenceable(16) %6) #3, !dbg !4698
  %8 = bitcast %"struct.std::_Mem_fn.14"* %7 to %"class.std::_Mem_fn_base.15"*, !dbg !4700
  %9 = getelementptr inbounds %"struct.std::_Bind_simple.8", %"struct.std::_Bind_simple.8"* %4, i32 0, i32 0, !dbg !4701
  %10 = call dereferenceable(8) %"class.fibonacci::Thread1"** @_ZSt3getILm1EJSt7_Mem_fnIMN9fibonacci7Thread1EFvvEEPS2_EERNSt13tuple_elementIXT_ESt5tupleIJDpT0_EEE4typeERSB_(%"class.std::tuple.9"* dereferenceable(24) %9) #3, !dbg !4702
  %11 = call dereferenceable(8) %"class.fibonacci::Thread1"** @_ZSt7forwardIPN9fibonacci7Thread1EEOT_RNSt16remove_referenceIS3_E4typeE(%"class.fibonacci::Thread1"** dereferenceable(8) %10) #3, !dbg !4703
  call void @_ZNKSt12_Mem_fn_baseIMN9fibonacci7Thread1EFvvELb1EEclIJPS1_EEEDTclsr3stdE8__invokedtdefpT6_M_pmfspclsr3stdE7forwardIT_Efp_EEEDpOS7_(%"class.std::_Mem_fn_base.15"* %8, %"class.fibonacci::Thread1"** dereferenceable(8) %11), !dbg !4704
  ret void, !dbg !4706
}

; Function Attrs: nounwind uwtable
define linkonce_odr dereferenceable(16) %"struct.std::_Mem_fn.14"* @_ZSt3getILm0EJSt7_Mem_fnIMN9fibonacci7Thread1EFvvEEPS2_EERNSt13tuple_elementIXT_ESt5tupleIJDpT0_EEE4typeERSB_(%"class.std::tuple.9"* dereferenceable(24)) #4 comdat !dbg !4707 {
  %2 = alloca %"class.std::tuple.9"*, align 8
  store %"class.std::tuple.9"* %0, %"class.std::tuple.9"** %2, align 8
  call void @llvm.dbg.declare(metadata %"class.std::tuple.9"** %2, metadata !4717, metadata !2768), !dbg !4718
  %3 = load %"class.std::tuple.9"*, %"class.std::tuple.9"** %2, align 8, !dbg !4719
  %4 = bitcast %"class.std::tuple.9"* %3 to %"struct.std::_Tuple_impl.10"*, !dbg !4719
  %5 = call dereferenceable(16) %"struct.std::_Mem_fn.14"* @_ZSt12__get_helperILm0ESt7_Mem_fnIMN9fibonacci7Thread1EFvvEEJPS2_EERT0_RSt11_Tuple_implIXT_EJS7_DpT1_EE(%"struct.std::_Tuple_impl.10"* dereferenceable(24) %4) #3, !dbg !4720
  ret %"struct.std::_Mem_fn.14"* %5, !dbg !4721
}

; Function Attrs: uwtable
define linkonce_odr void @_ZNKSt12_Mem_fn_baseIMN9fibonacci7Thread1EFvvELb1EEclIJPS1_EEEDTclsr3stdE8__invokedtdefpT6_M_pmfspclsr3stdE7forwardIT_Efp_EEEDpOS7_(%"class.std::_Mem_fn_base.15"*, %"class.fibonacci::Thread1"** dereferenceable(8)) #0 comdat align 2 !dbg !4722 {
  %3 = alloca %"class.std::_Mem_fn_base.15"*, align 8
  %4 = alloca %"class.fibonacci::Thread1"**, align 8
  store %"class.std::_Mem_fn_base.15"* %0, %"class.std::_Mem_fn_base.15"** %3, align 8
  call void @llvm.dbg.declare(metadata %"class.std::_Mem_fn_base.15"** %3, metadata !4729, metadata !2768), !dbg !4731
  store %"class.fibonacci::Thread1"** %1, %"class.fibonacci::Thread1"*** %4, align 8
  call void @llvm.dbg.declare(metadata %"class.fibonacci::Thread1"*** %4, metadata !4732, metadata !2768), !dbg !4733
  %5 = load %"class.std::_Mem_fn_base.15"*, %"class.std::_Mem_fn_base.15"** %3, align 8
  %6 = getelementptr inbounds %"class.std::_Mem_fn_base.15", %"class.std::_Mem_fn_base.15"* %5, i32 0, i32 0, !dbg !4734
  %7 = load %"class.fibonacci::Thread1"**, %"class.fibonacci::Thread1"*** %4, align 8, !dbg !4735
  %8 = call dereferenceable(8) %"class.fibonacci::Thread1"** @_ZSt7forwardIPN9fibonacci7Thread1EEOT_RNSt16remove_referenceIS3_E4typeE(%"class.fibonacci::Thread1"** dereferenceable(8) %7) #3, !dbg !4736
  call void @_ZSt8__invokeIRKMN9fibonacci7Thread1EFvvEJPS1_EENSt9result_ofIFOT_DpOT0_EE4typeES9_SC_({ i64, i64 }* dereferenceable(16) %6, %"class.fibonacci::Thread1"** dereferenceable(8) %8), !dbg !4737
  ret void, !dbg !4739
}

; Function Attrs: nounwind uwtable
define linkonce_odr dereferenceable(8) %"class.fibonacci::Thread1"** @_ZSt3getILm1EJSt7_Mem_fnIMN9fibonacci7Thread1EFvvEEPS2_EERNSt13tuple_elementIXT_ESt5tupleIJDpT0_EEE4typeERSB_(%"class.std::tuple.9"* dereferenceable(24)) #4 comdat !dbg !4740 {
  %2 = alloca %"class.std::tuple.9"*, align 8
  store %"class.std::tuple.9"* %0, %"class.std::tuple.9"** %2, align 8
  call void @llvm.dbg.declare(metadata %"class.std::tuple.9"** %2, metadata !4751, metadata !2768), !dbg !4752
  %3 = load %"class.std::tuple.9"*, %"class.std::tuple.9"** %2, align 8, !dbg !4753
  %4 = bitcast %"class.std::tuple.9"* %3 to %"struct.std::_Tuple_impl.11"*, !dbg !4753
  %5 = call dereferenceable(8) %"class.fibonacci::Thread1"** @_ZSt12__get_helperILm1EPN9fibonacci7Thread1EJEERT0_RSt11_Tuple_implIXT_EJS3_DpT1_EE(%"struct.std::_Tuple_impl.11"* dereferenceable(8) %4) #3, !dbg !4754
  ret %"class.fibonacci::Thread1"** %5, !dbg !4755
}

; Function Attrs: nounwind uwtable
define linkonce_odr dereferenceable(16) %"struct.std::_Mem_fn.14"* @_ZSt12__get_helperILm0ESt7_Mem_fnIMN9fibonacci7Thread1EFvvEEJPS2_EERT0_RSt11_Tuple_implIXT_EJS7_DpT1_EE(%"struct.std::_Tuple_impl.10"* dereferenceable(24)) #4 comdat !dbg !4756 {
  %2 = alloca %"struct.std::_Tuple_impl.10"*, align 8
  store %"struct.std::_Tuple_impl.10"* %0, %"struct.std::_Tuple_impl.10"** %2, align 8
  call void @llvm.dbg.declare(metadata %"struct.std::_Tuple_impl.10"** %2, metadata !4759, metadata !2768), !dbg !4760
  %3 = load %"struct.std::_Tuple_impl.10"*, %"struct.std::_Tuple_impl.10"** %2, align 8, !dbg !4761
  %4 = call dereferenceable(16) %"struct.std::_Mem_fn.14"* @_ZNSt11_Tuple_implILm0EJSt7_Mem_fnIMN9fibonacci7Thread1EFvvEEPS2_EE7_M_headERS7_(%"struct.std::_Tuple_impl.10"* dereferenceable(24) %3) #3, !dbg !4762
  ret %"struct.std::_Mem_fn.14"* %4, !dbg !4763
}

; Function Attrs: inlinehint uwtable
define linkonce_odr void @_ZSt8__invokeIRKMN9fibonacci7Thread1EFvvEJPS1_EENSt9result_ofIFOT_DpOT0_EE4typeES9_SC_({ i64, i64 }* dereferenceable(16), %"class.fibonacci::Thread1"** dereferenceable(8)) #13 comdat !dbg !534 {
  %3 = alloca { i64, i64 }*, align 8
  %4 = alloca %"class.fibonacci::Thread1"**, align 8
  %5 = alloca %"struct.std::__invoke_memfun_deref", align 1
  store { i64, i64 }* %0, { i64, i64 }** %3, align 8
  call void @llvm.dbg.declare(metadata { i64, i64 }** %3, metadata !4764, metadata !2768), !dbg !4765
  store %"class.fibonacci::Thread1"** %1, %"class.fibonacci::Thread1"*** %4, align 8
  call void @llvm.dbg.declare(metadata %"class.fibonacci::Thread1"*** %4, metadata !4766, metadata !2768), !dbg !4767
  %6 = load { i64, i64 }*, { i64, i64 }** %3, align 8, !dbg !4768
  %7 = call dereferenceable(16) { i64, i64 }* @_ZSt7forwardIRKMN9fibonacci7Thread1EFvvEEOT_RNSt16remove_referenceIS6_E4typeE({ i64, i64 }* dereferenceable(16) %6) #3, !dbg !4769
  %8 = load %"class.fibonacci::Thread1"**, %"class.fibonacci::Thread1"*** %4, align 8, !dbg !4770
  %9 = call dereferenceable(8) %"class.fibonacci::Thread1"** @_ZSt7forwardIPN9fibonacci7Thread1EEOT_RNSt16remove_referenceIS3_E4typeE(%"class.fibonacci::Thread1"** dereferenceable(8) %8) #3, !dbg !4771
  call void @_ZSt13__invoke_implIvRKMN9fibonacci7Thread1EFvvEPS1_JEET_St21__invoke_memfun_derefOT0_OT1_DpOT2_({ i64, i64 }* dereferenceable(16) %7, %"class.fibonacci::Thread1"** dereferenceable(8) %9), !dbg !4772
  ret void, !dbg !4774
}

; Function Attrs: inlinehint uwtable
define linkonce_odr void @_ZSt13__invoke_implIvRKMN9fibonacci7Thread1EFvvEPS1_JEET_St21__invoke_memfun_derefOT0_OT1_DpOT2_({ i64, i64 }* dereferenceable(16), %"class.fibonacci::Thread1"** dereferenceable(8)) #13 comdat !dbg !4775 {
  %3 = alloca %"struct.std::__invoke_memfun_deref", align 1
  %4 = alloca { i64, i64 }*, align 8
  %5 = alloca %"class.fibonacci::Thread1"**, align 8
  call void @llvm.dbg.declare(metadata %"struct.std::__invoke_memfun_deref"* %3, metadata !4780, metadata !2768), !dbg !4781
  store { i64, i64 }* %0, { i64, i64 }** %4, align 8
  call void @llvm.dbg.declare(metadata { i64, i64 }** %4, metadata !4782, metadata !2768), !dbg !4783
  store %"class.fibonacci::Thread1"** %1, %"class.fibonacci::Thread1"*** %5, align 8
  call void @llvm.dbg.declare(metadata %"class.fibonacci::Thread1"*** %5, metadata !4784, metadata !2768), !dbg !4785
  %6 = load { i64, i64 }*, { i64, i64 }** %4, align 8, !dbg !4786
  %7 = load { i64, i64 }, { i64, i64 }* %6, align 8, !dbg !4786
  %8 = load %"class.fibonacci::Thread1"**, %"class.fibonacci::Thread1"*** %5, align 8, !dbg !4787
  %9 = call dereferenceable(8) %"class.fibonacci::Thread1"** @_ZSt7forwardIPN9fibonacci7Thread1EEOT_RNSt16remove_referenceIS3_E4typeE(%"class.fibonacci::Thread1"** dereferenceable(8) %8) #3, !dbg !4788
  %10 = load %"class.fibonacci::Thread1"*, %"class.fibonacci::Thread1"** %9, align 8, !dbg !4788
  %11 = extractvalue { i64, i64 } %7, 1, !dbg !4789
  %12 = bitcast %"class.fibonacci::Thread1"* %10 to i8*, !dbg !4789
  %13 = getelementptr inbounds i8, i8* %12, i64 %11, !dbg !4789
  %14 = bitcast i8* %13 to %"class.fibonacci::Thread1"*, !dbg !4789
  %15 = extractvalue { i64, i64 } %7, 0, !dbg !4789
  %16 = and i64 %15, 1, !dbg !4789
  %17 = icmp ne i64 %16, 0, !dbg !4789
  br i1 %17, label %18, label %25, !dbg !4789

; <label>:18:                                     ; preds = %2
  %19 = bitcast %"class.fibonacci::Thread1"* %14 to i8**, !dbg !4790
  %20 = load i8*, i8** %19, align 8, !dbg !4790
  %21 = sub i64 %15, 1, !dbg !4790
  %22 = getelementptr i8, i8* %20, i64 %21, !dbg !4790
  %23 = bitcast i8* %22 to void (%"class.fibonacci::Thread1"*)**, !dbg !4790
  %24 = load void (%"class.fibonacci::Thread1"*)*, void (%"class.fibonacci::Thread1"*)** %23, align 8, !dbg !4790
  br label %27, !dbg !4790

; <label>:25:                                     ; preds = %2
  %26 = inttoptr i64 %15 to void (%"class.fibonacci::Thread1"*)*, !dbg !4792
  br label %27, !dbg !4792

; <label>:27:                                     ; preds = %25, %18
  %28 = phi void (%"class.fibonacci::Thread1"*)* [ %24, %18 ], [ %26, %25 ], !dbg !4794
  call void %28(%"class.fibonacci::Thread1"* %14), !dbg !4794
  ret void, !dbg !4796
}

; Function Attrs: nounwind uwtable
define linkonce_odr dereferenceable(16) { i64, i64 }* @_ZSt7forwardIRKMN9fibonacci7Thread1EFvvEEOT_RNSt16remove_referenceIS6_E4typeE({ i64, i64 }* dereferenceable(16)) #4 comdat !dbg !4797 {
  %2 = alloca { i64, i64 }*, align 8
  store { i64, i64 }* %0, { i64, i64 }** %2, align 8
  call void @llvm.dbg.declare(metadata { i64, i64 }** %2, metadata !4805, metadata !2768), !dbg !4806
  %3 = load { i64, i64 }*, { i64, i64 }** %2, align 8, !dbg !4807
  ret { i64, i64 }* %3, !dbg !4808
}

; Function Attrs: nounwind uwtable
define linkonce_odr dereferenceable(8) %"class.fibonacci::Thread1"** @_ZSt12__get_helperILm1EPN9fibonacci7Thread1EJEERT0_RSt11_Tuple_implIXT_EJS3_DpT1_EE(%"struct.std::_Tuple_impl.11"* dereferenceable(8)) #4 comdat !dbg !4809 {
  %2 = alloca %"struct.std::_Tuple_impl.11"*, align 8
  store %"struct.std::_Tuple_impl.11"* %0, %"struct.std::_Tuple_impl.11"** %2, align 8
  call void @llvm.dbg.declare(metadata %"struct.std::_Tuple_impl.11"** %2, metadata !4811, metadata !2768), !dbg !4812
  %3 = load %"struct.std::_Tuple_impl.11"*, %"struct.std::_Tuple_impl.11"** %2, align 8, !dbg !4813
  %4 = call dereferenceable(8) %"class.fibonacci::Thread1"** @_ZNSt11_Tuple_implILm1EJPN9fibonacci7Thread1EEE7_M_headERS3_(%"struct.std::_Tuple_impl.11"* dereferenceable(8) %3) #3, !dbg !4814
  ret %"class.fibonacci::Thread1"** %4, !dbg !4815
}

; Function Attrs: nounwind uwtable
define linkonce_odr { i64, i64 } @_ZNSt26_Maybe_wrap_member_pointerIMN9fibonacci7Thread1EFvvEE9__do_wrapES3_(i64, i64) #4 comdat align 2 !dbg !4816 {
  %3 = alloca %"struct.std::_Mem_fn.14", align 8
  %4 = alloca { i64, i64 }, align 8
  %5 = alloca { i64, i64 }, align 8
  %6 = alloca { i64, i64 }, align 8
  %7 = getelementptr inbounds { i64, i64 }, { i64, i64 }* %4, i32 0, i32 0
  store i64 %0, i64* %7, align 8
  %8 = getelementptr inbounds { i64, i64 }, { i64, i64 }* %4, i32 0, i32 1
  store i64 %1, i64* %8, align 8
  %9 = load { i64, i64 }, { i64, i64 }* %4, align 8
  store { i64, i64 } %9, { i64, i64 }* %5, align 8
  call void @llvm.dbg.declare(metadata { i64, i64 }* %5, metadata !4817, metadata !2768), !dbg !4818
  %10 = load { i64, i64 }, { i64, i64 }* %5, align 8, !dbg !4819
  store { i64, i64 } %10, { i64, i64 }* %6, align 8, !dbg !4820
  %11 = getelementptr inbounds { i64, i64 }, { i64, i64 }* %6, i32 0, i32 0, !dbg !4820
  %12 = load i64, i64* %11, align 8, !dbg !4820
  %13 = getelementptr inbounds { i64, i64 }, { i64, i64 }* %6, i32 0, i32 1, !dbg !4820
  %14 = load i64, i64* %13, align 8, !dbg !4820
  call void @_ZNSt7_Mem_fnIMN9fibonacci7Thread1EFvvEECI2St12_Mem_fn_baseIS3_Lb1EEES3_(%"struct.std::_Mem_fn.14"* %3, i64 %12, i64 %14) #3, !dbg !4820
  %15 = getelementptr inbounds %"struct.std::_Mem_fn.14", %"struct.std::_Mem_fn.14"* %3, i32 0, i32 0, !dbg !4821
  %16 = getelementptr inbounds %"class.std::_Mem_fn_base.15", %"class.std::_Mem_fn_base.15"* %15, i32 0, i32 0, !dbg !4821
  %17 = load { i64, i64 }, { i64, i64 }* %16, align 8, !dbg !4821
  ret { i64, i64 } %17, !dbg !4821
}

; Function Attrs: uwtable
define linkonce_odr void @_ZNSt12_Bind_simpleIFSt7_Mem_fnIMN9fibonacci7Thread1EFvvEEPS2_EEC2IS5_JS6_EEEOT_DpOT0_(%"struct.std::_Bind_simple.8"*, %"struct.std::_Mem_fn.14"* dereferenceable(16), %"class.fibonacci::Thread1"** dereferenceable(8)) unnamed_addr #0 comdat align 2 !dbg !4822 {
  %4 = alloca %"struct.std::_Bind_simple.8"*, align 8
  %5 = alloca %"struct.std::_Mem_fn.14"*, align 8
  %6 = alloca %"class.fibonacci::Thread1"**, align 8
  store %"struct.std::_Bind_simple.8"* %0, %"struct.std::_Bind_simple.8"** %4, align 8
  call void @llvm.dbg.declare(metadata %"struct.std::_Bind_simple.8"** %4, metadata !4828, metadata !2768), !dbg !4829
  store %"struct.std::_Mem_fn.14"* %1, %"struct.std::_Mem_fn.14"** %5, align 8
  call void @llvm.dbg.declare(metadata %"struct.std::_Mem_fn.14"** %5, metadata !4830, metadata !2768), !dbg !4831
  store %"class.fibonacci::Thread1"** %2, %"class.fibonacci::Thread1"*** %6, align 8
  call void @llvm.dbg.declare(metadata %"class.fibonacci::Thread1"*** %6, metadata !4832, metadata !2768), !dbg !4833
  %7 = load %"struct.std::_Bind_simple.8"*, %"struct.std::_Bind_simple.8"** %4, align 8
  %8 = getelementptr inbounds %"struct.std::_Bind_simple.8", %"struct.std::_Bind_simple.8"* %7, i32 0, i32 0, !dbg !4834
  %9 = load %"struct.std::_Mem_fn.14"*, %"struct.std::_Mem_fn.14"** %5, align 8, !dbg !4835
  %10 = call dereferenceable(16) %"struct.std::_Mem_fn.14"* @_ZSt7forwardISt7_Mem_fnIMN9fibonacci7Thread1EFvvEEEOT_RNSt16remove_referenceIS6_E4typeE(%"struct.std::_Mem_fn.14"* dereferenceable(16) %9) #3, !dbg !4836
  %11 = load %"class.fibonacci::Thread1"**, %"class.fibonacci::Thread1"*** %6, align 8, !dbg !4837
  %12 = call dereferenceable(8) %"class.fibonacci::Thread1"** @_ZSt7forwardIPN9fibonacci7Thread1EEOT_RNSt16remove_referenceIS3_E4typeE(%"class.fibonacci::Thread1"** dereferenceable(8) %11) #3, !dbg !4838
  call void @_ZNSt5tupleIJSt7_Mem_fnIMN9fibonacci7Thread1EFvvEEPS2_EEC2IS5_S6_Lb1EEEOT_OT0_(%"class.std::tuple.9"* %8, %"struct.std::_Mem_fn.14"* dereferenceable(16) %10, %"class.fibonacci::Thread1"** dereferenceable(8) %12), !dbg !4840
  ret void, !dbg !4842
}

; Function Attrs: inlinehint nounwind uwtable
define linkonce_odr void @_ZNSt7_Mem_fnIMN9fibonacci7Thread1EFvvEECI2St12_Mem_fn_baseIS3_Lb1EEES3_(%"struct.std::_Mem_fn.14"*, i64, i64) unnamed_addr #7 comdat align 2 !dbg !4843 {
  %4 = alloca { i64, i64 }, align 8
  %5 = alloca %"struct.std::_Mem_fn.14"*, align 8
  %6 = alloca { i64, i64 }, align 8
  %7 = alloca { i64, i64 }, align 8
  %8 = getelementptr inbounds { i64, i64 }, { i64, i64 }* %4, i32 0, i32 0
  store i64 %1, i64* %8, align 8
  %9 = getelementptr inbounds { i64, i64 }, { i64, i64 }* %4, i32 0, i32 1
  store i64 %2, i64* %9, align 8
  %10 = load { i64, i64 }, { i64, i64 }* %4, align 8
  store %"struct.std::_Mem_fn.14"* %0, %"struct.std::_Mem_fn.14"** %5, align 8
  call void @llvm.dbg.declare(metadata %"struct.std::_Mem_fn.14"** %5, metadata !4848, metadata !2768), !dbg !4850
  store { i64, i64 } %10, { i64, i64 }* %6, align 8
  call void @llvm.dbg.declare(metadata { i64, i64 }* %6, metadata !4851, metadata !2768), !dbg !4850
  %11 = load %"struct.std::_Mem_fn.14"*, %"struct.std::_Mem_fn.14"** %5, align 8
  %12 = bitcast %"struct.std::_Mem_fn.14"* %11 to %"class.std::_Mem_fn_base.15"*, !dbg !4852
  %13 = load { i64, i64 }, { i64, i64 }* %6, align 8, !dbg !4852
  store { i64, i64 } %13, { i64, i64 }* %7, align 8, !dbg !4852
  %14 = getelementptr inbounds { i64, i64 }, { i64, i64 }* %7, i32 0, i32 0, !dbg !4852
  %15 = load i64, i64* %14, align 8, !dbg !4852
  %16 = getelementptr inbounds { i64, i64 }, { i64, i64 }* %7, i32 0, i32 1, !dbg !4852
  %17 = load i64, i64* %16, align 8, !dbg !4852
  call void @_ZNSt12_Mem_fn_baseIMN9fibonacci7Thread1EFvvELb1EEC2ES3_(%"class.std::_Mem_fn_base.15"* %12, i64 %15, i64 %17) #3, !dbg !4852
  ret void, !dbg !4852
}

; Function Attrs: nounwind uwtable
define linkonce_odr void @_ZNSt12_Mem_fn_baseIMN9fibonacci7Thread1EFvvELb1EEC2ES3_(%"class.std::_Mem_fn_base.15"*, i64, i64) unnamed_addr #4 comdat align 2 !dbg !4853 {
  %4 = alloca { i64, i64 }, align 8
  %5 = alloca %"class.std::_Mem_fn_base.15"*, align 8
  %6 = alloca { i64, i64 }, align 8
  %7 = getelementptr inbounds { i64, i64 }, { i64, i64 }* %4, i32 0, i32 0
  store i64 %1, i64* %7, align 8
  %8 = getelementptr inbounds { i64, i64 }, { i64, i64 }* %4, i32 0, i32 1
  store i64 %2, i64* %8, align 8
  %9 = load { i64, i64 }, { i64, i64 }* %4, align 8
  store %"class.std::_Mem_fn_base.15"* %0, %"class.std::_Mem_fn_base.15"** %5, align 8
  call void @llvm.dbg.declare(metadata %"class.std::_Mem_fn_base.15"** %5, metadata !4854, metadata !2768), !dbg !4856
  store { i64, i64 } %9, { i64, i64 }* %6, align 8
  call void @llvm.dbg.declare(metadata { i64, i64 }* %6, metadata !4857, metadata !2768), !dbg !4858
  %10 = load %"class.std::_Mem_fn_base.15"*, %"class.std::_Mem_fn_base.15"** %5, align 8
  %11 = bitcast %"class.std::_Mem_fn_base.15"* %10 to %"struct.std::_Maybe_unary_or_binary_function.16"*, !dbg !4859
  %12 = getelementptr inbounds %"class.std::_Mem_fn_base.15", %"class.std::_Mem_fn_base.15"* %10, i32 0, i32 0, !dbg !4860
  %13 = load { i64, i64 }, { i64, i64 }* %6, align 8, !dbg !4861
  store { i64, i64 } %13, { i64, i64 }* %12, align 8, !dbg !4860
  ret void, !dbg !4862
}

; Function Attrs: uwtable
define linkonce_odr void @_ZNSt5tupleIJSt7_Mem_fnIMN9fibonacci7Thread1EFvvEEPS2_EEC2IS5_S6_Lb1EEEOT_OT0_(%"class.std::tuple.9"*, %"struct.std::_Mem_fn.14"* dereferenceable(16), %"class.fibonacci::Thread1"** dereferenceable(8)) unnamed_addr #0 comdat align 2 !dbg !4863 {
  %4 = alloca %"class.std::tuple.9"*, align 8
  %5 = alloca %"struct.std::_Mem_fn.14"*, align 8
  %6 = alloca %"class.fibonacci::Thread1"**, align 8
  store %"class.std::tuple.9"* %0, %"class.std::tuple.9"** %4, align 8
  call void @llvm.dbg.declare(metadata %"class.std::tuple.9"** %4, metadata !4870, metadata !2768), !dbg !4871
  store %"struct.std::_Mem_fn.14"* %1, %"struct.std::_Mem_fn.14"** %5, align 8
  call void @llvm.dbg.declare(metadata %"struct.std::_Mem_fn.14"** %5, metadata !4872, metadata !2768), !dbg !4873
  store %"class.fibonacci::Thread1"** %2, %"class.fibonacci::Thread1"*** %6, align 8
  call void @llvm.dbg.declare(metadata %"class.fibonacci::Thread1"*** %6, metadata !4874, metadata !2768), !dbg !4875
  %7 = load %"class.std::tuple.9"*, %"class.std::tuple.9"** %4, align 8
  %8 = bitcast %"class.std::tuple.9"* %7 to %"struct.std::_Tuple_impl.10"*, !dbg !4876
  %9 = load %"struct.std::_Mem_fn.14"*, %"struct.std::_Mem_fn.14"** %5, align 8, !dbg !4877
  %10 = call dereferenceable(16) %"struct.std::_Mem_fn.14"* @_ZSt7forwardISt7_Mem_fnIMN9fibonacci7Thread1EFvvEEEOT_RNSt16remove_referenceIS6_E4typeE(%"struct.std::_Mem_fn.14"* dereferenceable(16) %9) #3, !dbg !4878
  %11 = load %"class.fibonacci::Thread1"**, %"class.fibonacci::Thread1"*** %6, align 8, !dbg !4879
  %12 = call dereferenceable(8) %"class.fibonacci::Thread1"** @_ZSt7forwardIPN9fibonacci7Thread1EEOT_RNSt16remove_referenceIS3_E4typeE(%"class.fibonacci::Thread1"** dereferenceable(8) %11) #3, !dbg !4880
  call void @_ZNSt11_Tuple_implILm0EJSt7_Mem_fnIMN9fibonacci7Thread1EFvvEEPS2_EEC2IS5_JS6_EvEEOT_DpOT0_(%"struct.std::_Tuple_impl.10"* %8, %"struct.std::_Mem_fn.14"* dereferenceable(16) %10, %"class.fibonacci::Thread1"** dereferenceable(8) %12), !dbg !4882
  ret void, !dbg !4884
}

; Function Attrs: uwtable
define linkonce_odr void @_ZNSt11_Tuple_implILm0EJSt7_Mem_fnIMN9fibonacci7Thread1EFvvEEPS2_EEC2IS5_JS6_EvEEOT_DpOT0_(%"struct.std::_Tuple_impl.10"*, %"struct.std::_Mem_fn.14"* dereferenceable(16), %"class.fibonacci::Thread1"** dereferenceable(8)) unnamed_addr #0 comdat align 2 !dbg !4885 {
  %4 = alloca %"struct.std::_Tuple_impl.10"*, align 8
  %5 = alloca %"struct.std::_Mem_fn.14"*, align 8
  %6 = alloca %"class.fibonacci::Thread1"**, align 8
  store %"struct.std::_Tuple_impl.10"* %0, %"struct.std::_Tuple_impl.10"** %4, align 8
  call void @llvm.dbg.declare(metadata %"struct.std::_Tuple_impl.10"** %4, metadata !4891, metadata !2768), !dbg !4892
  store %"struct.std::_Mem_fn.14"* %1, %"struct.std::_Mem_fn.14"** %5, align 8
  call void @llvm.dbg.declare(metadata %"struct.std::_Mem_fn.14"** %5, metadata !4893, metadata !2768), !dbg !4894
  store %"class.fibonacci::Thread1"** %2, %"class.fibonacci::Thread1"*** %6, align 8
  call void @llvm.dbg.declare(metadata %"class.fibonacci::Thread1"*** %6, metadata !4895, metadata !2768), !dbg !4896
  %7 = load %"struct.std::_Tuple_impl.10"*, %"struct.std::_Tuple_impl.10"** %4, align 8
  %8 = bitcast %"struct.std::_Tuple_impl.10"* %7 to %"struct.std::_Tuple_impl.11"*, !dbg !4897
  %9 = load %"class.fibonacci::Thread1"**, %"class.fibonacci::Thread1"*** %6, align 8, !dbg !4898
  %10 = call dereferenceable(8) %"class.fibonacci::Thread1"** @_ZSt7forwardIPN9fibonacci7Thread1EEOT_RNSt16remove_referenceIS3_E4typeE(%"class.fibonacci::Thread1"** dereferenceable(8) %9) #3, !dbg !4899
  call void @_ZNSt11_Tuple_implILm1EJPN9fibonacci7Thread1EEEC2IS2_EEOT_(%"struct.std::_Tuple_impl.11"* %8, %"class.fibonacci::Thread1"** dereferenceable(8) %10), !dbg !4900
  %11 = bitcast %"struct.std::_Tuple_impl.10"* %7 to i8*, !dbg !4897
  %12 = getelementptr inbounds i8, i8* %11, i64 8, !dbg !4897
  %13 = bitcast i8* %12 to %"struct.std::_Head_base.13"*, !dbg !4897
  %14 = load %"struct.std::_Mem_fn.14"*, %"struct.std::_Mem_fn.14"** %5, align 8, !dbg !4902
  %15 = call dereferenceable(16) %"struct.std::_Mem_fn.14"* @_ZSt7forwardISt7_Mem_fnIMN9fibonacci7Thread1EFvvEEEOT_RNSt16remove_referenceIS6_E4typeE(%"struct.std::_Mem_fn.14"* dereferenceable(16) %14) #3, !dbg !4903
  call void @_ZNSt10_Head_baseILm0ESt7_Mem_fnIMN9fibonacci7Thread1EFvvEELb0EEC2IS5_EEOT_(%"struct.std::_Head_base.13"* %13, %"struct.std::_Mem_fn.14"* dereferenceable(16) %15), !dbg !4904
  ret void, !dbg !4905
}

; Function Attrs: nounwind uwtable
define linkonce_odr void @_ZNSt11_Tuple_implILm1EJPN9fibonacci7Thread1EEEC2IS2_EEOT_(%"struct.std::_Tuple_impl.11"*, %"class.fibonacci::Thread1"** dereferenceable(8)) unnamed_addr #4 comdat align 2 !dbg !4906 {
  %3 = alloca %"struct.std::_Tuple_impl.11"*, align 8
  %4 = alloca %"class.fibonacci::Thread1"**, align 8
  store %"struct.std::_Tuple_impl.11"* %0, %"struct.std::_Tuple_impl.11"** %3, align 8
  call void @llvm.dbg.declare(metadata %"struct.std::_Tuple_impl.11"** %3, metadata !4910, metadata !2768), !dbg !4911
  store %"class.fibonacci::Thread1"** %1, %"class.fibonacci::Thread1"*** %4, align 8
  call void @llvm.dbg.declare(metadata %"class.fibonacci::Thread1"*** %4, metadata !4912, metadata !2768), !dbg !4913
  %5 = load %"struct.std::_Tuple_impl.11"*, %"struct.std::_Tuple_impl.11"** %3, align 8
  %6 = bitcast %"struct.std::_Tuple_impl.11"* %5 to %"struct.std::_Head_base.12"*, !dbg !4914
  %7 = load %"class.fibonacci::Thread1"**, %"class.fibonacci::Thread1"*** %4, align 8, !dbg !4915
  %8 = call dereferenceable(8) %"class.fibonacci::Thread1"** @_ZSt7forwardIPN9fibonacci7Thread1EEOT_RNSt16remove_referenceIS3_E4typeE(%"class.fibonacci::Thread1"** dereferenceable(8) %7) #3, !dbg !4916
  call void @_ZNSt10_Head_baseILm1EPN9fibonacci7Thread1ELb0EEC2IS2_EEOT_(%"struct.std::_Head_base.12"* %6, %"class.fibonacci::Thread1"** dereferenceable(8) %8), !dbg !4917
  ret void, !dbg !4919
}

; Function Attrs: uwtable
define linkonce_odr void @_ZN9IrsThread4joinEv(%class.IrsThread*) #0 comdat align 2 !dbg !4920 {
  %2 = alloca %class.IrsThread*, align 8
  store %class.IrsThread* %0, %class.IrsThread** %2, align 8
  call void @llvm.dbg.declare(metadata %class.IrsThread** %2, metadata !4921, metadata !2768), !dbg !4922
  %3 = load %class.IrsThread*, %class.IrsThread** %2, align 8
  %4 = getelementptr inbounds %class.IrsThread, %class.IrsThread* %3, i32 0, i32 0, !dbg !4923
  %5 = call zeroext i1 @_ZNKSt6thread8joinableEv(%"class.std::thread"* %4) #3, !dbg !4925
  br i1 %5, label %6, label %8, !dbg !4926

; <label>:6:                                      ; preds = %1
  %7 = getelementptr inbounds %class.IrsThread, %class.IrsThread* %3, i32 0, i32 0, !dbg !4927
  call void @_ZNSt6thread4joinEv(%"class.std::thread"* %7), !dbg !4928
  br label %8, !dbg !4927

; <label>:8:                                      ; preds = %6, %1
  ret void, !dbg !4929
}

declare void @_ZNSt6thread4joinEv(%"class.std::thread"*) #1

; Function Attrs: uwtable
define linkonce_odr i64 @_ZNSt6chrono20__duration_cast_implINS_8durationIlSt5ratioILl1ELl1000000EEEES2_ILl1ELl1000EElLb1ELb0EE6__castIlS2_ILl1ELl1000000000EEEES4_RKNS1_IT_T0_EE(%"struct.std::chrono::duration"* dereferenceable(8)) #0 comdat align 2 !dbg !4930 {
  %2 = alloca %"struct.std::chrono::duration.0", align 8
  %3 = alloca %"struct.std::chrono::duration"*, align 8
  %4 = alloca i64, align 8
  store %"struct.std::chrono::duration"* %0, %"struct.std::chrono::duration"** %3, align 8
  call void @llvm.dbg.declare(metadata %"struct.std::chrono::duration"** %3, metadata !4940, metadata !2768), !dbg !4941
  %5 = load %"struct.std::chrono::duration"*, %"struct.std::chrono::duration"** %3, align 8, !dbg !4942
  %6 = call i64 @_ZNKSt6chrono8durationIlSt5ratioILl1ELl1000000000EEE5countEv(%"struct.std::chrono::duration"* %5), !dbg !4943
  %7 = sdiv i64 %6, 1000, !dbg !4944
  store i64 %7, i64* %4, align 8, !dbg !4945
  call void @_ZNSt6chrono8durationIlSt5ratioILl1ELl1000000EEEC2IlvEERKT_(%"struct.std::chrono::duration.0"* %2, i64* dereferenceable(8) %4), !dbg !4946
  %8 = getelementptr inbounds %"struct.std::chrono::duration.0", %"struct.std::chrono::duration.0"* %2, i32 0, i32 0, !dbg !4947
  %9 = load i64, i64* %8, align 8, !dbg !4947
  ret i64 %9, !dbg !4947
}

; Function Attrs: nounwind uwtable
define linkonce_odr i64 @_ZNKSt6chrono8durationIlSt5ratioILl1ELl1000000000EEE5countEv(%"struct.std::chrono::duration"*) #4 comdat align 2 !dbg !4948 {
  %2 = alloca %"struct.std::chrono::duration"*, align 8
  store %"struct.std::chrono::duration"* %0, %"struct.std::chrono::duration"** %2, align 8
  call void @llvm.dbg.declare(metadata %"struct.std::chrono::duration"** %2, metadata !4949, metadata !2768), !dbg !4951
  %3 = load %"struct.std::chrono::duration"*, %"struct.std::chrono::duration"** %2, align 8
  %4 = getelementptr inbounds %"struct.std::chrono::duration", %"struct.std::chrono::duration"* %3, i32 0, i32 0, !dbg !4952
  %5 = load i64, i64* %4, align 8, !dbg !4952
  ret i64 %5, !dbg !4953
}

; Function Attrs: nounwind uwtable
define linkonce_odr void @_ZNSt6chrono8durationIlSt5ratioILl1ELl1000000EEEC2IlvEERKT_(%"struct.std::chrono::duration.0"*, i64* dereferenceable(8)) unnamed_addr #4 comdat align 2 !dbg !4954 {
  %3 = alloca %"struct.std::chrono::duration.0"*, align 8
  %4 = alloca i64*, align 8
  store %"struct.std::chrono::duration.0"* %0, %"struct.std::chrono::duration.0"** %3, align 8
  call void @llvm.dbg.declare(metadata %"struct.std::chrono::duration.0"** %3, metadata !4961, metadata !2768), !dbg !4963
  store i64* %1, i64** %4, align 8
  call void @llvm.dbg.declare(metadata i64** %4, metadata !4964, metadata !2768), !dbg !4965
  %5 = load %"struct.std::chrono::duration.0"*, %"struct.std::chrono::duration.0"** %3, align 8
  %6 = getelementptr inbounds %"struct.std::chrono::duration.0", %"struct.std::chrono::duration.0"* %5, i32 0, i32 0, !dbg !4966
  %7 = load i64*, i64** %4, align 8, !dbg !4967
  %8 = load i64, i64* %7, align 8, !dbg !4967
  store i64 %8, i64* %6, align 8, !dbg !4966
  ret void, !dbg !4968
}

; Function Attrs: uwtable
define linkonce_odr i64 @_ZNSt6chronomiIlSt5ratioILl1ELl1000000000EElS2_EENSt11common_typeIJNS_8durationIT_T0_EENS4_IT1_T2_EEEE4typeERKS7_RKSA_(%"struct.std::chrono::duration"* dereferenceable(8), %"struct.std::chrono::duration"* dereferenceable(8)) #0 comdat !dbg !662 {
  %3 = alloca %"struct.std::chrono::duration", align 8
  %4 = alloca %"struct.std::chrono::duration"*, align 8
  %5 = alloca %"struct.std::chrono::duration"*, align 8
  %6 = alloca i64, align 8
  %7 = alloca %"struct.std::chrono::duration", align 8
  %8 = alloca %"struct.std::chrono::duration", align 8
  store %"struct.std::chrono::duration"* %0, %"struct.std::chrono::duration"** %4, align 8
  call void @llvm.dbg.declare(metadata %"struct.std::chrono::duration"** %4, metadata !4969, metadata !2768), !dbg !4970
  store %"struct.std::chrono::duration"* %1, %"struct.std::chrono::duration"** %5, align 8
  call void @llvm.dbg.declare(metadata %"struct.std::chrono::duration"** %5, metadata !4971, metadata !2768), !dbg !4972
  %9 = load %"struct.std::chrono::duration"*, %"struct.std::chrono::duration"** %4, align 8, !dbg !4973
  %10 = bitcast %"struct.std::chrono::duration"* %7 to i8*, !dbg !4974
  %11 = bitcast %"struct.std::chrono::duration"* %9 to i8*, !dbg !4974
  call void @llvm.memcpy.p0i8.p0i8.i64(i8* %10, i8* %11, i64 8, i32 8, i1 false), !dbg !4974
  %12 = call i64 @_ZNKSt6chrono8durationIlSt5ratioILl1ELl1000000000EEE5countEv(%"struct.std::chrono::duration"* %7), !dbg !4975
  %13 = load %"struct.std::chrono::duration"*, %"struct.std::chrono::duration"** %5, align 8, !dbg !4977
  %14 = bitcast %"struct.std::chrono::duration"* %8 to i8*, !dbg !4978
  %15 = bitcast %"struct.std::chrono::duration"* %13 to i8*, !dbg !4978
  call void @llvm.memcpy.p0i8.p0i8.i64(i8* %14, i8* %15, i64 8, i32 8, i1 false), !dbg !4979
  %16 = call i64 @_ZNKSt6chrono8durationIlSt5ratioILl1ELl1000000000EEE5countEv(%"struct.std::chrono::duration"* %8), !dbg !4981
  %17 = sub nsw i64 %12, %16, !dbg !4983
  store i64 %17, i64* %6, align 8, !dbg !4974
  call void @_ZNSt6chrono8durationIlSt5ratioILl1ELl1000000000EEEC2IlvEERKT_(%"struct.std::chrono::duration"* %3, i64* dereferenceable(8) %6), !dbg !4984
  %18 = getelementptr inbounds %"struct.std::chrono::duration", %"struct.std::chrono::duration"* %3, i32 0, i32 0, !dbg !4986
  %19 = load i64, i64* %18, align 8, !dbg !4986
  ret i64 %19, !dbg !4986
}

; Function Attrs: nounwind uwtable
define linkonce_odr i64 @_ZNKSt6chrono10time_pointINS_3_V212system_clockENS_8durationIlSt5ratioILl1ELl1000000000EEEEE16time_since_epochEv(%"struct.std::chrono::time_point"*) #4 comdat align 2 !dbg !4987 {
  %2 = alloca %"struct.std::chrono::duration", align 8
  %3 = alloca %"struct.std::chrono::time_point"*, align 8
  store %"struct.std::chrono::time_point"* %0, %"struct.std::chrono::time_point"** %3, align 8
  call void @llvm.dbg.declare(metadata %"struct.std::chrono::time_point"** %3, metadata !4988, metadata !2768), !dbg !4990
  %4 = load %"struct.std::chrono::time_point"*, %"struct.std::chrono::time_point"** %3, align 8
  %5 = getelementptr inbounds %"struct.std::chrono::time_point", %"struct.std::chrono::time_point"* %4, i32 0, i32 0, !dbg !4991
  %6 = bitcast %"struct.std::chrono::duration"* %2 to i8*, !dbg !4991
  %7 = bitcast %"struct.std::chrono::duration"* %5 to i8*, !dbg !4991
  call void @llvm.memcpy.p0i8.p0i8.i64(i8* %6, i8* %7, i64 8, i32 8, i1 false), !dbg !4991
  %8 = getelementptr inbounds %"struct.std::chrono::duration", %"struct.std::chrono::duration"* %2, i32 0, i32 0, !dbg !4992
  %9 = load i64, i64* %8, align 8, !dbg !4992
  ret i64 %9, !dbg !4992
}

; Function Attrs: nounwind uwtable
define linkonce_odr void @_ZNSt6chrono8durationIlSt5ratioILl1ELl1000000000EEEC2IlvEERKT_(%"struct.std::chrono::duration"*, i64* dereferenceable(8)) unnamed_addr #4 comdat align 2 !dbg !4993 {
  %3 = alloca %"struct.std::chrono::duration"*, align 8
  %4 = alloca i64*, align 8
  store %"struct.std::chrono::duration"* %0, %"struct.std::chrono::duration"** %3, align 8
  call void @llvm.dbg.declare(metadata %"struct.std::chrono::duration"** %3, metadata !4997, metadata !2768), !dbg !4999
  store i64* %1, i64** %4, align 8
  call void @llvm.dbg.declare(metadata i64** %4, metadata !5000, metadata !2768), !dbg !5001
  %5 = load %"struct.std::chrono::duration"*, %"struct.std::chrono::duration"** %3, align 8
  %6 = getelementptr inbounds %"struct.std::chrono::duration", %"struct.std::chrono::duration"* %5, i32 0, i32 0, !dbg !5002
  %7 = load i64*, i64** %4, align 8, !dbg !5003
  %8 = load i64, i64* %7, align 8, !dbg !5003
  store i64 %8, i64* %6, align 8, !dbg !5002
  ret void, !dbg !5004
}

; Function Attrs: inlinehint nounwind uwtable
define linkonce_odr void @_ZN9IrsThreadD2Ev(%class.IrsThread*) unnamed_addr #7 comdat align 2 !dbg !5005 {
  %2 = alloca %class.IrsThread*, align 8
  store %class.IrsThread* %0, %class.IrsThread** %2, align 8
  call void @llvm.dbg.declare(metadata %class.IrsThread** %2, metadata !5007, metadata !2768), !dbg !5008
  %3 = load %class.IrsThread*, %class.IrsThread** %2, align 8
  %4 = getelementptr inbounds %class.IrsThread, %class.IrsThread* %3, i32 0, i32 0, !dbg !5009
  call void @_ZNSt6threadD2Ev(%"class.std::thread"* %4) #3, !dbg !5009
  ret void, !dbg !5011
}

; Function Attrs: uwtable
define internal void @_GLOBAL__sub_I_fibonacci.cpp() #0 section ".text.startup" !dbg !5012 {
  call void @__cxx_global_var_init(), !dbg !5014
  call void @__cxx_global_var_init.1(), !dbg !5015
  call void @__cxx_global_var_init.2(), !dbg !5017
  ret void
}

attributes #0 = { uwtable "disable-tail-calls"="false" "less-precise-fpmad"="false" "no-frame-pointer-elim"="true" "no-frame-pointer-elim-non-leaf" "no-infs-fp-math"="false" "no-jump-tables"="false" "no-nans-fp-math"="false" "no-signed-zeros-fp-math"="false" "stack-protector-buffer-size"="8" "target-cpu"="x86-64" "target-features"="+fxsr,+mmx,+sse,+sse2,+x87" "unsafe-fp-math"="false" "use-soft-float"="false" }
attributes #1 = { "disable-tail-calls"="false" "less-precise-fpmad"="false" "no-frame-pointer-elim"="true" "no-frame-pointer-elim-non-leaf" "no-infs-fp-math"="false" "no-nans-fp-math"="false" "no-signed-zeros-fp-math"="false" "stack-protector-buffer-size"="8" "target-cpu"="x86-64" "target-features"="+fxsr,+mmx,+sse,+sse2,+x87" "unsafe-fp-math"="false" "use-soft-float"="false" }
attributes #2 = { nounwind "disable-tail-calls"="false" "less-precise-fpmad"="false" "no-frame-pointer-elim"="true" "no-frame-pointer-elim-non-leaf" "no-infs-fp-math"="false" "no-nans-fp-math"="false" "no-signed-zeros-fp-math"="false" "stack-protector-buffer-size"="8" "target-cpu"="x86-64" "target-features"="+fxsr,+mmx,+sse,+sse2,+x87" "unsafe-fp-math"="false" "use-soft-float"="false" }
attributes #3 = { nounwind }
attributes #4 = { nounwind uwtable "disable-tail-calls"="false" "less-precise-fpmad"="false" "no-frame-pointer-elim"="true" "no-frame-pointer-elim-non-leaf" "no-infs-fp-math"="false" "no-jump-tables"="false" "no-nans-fp-math"="false" "no-signed-zeros-fp-math"="false" "stack-protector-buffer-size"="8" "target-cpu"="x86-64" "target-features"="+fxsr,+mmx,+sse,+sse2,+x87" "unsafe-fp-math"="false" "use-soft-float"="false" }
attributes #5 = { nounwind readnone }
attributes #6 = { noinline uwtable "disable-tail-calls"="false" "less-precise-fpmad"="false" "no-frame-pointer-elim"="true" "no-frame-pointer-elim-non-leaf" "no-infs-fp-math"="false" "no-jump-tables"="false" "no-nans-fp-math"="false" "no-signed-zeros-fp-math"="false" "stack-protector-buffer-size"="8" "target-cpu"="x86-64" "target-features"="+fxsr,+mmx,+sse,+sse2,+x87" "unsafe-fp-math"="false" "use-soft-float"="false" }
attributes #7 = { inlinehint nounwind uwtable "disable-tail-calls"="false" "less-precise-fpmad"="false" "no-frame-pointer-elim"="true" "no-frame-pointer-elim-non-leaf" "no-infs-fp-math"="false" "no-jump-tables"="false" "no-nans-fp-math"="false" "no-signed-zeros-fp-math"="false" "stack-protector-buffer-size"="8" "target-cpu"="x86-64" "target-features"="+fxsr,+mmx,+sse,+sse2,+x87" "unsafe-fp-math"="false" "use-soft-float"="false" }
attributes #8 = { noreturn nounwind "disable-tail-calls"="false" "less-precise-fpmad"="false" "no-frame-pointer-elim"="true" "no-frame-pointer-elim-non-leaf" "no-infs-fp-math"="false" "no-nans-fp-math"="false" "no-signed-zeros-fp-math"="false" "stack-protector-buffer-size"="8" "target-cpu"="x86-64" "target-features"="+fxsr,+mmx,+sse,+sse2,+x87" "unsafe-fp-math"="false" "use-soft-float"="false" }
attributes #9 = { argmemonly nounwind }
attributes #10 = { nobuiltin "disable-tail-calls"="false" "less-precise-fpmad"="false" "no-frame-pointer-elim"="true" "no-frame-pointer-elim-non-leaf" "no-infs-fp-math"="false" "no-nans-fp-math"="false" "no-signed-zeros-fp-math"="false" "stack-protector-buffer-size"="8" "target-cpu"="x86-64" "target-features"="+fxsr,+mmx,+sse,+sse2,+x87" "unsafe-fp-math"="false" "use-soft-float"="false" }
attributes #11 = { nobuiltin nounwind "disable-tail-calls"="false" "less-precise-fpmad"="false" "no-frame-pointer-elim"="true" "no-frame-pointer-elim-non-leaf" "no-infs-fp-math"="false" "no-nans-fp-math"="false" "no-signed-zeros-fp-math"="false" "stack-protector-buffer-size"="8" "target-cpu"="x86-64" "target-features"="+fxsr,+mmx,+sse,+sse2,+x87" "unsafe-fp-math"="false" "use-soft-float"="false" }
attributes #12 = { noinline noreturn nounwind }
attributes #13 = { inlinehint uwtable "disable-tail-calls"="false" "less-precise-fpmad"="false" "no-frame-pointer-elim"="true" "no-frame-pointer-elim-non-leaf" "no-infs-fp-math"="false" "no-jump-tables"="false" "no-nans-fp-math"="false" "no-signed-zeros-fp-math"="false" "stack-protector-buffer-size"="8" "target-cpu"="x86-64" "target-features"="+fxsr,+mmx,+sse,+sse2,+x87" "unsafe-fp-math"="false" "use-soft-float"="false" }
attributes #14 = { noreturn "disable-tail-calls"="false" "less-precise-fpmad"="false" "no-frame-pointer-elim"="true" "no-frame-pointer-elim-non-leaf" "no-infs-fp-math"="false" "no-nans-fp-math"="false" "no-signed-zeros-fp-math"="false" "stack-protector-buffer-size"="8" "target-cpu"="x86-64" "target-features"="+fxsr,+mmx,+sse,+sse2,+x87" "unsafe-fp-math"="false" "use-soft-float"="false" }
attributes #15 = { noreturn }
attributes #16 = { noreturn nounwind }
attributes #17 = { builtin }
attributes #18 = { builtin nounwind }

!llvm.dbg.cu = !{!0}
!llvm.module.flags = !{!2755, !2756}
!llvm.ident = !{!2757}

!0 = distinct !DICompileUnit(language: DW_LANG_C_plus_plus, file: !1, producer: "clang version 3.9.1-4ubuntu3~16.10.1 (tags/RELEASE_391/rc2)", isOptimized: false, runtimeVersion: 0, emissionKind: FullDebug, enums: !2, retainedTypes: !36, globals: !735, imports: !787)
!1 = !DIFile(filename: "/home/sreeram/Dev/mastersthesis/MemoryCheck/src/Benchmark/fibonacci.cpp", directory: "/home/sreeram/Dev/mastersthesis/MemoryCheck/build/src/Benchmark")
!2 = !{!3, !11, !21}
!3 = distinct !DICompositeType(tag: DW_TAG_enumeration_type, name: "_Lock_policy", scope: !5, file: !4, line: 49, size: 32, align: 32, elements: !7, identifier: "_ZTSN9__gnu_cxx12_Lock_policyE")
!4 = !DIFile(filename: "/usr/bin/../lib/gcc/x86_64-linux-gnu/6.2.0/../../../../include/c++/6.2.0/ext/concurrence.h", directory: "/home/sreeram/Dev/mastersthesis/MemoryCheck/build/src/Benchmark")
!5 = !DINamespace(name: "__gnu_cxx", scope: null, file: !6, line: 225)
!6 = !DIFile(filename: "/usr/bin/../lib/gcc/x86_64-linux-gnu/6.2.0/../../../../include/x86_64-linux-gnu/c++/6.2.0/bits/c++config.h", directory: "/home/sreeram/Dev/mastersthesis/MemoryCheck/build/src/Benchmark")
!7 = !{!8, !9, !10}
!8 = !DIEnumerator(name: "_S_single", value: 0)
!9 = !DIEnumerator(name: "_S_mutex", value: 1)
!10 = !DIEnumerator(name: "_S_atomic", value: 2)
!11 = distinct !DICompositeType(tag: DW_TAG_enumeration_type, name: "default_color_type", scope: !13, file: !12, line: 32, size: 32, align: 32, elements: !15, identifier: "_ZTSN5boost18default_color_typeE")
!12 = !DIFile(filename: "/usr/include/boost/graph/properties.hpp", directory: "/home/sreeram/Dev/mastersthesis/MemoryCheck/build/src/Benchmark")
!13 = !DINamespace(name: "boost", scope: null, file: !14, line: 484)
!14 = !DIFile(filename: "/usr/include/boost/config/suffix.hpp", directory: "/home/sreeram/Dev/mastersthesis/MemoryCheck/build/src/Benchmark")
!15 = !{!16, !17, !18, !19, !20}
!16 = !DIEnumerator(name: "white_color", value: 0)
!17 = !DIEnumerator(name: "gray_color", value: 1)
!18 = !DIEnumerator(name: "green_color", value: 2)
!19 = !DIEnumerator(name: "red_color", value: 3)
!20 = !DIEnumerator(name: "black_color", value: 4)
!21 = distinct !DICompositeType(tag: DW_TAG_enumeration_type, name: "syntax_option_type", scope: !23, file: !22, line: 29, size: 32, align: 32, elements: !26, identifier: "_ZTSN5boost9xpressive15regex_constants18syntax_option_typeE")
!22 = !DIFile(filename: "/usr/include/boost/xpressive/regex_constants.hpp", directory: "/home/sreeram/Dev/mastersthesis/MemoryCheck/build/src/Benchmark")
!23 = !DINamespace(name: "regex_constants", scope: !24, file: !22, line: 24)
!24 = !DINamespace(name: "xpressive", scope: !13, file: !25, line: 52)
!25 = !DIFile(filename: "/usr/include/boost/xpressive/xpressive_fwd.hpp", directory: "/home/sreeram/Dev/mastersthesis/MemoryCheck/build/src/Benchmark")
!26 = !{!27, !28, !29, !30, !31, !32, !33, !34, !35}
!27 = !DIEnumerator(name: "ECMAScript", value: 0)
!28 = !DIEnumerator(name: "icase_", value: 2)
!29 = !DIEnumerator(name: "nosubs", value: 4)
!30 = !DIEnumerator(name: "optimize", value: 8)
!31 = !DIEnumerator(name: "collate", value: 16)
!32 = !DIEnumerator(name: "single_line", value: 1024)
!33 = !DIEnumerator(name: "not_dot_null", value: 2048)
!34 = !DIEnumerator(name: "not_dot_newline", value: 4096)
!35 = !DIEnumerator(name: "ignore_white_space", value: 8192)
!36 = !{!37, !40, !493, !533, !562, !597, !603, !602, !661, !672, !729}
!37 = !DIDerivedType(tag: DW_TAG_pointer_type, baseType: !38, size: 64, align: 64)
!38 = !DISubroutineType(types: !39)
!39 = !{null}
!40 = !DIDerivedType(tag: DW_TAG_typedef, name: "__tag", scope: !42, file: !41, line: 258, baseType: !486)
!41 = !DIFile(filename: "/usr/bin/../lib/gcc/x86_64-linux-gnu/6.2.0/../../../../include/c++/6.2.0/functional", directory: "/home/sreeram/Dev/mastersthesis/MemoryCheck/build/src/Benchmark")
!42 = distinct !DISubprogram(name: "__invoke<void (fibonacci::Thread0::*const &)(), fibonacci::Thread0 *>", linkageName: "_ZSt8__invokeIRKMN9fibonacci7Thread0EFvvEJPS1_EENSt9result_ofIFOT_DpOT0_EE4typeES9_SC_", scope: !43, file: !41, line: 254, type: !44, isLocal: false, isDefinition: true, scopeLine: 255, flags: DIFlagPrototyped, isOptimized: false, unit: !0, templateParams: !481, variables: !49)
!43 = !DINamespace(name: "std", scope: null, file: !6, line: 199)
!44 = !DISubroutineType(types: !45)
!45 = !{!46, !52, !479}
!46 = !DIDerivedType(tag: DW_TAG_typedef, name: "type", scope: !48, file: !47, line: 191, baseType: null)
!47 = !DIFile(filename: "/usr/bin/../lib/gcc/x86_64-linux-gnu/6.2.0/../../../../include/c++/6.2.0/type_traits", directory: "/home/sreeram/Dev/mastersthesis/MemoryCheck/build/src/Benchmark")
!48 = distinct !DICompositeType(tag: DW_TAG_structure_type, name: "__success_type<void>", scope: !43, file: !47, line: 190, size: 8, align: 8, elements: !49, templateParams: !50, identifier: "_ZTSSt14__success_typeIvE")
!49 = !{}
!50 = !{!51}
!51 = !DITemplateTypeParameter(name: "_Tp", type: null)
!52 = !DIDerivedType(tag: DW_TAG_reference_type, baseType: !53, size: 64, align: 64)
!53 = !DIDerivedType(tag: DW_TAG_const_type, baseType: !54)
!54 = !DIDerivedType(tag: DW_TAG_ptr_to_member_type, baseType: !55, size: 128, extraData: !58)
!55 = !DISubroutineType(types: !56)
!56 = !{null, !57}
!57 = !DIDerivedType(tag: DW_TAG_pointer_type, baseType: !58, size: 64, align: 64, flags: DIFlagArtificial | DIFlagObjectPointer)
!58 = distinct !DICompositeType(tag: DW_TAG_class_type, name: "Thread0", scope: !59, file: !1, line: 17, size: 128, align: 64, elements: !61, identifier: "_ZTSN9fibonacci7Thread0E")
!59 = !DINamespace(name: "fibonacci", scope: null, file: !60, line: 4)
!60 = !DIFile(filename: "/home/sreeram/Dev/mastersthesis/MemoryCheck/src/Benchmark/../../include/Benchmark/fibonacci.h", directory: "/home/sreeram/Dev/mastersthesis/MemoryCheck/build/src/Benchmark")
!61 = !{!62, !470, !473, !476, !477, !478}
!62 = !DIDerivedType(tag: DW_TAG_member, name: "m_thread", scope: !58, file: !1, line: 35, baseType: !63, size: 128, align: 64)
!63 = distinct !DICompositeType(tag: DW_TAG_class_type, name: "IrsThread", file: !64, line: 10, size: 128, align: 64, elements: !65, identifier: "_ZTS9IrsThread")
!64 = !DIFile(filename: "/home/sreeram/Dev/mastersthesis/MemoryCheck/src/Benchmark/../../include/Benchmark/IrsThread.h", directory: "/home/sreeram/Dev/mastersthesis/MemoryCheck/build/src/Benchmark")
!65 = !{!66, !445, !447, !451, !456, !459, !462, !466}
!66 = !DIDerivedType(tag: DW_TAG_member, name: "m_thread", scope: !63, file: !64, line: 30, baseType: !67, size: 64, align: 64)
!67 = distinct !DICompositeType(tag: DW_TAG_class_type, name: "thread", scope: !43, file: !68, line: 61, size: 64, align: 64, elements: !69, identifier: "_ZTSSt6thread")
!68 = !DIFile(filename: "/usr/bin/../lib/gcc/x86_64-linux-gnu/6.2.0/../../../../include/c++/6.2.0/thread", directory: "/home/sreeram/Dev/mastersthesis/MemoryCheck/build/src/Benchmark")
!69 = !{!70, !87, !91, !95, !100, !104, !105, !108, !111, !112, !117, !118, !119, !122, !125, !129}
!70 = !DIDerivedType(tag: DW_TAG_member, name: "_M_id", scope: !67, file: !68, line: 114, baseType: !71, size: 64, align: 64)
!71 = distinct !DICompositeType(tag: DW_TAG_class_type, name: "id", scope: !67, file: !68, line: 76, size: 64, align: 64, elements: !72, identifier: "_ZTSNSt6thread2idE")
!72 = !{!73, !80, !84}
!73 = !DIDerivedType(tag: DW_TAG_member, name: "_M_thread", scope: !71, file: !68, line: 78, baseType: !74, size: 64, align: 64)
!74 = !DIDerivedType(tag: DW_TAG_typedef, name: "native_handle_type", scope: !67, file: !68, line: 73, baseType: !75)
!75 = !DIDerivedType(tag: DW_TAG_typedef, name: "__gthread_t", file: !76, line: 47, baseType: !77)
!76 = !DIFile(filename: "/usr/bin/../lib/gcc/x86_64-linux-gnu/6.2.0/../../../../include/x86_64-linux-gnu/c++/6.2.0/bits/gthr-default.h", directory: "/home/sreeram/Dev/mastersthesis/MemoryCheck/build/src/Benchmark")
!77 = !DIDerivedType(tag: DW_TAG_typedef, name: "pthread_t", file: !78, line: 60, baseType: !79)
!78 = !DIFile(filename: "/usr/include/x86_64-linux-gnu/bits/pthreadtypes.h", directory: "/home/sreeram/Dev/mastersthesis/MemoryCheck/build/src/Benchmark")
!79 = !DIBasicType(name: "long unsigned int", size: 64, align: 64, encoding: DW_ATE_unsigned)
!80 = !DISubprogram(name: "id", scope: !71, file: !68, line: 81, type: !81, isLocal: false, isDefinition: false, scopeLine: 81, flags: DIFlagPublic | DIFlagPrototyped, isOptimized: false)
!81 = !DISubroutineType(types: !82)
!82 = !{null, !83}
!83 = !DIDerivedType(tag: DW_TAG_pointer_type, baseType: !71, size: 64, align: 64, flags: DIFlagArtificial | DIFlagObjectPointer)
!84 = !DISubprogram(name: "id", scope: !71, file: !68, line: 84, type: !85, isLocal: false, isDefinition: false, scopeLine: 84, flags: DIFlagPublic | DIFlagExplicit | DIFlagPrototyped, isOptimized: false)
!85 = !DISubroutineType(types: !86)
!86 = !{null, !83, !74}
!87 = !DISubprogram(name: "thread", scope: !67, file: !68, line: 117, type: !88, isLocal: false, isDefinition: false, scopeLine: 117, flags: DIFlagPublic | DIFlagPrototyped, isOptimized: false)
!88 = !DISubroutineType(types: !89)
!89 = !{null, !90}
!90 = !DIDerivedType(tag: DW_TAG_pointer_type, baseType: !67, size: 64, align: 64, flags: DIFlagArtificial | DIFlagObjectPointer)
!91 = !DISubprogram(name: "thread", scope: !67, file: !68, line: 120, type: !92, isLocal: false, isDefinition: false, scopeLine: 120, flags: DIFlagPublic | DIFlagPrototyped, isOptimized: false)
!92 = !DISubroutineType(types: !93)
!93 = !{null, !90, !94}
!94 = !DIDerivedType(tag: DW_TAG_reference_type, baseType: !67, size: 64, align: 64)
!95 = !DISubprogram(name: "thread", scope: !67, file: !68, line: 121, type: !96, isLocal: false, isDefinition: false, scopeLine: 121, flags: DIFlagPublic | DIFlagPrototyped, isOptimized: false)
!96 = !DISubroutineType(types: !97)
!97 = !{null, !90, !98}
!98 = !DIDerivedType(tag: DW_TAG_reference_type, baseType: !99, size: 64, align: 64)
!99 = !DIDerivedType(tag: DW_TAG_const_type, baseType: !67)
!100 = !DISubprogram(name: "thread", scope: !67, file: !68, line: 123, type: !101, isLocal: false, isDefinition: false, scopeLine: 123, flags: DIFlagPublic | DIFlagPrototyped, isOptimized: false)
!101 = !DISubroutineType(types: !102)
!102 = !{null, !90, !103}
!103 = !DIDerivedType(tag: DW_TAG_rvalue_reference_type, baseType: !67, size: 64, align: 64)
!104 = !DISubprogram(name: "~thread", scope: !67, file: !68, line: 142, type: !88, isLocal: false, isDefinition: false, scopeLine: 142, flags: DIFlagPublic | DIFlagPrototyped, isOptimized: false)
!105 = !DISubprogram(name: "operator=", linkageName: "_ZNSt6threadaSERKS_", scope: !67, file: !68, line: 148, type: !106, isLocal: false, isDefinition: false, scopeLine: 148, flags: DIFlagPublic | DIFlagPrototyped, isOptimized: false)
!106 = !DISubroutineType(types: !107)
!107 = !{!94, !90, !98}
!108 = !DISubprogram(name: "operator=", linkageName: "_ZNSt6threadaSEOS_", scope: !67, file: !68, line: 150, type: !109, isLocal: false, isDefinition: false, scopeLine: 150, flags: DIFlagPublic | DIFlagPrototyped, isOptimized: false)
!109 = !DISubroutineType(types: !110)
!110 = !{!94, !90, !103}
!111 = !DISubprogram(name: "swap", linkageName: "_ZNSt6thread4swapERS_", scope: !67, file: !68, line: 159, type: !92, isLocal: false, isDefinition: false, scopeLine: 159, flags: DIFlagPublic | DIFlagPrototyped, isOptimized: false)
!112 = !DISubprogram(name: "joinable", linkageName: "_ZNKSt6thread8joinableEv", scope: !67, file: !68, line: 163, type: !113, isLocal: false, isDefinition: false, scopeLine: 163, flags: DIFlagPublic | DIFlagPrototyped, isOptimized: false)
!113 = !DISubroutineType(types: !114)
!114 = !{!115, !116}
!115 = !DIBasicType(name: "bool", size: 8, align: 8, encoding: DW_ATE_boolean)
!116 = !DIDerivedType(tag: DW_TAG_pointer_type, baseType: !99, size: 64, align: 64, flags: DIFlagArtificial | DIFlagObjectPointer)
!117 = !DISubprogram(name: "join", linkageName: "_ZNSt6thread4joinEv", scope: !67, file: !68, line: 167, type: !88, isLocal: false, isDefinition: false, scopeLine: 167, flags: DIFlagPublic | DIFlagPrototyped, isOptimized: false)
!118 = !DISubprogram(name: "detach", linkageName: "_ZNSt6thread6detachEv", scope: !67, file: !68, line: 170, type: !88, isLocal: false, isDefinition: false, scopeLine: 170, flags: DIFlagPublic | DIFlagPrototyped, isOptimized: false)
!119 = !DISubprogram(name: "get_id", linkageName: "_ZNKSt6thread6get_idEv", scope: !67, file: !68, line: 173, type: !120, isLocal: false, isDefinition: false, scopeLine: 173, flags: DIFlagPublic | DIFlagPrototyped, isOptimized: false)
!120 = !DISubroutineType(types: !121)
!121 = !{!71, !116}
!122 = !DISubprogram(name: "native_handle", linkageName: "_ZNSt6thread13native_handleEv", scope: !67, file: !68, line: 179, type: !123, isLocal: false, isDefinition: false, scopeLine: 179, flags: DIFlagPublic | DIFlagPrototyped, isOptimized: false)
!123 = !DISubroutineType(types: !124)
!124 = !{!74, !90}
!125 = !DISubprogram(name: "hardware_concurrency", linkageName: "_ZNSt6thread20hardware_concurrencyEv", scope: !67, file: !68, line: 184, type: !126, isLocal: false, isDefinition: false, scopeLine: 184, flags: DIFlagPublic | DIFlagPrototyped, isOptimized: false)
!126 = !DISubroutineType(types: !127)
!127 = !{!128}
!128 = !DIBasicType(name: "unsigned int", size: 32, align: 32, encoding: DW_ATE_unsigned)
!129 = !DISubprogram(name: "_M_start_thread", linkageName: "_ZNSt6thread15_M_start_threadESt10unique_ptrINS_6_StateESt14default_deleteIS1_EEPFvvE", scope: !67, file: !68, line: 200, type: !130, isLocal: false, isDefinition: false, scopeLine: 200, flags: DIFlagPrototyped, isOptimized: false)
!130 = !DISubroutineType(types: !131)
!131 = !{null, !90, !132, !37}
!132 = !DIDerivedType(tag: DW_TAG_typedef, name: "_State_ptr", scope: !67, file: !68, line: 71, baseType: !133)
!133 = distinct !DICompositeType(tag: DW_TAG_class_type, name: "unique_ptr<std::thread::_State, std::default_delete<std::thread::_State> >", scope: !43, file: !134, line: 116, size: 64, align: 64, elements: !135, templateParams: !443, identifier: "_ZTSSt10unique_ptrINSt6thread6_StateESt14default_deleteIS1_EE")
!134 = !DIFile(filename: "/usr/bin/../lib/gcc/x86_64-linux-gnu/6.2.0/../../../../include/c++/6.2.0/bits/unique_ptr.h", directory: "/home/sreeram/Dev/mastersthesis/MemoryCheck/build/src/Benchmark")
!135 = !{!136, !358, !362, !368, !377, !385, !390, !394, !395, !399, !402, !412, !415, !416, !421, !426, !429, !432, !433, !436, !440}
!136 = !DIDerivedType(tag: DW_TAG_member, name: "_M_t", scope: !133, file: !134, line: 134, baseType: !137, size: 64, align: 64)
!137 = !DIDerivedType(tag: DW_TAG_typedef, name: "__tuple_type", scope: !133, file: !134, line: 133, baseType: !138)
!138 = distinct !DICompositeType(tag: DW_TAG_class_type, name: "tuple<std::thread::_State *, std::default_delete<std::thread::_State> >", scope: !43, file: !139, line: 866, size: 64, align: 64, elements: !140, templateParams: !357, identifier: "_ZTSSt5tupleIJPNSt6thread6_StateESt14default_deleteIS1_EEE")
!139 = !DIFile(filename: "/usr/bin/../lib/gcc/x86_64-linux-gnu/6.2.0/../../../../include/c++/6.2.0/tuple", directory: "/home/sreeram/Dev/mastersthesis/MemoryCheck/build/src/Benchmark")
!140 = !{!141, !337, !343, !347, !351, !354}
!141 = !DIDerivedType(tag: DW_TAG_inheritance, scope: !138, baseType: !142, flags: DIFlagPublic)
!142 = distinct !DICompositeType(tag: DW_TAG_structure_type, name: "_Tuple_impl<0, std::thread::_State *, std::default_delete<std::thread::_State> >", scope: !43, file: !139, line: 180, size: 64, align: 64, elements: !143, templateParams: !333, identifier: "_ZTSSt11_Tuple_implILm0EJPNSt6thread6_StateESt14default_deleteIS1_EEE")
!143 = !{!144, !254, !291, !295, !300, !305, !310, !314, !317, !320, !324, !327, !330}
!144 = !DIDerivedType(tag: DW_TAG_inheritance, scope: !142, baseType: !145)
!145 = distinct !DICompositeType(tag: DW_TAG_structure_type, name: "_Tuple_impl<1, std::default_delete<std::thread::_State> >", scope: !43, file: !139, line: 338, size: 8, align: 8, elements: !146, templateParams: !250, identifier: "_ZTSSt11_Tuple_implILm1EJSt14default_deleteINSt6thread6_StateEEEE")
!146 = !{!147, !218, !222, !227, !231, !234, !237, !241, !244, !247}
!147 = !DIDerivedType(tag: DW_TAG_inheritance, scope: !145, baseType: !148, flags: DIFlagPrivate)
!148 = distinct !DICompositeType(tag: DW_TAG_structure_type, name: "_Head_base<1, std::default_delete<std::thread::_State>, true>", scope: !43, file: !139, line: 55, size: 8, align: 8, elements: !149, templateParams: !214, identifier: "_ZTSSt10_Head_baseILm1ESt14default_deleteINSt6thread6_StateEELb1EE")
!149 = !{!150, !166, !170, !174, !179, !183, !206, !211}
!150 = !DIDerivedType(tag: DW_TAG_inheritance, scope: !148, baseType: !151)
!151 = distinct !DICompositeType(tag: DW_TAG_structure_type, name: "default_delete<std::thread::_State>", scope: !43, file: !134, line: 54, size: 8, align: 8, elements: !152, templateParams: !164, identifier: "_ZTSSt14default_deleteINSt6thread6_StateEE")
!152 = !{!153, !157}
!153 = !DISubprogram(name: "default_delete", scope: !151, file: !134, line: 57, type: !154, isLocal: false, isDefinition: false, scopeLine: 57, flags: DIFlagPrototyped, isOptimized: false)
!154 = !DISubroutineType(types: !155)
!155 = !{null, !156}
!156 = !DIDerivedType(tag: DW_TAG_pointer_type, baseType: !151, size: 64, align: 64, flags: DIFlagArtificial | DIFlagObjectPointer)
!157 = !DISubprogram(name: "operator()", linkageName: "_ZNKSt14default_deleteINSt6thread6_StateEEclEPS1_", scope: !151, file: !134, line: 70, type: !158, isLocal: false, isDefinition: false, scopeLine: 70, flags: DIFlagPrototyped, isOptimized: false)
!158 = !DISubroutineType(types: !159)
!159 = !{null, !160, !162}
!160 = !DIDerivedType(tag: DW_TAG_pointer_type, baseType: !161, size: 64, align: 64, flags: DIFlagArtificial | DIFlagObjectPointer)
!161 = !DIDerivedType(tag: DW_TAG_const_type, baseType: !151)
!162 = !DIDerivedType(tag: DW_TAG_pointer_type, baseType: !163, size: 64, align: 64)
!163 = distinct !DICompositeType(tag: DW_TAG_structure_type, name: "_State", scope: !67, file: !68, line: 66, size: 64, align: 64, flags: DIFlagFwdDecl, identifier: "_ZTSNSt6thread6_StateE")
!164 = !{!165}
!165 = !DITemplateTypeParameter(name: "_Tp", type: !163)
!166 = !DISubprogram(name: "_Head_base", scope: !148, file: !139, line: 58, type: !167, isLocal: false, isDefinition: false, scopeLine: 58, flags: DIFlagPrototyped, isOptimized: false)
!167 = !DISubroutineType(types: !168)
!168 = !{null, !169}
!169 = !DIDerivedType(tag: DW_TAG_pointer_type, baseType: !148, size: 64, align: 64, flags: DIFlagArtificial | DIFlagObjectPointer)
!170 = !DISubprogram(name: "_Head_base", scope: !148, file: !139, line: 61, type: !171, isLocal: false, isDefinition: false, scopeLine: 61, flags: DIFlagPrototyped, isOptimized: false)
!171 = !DISubroutineType(types: !172)
!172 = !{null, !169, !173}
!173 = !DIDerivedType(tag: DW_TAG_reference_type, baseType: !161, size: 64, align: 64)
!174 = !DISubprogram(name: "_Head_base", scope: !148, file: !139, line: 64, type: !175, isLocal: false, isDefinition: false, scopeLine: 64, flags: DIFlagPrototyped, isOptimized: false)
!175 = !DISubroutineType(types: !176)
!176 = !{null, !169, !177}
!177 = !DIDerivedType(tag: DW_TAG_reference_type, baseType: !178, size: 64, align: 64)
!178 = !DIDerivedType(tag: DW_TAG_const_type, baseType: !148)
!179 = !DISubprogram(name: "_Head_base", scope: !148, file: !139, line: 65, type: !180, isLocal: false, isDefinition: false, scopeLine: 65, flags: DIFlagPrototyped, isOptimized: false)
!180 = !DISubroutineType(types: !181)
!181 = !{null, !169, !182}
!182 = !DIDerivedType(tag: DW_TAG_rvalue_reference_type, baseType: !148, size: 64, align: 64)
!183 = !DISubprogram(name: "_Head_base", scope: !148, file: !139, line: 71, type: !184, isLocal: false, isDefinition: false, scopeLine: 71, flags: DIFlagPrototyped, isOptimized: false)
!184 = !DISubroutineType(types: !185)
!185 = !{null, !169, !186, !193}
!186 = distinct !DICompositeType(tag: DW_TAG_structure_type, name: "allocator_arg_t", scope: !43, file: !187, line: 46, size: 8, align: 8, elements: !188, identifier: "_ZTSSt15allocator_arg_t")
!187 = !DIFile(filename: "/usr/bin/../lib/gcc/x86_64-linux-gnu/6.2.0/../../../../include/c++/6.2.0/bits/uses_allocator.h", directory: "/home/sreeram/Dev/mastersthesis/MemoryCheck/build/src/Benchmark")
!188 = !{!189}
!189 = !DISubprogram(name: "allocator_arg_t", scope: !186, file: !187, line: 46, type: !190, isLocal: false, isDefinition: false, scopeLine: 46, flags: DIFlagExplicit | DIFlagPrototyped, isOptimized: false)
!190 = !DISubroutineType(types: !191)
!191 = !{null, !192}
!192 = !DIDerivedType(tag: DW_TAG_pointer_type, baseType: !186, size: 64, align: 64, flags: DIFlagArtificial | DIFlagObjectPointer)
!193 = distinct !DICompositeType(tag: DW_TAG_structure_type, name: "__uses_alloc0", scope: !43, file: !187, line: 68, size: 8, align: 8, elements: !194, identifier: "_ZTSSt13__uses_alloc0")
!194 = !{!195, !197}
!195 = !DIDerivedType(tag: DW_TAG_inheritance, scope: !193, baseType: !196)
!196 = distinct !DICompositeType(tag: DW_TAG_structure_type, name: "__uses_alloc_base", scope: !43, file: !187, line: 66, size: 8, align: 8, elements: !49, identifier: "_ZTSSt17__uses_alloc_base")
!197 = !DIDerivedType(tag: DW_TAG_member, name: "_M_a", scope: !193, file: !187, line: 70, baseType: !198, size: 8, align: 8)
!198 = distinct !DICompositeType(tag: DW_TAG_structure_type, name: "_Sink", scope: !193, file: !187, line: 70, size: 8, align: 8, elements: !199, identifier: "_ZTSNSt13__uses_alloc05_SinkE")
!199 = !{!200}
!200 = !DISubprogram(name: "operator=", linkageName: "_ZNSt13__uses_alloc05_SinkaSEPKv", scope: !198, file: !187, line: 70, type: !201, isLocal: false, isDefinition: false, scopeLine: 70, flags: DIFlagPrototyped, isOptimized: false)
!201 = !DISubroutineType(types: !202)
!202 = !{null, !203, !204}
!203 = !DIDerivedType(tag: DW_TAG_pointer_type, baseType: !198, size: 64, align: 64, flags: DIFlagArtificial | DIFlagObjectPointer)
