; ModuleID = '/home/sreeram/Dev/mastersthesis/MemoryCheck/src/Benchmark/indexer.cpp'
source_filename = "/home/sreeram/Dev/mastersthesis/MemoryCheck/src/Benchmark/indexer.cpp"
target datalayout = "e-m:e-i64:64-f80:128-n8:16:32:64-S128"
target triple = "x86_64-pc-linux-gnu"

%"class.std::ios_base::Init" = type { i8 }
%"struct.boost::none_t" = type { i8 }
%"class.boost::detail::make_property_map_from_arg_pack_gen" = type { i32 }
%"class.std::basic_ostream" = type { i32 (...)**, %"class.std::basic_ios" }
%"class.std::basic_ios" = type { %"class.std::ios_base", %"class.std::basic_ostream"*, i8, i8, %"class.std::basic_streambuf"*, %"class.std::ctype"*, %"class.std::num_put"*, %"class.std::num_get"* }
%"class.std::ios_base" = type { i32 (...)**, i64, i64, i32, i32, i32, %"struct.std::ios_base::_Callback_list"*, %"struct.std::ios_base::_Words", [8 x %"struct.std::ios_base::_Words"], i32, %"struct.std::ios_base::_Words"*, %"class.std::locale" }
%"struct.std::ios_base::_Callback_list" = type { %"struct.std::ios_base::_Callback_list"*, void (i32, %"class.std::ios_base"*, i32)*, i32, i32 }
%"struct.std::ios_base::_Words" = type { i8*, i64 }
%"class.std::locale" = type { %"class.std::locale::_Impl"* }
%"class.std::locale::_Impl" = type { i32, %"class.std::locale::facet"**, i64, %"class.std::locale::facet"**, i8** }
%"class.std::locale::facet" = type <{ i32 (...)**, i32, [4 x i8] }>
%"class.std::basic_streambuf" = type { i32 (...)**, i8*, i8*, i8*, i8*, i8*, i8*, %"class.std::locale" }
%"class.std::ctype" = type <{ %"class.std::locale::facet.base", [4 x i8], %struct.__locale_struct*, i8, [7 x i8], i32*, i32*, i16*, i8, [256 x i8], [256 x i8], i8, [6 x i8] }>
%"class.std::locale::facet.base" = type <{ i32 (...)**, i32 }>
%struct.__locale_struct = type { [13 x %struct.__locale_data*], i16*, i32*, i32*, [13 x i8*] }
%struct.__locale_data = type opaque
%"class.std::num_put" = type { %"class.std::locale::facet.base", [4 x i8] }
%"class.std::num_get" = type { %"class.std::locale::facet.base", [4 x i8] }
%"struct.boost::none_t::init_tag" = type { i8 }
%"class.indexer::WorkUnit" = type { i32, i32, i32, [4 x i8], %class.IrsThread }
%class.IrsThread = type <{ %"class.std::thread", i32, [4 x i8] }>
%"class.std::thread" = type { %"class.std::thread::id" }
%"class.std::thread::id" = type { i64 }
%"class.std::vector" = type { %"struct.std::_Vector_base" }
%"struct.std::_Vector_base" = type { %"struct.std::_Vector_base<indexer::WorkUnit *, std::allocator<indexer::WorkUnit *> >::_Vector_impl" }
%"struct.std::_Vector_base<indexer::WorkUnit *, std::allocator<indexer::WorkUnit *> >::_Vector_impl" = type { %"class.indexer::WorkUnit"**, %"class.indexer::WorkUnit"**, %"class.indexer::WorkUnit"** }
%"struct.std::chrono::time_point" = type { %"struct.std::chrono::duration" }
%"struct.std::chrono::duration" = type { i64 }
%"class.__gnu_cxx::__normal_iterator" = type { %"class.indexer::WorkUnit"** }
%"struct.std::chrono::duration.0" = type { i64 }
%"class.std::allocator" = type { i8 }
%"class.std::unique_ptr" = type { %"class.std::tuple" }
%"class.std::tuple" = type { %"struct.std::_Tuple_impl" }
%"struct.std::_Tuple_impl" = type { %"struct.std::_Head_base.2" }
%"struct.std::_Head_base.2" = type { %"struct.std::thread::_State"* }
%"struct.std::thread::_State" = type { i32 (...)** }
%"struct.std::_Bind_simple" = type { %"class.std::tuple.3" }
%"class.std::tuple.3" = type { %"struct.std::_Tuple_impl.4" }
%"struct.std::_Tuple_impl.4" = type { %"struct.std::_Tuple_impl.5", %"struct.std::_Head_base.7" }
%"struct.std::_Tuple_impl.5" = type { %"struct.std::_Head_base.6" }
%"struct.std::_Head_base.6" = type { %"class.indexer::WorkUnit"* }
%"struct.std::_Head_base.7" = type { %"struct.std::_Mem_fn" }
%"struct.std::_Mem_fn" = type { %"class.std::_Mem_fn_base" }
%"class.std::_Mem_fn_base" = type { { i64, i64 } }
%union.pthread_attr_t = type { i64, [48 x i8] }
%"struct.std::thread::_State_impl" = type { %"struct.std::thread::_State", %"struct.std::_Bind_simple" }
%"struct.std::default_delete" = type { i8 }
%"struct.std::_Index_tuple" = type { i8 }
%"struct.std::__invoke_memfun_deref" = type { i8 }
%"struct.std::_Tuple_impl.1" = type { i8 }
%"struct.std::_Head_base" = type { i8 }
%"struct.std::_Maybe_unary_or_binary_function" = type { i8 }
%"class.__gnu_cxx::new_allocator" = type { i8 }
%"class.std::move_iterator" = type { %"class.indexer::WorkUnit"** }

$_ZN5boost6none_tC2ENS0_8init_tagE = comdat any

$_ZN5boost6detail35make_property_map_from_arg_pack_genINS_5graph8keywords3tag9color_mapENS_18default_color_typeEEC2ES6_ = comdat any

$_ZN7indexer8WorkUnit11getThreadIdEv = comdat any

$_ZNK9IrsThread6getTidEv = comdat any

$_ZNSt6vectorIPN7indexer8WorkUnitESaIS2_EEC2Ev = comdat any

$_ZNSt6vectorIPN7indexer8WorkUnitESaIS2_EE9push_backEOS2_ = comdat any

$_ZN7indexer8WorkUnitC2Ei = comdat any

$_ZNSt6vectorIPN7indexer8WorkUnitESaIS2_EE5beginEv = comdat any

$_ZNSt6vectorIPN7indexer8WorkUnitESaIS2_EE3endEv = comdat any

$_ZN9__gnu_cxxneIPPN7indexer8WorkUnitESt6vectorIS3_SaIS3_EEEEbRKNS_17__normal_iteratorIT_T0_EESD_ = comdat any

$_ZNK9__gnu_cxx17__normal_iteratorIPPN7indexer8WorkUnitESt6vectorIS3_SaIS3_EEEdeEv = comdat any

$_ZN7indexer8WorkUnit5startEv = comdat any

$_ZN9__gnu_cxx17__normal_iteratorIPPN7indexer8WorkUnitESt6vectorIS3_SaIS3_EEEppEv = comdat any

$_ZN7indexer8WorkUnit4joinEv = comdat any

$_ZN7indexer8WorkUnitD2Ev = comdat any

$_ZNSt6chrono13duration_castINS_8durationIlSt5ratioILl1ELl1000000EEEElS2_ILl1ELl1000000000EEEENSt9enable_ifIXsr13__is_durationIT_EE5valueES7_E4typeERKNS1_IT0_T1_EE = comdat any

$_ZNSt6chronomiINS_3_V212system_clockENS_8durationIlSt5ratioILl1ELl1000000000EEEES6_EENSt11common_typeIJT0_T1_EE4typeERKNS_10time_pointIT_S8_EERKNSC_ISD_S9_EE = comdat any

$_ZNKSt6chrono8durationIlSt5ratioILl1ELl1000000EEE5countEv = comdat any

$_ZNSt6vectorIPN7indexer8WorkUnitESaIS2_EED2Ev = comdat any

$_ZN9IrsThreadC2Ei = comdat any

$_ZNSt6threadC2Ev = comdat any

$_ZNSt6thread2idC2Ev = comdat any

$_ZN9IrsThreadclIJMN7indexer8WorkUnitEFvvEPS2_EEEvDpOT_ = comdat any

$_ZN7indexer8WorkUnit4execEv = comdat any

$_ZNSt6threadaSEOS_ = comdat any

$_ZSt7forwardIMN7indexer8WorkUnitEFvvEEOT_RNSt16remove_referenceIS4_E4typeE = comdat any

$_ZSt7forwardIPN7indexer8WorkUnitEEOT_RNSt16remove_referenceIS3_E4typeE = comdat any

$_ZNSt6threadC2IMN7indexer8WorkUnitEFvvEJPS2_EEEOT_DpOT0_ = comdat any

$_ZNSt6threadD2Ev = comdat any

$_ZNKSt6thread8joinableEv = comdat any

$_ZNSt6thread4swapERS_ = comdat any

$_ZSteqNSt6thread2idES0_ = comdat any

$_ZSt4swapINSt6thread2idEENSt9enable_ifIXsr6__and_ISt21is_move_constructibleIT_ESt18is_move_assignableIS4_EEE5valueEvE4typeERS4_SA_ = comdat any

$_ZSt4moveIRNSt6thread2idEEONSt16remove_referenceIT_E4typeEOS4_ = comdat any

$_ZNSt6thread13_S_make_stateISt12_Bind_simpleIFSt7_Mem_fnIMN7indexer8WorkUnitEFvvEEPS4_EEEESt10unique_ptrINS_6_StateESt14default_deleteISC_EEOT_ = comdat any

$_ZSt13__bind_simpleIMN7indexer8WorkUnitEFvvEJPS1_EENSt19_Bind_simple_helperIT_JDpT0_EE6__typeEOS6_DpOS7_ = comdat any

$_ZNSt10unique_ptrINSt6thread6_StateESt14default_deleteIS1_EED2Ev = comdat any

$_ZSt7forwardISt12_Bind_simpleIFSt7_Mem_fnIMN7indexer8WorkUnitEFvvEEPS3_EEEOT_RNSt16remove_referenceISA_E4typeE = comdat any

$_ZNSt6thread11_State_implISt12_Bind_simpleIFSt7_Mem_fnIMN7indexer8WorkUnitEFvvEEPS4_EEEC2EOSA_ = comdat any

$_ZNSt10unique_ptrINSt6thread6_StateESt14default_deleteIS1_EEC2EPS1_ = comdat any

$_ZNSt6thread6_StateC2Ev = comdat any

$_ZNSt12_Bind_simpleIFSt7_Mem_fnIMN7indexer8WorkUnitEFvvEEPS2_EEC2EOS8_ = comdat any

$_ZNSt6thread11_State_implISt12_Bind_simpleIFSt7_Mem_fnIMN7indexer8WorkUnitEFvvEEPS4_EEED2Ev = comdat any

$_ZNSt6thread11_State_implISt12_Bind_simpleIFSt7_Mem_fnIMN7indexer8WorkUnitEFvvEEPS4_EEED0Ev = comdat any

$_ZNSt6thread11_State_implISt12_Bind_simpleIFSt7_Mem_fnIMN7indexer8WorkUnitEFvvEEPS4_EEE6_M_runEv = comdat any

$_ZNSt5tupleIJSt7_Mem_fnIMN7indexer8WorkUnitEFvvEEPS2_EEC2EOS7_ = comdat any

$_ZNSt11_Tuple_implILm0EJSt7_Mem_fnIMN7indexer8WorkUnitEFvvEEPS2_EEC2EOS7_ = comdat any

$_ZSt4moveIRSt11_Tuple_implILm1EJPN7indexer8WorkUnitEEEEONSt16remove_referenceIT_E4typeEOS7_ = comdat any

$_ZNSt11_Tuple_implILm0EJSt7_Mem_fnIMN7indexer8WorkUnitEFvvEEPS2_EE7_M_tailERS7_ = comdat any

$_ZNSt11_Tuple_implILm1EJPN7indexer8WorkUnitEEEC2EOS3_ = comdat any

$_ZSt7forwardISt7_Mem_fnIMN7indexer8WorkUnitEFvvEEEOT_RNSt16remove_referenceIS6_E4typeE = comdat any

$_ZNSt11_Tuple_implILm0EJSt7_Mem_fnIMN7indexer8WorkUnitEFvvEEPS2_EE7_M_headERS7_ = comdat any

$_ZNSt10_Head_baseILm0ESt7_Mem_fnIMN7indexer8WorkUnitEFvvEELb0EEC2IS5_EEOT_ = comdat any

$__clang_call_terminate = comdat any

$_ZNSt11_Tuple_implILm1EJPN7indexer8WorkUnitEEE7_M_headERS3_ = comdat any

$_ZNSt10_Head_baseILm1EPN7indexer8WorkUnitELb0EEC2IS2_EEOT_ = comdat any

$_ZNSt10_Head_baseILm1EPN7indexer8WorkUnitELb0EE7_M_headERS3_ = comdat any

$_ZNSt10_Head_baseILm0ESt7_Mem_fnIMN7indexer8WorkUnitEFvvEELb0EE7_M_headERS6_ = comdat any

$_ZNSt12_Bind_simpleIFSt7_Mem_fnIMN7indexer8WorkUnitEFvvEEPS2_EEclEv = comdat any

$_ZNSt12_Bind_simpleIFSt7_Mem_fnIMN7indexer8WorkUnitEFvvEEPS2_EE9_M_invokeIJLm0EEEEvSt12_Index_tupleIJXspT_EEE = comdat any

$_ZSt3getILm0EJSt7_Mem_fnIMN7indexer8WorkUnitEFvvEEPS2_EERNSt13tuple_elementIXT_ESt5tupleIJDpT0_EEE4typeERSB_ = comdat any

$_ZNKSt12_Mem_fn_baseIMN7indexer8WorkUnitEFvvELb1EEclIJPS1_EEEDTclsr3stdE8__invokedtdefpT6_M_pmfspclsr3stdE7forwardIT_Efp_EEEDpOS7_ = comdat any

$_ZSt3getILm1EJSt7_Mem_fnIMN7indexer8WorkUnitEFvvEEPS2_EERNSt13tuple_elementIXT_ESt5tupleIJDpT0_EEE4typeERSB_ = comdat any

$_ZSt12__get_helperILm0ESt7_Mem_fnIMN7indexer8WorkUnitEFvvEEJPS2_EERT0_RSt11_Tuple_implIXT_EJS7_DpT1_EE = comdat any

$_ZSt8__invokeIRKMN7indexer8WorkUnitEFvvEJPS1_EENSt9result_ofIFOT_DpOT0_EE4typeES9_SC_ = comdat any

$_ZSt13__invoke_implIvRKMN7indexer8WorkUnitEFvvEPS1_JEET_St21__invoke_memfun_derefOT0_OT1_DpOT2_ = comdat any

$_ZSt7forwardIRKMN7indexer8WorkUnitEFvvEEOT_RNSt16remove_referenceIS6_E4typeE = comdat any

$_ZSt12__get_helperILm1EPN7indexer8WorkUnitEJEERT0_RSt11_Tuple_implIXT_EJS3_DpT1_EE = comdat any

$_ZNSt5tupleIJPNSt6thread6_StateESt14default_deleteIS1_EEEC2IRS2_S4_Lb1EEEOT_OT0_ = comdat any

$_ZSt7forwardIRPNSt6thread6_StateEEOT_RNSt16remove_referenceIS4_E4typeE = comdat any

$_ZSt7forwardISt14default_deleteINSt6thread6_StateEEEOT_RNSt16remove_referenceIS4_E4typeE = comdat any

$_ZNSt11_Tuple_implILm0EJPNSt6thread6_StateESt14default_deleteIS1_EEEC2IRS2_JS4_EvEEOT_DpOT0_ = comdat any

$_ZNSt11_Tuple_implILm1EJSt14default_deleteINSt6thread6_StateEEEEC2IS3_EEOT_ = comdat any

$_ZNSt10_Head_baseILm0EPNSt6thread6_StateELb0EEC2IRS2_EEOT_ = comdat any

$_ZNSt10_Head_baseILm1ESt14default_deleteINSt6thread6_StateEELb1EEC2IS3_EEOT_ = comdat any

$_ZNSt26_Maybe_wrap_member_pointerIMN7indexer8WorkUnitEFvvEE9__do_wrapES3_ = comdat any

$_ZNSt12_Bind_simpleIFSt7_Mem_fnIMN7indexer8WorkUnitEFvvEEPS2_EEC2IS5_JS6_EEEOT_DpOT0_ = comdat any

$_ZNSt7_Mem_fnIMN7indexer8WorkUnitEFvvEECI2St12_Mem_fn_baseIS3_Lb1EEES3_ = comdat any

$_ZNSt12_Mem_fn_baseIMN7indexer8WorkUnitEFvvELb1EEC2ES3_ = comdat any

$_ZNSt5tupleIJSt7_Mem_fnIMN7indexer8WorkUnitEFvvEEPS2_EEC2IS5_S6_Lb1EEEOT_OT0_ = comdat any

$_ZNSt11_Tuple_implILm0EJSt7_Mem_fnIMN7indexer8WorkUnitEFvvEEPS2_EEC2IS5_JS6_EvEEOT_DpOT0_ = comdat any

$_ZNSt11_Tuple_implILm1EJPN7indexer8WorkUnitEEEC2IS2_EEOT_ = comdat any

$_ZSt3getILm0EJPNSt6thread6_StateESt14default_deleteIS1_EEERNSt13tuple_elementIXT_ESt5tupleIJDpT0_EEE4typeERS9_ = comdat any

$_ZNSt10unique_ptrINSt6thread6_StateESt14default_deleteIS1_EE11get_deleterEv = comdat any

$_ZNKSt14default_deleteINSt6thread6_StateEEclEPS1_ = comdat any

$_ZSt12__get_helperILm0EPNSt6thread6_StateEJSt14default_deleteIS1_EEERT0_RSt11_Tuple_implIXT_EJS5_DpT1_EE = comdat any

$_ZNSt11_Tuple_implILm0EJPNSt6thread6_StateESt14default_deleteIS1_EEE7_M_headERS5_ = comdat any

$_ZNSt10_Head_baseILm0EPNSt6thread6_StateELb0EE7_M_headERS3_ = comdat any

$_ZSt3getILm1EJPNSt6thread6_StateESt14default_deleteIS1_EEERNSt13tuple_elementIXT_ESt5tupleIJDpT0_EEE4typeERS9_ = comdat any

$_ZSt12__get_helperILm1ESt14default_deleteINSt6thread6_StateEEJEERT0_RSt11_Tuple_implIXT_EJS4_DpT1_EE = comdat any

$_ZNSt11_Tuple_implILm1EJSt14default_deleteINSt6thread6_StateEEEE7_M_headERS4_ = comdat any

$_ZNSt10_Head_baseILm1ESt14default_deleteINSt6thread6_StateEELb1EE7_M_headERS4_ = comdat any

$_ZN7indexer8WorkUnit6getMsgEv = comdat any

$_ZN7indexer8WorkUnit4hashEv = comdat any

$_ZN9IrsThread4joinEv = comdat any

$_ZN9IrsThreadD2Ev = comdat any

$_ZNSt6chrono20__duration_cast_implINS_8durationIlSt5ratioILl1ELl1000000EEEES2_ILl1ELl1000EElLb1ELb0EE6__castIlS2_ILl1ELl1000000000EEEES4_RKNS1_IT_T0_EE = comdat any

$_ZNKSt6chrono8durationIlSt5ratioILl1ELl1000000000EEE5countEv = comdat any

$_ZNSt6chrono8durationIlSt5ratioILl1ELl1000000EEEC2IlvEERKT_ = comdat any

$_ZNSt6chronomiIlSt5ratioILl1ELl1000000000EElS2_EENSt11common_typeIJNS_8durationIT_T0_EENS4_IT1_T2_EEEE4typeERKS7_RKSA_ = comdat any

$_ZNKSt6chrono10time_pointINS_3_V212system_clockENS_8durationIlSt5ratioILl1ELl1000000000EEEEE16time_since_epochEv = comdat any

$_ZNSt6chrono8durationIlSt5ratioILl1ELl1000000000EEEC2IlvEERKT_ = comdat any

$_ZNSt12_Vector_baseIPN7indexer8WorkUnitESaIS2_EEC2Ev = comdat any

$_ZNSt12_Vector_baseIPN7indexer8WorkUnitESaIS2_EE12_Vector_implC2Ev = comdat any

$_ZNSaIPN7indexer8WorkUnitEEC2Ev = comdat any

$_ZN9__gnu_cxx13new_allocatorIPN7indexer8WorkUnitEEC2Ev = comdat any

$_ZSt8_DestroyIPPN7indexer8WorkUnitES2_EvT_S4_RSaIT0_E = comdat any

$_ZNSt12_Vector_baseIPN7indexer8WorkUnitESaIS2_EE19_M_get_Tp_allocatorEv = comdat any

$_ZNSt12_Vector_baseIPN7indexer8WorkUnitESaIS2_EED2Ev = comdat any

$_ZSt8_DestroyIPPN7indexer8WorkUnitEEvT_S4_ = comdat any

$_ZNSt12_Destroy_auxILb1EE9__destroyIPPN7indexer8WorkUnitEEEvT_S6_ = comdat any

$_ZNSt12_Vector_baseIPN7indexer8WorkUnitESaIS2_EE13_M_deallocateEPS2_m = comdat any

$_ZNSt12_Vector_baseIPN7indexer8WorkUnitESaIS2_EE12_Vector_implD2Ev = comdat any

$_ZNSt16allocator_traitsISaIPN7indexer8WorkUnitEEE10deallocateERS3_PS2_m = comdat any

$_ZN9__gnu_cxx13new_allocatorIPN7indexer8WorkUnitEE10deallocateEPS3_m = comdat any

$_ZNSaIPN7indexer8WorkUnitEED2Ev = comdat any

$_ZN9__gnu_cxx13new_allocatorIPN7indexer8WorkUnitEED2Ev = comdat any

$_ZNSt6vectorIPN7indexer8WorkUnitESaIS2_EE12emplace_backIJS2_EEEvDpOT_ = comdat any

$_ZSt4moveIRPN7indexer8WorkUnitEEONSt16remove_referenceIT_E4typeEOS5_ = comdat any

$_ZNSt16allocator_traitsISaIPN7indexer8WorkUnitEEE9constructIS2_JS2_EEEvRS3_PT_DpOT0_ = comdat any

$_ZNSt6vectorIPN7indexer8WorkUnitESaIS2_EE19_M_emplace_back_auxIJS2_EEEvDpOT_ = comdat any

$_ZN9__gnu_cxx13new_allocatorIPN7indexer8WorkUnitEE9constructIS3_JS3_EEEvPT_DpOT0_ = comdat any

$_ZNKSt6vectorIPN7indexer8WorkUnitESaIS2_EE12_M_check_lenEmPKc = comdat any

$_ZNSt12_Vector_baseIPN7indexer8WorkUnitESaIS2_EE11_M_allocateEm = comdat any

$_ZNKSt6vectorIPN7indexer8WorkUnitESaIS2_EE4sizeEv = comdat any

$_ZSt34__uninitialized_move_if_noexcept_aIPPN7indexer8WorkUnitES3_SaIS2_EET0_T_S6_S5_RT1_ = comdat any

$_ZNSt16allocator_traitsISaIPN7indexer8WorkUnitEEE7destroyIS2_EEvRS3_PT_ = comdat any

$_ZNKSt6vectorIPN7indexer8WorkUnitESaIS2_EE8max_sizeEv = comdat any

$_ZSt3maxImERKT_S2_S2_ = comdat any

$_ZNSt16allocator_traitsISaIPN7indexer8WorkUnitEEE8max_sizeERKS3_ = comdat any

$_ZNKSt12_Vector_baseIPN7indexer8WorkUnitESaIS2_EE19_M_get_Tp_allocatorEv = comdat any

$_ZNK9__gnu_cxx13new_allocatorIPN7indexer8WorkUnitEE8max_sizeEv = comdat any

$_ZNSt16allocator_traitsISaIPN7indexer8WorkUnitEEE8allocateERS3_m = comdat any

$_ZN9__gnu_cxx13new_allocatorIPN7indexer8WorkUnitEE8allocateEmPKv = comdat any

$_ZSt22__uninitialized_copy_aISt13move_iteratorIPPN7indexer8WorkUnitEES4_S3_ET0_T_S7_S6_RSaIT1_E = comdat any

$_ZSt32__make_move_if_noexcept_iteratorIPN7indexer8WorkUnitESt13move_iteratorIPS2_EET0_PT_ = comdat any

$_ZSt18uninitialized_copyISt13move_iteratorIPPN7indexer8WorkUnitEES4_ET0_T_S7_S6_ = comdat any

$_ZNSt20__uninitialized_copyILb1EE13__uninit_copyISt13move_iteratorIPPN7indexer8WorkUnitEES6_EET0_T_S9_S8_ = comdat any

$_ZSt4copyISt13move_iteratorIPPN7indexer8WorkUnitEES4_ET0_T_S7_S6_ = comdat any

$_ZSt14__copy_move_a2ILb1EPPN7indexer8WorkUnitES3_ET1_T0_S5_S4_ = comdat any

$_ZSt12__miter_baseIPPN7indexer8WorkUnitEEDTcl12__miter_basecldtfp_4baseEEESt13move_iteratorIT_E = comdat any

$_ZSt13__copy_move_aILb1EPPN7indexer8WorkUnitES3_ET1_T0_S5_S4_ = comdat any

$_ZSt12__niter_baseIPPN7indexer8WorkUnitEET_S4_ = comdat any

$_ZNSt11__copy_moveILb1ELb1ESt26random_access_iterator_tagE8__copy_mIPN7indexer8WorkUnitEEEPT_PKS6_S9_S7_ = comdat any

$_ZSt12__miter_baseIPPN7indexer8WorkUnitEET_S4_ = comdat any

$_ZNKSt13move_iteratorIPPN7indexer8WorkUnitEE4baseEv = comdat any

$_ZNSt13move_iteratorIPPN7indexer8WorkUnitEEC2ES3_ = comdat any

$_ZN9__gnu_cxx13new_allocatorIPN7indexer8WorkUnitEE7destroyIS3_EEvPT_ = comdat any

$_ZN9__gnu_cxx17__normal_iteratorIPPN7indexer8WorkUnitESt6vectorIS3_SaIS3_EEEC2ERKS4_ = comdat any

$_ZNK9__gnu_cxx17__normal_iteratorIPPN7indexer8WorkUnitESt6vectorIS3_SaIS3_EEE4baseEv = comdat any

$_ZTVNSt6thread11_State_implISt12_Bind_simpleIFSt7_Mem_fnIMN7indexer8WorkUnitEFvvEEPS4_EEEE = comdat any

$_ZTSNSt6thread11_State_implISt12_Bind_simpleIFSt7_Mem_fnIMN7indexer8WorkUnitEFvvEEPS4_EEEE = comdat any

$_ZTINSt6thread11_State_implISt12_Bind_simpleIFSt7_Mem_fnIMN7indexer8WorkUnitEFvvEEPS4_EEEE = comdat any

@_ZStL8__ioinit = internal global %"class.std::ios_base::Init" zeroinitializer, align 1
@__dso_handle = external global i8
@_ZN5boostL4noneE = internal global %"struct.boost::none_t" zeroinitializer, align 1
@_ZN5boost6detailL28make_color_map_from_arg_packE = internal global %"class.boost::detail::make_property_map_from_arg_pack_gen" zeroinitializer, align 4
@.str = private unnamed_addr constant [15 x i8] c"after_callback\00", section "llvm.metadata"
@.str.3 = private unnamed_addr constant [94 x i8] c"/home/sreeram/Dev/mastersthesis/MemoryCheck/src/Benchmark/../../include/Benchmark/benchmark.h\00", section "llvm.metadata"
@.str.4 = private unnamed_addr constant [16 x i8] c"before_callback\00", section "llvm.metadata"
@_ZN7indexer11threadCountE = global i32 0, align 4
@_ZN7indexer12THREAD_COUNTE = constant i32 12, align 4
@_ZN7indexer6gTableE = global [128 x i32] zeroinitializer, align 16
@.str.5 = private unnamed_addr constant [5 x i8] c"gvar\00", section "llvm.metadata"
@.str.6 = private unnamed_addr constant [70 x i8] c"/home/sreeram/Dev/mastersthesis/MemoryCheck/src/Benchmark/indexer.cpp\00", section "llvm.metadata"
@_ZSt4cout = external global %"class.std::basic_ostream", align 8
@.str.7 = private unnamed_addr constant [5 x i8] c"ignr\00", section "llvm.metadata"
@_ZTVNSt6thread11_State_implISt12_Bind_simpleIFSt7_Mem_fnIMN7indexer8WorkUnitEFvvEEPS4_EEEE = linkonce_odr unnamed_addr constant [5 x i8*] [i8* null, i8* bitcast ({ i8*, i8*, i8* }* @_ZTINSt6thread11_State_implISt12_Bind_simpleIFSt7_Mem_fnIMN7indexer8WorkUnitEFvvEEPS4_EEEE to i8*), i8* bitcast (void (%"struct.std::thread::_State_impl"*)* @_ZNSt6thread11_State_implISt12_Bind_simpleIFSt7_Mem_fnIMN7indexer8WorkUnitEFvvEEPS4_EEED2Ev to i8*), i8* bitcast (void (%"struct.std::thread::_State_impl"*)* @_ZNSt6thread11_State_implISt12_Bind_simpleIFSt7_Mem_fnIMN7indexer8WorkUnitEFvvEEPS4_EEED0Ev to i8*), i8* bitcast (void (%"struct.std::thread::_State_impl"*)* @_ZNSt6thread11_State_implISt12_Bind_simpleIFSt7_Mem_fnIMN7indexer8WorkUnitEFvvEEPS4_EEE6_M_runEv to i8*)], comdat, align 8
@_ZTVN10__cxxabiv120__si_class_type_infoE = external global i8*
@_ZTSNSt6thread11_State_implISt12_Bind_simpleIFSt7_Mem_fnIMN7indexer8WorkUnitEFvvEEPS4_EEEE = linkonce_odr constant [87 x i8] c"NSt6thread11_State_implISt12_Bind_simpleIFSt7_Mem_fnIMN7indexer8WorkUnitEFvvEEPS4_EEEE\00", comdat
@_ZTINSt6thread6_StateE = external constant i8*
@_ZTINSt6thread11_State_implISt12_Bind_simpleIFSt7_Mem_fnIMN7indexer8WorkUnitEFvvEEPS4_EEEE = linkonce_odr constant { i8*, i8*, i8* } { i8* bitcast (i8** getelementptr inbounds (i8*, i8** @_ZTVN10__cxxabiv120__si_class_type_infoE, i64 2) to i8*), i8* getelementptr inbounds ([87 x i8], [87 x i8]* @_ZTSNSt6thread11_State_implISt12_Bind_simpleIFSt7_Mem_fnIMN7indexer8WorkUnitEFvvEEPS4_EEEE, i32 0, i32 0), i8* bitcast (i8** @_ZTINSt6thread6_StateE to i8*) }, comdat
@_ZTVNSt6thread6_StateE = external unnamed_addr constant [5 x i8*]
@.str.8 = private unnamed_addr constant [28 x i8] c"vector::_M_emplace_back_aux\00", align 1
@llvm.global_ctors = appending global [1 x { i32, void ()*, i8* }] [{ i32, void ()*, i8* } { i32 65535, void ()* @_GLOBAL__sub_I_indexer.cpp, i8* null }]
@llvm.global.annotations = appending global [4 x { i8*, i8*, i8*, i32 }] [{ i8*, i8*, i8*, i32 } { i8* bitcast (void (i32)* @_Z9__afterMAi to i8*), i8* getelementptr inbounds ([15 x i8], [15 x i8]* @.str, i32 0, i32 0), i8* getelementptr inbounds ([94 x i8], [94 x i8]* @.str.3, i32 0, i32 0), i32 23 }, { i8*, i8*, i8*, i32 } { i8* bitcast (void (i32, i8*, i64, i32)* @_Z10__beforeMAiPvli to i8*), i8* getelementptr inbounds ([16 x i8], [16 x i8]* @.str.4, i32 0, i32 0), i8* getelementptr inbounds ([94 x i8], [94 x i8]* @.str.3, i32 0, i32 0), i32 26 }, { i8*, i8*, i8*, i32 } { i8* bitcast ([128 x i32]* @_ZN7indexer6gTableE to i8*), i8* getelementptr inbounds ([5 x i8], [5 x i8]* @.str.5, i32 0, i32 0), i8* getelementptr inbounds ([70 x i8], [70 x i8]* @.str.6, i32 0, i32 0), i32 18 }, { i8*, i8*, i8*, i32 } { i8* bitcast (void ()* @_ZN7indexer13run_benchmarkEv to i8*), i8* getelementptr inbounds ([5 x i8], [5 x i8]* @.str.7, i32 0, i32 0), i8* getelementptr inbounds ([70 x i8], [70 x i8]* @.str.6, i32 0, i32 0), i32 62 }], section "llvm.metadata"
@llvm.used = appending global [1 x i8*] [i8* bitcast (i32 (%"class.indexer::WorkUnit"*)* @_ZN7indexer8WorkUnit11getThreadIdEv to i8*)], section "llvm.metadata"

; Function Attrs: uwtable
define internal void @__cxx_global_var_init() #0 section ".text.startup" !dbg !3196 {
  call void @_ZNSt8ios_base4InitC1Ev(%"class.std::ios_base::Init"* @_ZStL8__ioinit), !dbg !3197
  %1 = call i32 @__cxa_atexit(void (i8*)* bitcast (void (%"class.std::ios_base::Init"*)* @_ZNSt8ios_base4InitD1Ev to void (i8*)*), i8* getelementptr inbounds (%"class.std::ios_base::Init", %"class.std::ios_base::Init"* @_ZStL8__ioinit, i32 0, i32 0), i8* @__dso_handle) #3, !dbg !3198
  ret void, !dbg !3197
}

declare void @_ZNSt8ios_base4InitC1Ev(%"class.std::ios_base::Init"*) unnamed_addr #1

; Function Attrs: nounwind
declare void @_ZNSt8ios_base4InitD1Ev(%"class.std::ios_base::Init"*) unnamed_addr #2

; Function Attrs: nounwind
declare i32 @__cxa_atexit(void (i8*)*, i8*, i8*) #3

; Function Attrs: uwtable
define internal void @__cxx_global_var_init.1() #0 section ".text.startup" !dbg !3200 {
  %1 = alloca %"struct.boost::none_t::init_tag", align 1
  call void @_ZN5boost6none_tC2ENS0_8init_tagE(%"struct.boost::none_t"* @_ZN5boostL4noneE), !dbg !3201
  ret void, !dbg !3202
}

; Function Attrs: nounwind uwtable
define linkonce_odr void @_ZN5boost6none_tC2ENS0_8init_tagE(%"struct.boost::none_t"*) unnamed_addr #4 comdat align 2 !dbg !3203 {
  %2 = alloca %"struct.boost::none_t::init_tag", align 1
  %3 = alloca %"struct.boost::none_t"*, align 8
  store %"struct.boost::none_t"* %0, %"struct.boost::none_t"** %3, align 8
  call void @llvm.dbg.declare(metadata %"struct.boost::none_t"** %3, metadata !3204, metadata !3206), !dbg !3207
  call void @llvm.dbg.declare(metadata %"struct.boost::none_t::init_tag"* %2, metadata !3208, metadata !3206), !dbg !3209
  %4 = load %"struct.boost::none_t"*, %"struct.boost::none_t"** %3, align 8
  ret void, !dbg !3210
}

; Function Attrs: uwtable
define internal void @__cxx_global_var_init.2() #0 section ".text.startup" !dbg !3211 {
  call void @_ZN5boost6detail35make_property_map_from_arg_pack_genINS_5graph8keywords3tag9color_mapENS_18default_color_typeEEC2ES6_(%"class.boost::detail::make_property_map_from_arg_pack_gen"* @_ZN5boost6detailL28make_color_map_from_arg_packE, i32 0), !dbg !3212
  ret void, !dbg !3213
}

; Function Attrs: nounwind uwtable
define linkonce_odr void @_ZN5boost6detail35make_property_map_from_arg_pack_genINS_5graph8keywords3tag9color_mapENS_18default_color_typeEEC2ES6_(%"class.boost::detail::make_property_map_from_arg_pack_gen"*, i32) unnamed_addr #4 comdat align 2 !dbg !3214 {
  %3 = alloca %"class.boost::detail::make_property_map_from_arg_pack_gen"*, align 8
  %4 = alloca i32, align 4
  store %"class.boost::detail::make_property_map_from_arg_pack_gen"* %0, %"class.boost::detail::make_property_map_from_arg_pack_gen"** %3, align 8
  call void @llvm.dbg.declare(metadata %"class.boost::detail::make_property_map_from_arg_pack_gen"** %3, metadata !3215, metadata !3206), !dbg !3217
  store i32 %1, i32* %4, align 4
  call void @llvm.dbg.declare(metadata i32* %4, metadata !3218, metadata !3206), !dbg !3219
  %5 = load %"class.boost::detail::make_property_map_from_arg_pack_gen"*, %"class.boost::detail::make_property_map_from_arg_pack_gen"** %3, align 8
  %6 = getelementptr inbounds %"class.boost::detail::make_property_map_from_arg_pack_gen", %"class.boost::detail::make_property_map_from_arg_pack_gen"* %5, i32 0, i32 0, !dbg !3220
  %7 = load i32, i32* %4, align 4, !dbg !3221
  store i32 %7, i32* %6, align 4, !dbg !3220
  ret void, !dbg !3222
}

; Function Attrs: uwtable
define void @_Z9__afterMAi(i32) #0 !dbg !3223 {
  %2 = alloca i32, align 4
  store i32 %0, i32* %2, align 4
  call void @llvm.dbg.declare(metadata i32* %2, metadata !3225, metadata !3206), !dbg !3226
  %3 = load i32, i32* %2, align 4, !dbg !3227
  call void @_ZN7Runtime7afterMAEi(i32 %3), !dbg !3228
  ret void, !dbg !3229
}

; Function Attrs: nounwind readnone
declare void @llvm.dbg.declare(metadata, metadata, metadata) #5

declare void @_ZN7Runtime7afterMAEi(i32) #1

; Function Attrs: uwtable
define void @_Z10__beforeMAiPvli(i32, i8*, i64, i32) #0 !dbg !3230 {
  %5 = alloca i32, align 4
  %6 = alloca i8*, align 8
  %7 = alloca i64, align 8
  %8 = alloca i32, align 4
  store i32 %0, i32* %5, align 4
  call void @llvm.dbg.declare(metadata i32* %5, metadata !3233, metadata !3206), !dbg !3234
  store i8* %1, i8** %6, align 8
  call void @llvm.dbg.declare(metadata i8** %6, metadata !3235, metadata !3206), !dbg !3236
  store i64 %2, i64* %7, align 8
  call void @llvm.dbg.declare(metadata i64* %7, metadata !3237, metadata !3206), !dbg !3238
  store i32 %3, i32* %8, align 4
  call void @llvm.dbg.declare(metadata i32* %8, metadata !3239, metadata !3206), !dbg !3240
  %9 = load i32, i32* %5, align 4, !dbg !3241
  %10 = load i8*, i8** %6, align 8, !dbg !3242
  %11 = load i32, i32* %8, align 4, !dbg !3243
  %12 = icmp ne i32 %11, 0, !dbg !3243
  call void @_ZN7Runtime8beforeMAEiPvb(i32 %9, i8* %10, i1 zeroext %12), !dbg !3244
  ret void, !dbg !3245
}

declare void @_ZN7Runtime8beforeMAEiPvb(i32, i8*, i1 zeroext) #1

; Function Attrs: noinline uwtable
define linkonce_odr i32 @_ZN7indexer8WorkUnit11getThreadIdEv(%"class.indexer::WorkUnit"*) #6 comdat align 2 !dbg !3246 {
  %2 = alloca %"class.indexer::WorkUnit"*, align 8
  store %"class.indexer::WorkUnit"* %0, %"class.indexer::WorkUnit"** %2, align 8
  call void @llvm.dbg.declare(metadata %"class.indexer::WorkUnit"** %2, metadata !3247, metadata !3206), !dbg !3248
  %3 = load %"class.indexer::WorkUnit"*, %"class.indexer::WorkUnit"** %2, align 8
  %4 = getelementptr inbounds %"class.indexer::WorkUnit", %"class.indexer::WorkUnit"* %3, i32 0, i32 4, !dbg !3249
  %5 = call i32 @_ZNK9IrsThread6getTidEv(%class.IrsThread* %4), !dbg !3250
  ret i32 %5, !dbg !3251
}

; Function Attrs: nounwind uwtable
define linkonce_odr i32 @_ZNK9IrsThread6getTidEv(%class.IrsThread*) #4 comdat align 2 !dbg !3252 {
  %2 = alloca %class.IrsThread*, align 8
  store %class.IrsThread* %0, %class.IrsThread** %2, align 8
  call void @llvm.dbg.declare(metadata %class.IrsThread** %2, metadata !3253, metadata !3206), !dbg !3255
  %3 = load %class.IrsThread*, %class.IrsThread** %2, align 8
  %4 = getelementptr inbounds %class.IrsThread, %class.IrsThread* %3, i32 0, i32 1, !dbg !3256
  %5 = load i32, i32* %4, align 8, !dbg !3256
  ret i32 %5, !dbg !3257
}

; Function Attrs: uwtable
define void @_ZN7indexer13run_benchmarkEv() #0 personality i8* bitcast (i32 (...)* @__gxx_personality_v0 to i8*) !dbg !3258 {
  %1 = alloca %"class.std::vector", align 8
  %2 = alloca i32, align 4
  %3 = alloca %"struct.std::chrono::time_point", align 8
  %4 = alloca i32, align 4
  %5 = alloca %"class.indexer::WorkUnit"*, align 8
  %6 = alloca i8*
  %7 = alloca i32
  %8 = alloca %"class.std::vector"*, align 8
  %9 = alloca %"class.__gnu_cxx::__normal_iterator", align 8
  %10 = alloca %"class.__gnu_cxx::__normal_iterator", align 8
  %11 = alloca %"class.indexer::WorkUnit"**, align 8
  %12 = alloca %"class.std::vector"*, align 8
  %13 = alloca %"class.__gnu_cxx::__normal_iterator", align 8
  %14 = alloca %"class.__gnu_cxx::__normal_iterator", align 8
  %15 = alloca %"class.indexer::WorkUnit"**, align 8
  %16 = alloca %"struct.std::chrono::time_point", align 8
  %17 = alloca i64, align 8
  %18 = alloca %"struct.std::chrono::duration", align 8
  %19 = alloca %"struct.std::chrono::duration.0", align 8
  call void @llvm.dbg.declare(metadata %"class.std::vector"* %1, metadata !3259, metadata !3206), !dbg !3260
  call void @_ZNSt6vectorIPN7indexer8WorkUnitESaIS2_EEC2Ev(%"class.std::vector"* %1) #3, !dbg !3260
  call void @llvm.dbg.declare(metadata i32* %2, metadata !3261, metadata !3206), !dbg !3263
  store i32 0, i32* %2, align 4, !dbg !3263
  br label %20, !dbg !3264

; <label>:20:                                     ; preds = %27, %0
  %21 = load i32, i32* %2, align 4, !dbg !3265
  %22 = icmp slt i32 %21, 128, !dbg !3268
  br i1 %22, label %23, label %30, !dbg !3269

; <label>:23:                                     ; preds = %20
  %24 = load i32, i32* %2, align 4, !dbg !3270
  %25 = sext i32 %24 to i64, !dbg !3272
  %26 = getelementptr inbounds [128 x i32], [128 x i32]* @_ZN7indexer6gTableE, i64 0, i64 %25, !dbg !3272
  store i32 0, i32* %26, align 4, !dbg !3273
  br label %27, !dbg !3274

; <label>:27:                                     ; preds = %23
  %28 = load i32, i32* %2, align 4, !dbg !3275
  %29 = add nsw i32 %28, 1, !dbg !3275
  store i32 %29, i32* %2, align 4, !dbg !3275
  br label %20, !dbg !3277, !llvm.loop !3278

; <label>:30:                                     ; preds = %20
  call void @llvm.dbg.declare(metadata %"struct.std::chrono::time_point"* %3, metadata !3280, metadata !3206), !dbg !3327
  %31 = call i64 @_ZNSt6chrono3_V212system_clock3nowEv() #3, !dbg !3327
  %32 = getelementptr inbounds %"struct.std::chrono::time_point", %"struct.std::chrono::time_point"* %3, i32 0, i32 0, !dbg !3327
  %33 = getelementptr inbounds %"struct.std::chrono::duration", %"struct.std::chrono::duration"* %32, i32 0, i32 0, !dbg !3327
  store i64 %31, i64* %33, align 8, !dbg !3327
  call void @llvm.dbg.declare(metadata i32* %4, metadata !3328, metadata !3206), !dbg !3330
  store i32 0, i32* %4, align 4, !dbg !3330
  br label %34, !dbg !3331

; <label>:34:                                     ; preds = %45, %30
  %35 = load i32, i32* %4, align 4, !dbg !3332
  %36 = load i32, i32* @_ZN7indexer11threadCountE, align 4, !dbg !3335
  %37 = icmp slt i32 %35, %36, !dbg !3336
  br i1 %37, label %38, label %56, !dbg !3337

; <label>:38:                                     ; preds = %34
  %39 = invoke i8* @_Znwm(i64 32) #15
          to label %40 unwind label %48, !dbg !3338

; <label>:40:                                     ; preds = %38
  %41 = bitcast i8* %39 to %"class.indexer::WorkUnit"*, !dbg !3340
  %42 = load i32, i32* %4, align 4, !dbg !3342
  invoke void @_ZN7indexer8WorkUnitC2Ei(%"class.indexer::WorkUnit"* %41, i32 %42)
          to label %43 unwind label %52, !dbg !3343

; <label>:43:                                     ; preds = %40
  store %"class.indexer::WorkUnit"* %41, %"class.indexer::WorkUnit"** %5, align 8, !dbg !3344
  invoke void @_ZNSt6vectorIPN7indexer8WorkUnitESaIS2_EE9push_backEOS2_(%"class.std::vector"* %1, %"class.indexer::WorkUnit"** dereferenceable(8) %5)
          to label %44 unwind label %48, !dbg !3346

; <label>:44:                                     ; preds = %43
  br label %45, !dbg !3347

; <label>:45:                                     ; preds = %44
  %46 = load i32, i32* %4, align 4, !dbg !3348
  %47 = add nsw i32 %46, 1, !dbg !3348
  store i32 %47, i32* %4, align 4, !dbg !3348
  br label %34, !dbg !3350, !llvm.loop !3351

; <label>:48:                                     ; preds = %108, %105, %102, %99, %94, %81, %65, %43, %38
  %49 = landingpad { i8*, i32 }
          cleanup, !dbg !3353
  %50 = extractvalue { i8*, i32 } %49, 0, !dbg !3353
  store i8* %50, i8** %6, align 8, !dbg !3353
  %51 = extractvalue { i8*, i32 } %49, 1, !dbg !3353
  store i32 %51, i32* %7, align 4, !dbg !3353
  br label %111, !dbg !3353

; <label>:52:                                     ; preds = %40
  %53 = landingpad { i8*, i32 }
          cleanup, !dbg !3354
  %54 = extractvalue { i8*, i32 } %53, 0, !dbg !3354
  store i8* %54, i8** %6, align 8, !dbg !3354
  %55 = extractvalue { i8*, i32 } %53, 1, !dbg !3354
  store i32 %55, i32* %7, align 4, !dbg !3354
  call void @_ZdlPv(i8* %39) #16, !dbg !3355
  br label %111, !dbg !3355

; <label>:56:                                     ; preds = %34
  call void @llvm.dbg.declare(metadata %"class.std::vector"** %8, metadata !3357, metadata !3206), !dbg !3359
  store %"class.std::vector"* %1, %"class.std::vector"** %8, align 8, !dbg !3360
  call void @llvm.dbg.declare(metadata %"class.__gnu_cxx::__normal_iterator"* %9, metadata !3361, metadata !3206), !dbg !3359
  %57 = load %"class.std::vector"*, %"class.std::vector"** %8, align 8, !dbg !3362
  %58 = call %"class.indexer::WorkUnit"** @_ZNSt6vectorIPN7indexer8WorkUnitESaIS2_EE5beginEv(%"class.std::vector"* %57) #3, !dbg !3362
  %59 = getelementptr inbounds %"class.__gnu_cxx::__normal_iterator", %"class.__gnu_cxx::__normal_iterator"* %9, i32 0, i32 0, !dbg !3362
  store %"class.indexer::WorkUnit"** %58, %"class.indexer::WorkUnit"*** %59, align 8, !dbg !3362
  call void @llvm.dbg.declare(metadata %"class.__gnu_cxx::__normal_iterator"* %10, metadata !3363, metadata !3206), !dbg !3359
  %60 = load %"class.std::vector"*, %"class.std::vector"** %8, align 8, !dbg !3362
  %61 = call %"class.indexer::WorkUnit"** @_ZNSt6vectorIPN7indexer8WorkUnitESaIS2_EE3endEv(%"class.std::vector"* %60) #3, !dbg !3364
  %62 = getelementptr inbounds %"class.__gnu_cxx::__normal_iterator", %"class.__gnu_cxx::__normal_iterator"* %10, i32 0, i32 0, !dbg !3362
  store %"class.indexer::WorkUnit"** %61, %"class.indexer::WorkUnit"*** %62, align 8, !dbg !3362
  br label %63, !dbg !3362

; <label>:63:                                     ; preds = %70, %56
  %64 = call zeroext i1 @_ZN9__gnu_cxxneIPPN7indexer8WorkUnitESt6vectorIS3_SaIS3_EEEEbRKNS_17__normal_iteratorIT_T0_EESD_(%"class.__gnu_cxx::__normal_iterator"* dereferenceable(8) %9, %"class.__gnu_cxx::__normal_iterator"* dereferenceable(8) %10) #3, !dbg !3366
  br i1 %64, label %65, label %72, !dbg !3366

; <label>:65:                                     ; preds = %63
  call void @llvm.dbg.declare(metadata %"class.indexer::WorkUnit"*** %11, metadata !3368, metadata !3206), !dbg !3370
  %66 = call dereferenceable(8) %"class.indexer::WorkUnit"** @_ZNK9__gnu_cxx17__normal_iteratorIPPN7indexer8WorkUnitESt6vectorIS3_SaIS3_EEEdeEv(%"class.__gnu_cxx::__normal_iterator"* %9) #3, !dbg !3371
  store %"class.indexer::WorkUnit"** %66, %"class.indexer::WorkUnit"*** %11, align 8, !dbg !3373
  %67 = load %"class.indexer::WorkUnit"**, %"class.indexer::WorkUnit"*** %11, align 8, !dbg !3374
  %68 = load %"class.indexer::WorkUnit"*, %"class.indexer::WorkUnit"** %67, align 8, !dbg !3374
  invoke void @_ZN7indexer8WorkUnit5startEv(%"class.indexer::WorkUnit"* %68)
          to label %69 unwind label %48, !dbg !3376

; <label>:69:                                     ; preds = %65
  br label %70, !dbg !3377

; <label>:70:                                     ; preds = %69
  %71 = call dereferenceable(8) %"class.__gnu_cxx::__normal_iterator"* @_ZN9__gnu_cxx17__normal_iteratorIPPN7indexer8WorkUnitESt6vectorIS3_SaIS3_EEEppEv(%"class.__gnu_cxx::__normal_iterator"* %9) #3, !dbg !3379
  br label %63, !dbg !3379, !llvm.loop !3381

; <label>:72:                                     ; preds = %63
  call void @llvm.dbg.declare(metadata %"class.std::vector"** %12, metadata !3383, metadata !3206), !dbg !3385
  store %"class.std::vector"* %1, %"class.std::vector"** %12, align 8, !dbg !3386
  call void @llvm.dbg.declare(metadata %"class.__gnu_cxx::__normal_iterator"* %13, metadata !3387, metadata !3206), !dbg !3385
  %73 = load %"class.std::vector"*, %"class.std::vector"** %12, align 8, !dbg !3388
  %74 = call %"class.indexer::WorkUnit"** @_ZNSt6vectorIPN7indexer8WorkUnitESaIS2_EE5beginEv(%"class.std::vector"* %73) #3, !dbg !3388
  %75 = getelementptr inbounds %"class.__gnu_cxx::__normal_iterator", %"class.__gnu_cxx::__normal_iterator"* %13, i32 0, i32 0, !dbg !3388
  store %"class.indexer::WorkUnit"** %74, %"class.indexer::WorkUnit"*** %75, align 8, !dbg !3388
  call void @llvm.dbg.declare(metadata %"class.__gnu_cxx::__normal_iterator"* %14, metadata !3389, metadata !3206), !dbg !3385
  %76 = load %"class.std::vector"*, %"class.std::vector"** %12, align 8, !dbg !3388
  %77 = call %"class.indexer::WorkUnit"** @_ZNSt6vectorIPN7indexer8WorkUnitESaIS2_EE3endEv(%"class.std::vector"* %76) #3, !dbg !3390
  %78 = getelementptr inbounds %"class.__gnu_cxx::__normal_iterator", %"class.__gnu_cxx::__normal_iterator"* %14, i32 0, i32 0, !dbg !3388
  store %"class.indexer::WorkUnit"** %77, %"class.indexer::WorkUnit"*** %78, align 8, !dbg !3388
  br label %79, !dbg !3388

; <label>:79:                                     ; preds = %92, %72
  %80 = call zeroext i1 @_ZN9__gnu_cxxneIPPN7indexer8WorkUnitESt6vectorIS3_SaIS3_EEEEbRKNS_17__normal_iteratorIT_T0_EESD_(%"class.__gnu_cxx::__normal_iterator"* dereferenceable(8) %13, %"class.__gnu_cxx::__normal_iterator"* dereferenceable(8) %14) #3, !dbg !3392
  br i1 %80, label %81, label %94, !dbg !3392

; <label>:81:                                     ; preds = %79
  call void @llvm.dbg.declare(metadata %"class.indexer::WorkUnit"*** %15, metadata !3394, metadata !3206), !dbg !3396
  %82 = call dereferenceable(8) %"class.indexer::WorkUnit"** @_ZNK9__gnu_cxx17__normal_iteratorIPPN7indexer8WorkUnitESt6vectorIS3_SaIS3_EEEdeEv(%"class.__gnu_cxx::__normal_iterator"* %13) #3, !dbg !3397
  store %"class.indexer::WorkUnit"** %82, %"class.indexer::WorkUnit"*** %15, align 8, !dbg !3399
  %83 = load %"class.indexer::WorkUnit"**, %"class.indexer::WorkUnit"*** %15, align 8, !dbg !3400
  %84 = load %"class.indexer::WorkUnit"*, %"class.indexer::WorkUnit"** %83, align 8, !dbg !3400
  invoke void @_ZN7indexer8WorkUnit4joinEv(%"class.indexer::WorkUnit"* %84)
          to label %85 unwind label %48, !dbg !3402

; <label>:85:                                     ; preds = %81
  %86 = load %"class.indexer::WorkUnit"**, %"class.indexer::WorkUnit"*** %15, align 8, !dbg !3403
  %87 = load %"class.indexer::WorkUnit"*, %"class.indexer::WorkUnit"** %86, align 8, !dbg !3403
  %88 = icmp eq %"class.indexer::WorkUnit"* %87, null, !dbg !3404
  br i1 %88, label %91, label %89, !dbg !3404

; <label>:89:                                     ; preds = %85
  call void @_ZN7indexer8WorkUnitD2Ev(%"class.indexer::WorkUnit"* %87) #3, !dbg !3405
  %90 = bitcast %"class.indexer::WorkUnit"* %87 to i8*, !dbg !3405
  call void @_ZdlPv(i8* %90) #16, !dbg !3407
  br label %91, !dbg !3405

; <label>:91:                                     ; preds = %89, %85
  br label %92, !dbg !3409

; <label>:92:                                     ; preds = %91
  %93 = call dereferenceable(8) %"class.__gnu_cxx::__normal_iterator"* @_ZN9__gnu_cxx17__normal_iteratorIPPN7indexer8WorkUnitESt6vectorIS3_SaIS3_EEEppEv(%"class.__gnu_cxx::__normal_iterator"* %13) #3, !dbg !3411
  br label %79, !dbg !3411, !llvm.loop !3413

; <label>:94:                                     ; preds = %79
  call void @llvm.dbg.declare(metadata %"struct.std::chrono::time_point"* %16, metadata !3415, metadata !3206), !dbg !3416
  %95 = call i64 @_ZNSt6chrono3_V212system_clock3nowEv() #3, !dbg !3416
  %96 = getelementptr inbounds %"struct.std::chrono::time_point", %"struct.std::chrono::time_point"* %16, i32 0, i32 0, !dbg !3416
  %97 = getelementptr inbounds %"struct.std::chrono::duration", %"struct.std::chrono::duration"* %96, i32 0, i32 0, !dbg !3416
  store i64 %95, i64* %97, align 8, !dbg !3416
  call void @llvm.dbg.declare(metadata i64* %17, metadata !3417, metadata !3206), !dbg !3416
  %98 = invoke i64 @_ZNSt6chronomiINS_3_V212system_clockENS_8durationIlSt5ratioILl1ELl1000000000EEEES6_EENSt11common_typeIJT0_T1_EE4typeERKNS_10time_pointIT_S8_EERKNSC_ISD_S9_EE(%"struct.std::chrono::time_point"* dereferenceable(8) %16, %"struct.std::chrono::time_point"* dereferenceable(8) %3)
          to label %99 unwind label %48, !dbg !3416

; <label>:99:                                     ; preds = %94
  %100 = getelementptr inbounds %"struct.std::chrono::duration", %"struct.std::chrono::duration"* %18, i32 0, i32 0, !dbg !3418
  store i64 %98, i64* %100, align 8, !dbg !3418
  %101 = invoke i64 @_ZNSt6chrono13duration_castINS_8durationIlSt5ratioILl1ELl1000000EEEElS2_ILl1ELl1000000000EEEENSt9enable_ifIXsr13__is_durationIT_EE5valueES7_E4typeERKNS1_IT0_T1_EE(%"struct.std::chrono::duration"* dereferenceable(8) %18)
          to label %102 unwind label %48, !dbg !3418

; <label>:102:                                    ; preds = %99
  %103 = getelementptr inbounds %"struct.std::chrono::duration.0", %"struct.std::chrono::duration.0"* %19, i32 0, i32 0, !dbg !3420
  store i64 %101, i64* %103, align 8, !dbg !3420
  %104 = invoke i64 @_ZNKSt6chrono8durationIlSt5ratioILl1ELl1000000EEE5countEv(%"struct.std::chrono::duration.0"* %19)
          to label %105 unwind label %48, !dbg !3420

; <label>:105:                                    ; preds = %102
  store i64 %104, i64* %17, align 8, !dbg !3422
  %106 = load i64, i64* %17, align 8, !dbg !3422
  %107 = invoke dereferenceable(272) %"class.std::basic_ostream"* @_ZNSolsEl(%"class.std::basic_ostream"* @_ZSt4cout, i64 %106)
          to label %108 unwind label %48, !dbg !3422

; <label>:108:                                    ; preds = %105
  %109 = invoke dereferenceable(272) %"class.std::basic_ostream"* @_ZNSolsEPFRSoS_E(%"class.std::basic_ostream"* %107, %"class.std::basic_ostream"* (%"class.std::basic_ostream"*)* @_ZSt4endlIcSt11char_traitsIcEERSt13basic_ostreamIT_T0_ES6_)
          to label %110 unwind label %48, !dbg !3424

; <label>:110:                                    ; preds = %108
  call void @_ZNSt6vectorIPN7indexer8WorkUnitESaIS2_EED2Ev(%"class.std::vector"* %1) #3, !dbg !3426
  ret void, !dbg !3426

; <label>:111:                                    ; preds = %52, %48
  call void @_ZNSt6vectorIPN7indexer8WorkUnitESaIS2_EED2Ev(%"class.std::vector"* %1) #3, !dbg !3427
  br label %112, !dbg !3427

; <label>:112:                                    ; preds = %111
  %113 = load i8*, i8** %6, align 8, !dbg !3428
  %114 = load i32, i32* %7, align 4, !dbg !3428
  %115 = insertvalue { i8*, i32 } undef, i8* %113, 0, !dbg !3428
  %116 = insertvalue { i8*, i32 } %115, i32 %114, 1, !dbg !3428
  resume { i8*, i32 } %116, !dbg !3428
}

; Function Attrs: nounwind uwtable
define linkonce_odr void @_ZNSt6vectorIPN7indexer8WorkUnitESaIS2_EEC2Ev(%"class.std::vector"*) unnamed_addr #4 comdat align 2 personality i8* bitcast (i32 (...)* @__gxx_personality_v0 to i8*) !dbg !3429 {
  %2 = alloca %"class.std::vector"*, align 8
  store %"class.std::vector"* %0, %"class.std::vector"** %2, align 8
  call void @llvm.dbg.declare(metadata %"class.std::vector"** %2, metadata !3430, metadata !3206), !dbg !3432
  %3 = load %"class.std::vector"*, %"class.std::vector"** %2, align 8
  %4 = bitcast %"class.std::vector"* %3 to %"struct.std::_Vector_base"*, !dbg !3433
  invoke void @_ZNSt12_Vector_baseIPN7indexer8WorkUnitESaIS2_EEC2Ev(%"struct.std::_Vector_base"* %4)
          to label %5 unwind label %6, !dbg !3434

; <label>:5:                                      ; preds = %1
  ret void, !dbg !3435

; <label>:6:                                      ; preds = %1
  %7 = landingpad { i8*, i32 }
          catch i8* null, !dbg !3437
  %8 = extractvalue { i8*, i32 } %7, 0, !dbg !3437
  call void @__clang_call_terminate(i8* %8) #17, !dbg !3437
  unreachable, !dbg !3437
}

; Function Attrs: nounwind
declare i64 @_ZNSt6chrono3_V212system_clock3nowEv() #2

; Function Attrs: uwtable
define linkonce_odr void @_ZNSt6vectorIPN7indexer8WorkUnitESaIS2_EE9push_backEOS2_(%"class.std::vector"*, %"class.indexer::WorkUnit"** dereferenceable(8)) #0 comdat align 2 !dbg !3439 {
  %3 = alloca %"class.std::vector"*, align 8
  %4 = alloca %"class.indexer::WorkUnit"**, align 8
  store %"class.std::vector"* %0, %"class.std::vector"** %3, align 8
  call void @llvm.dbg.declare(metadata %"class.std::vector"** %3, metadata !3440, metadata !3206), !dbg !3441
  store %"class.indexer::WorkUnit"** %1, %"class.indexer::WorkUnit"*** %4, align 8
  call void @llvm.dbg.declare(metadata %"class.indexer::WorkUnit"*** %4, metadata !3442, metadata !3206), !dbg !3443
  %5 = load %"class.std::vector"*, %"class.std::vector"** %3, align 8
  %6 = load %"class.indexer::WorkUnit"**, %"class.indexer::WorkUnit"*** %4, align 8, !dbg !3444
  %7 = call dereferenceable(8) %"class.indexer::WorkUnit"** @_ZSt4moveIRPN7indexer8WorkUnitEEONSt16remove_referenceIT_E4typeEOS5_(%"class.indexer::WorkUnit"** dereferenceable(8) %6) #3, !dbg !3445
  call void @_ZNSt6vectorIPN7indexer8WorkUnitESaIS2_EE12emplace_backIJS2_EEEvDpOT_(%"class.std::vector"* %5, %"class.indexer::WorkUnit"** dereferenceable(8) %7), !dbg !3446
  ret void, !dbg !3448
}

; Function Attrs: nobuiltin
declare noalias i8* @_Znwm(i64) #7

declare i32 @__gxx_personality_v0(...)

; Function Attrs: uwtable
define linkonce_odr void @_ZN7indexer8WorkUnitC2Ei(%"class.indexer::WorkUnit"*, i32) unnamed_addr #0 comdat align 2 !dbg !3449 {
  %3 = alloca %"class.indexer::WorkUnit"*, align 8
  %4 = alloca i32, align 4
  store %"class.indexer::WorkUnit"* %0, %"class.indexer::WorkUnit"** %3, align 8
  call void @llvm.dbg.declare(metadata %"class.indexer::WorkUnit"** %3, metadata !3450, metadata !3206), !dbg !3451
  store i32 %1, i32* %4, align 4
  call void @llvm.dbg.declare(metadata i32* %4, metadata !3452, metadata !3206), !dbg !3453
  %5 = load %"class.indexer::WorkUnit"*, %"class.indexer::WorkUnit"** %3, align 8
  %6 = getelementptr inbounds %"class.indexer::WorkUnit", %"class.indexer::WorkUnit"* %5, i32 0, i32 4, !dbg !3454
  %7 = load i32, i32* %4, align 4, !dbg !3455
  call void @_ZN9IrsThreadC2Ei(%class.IrsThread* %6, i32 %7), !dbg !3454
  %8 = getelementptr inbounds %"class.indexer::WorkUnit", %"class.indexer::WorkUnit"* %5, i32 0, i32 0, !dbg !3456
  store i32 0, i32* %8, align 8, !dbg !3458
  ret void, !dbg !3459
}

; Function Attrs: nobuiltin nounwind
declare void @_ZdlPv(i8*) #8

; Function Attrs: nounwind uwtable
define linkonce_odr %"class.indexer::WorkUnit"** @_ZNSt6vectorIPN7indexer8WorkUnitESaIS2_EE5beginEv(%"class.std::vector"*) #4 comdat align 2 !dbg !3460 {
  %2 = alloca %"class.__gnu_cxx::__normal_iterator", align 8
  %3 = alloca %"class.std::vector"*, align 8
  store %"class.std::vector"* %0, %"class.std::vector"** %3, align 8
  call void @llvm.dbg.declare(metadata %"class.std::vector"** %3, metadata !3461, metadata !3206), !dbg !3462
  %4 = load %"class.std::vector"*, %"class.std::vector"** %3, align 8
  %5 = bitcast %"class.std::vector"* %4 to %"struct.std::_Vector_base"*, !dbg !3463
  %6 = getelementptr inbounds %"struct.std::_Vector_base", %"struct.std::_Vector_base"* %5, i32 0, i32 0, !dbg !3463
  %7 = getelementptr inbounds %"struct.std::_Vector_base<indexer::WorkUnit *, std::allocator<indexer::WorkUnit *> >::_Vector_impl", %"struct.std::_Vector_base<indexer::WorkUnit *, std::allocator<indexer::WorkUnit *> >::_Vector_impl"* %6, i32 0, i32 0, !dbg !3464
  call void @_ZN9__gnu_cxx17__normal_iteratorIPPN7indexer8WorkUnitESt6vectorIS3_SaIS3_EEEC2ERKS4_(%"class.__gnu_cxx::__normal_iterator"* %2, %"class.indexer::WorkUnit"*** dereferenceable(8) %7) #3, !dbg !3465
  %8 = getelementptr inbounds %"class.__gnu_cxx::__normal_iterator", %"class.__gnu_cxx::__normal_iterator"* %2, i32 0, i32 0, !dbg !3466
  %9 = load %"class.indexer::WorkUnit"**, %"class.indexer::WorkUnit"*** %8, align 8, !dbg !3466
  ret %"class.indexer::WorkUnit"** %9, !dbg !3466
}

; Function Attrs: nounwind uwtable
define linkonce_odr %"class.indexer::WorkUnit"** @_ZNSt6vectorIPN7indexer8WorkUnitESaIS2_EE3endEv(%"class.std::vector"*) #4 comdat align 2 !dbg !3467 {
  %2 = alloca %"class.__gnu_cxx::__normal_iterator", align 8
  %3 = alloca %"class.std::vector"*, align 8
  store %"class.std::vector"* %0, %"class.std::vector"** %3, align 8
  call void @llvm.dbg.declare(metadata %"class.std::vector"** %3, metadata !3468, metadata !3206), !dbg !3469
  %4 = load %"class.std::vector"*, %"class.std::vector"** %3, align 8
  %5 = bitcast %"class.std::vector"* %4 to %"struct.std::_Vector_base"*, !dbg !3470
  %6 = getelementptr inbounds %"struct.std::_Vector_base", %"struct.std::_Vector_base"* %5, i32 0, i32 0, !dbg !3470
  %7 = getelementptr inbounds %"struct.std::_Vector_base<indexer::WorkUnit *, std::allocator<indexer::WorkUnit *> >::_Vector_impl", %"struct.std::_Vector_base<indexer::WorkUnit *, std::allocator<indexer::WorkUnit *> >::_Vector_impl"* %6, i32 0, i32 1, !dbg !3471
  call void @_ZN9__gnu_cxx17__normal_iteratorIPPN7indexer8WorkUnitESt6vectorIS3_SaIS3_EEEC2ERKS4_(%"class.__gnu_cxx::__normal_iterator"* %2, %"class.indexer::WorkUnit"*** dereferenceable(8) %7) #3, !dbg !3472
  %8 = getelementptr inbounds %"class.__gnu_cxx::__normal_iterator", %"class.__gnu_cxx::__normal_iterator"* %2, i32 0, i32 0, !dbg !3473
  %9 = load %"class.indexer::WorkUnit"**, %"class.indexer::WorkUnit"*** %8, align 8, !dbg !3473
  ret %"class.indexer::WorkUnit"** %9, !dbg !3473
}

; Function Attrs: inlinehint nounwind uwtable
define linkonce_odr zeroext i1 @_ZN9__gnu_cxxneIPPN7indexer8WorkUnitESt6vectorIS3_SaIS3_EEEEbRKNS_17__normal_iteratorIT_T0_EESD_(%"class.__gnu_cxx::__normal_iterator"* dereferenceable(8), %"class.__gnu_cxx::__normal_iterator"* dereferenceable(8)) #9 comdat !dbg !3474 {
  %3 = alloca %"class.__gnu_cxx::__normal_iterator"*, align 8
  %4 = alloca %"class.__gnu_cxx::__normal_iterator"*, align 8
  store %"class.__gnu_cxx::__normal_iterator"* %0, %"class.__gnu_cxx::__normal_iterator"** %3, align 8
  call void @llvm.dbg.declare(metadata %"class.__gnu_cxx::__normal_iterator"** %3, metadata !3478, metadata !3206), !dbg !3479
  store %"class.__gnu_cxx::__normal_iterator"* %1, %"class.__gnu_cxx::__normal_iterator"** %4, align 8
  call void @llvm.dbg.declare(metadata %"class.__gnu_cxx::__normal_iterator"** %4, metadata !3480, metadata !3206), !dbg !3481
  %5 = load %"class.__gnu_cxx::__normal_iterator"*, %"class.__gnu_cxx::__normal_iterator"** %3, align 8, !dbg !3482
  %6 = call dereferenceable(8) %"class.indexer::WorkUnit"*** @_ZNK9__gnu_cxx17__normal_iteratorIPPN7indexer8WorkUnitESt6vectorIS3_SaIS3_EEE4baseEv(%"class.__gnu_cxx::__normal_iterator"* %5) #3, !dbg !3483
  %7 = load %"class.indexer::WorkUnit"**, %"class.indexer::WorkUnit"*** %6, align 8, !dbg !3483
  %8 = load %"class.__gnu_cxx::__normal_iterator"*, %"class.__gnu_cxx::__normal_iterator"** %4, align 8, !dbg !3484
  %9 = call dereferenceable(8) %"class.indexer::WorkUnit"*** @_ZNK9__gnu_cxx17__normal_iteratorIPPN7indexer8WorkUnitESt6vectorIS3_SaIS3_EEE4baseEv(%"class.__gnu_cxx::__normal_iterator"* %8) #3, !dbg !3485
  %10 = load %"class.indexer::WorkUnit"**, %"class.indexer::WorkUnit"*** %9, align 8, !dbg !3487
  %11 = icmp ne %"class.indexer::WorkUnit"** %7, %10, !dbg !3488
  ret i1 %11, !dbg !3489
}

; Function Attrs: nounwind uwtable
define linkonce_odr dereferenceable(8) %"class.indexer::WorkUnit"** @_ZNK9__gnu_cxx17__normal_iteratorIPPN7indexer8WorkUnitESt6vectorIS3_SaIS3_EEEdeEv(%"class.__gnu_cxx::__normal_iterator"*) #4 comdat align 2 !dbg !3490 {
  %2 = alloca %"class.__gnu_cxx::__normal_iterator"*, align 8
  store %"class.__gnu_cxx::__normal_iterator"* %0, %"class.__gnu_cxx::__normal_iterator"** %2, align 8
  call void @llvm.dbg.declare(metadata %"class.__gnu_cxx::__normal_iterator"** %2, metadata !3491, metadata !3206), !dbg !3493
  %3 = load %"class.__gnu_cxx::__normal_iterator"*, %"class.__gnu_cxx::__normal_iterator"** %2, align 8
  %4 = getelementptr inbounds %"class.__gnu_cxx::__normal_iterator", %"class.__gnu_cxx::__normal_iterator"* %3, i32 0, i32 0, !dbg !3494
  %5 = load %"class.indexer::WorkUnit"**, %"class.indexer::WorkUnit"*** %4, align 8, !dbg !3494
  ret %"class.indexer::WorkUnit"** %5, !dbg !3495
}

; Function Attrs: uwtable
define linkonce_odr void @_ZN7indexer8WorkUnit5startEv(%"class.indexer::WorkUnit"*) #0 comdat align 2 !dbg !3496 {
  %2 = alloca %"class.indexer::WorkUnit"*, align 8
  %3 = alloca { i64, i64 }, align 8
  %4 = alloca %"class.indexer::WorkUnit"*, align 8
  store %"class.indexer::WorkUnit"* %0, %"class.indexer::WorkUnit"** %2, align 8
  call void @llvm.dbg.declare(metadata %"class.indexer::WorkUnit"** %2, metadata !3497, metadata !3206), !dbg !3498
  %5 = load %"class.indexer::WorkUnit"*, %"class.indexer::WorkUnit"** %2, align 8
  %6 = getelementptr inbounds %"class.indexer::WorkUnit", %"class.indexer::WorkUnit"* %5, i32 0, i32 4, !dbg !3499
  store { i64, i64 } { i64 ptrtoint (void (%"class.indexer::WorkUnit"*)* @_ZN7indexer8WorkUnit4execEv to i64), i64 0 }, { i64, i64 }* %3, align 8, !dbg !3500
  store %"class.indexer::WorkUnit"* %5, %"class.indexer::WorkUnit"** %4, align 8, !dbg !3501
  call void @_ZN9IrsThreadclIJMN7indexer8WorkUnitEFvvEPS2_EEEvDpOT_(%class.IrsThread* %6, { i64, i64 }* dereferenceable(16) %3, %"class.indexer::WorkUnit"** dereferenceable(8) %4), !dbg !3499
  ret void, !dbg !3502
}

; Function Attrs: nounwind uwtable
define linkonce_odr dereferenceable(8) %"class.__gnu_cxx::__normal_iterator"* @_ZN9__gnu_cxx17__normal_iteratorIPPN7indexer8WorkUnitESt6vectorIS3_SaIS3_EEEppEv(%"class.__gnu_cxx::__normal_iterator"*) #4 comdat align 2 !dbg !3503 {
  %2 = alloca %"class.__gnu_cxx::__normal_iterator"*, align 8
  store %"class.__gnu_cxx::__normal_iterator"* %0, %"class.__gnu_cxx::__normal_iterator"** %2, align 8
  call void @llvm.dbg.declare(metadata %"class.__gnu_cxx::__normal_iterator"** %2, metadata !3504, metadata !3206), !dbg !3506
  %3 = load %"class.__gnu_cxx::__normal_iterator"*, %"class.__gnu_cxx::__normal_iterator"** %2, align 8
  %4 = getelementptr inbounds %"class.__gnu_cxx::__normal_iterator", %"class.__gnu_cxx::__normal_iterator"* %3, i32 0, i32 0, !dbg !3507
  %5 = load %"class.indexer::WorkUnit"**, %"class.indexer::WorkUnit"*** %4, align 8, !dbg !3508
  %6 = getelementptr inbounds %"class.indexer::WorkUnit"*, %"class.indexer::WorkUnit"** %5, i32 1, !dbg !3508
  store %"class.indexer::WorkUnit"** %6, %"class.indexer::WorkUnit"*** %4, align 8, !dbg !3508
  ret %"class.__gnu_cxx::__normal_iterator"* %3, !dbg !3509
}

; Function Attrs: uwtable
define linkonce_odr void @_ZN7indexer8WorkUnit4joinEv(%"class.indexer::WorkUnit"*) #0 comdat align 2 !dbg !3510 {
  %2 = alloca %"class.indexer::WorkUnit"*, align 8
  store %"class.indexer::WorkUnit"* %0, %"class.indexer::WorkUnit"** %2, align 8
  call void @llvm.dbg.declare(metadata %"class.indexer::WorkUnit"** %2, metadata !3511, metadata !3206), !dbg !3512
  %3 = load %"class.indexer::WorkUnit"*, %"class.indexer::WorkUnit"** %2, align 8
  %4 = getelementptr inbounds %"class.indexer::WorkUnit", %"class.indexer::WorkUnit"* %3, i32 0, i32 4, !dbg !3513
  call void @_ZN9IrsThread4joinEv(%class.IrsThread* %4), !dbg !3514
  ret void, !dbg !3515
}

; Function Attrs: inlinehint nounwind uwtable
define linkonce_odr void @_ZN7indexer8WorkUnitD2Ev(%"class.indexer::WorkUnit"*) unnamed_addr #9 comdat align 2 !dbg !3516 {
  %2 = alloca %"class.indexer::WorkUnit"*, align 8
  store %"class.indexer::WorkUnit"* %0, %"class.indexer::WorkUnit"** %2, align 8
  call void @llvm.dbg.declare(metadata %"class.indexer::WorkUnit"** %2, metadata !3518, metadata !3206), !dbg !3519
  %3 = load %"class.indexer::WorkUnit"*, %"class.indexer::WorkUnit"** %2, align 8
  %4 = getelementptr inbounds %"class.indexer::WorkUnit", %"class.indexer::WorkUnit"* %3, i32 0, i32 4, !dbg !3520
  call void @_ZN9IrsThreadD2Ev(%class.IrsThread* %4) #3, !dbg !3520
  ret void, !dbg !3522
}

; Function Attrs: uwtable
define linkonce_odr i64 @_ZNSt6chrono13duration_castINS_8durationIlSt5ratioILl1ELl1000000EEEElS2_ILl1ELl1000000000EEEENSt9enable_ifIXsr13__is_durationIT_EE5valueES7_E4typeERKNS1_IT0_T1_EE(%"struct.std::chrono::duration"* dereferenceable(8)) #0 comdat !dbg !3523 {
  %2 = alloca %"struct.std::chrono::duration.0", align 8
  %3 = alloca %"struct.std::chrono::duration"*, align 8
  store %"struct.std::chrono::duration"* %0, %"struct.std::chrono::duration"** %3, align 8
  call void @llvm.dbg.declare(metadata %"struct.std::chrono::duration"** %3, metadata !3532, metadata !3206), !dbg !3533
  %4 = load %"struct.std::chrono::duration"*, %"struct.std::chrono::duration"** %3, align 8, !dbg !3534
  %5 = call i64 @_ZNSt6chrono20__duration_cast_implINS_8durationIlSt5ratioILl1ELl1000000EEEES2_ILl1ELl1000EElLb1ELb0EE6__castIlS2_ILl1ELl1000000000EEEES4_RKNS1_IT_T0_EE(%"struct.std::chrono::duration"* dereferenceable(8) %4), !dbg !3535
  %6 = getelementptr inbounds %"struct.std::chrono::duration.0", %"struct.std::chrono::duration.0"* %2, i32 0, i32 0, !dbg !3535
  store i64 %5, i64* %6, align 8, !dbg !3535
  %7 = getelementptr inbounds %"struct.std::chrono::duration.0", %"struct.std::chrono::duration.0"* %2, i32 0, i32 0, !dbg !3536
  %8 = load i64, i64* %7, align 8, !dbg !3536
  ret i64 %8, !dbg !3536
}

; Function Attrs: uwtable
define linkonce_odr i64 @_ZNSt6chronomiINS_3_V212system_clockENS_8durationIlSt5ratioILl1ELl1000000000EEEES6_EENSt11common_typeIJT0_T1_EE4typeERKNS_10time_pointIT_S8_EERKNSC_ISD_S9_EE(%"struct.std::chrono::time_point"* dereferenceable(8), %"struct.std::chrono::time_point"* dereferenceable(8)) #0 comdat !dbg !3537 {
  %3 = alloca %"struct.std::chrono::duration", align 8
  %4 = alloca %"struct.std::chrono::time_point"*, align 8
  %5 = alloca %"struct.std::chrono::time_point"*, align 8
  %6 = alloca %"struct.std::chrono::duration", align 8
  %7 = alloca %"struct.std::chrono::duration", align 8
  store %"struct.std::chrono::time_point"* %0, %"struct.std::chrono::time_point"** %4, align 8
  call void @llvm.dbg.declare(metadata %"struct.std::chrono::time_point"** %4, metadata !3544, metadata !3206), !dbg !3545
  store %"struct.std::chrono::time_point"* %1, %"struct.std::chrono::time_point"** %5, align 8
  call void @llvm.dbg.declare(metadata %"struct.std::chrono::time_point"** %5, metadata !3546, metadata !3206), !dbg !3547
  %8 = load %"struct.std::chrono::time_point"*, %"struct.std::chrono::time_point"** %4, align 8, !dbg !3548
  %9 = call i64 @_ZNKSt6chrono10time_pointINS_3_V212system_clockENS_8durationIlSt5ratioILl1ELl1000000000EEEEE16time_since_epochEv(%"struct.std::chrono::time_point"* %8), !dbg !3549
  %10 = getelementptr inbounds %"struct.std::chrono::duration", %"struct.std::chrono::duration"* %6, i32 0, i32 0, !dbg !3549
  store i64 %9, i64* %10, align 8, !dbg !3549
  %11 = load %"struct.std::chrono::time_point"*, %"struct.std::chrono::time_point"** %5, align 8, !dbg !3550
  %12 = call i64 @_ZNKSt6chrono10time_pointINS_3_V212system_clockENS_8durationIlSt5ratioILl1ELl1000000000EEEEE16time_since_epochEv(%"struct.std::chrono::time_point"* %11), !dbg !3551
  %13 = getelementptr inbounds %"struct.std::chrono::duration", %"struct.std::chrono::duration"* %7, i32 0, i32 0, !dbg !3553
  store i64 %12, i64* %13, align 8, !dbg !3553
  %14 = call i64 @_ZNSt6chronomiIlSt5ratioILl1ELl1000000000EElS2_EENSt11common_typeIJNS_8durationIT_T0_EENS4_IT1_T2_EEEE4typeERKS7_RKSA_(%"struct.std::chrono::duration"* dereferenceable(8) %6, %"struct.std::chrono::duration"* dereferenceable(8) %7), !dbg !3554
  %15 = getelementptr inbounds %"struct.std::chrono::duration", %"struct.std::chrono::duration"* %3, i32 0, i32 0, !dbg !3556
  store i64 %14, i64* %15, align 8, !dbg !3556
  %16 = getelementptr inbounds %"struct.std::chrono::duration", %"struct.std::chrono::duration"* %3, i32 0, i32 0, !dbg !3557
  %17 = load i64, i64* %16, align 8, !dbg !3557
  ret i64 %17, !dbg !3557
}

; Function Attrs: nounwind uwtable
define linkonce_odr i64 @_ZNKSt6chrono8durationIlSt5ratioILl1ELl1000000EEE5countEv(%"struct.std::chrono::duration.0"*) #4 comdat align 2 !dbg !3558 {
  %2 = alloca %"struct.std::chrono::duration.0"*, align 8
  store %"struct.std::chrono::duration.0"* %0, %"struct.std::chrono::duration.0"** %2, align 8
  call void @llvm.dbg.declare(metadata %"struct.std::chrono::duration.0"** %2, metadata !3559, metadata !3206), !dbg !3561
  %3 = load %"struct.std::chrono::duration.0"*, %"struct.std::chrono::duration.0"** %2, align 8
  %4 = getelementptr inbounds %"struct.std::chrono::duration.0", %"struct.std::chrono::duration.0"* %3, i32 0, i32 0, !dbg !3562
  %5 = load i64, i64* %4, align 8, !dbg !3562
  ret i64 %5, !dbg !3563
}

declare dereferenceable(272) %"class.std::basic_ostream"* @_ZNSolsEl(%"class.std::basic_ostream"*, i64) #1

declare dereferenceable(272) %"class.std::basic_ostream"* @_ZNSolsEPFRSoS_E(%"class.std::basic_ostream"*, %"class.std::basic_ostream"* (%"class.std::basic_ostream"*)*) #1

declare dereferenceable(272) %"class.std::basic_ostream"* @_ZSt4endlIcSt11char_traitsIcEERSt13basic_ostreamIT_T0_ES6_(%"class.std::basic_ostream"* dereferenceable(272)) #1

; Function Attrs: nounwind uwtable
define linkonce_odr void @_ZNSt6vectorIPN7indexer8WorkUnitESaIS2_EED2Ev(%"class.std::vector"*) unnamed_addr #4 comdat align 2 personality i8* bitcast (i32 (...)* @__gxx_personality_v0 to i8*) !dbg !3564 {
  %2 = alloca %"class.std::vector"*, align 8
  %3 = alloca i8*
  %4 = alloca i32
  store %"class.std::vector"* %0, %"class.std::vector"** %2, align 8
  call void @llvm.dbg.declare(metadata %"class.std::vector"** %2, metadata !3565, metadata !3206), !dbg !3566
  %5 = load %"class.std::vector"*, %"class.std::vector"** %2, align 8
  %6 = bitcast %"class.std::vector"* %5 to %"struct.std::_Vector_base"*, !dbg !3567
  %7 = getelementptr inbounds %"struct.std::_Vector_base", %"struct.std::_Vector_base"* %6, i32 0, i32 0, !dbg !3567
  %8 = getelementptr inbounds %"struct.std::_Vector_base<indexer::WorkUnit *, std::allocator<indexer::WorkUnit *> >::_Vector_impl", %"struct.std::_Vector_base<indexer::WorkUnit *, std::allocator<indexer::WorkUnit *> >::_Vector_impl"* %7, i32 0, i32 0, !dbg !3569
  %9 = load %"class.indexer::WorkUnit"**, %"class.indexer::WorkUnit"*** %8, align 8, !dbg !3569
  %10 = bitcast %"class.std::vector"* %5 to %"struct.std::_Vector_base"*, !dbg !3570
  %11 = getelementptr inbounds %"struct.std::_Vector_base", %"struct.std::_Vector_base"* %10, i32 0, i32 0, !dbg !3570
  %12 = getelementptr inbounds %"struct.std::_Vector_base<indexer::WorkUnit *, std::allocator<indexer::WorkUnit *> >::_Vector_impl", %"struct.std::_Vector_base<indexer::WorkUnit *, std::allocator<indexer::WorkUnit *> >::_Vector_impl"* %11, i32 0, i32 1, !dbg !3571
  %13 = load %"class.indexer::WorkUnit"**, %"class.indexer::WorkUnit"*** %12, align 8, !dbg !3571
  %14 = bitcast %"class.std::vector"* %5 to %"struct.std::_Vector_base"*, !dbg !3572
  %15 = call dereferenceable(1) %"class.std::allocator"* @_ZNSt12_Vector_baseIPN7indexer8WorkUnitESaIS2_EE19_M_get_Tp_allocatorEv(%"struct.std::_Vector_base"* %14) #3, !dbg !3572
  invoke void @_ZSt8_DestroyIPPN7indexer8WorkUnitES2_EvT_S4_RSaIT0_E(%"class.indexer::WorkUnit"** %9, %"class.indexer::WorkUnit"** %13, %"class.std::allocator"* dereferenceable(1) %15)
          to label %16 unwind label %18, !dbg !3573

; <label>:16:                                     ; preds = %1
  %17 = bitcast %"class.std::vector"* %5 to %"struct.std::_Vector_base"*, !dbg !3574
  call void @_ZNSt12_Vector_baseIPN7indexer8WorkUnitESaIS2_EED2Ev(%"struct.std::_Vector_base"* %17) #3, !dbg !3574
  ret void, !dbg !3574

; <label>:18:                                     ; preds = %1
  %19 = landingpad { i8*, i32 }
          catch i8* null, !dbg !3576
  %20 = extractvalue { i8*, i32 } %19, 0, !dbg !3576
  store i8* %20, i8** %3, align 8, !dbg !3576
  %21 = extractvalue { i8*, i32 } %19, 1, !dbg !3576
  store i32 %21, i32* %4, align 4, !dbg !3576
  %22 = bitcast %"class.std::vector"* %5 to %"struct.std::_Vector_base"*, !dbg !3576
  call void @_ZNSt12_Vector_baseIPN7indexer8WorkUnitESaIS2_EED2Ev(%"struct.std::_Vector_base"* %22) #3, !dbg !3576
  br label %23, !dbg !3576

; <label>:23:                                     ; preds = %18
  %24 = load i8*, i8** %3, align 8, !dbg !3578
  call void @__clang_call_terminate(i8* %24) #17, !dbg !3578
  unreachable, !dbg !3578
}

; Function Attrs: nounwind uwtable
define linkonce_odr void @_ZN9IrsThreadC2Ei(%class.IrsThread*, i32) unnamed_addr #4 comdat align 2 !dbg !3580 {
  %3 = alloca %class.IrsThread*, align 8
  %4 = alloca i32, align 4
  store %class.IrsThread* %0, %class.IrsThread** %3, align 8
  call void @llvm.dbg.declare(metadata %class.IrsThread** %3, metadata !3581, metadata !3206), !dbg !3583
  store i32 %1, i32* %4, align 4
  call void @llvm.dbg.declare(metadata i32* %4, metadata !3584, metadata !3206), !dbg !3585
  %5 = load %class.IrsThread*, %class.IrsThread** %3, align 8
  %6 = getelementptr inbounds %class.IrsThread, %class.IrsThread* %5, i32 0, i32 0, !dbg !3586
  call void @_ZNSt6threadC2Ev(%"class.std::thread"* %6) #3, !dbg !3586
  %7 = getelementptr inbounds %class.IrsThread, %class.IrsThread* %5, i32 0, i32 1, !dbg !3587
  %8 = load i32, i32* %4, align 4, !dbg !3588
  store i32 %8, i32* %7, align 8, !dbg !3587
  ret void, !dbg !3589
}

; Function Attrs: nounwind uwtable
define linkonce_odr void @_ZNSt6threadC2Ev(%"class.std::thread"*) unnamed_addr #4 comdat align 2 !dbg !3590 {
  %2 = alloca %"class.std::thread"*, align 8
  store %"class.std::thread"* %0, %"class.std::thread"** %2, align 8
  call void @llvm.dbg.declare(metadata %"class.std::thread"** %2, metadata !3591, metadata !3206), !dbg !3593
  %3 = load %"class.std::thread"*, %"class.std::thread"** %2, align 8
  %4 = getelementptr inbounds %"class.std::thread", %"class.std::thread"* %3, i32 0, i32 0, !dbg !3594
  call void @_ZNSt6thread2idC2Ev(%"class.std::thread::id"* %4) #3, !dbg !3594
  ret void, !dbg !3595
}

; Function Attrs: nounwind uwtable
define linkonce_odr void @_ZNSt6thread2idC2Ev(%"class.std::thread::id"*) unnamed_addr #4 comdat align 2 !dbg !3596 {
  %2 = alloca %"class.std::thread::id"*, align 8
  store %"class.std::thread::id"* %0, %"class.std::thread::id"** %2, align 8
  call void @llvm.dbg.declare(metadata %"class.std::thread::id"** %2, metadata !3597, metadata !3206), !dbg !3599
  %3 = load %"class.std::thread::id"*, %"class.std::thread::id"** %2, align 8
  %4 = getelementptr inbounds %"class.std::thread::id", %"class.std::thread::id"* %3, i32 0, i32 0, !dbg !3600
  store i64 0, i64* %4, align 8, !dbg !3600
  ret void, !dbg !3601
}

; Function Attrs: uwtable
define linkonce_odr void @_ZN9IrsThreadclIJMN7indexer8WorkUnitEFvvEPS2_EEEvDpOT_(%class.IrsThread*, { i64, i64 }* dereferenceable(16), %"class.indexer::WorkUnit"** dereferenceable(8)) #0 comdat align 2 !dbg !3602 {
  %4 = alloca %class.IrsThread*, align 8
  %5 = alloca { i64, i64 }*, align 8
  %6 = alloca %"class.indexer::WorkUnit"**, align 8
  %7 = alloca %"class.std::thread", align 8
  store %class.IrsThread* %0, %class.IrsThread** %4, align 8
  call void @llvm.dbg.declare(metadata %class.IrsThread** %4, metadata !3611, metadata !3206), !dbg !3612
  store { i64, i64 }* %1, { i64, i64 }** %5, align 8
  call void @llvm.dbg.declare(metadata { i64, i64 }** %5, metadata !3613, metadata !3206), !dbg !3614
  store %"class.indexer::WorkUnit"** %2, %"class.indexer::WorkUnit"*** %6, align 8
  call void @llvm.dbg.declare(metadata %"class.indexer::WorkUnit"*** %6, metadata !3615, metadata !3206), !dbg !3614
  %8 = load %class.IrsThread*, %class.IrsThread** %4, align 8
  %9 = getelementptr inbounds %class.IrsThread, %class.IrsThread* %8, i32 0, i32 0, !dbg !3616
  %10 = load { i64, i64 }*, { i64, i64 }** %5, align 8, !dbg !3617
  %11 = call dereferenceable(16) { i64, i64 }* @_ZSt7forwardIMN7indexer8WorkUnitEFvvEEOT_RNSt16remove_referenceIS4_E4typeE({ i64, i64 }* dereferenceable(16) %10) #3, !dbg !3618
  %12 = load %"class.indexer::WorkUnit"**, %"class.indexer::WorkUnit"*** %6, align 8, !dbg !3617
  %13 = call dereferenceable(8) %"class.indexer::WorkUnit"** @_ZSt7forwardIPN7indexer8WorkUnitEEOT_RNSt16remove_referenceIS3_E4typeE(%"class.indexer::WorkUnit"** dereferenceable(8) %12) #3, !dbg !3619
  call void @_ZNSt6threadC2IMN7indexer8WorkUnitEFvvEJPS2_EEEOT_DpOT0_(%"class.std::thread"* %7, { i64, i64 }* dereferenceable(16) %11, %"class.indexer::WorkUnit"** dereferenceable(8) %13), !dbg !3621
  %14 = call dereferenceable(8) %"class.std::thread"* @_ZNSt6threadaSEOS_(%"class.std::thread"* %9, %"class.std::thread"* dereferenceable(8) %7) #3, !dbg !3623
  call void @_ZNSt6threadD2Ev(%"class.std::thread"* %7) #3, !dbg !3625
  ret void, !dbg !3627
}

; Function Attrs: uwtable
define linkonce_odr void @_ZN7indexer8WorkUnit4execEv(%"class.indexer::WorkUnit"*) #0 comdat align 2 !dbg !3628 {
  %2 = alloca %"class.indexer::WorkUnit"*, align 8
  store %"class.indexer::WorkUnit"* %0, %"class.indexer::WorkUnit"** %2, align 8
  call void @llvm.dbg.declare(metadata %"class.indexer::WorkUnit"** %2, metadata !3629, metadata !3206), !dbg !3630
  %3 = load %"class.indexer::WorkUnit"*, %"class.indexer::WorkUnit"** %2, align 8
  br label %4, !dbg !3631

; <label>:4:                                      ; preds = %1, %31
  %5 = call i32 @_ZN7indexer8WorkUnit6getMsgEv(%"class.indexer::WorkUnit"* %3), !dbg !3632
  %6 = getelementptr inbounds %"class.indexer::WorkUnit", %"class.indexer::WorkUnit"* %3, i32 0, i32 1, !dbg !3634
  store i32 %5, i32* %6, align 4, !dbg !3635
  %7 = getelementptr inbounds %"class.indexer::WorkUnit", %"class.indexer::WorkUnit"* %3, i32 0, i32 1, !dbg !3636
  %8 = load i32, i32* %7, align 4, !dbg !3636
  %9 = icmp eq i32 %8, -1, !dbg !3638
  br i1 %9, label %10, label %11, !dbg !3639

; <label>:10:                                     ; preds = %4
  br label %32, !dbg !3640

; <label>:11:                                     ; preds = %4
  %12 = call i32 @_ZN7indexer8WorkUnit4hashEv(%"class.indexer::WorkUnit"* %3), !dbg !3641
  %13 = getelementptr inbounds %"class.indexer::WorkUnit", %"class.indexer::WorkUnit"* %3, i32 0, i32 2, !dbg !3642
  store i32 %12, i32* %13, align 8, !dbg !3643
  br label %14, !dbg !3644

; <label>:14:                                     ; preds = %25, %11
  %15 = getelementptr inbounds %"class.indexer::WorkUnit", %"class.indexer::WorkUnit"* %3, i32 0, i32 2, !dbg !3645
  %16 = load i32, i32* %15, align 8, !dbg !3645
  %17 = sext i32 %16 to i64, !dbg !3647
  %18 = getelementptr inbounds [128 x i32], [128 x i32]* @_ZN7indexer6gTableE, i64 0, i64 %17, !dbg !3647
  %19 = getelementptr inbounds %"class.indexer::WorkUnit", %"class.indexer::WorkUnit"* %3, i32 0, i32 1, !dbg !3648
  %20 = load i32, i32* %19, align 4, !dbg !3648
  %21 = cmpxchg i32* %18, i32 0, i32 %20 seq_cst seq_cst, !dbg !3649
  %22 = extractvalue { i32, i1 } %21, 1, !dbg !3649
  %23 = zext i1 %22 to i32, !dbg !3649
  %24 = icmp eq i32 %23, 0, !dbg !3650
  br i1 %24, label %25, label %31, !dbg !3651

; <label>:25:                                     ; preds = %14
  %26 = getelementptr inbounds %"class.indexer::WorkUnit", %"class.indexer::WorkUnit"* %3, i32 0, i32 2, !dbg !3652
  %27 = load i32, i32* %26, align 8, !dbg !3652
  %28 = add nsw i32 %27, 1, !dbg !3654
  %29 = srem i32 %28, 128, !dbg !3655
  %30 = getelementptr inbounds %"class.indexer::WorkUnit", %"class.indexer::WorkUnit"* %3, i32 0, i32 2, !dbg !3656
  store i32 %29, i32* %30, align 8, !dbg !3657
  br label %14, !dbg !3658, !llvm.loop !3660

; <label>:31:                                     ; preds = %14
  br label %4, !dbg !3661, !llvm.loop !3663

; <label>:32:                                     ; preds = %10
  %33 = call i32 @_ZN7indexer8WorkUnit11getThreadIdEv(%"class.indexer::WorkUnit"* %3), !dbg !3664
  call void @_ZN7Runtime14threadFinishedEi(i32 %33), !dbg !3665
  ret void, !dbg !3666
}

; Function Attrs: nounwind uwtable
define linkonce_odr dereferenceable(8) %"class.std::thread"* @_ZNSt6threadaSEOS_(%"class.std::thread"*, %"class.std::thread"* dereferenceable(8)) #4 comdat align 2 !dbg !3667 {
  %3 = alloca %"class.std::thread"*, align 8
  %4 = alloca %"class.std::thread"*, align 8
  store %"class.std::thread"* %0, %"class.std::thread"** %3, align 8
  call void @llvm.dbg.declare(metadata %"class.std::thread"** %3, metadata !3668, metadata !3206), !dbg !3669
  store %"class.std::thread"* %1, %"class.std::thread"** %4, align 8
  call void @llvm.dbg.declare(metadata %"class.std::thread"** %4, metadata !3670, metadata !3206), !dbg !3671
  %5 = load %"class.std::thread"*, %"class.std::thread"** %3, align 8
  %6 = call zeroext i1 @_ZNKSt6thread8joinableEv(%"class.std::thread"* %5) #3, !dbg !3672
  br i1 %6, label %7, label %8, !dbg !3674

; <label>:7:                                      ; preds = %2
  call void @_ZSt9terminatev() #17, !dbg !3675
  unreachable, !dbg !3675

; <label>:8:                                      ; preds = %2
  %9 = load %"class.std::thread"*, %"class.std::thread"** %4, align 8, !dbg !3676
  call void @_ZNSt6thread4swapERS_(%"class.std::thread"* %5, %"class.std::thread"* dereferenceable(8) %9) #3, !dbg !3677
  ret %"class.std::thread"* %5, !dbg !3678
}

; Function Attrs: nounwind uwtable
define linkonce_odr dereferenceable(16) { i64, i64 }* @_ZSt7forwardIMN7indexer8WorkUnitEFvvEEOT_RNSt16remove_referenceIS4_E4typeE({ i64, i64 }* dereferenceable(16)) #4 comdat !dbg !3679 {
  %2 = alloca { i64, i64 }*, align 8
  store { i64, i64 }* %0, { i64, i64 }** %2, align 8
  call void @llvm.dbg.declare(metadata { i64, i64 }** %2, metadata !3686, metadata !3206), !dbg !3687
  %3 = load { i64, i64 }*, { i64, i64 }** %2, align 8, !dbg !3688
  ret { i64, i64 }* %3, !dbg !3689
}

; Function Attrs: nounwind uwtable
define linkonce_odr dereferenceable(8) %"class.indexer::WorkUnit"** @_ZSt7forwardIPN7indexer8WorkUnitEEOT_RNSt16remove_referenceIS3_E4typeE(%"class.indexer::WorkUnit"** dereferenceable(8)) #4 comdat !dbg !3690 {
  %2 = alloca %"class.indexer::WorkUnit"**, align 8
  store %"class.indexer::WorkUnit"** %0, %"class.indexer::WorkUnit"*** %2, align 8
  call void @llvm.dbg.declare(metadata %"class.indexer::WorkUnit"*** %2, metadata !3696, metadata !3206), !dbg !3697
  %3 = load %"class.indexer::WorkUnit"**, %"class.indexer::WorkUnit"*** %2, align 8, !dbg !3698
  ret %"class.indexer::WorkUnit"** %3, !dbg !3699
}

; Function Attrs: uwtable
define linkonce_odr void @_ZNSt6threadC2IMN7indexer8WorkUnitEFvvEJPS2_EEEOT_DpOT0_(%"class.std::thread"*, { i64, i64 }* dereferenceable(16), %"class.indexer::WorkUnit"** dereferenceable(8)) unnamed_addr #0 comdat align 2 personality i8* bitcast (i32 (...)* @__gxx_personality_v0 to i8*) !dbg !3700 {
  %4 = alloca %"class.std::thread"*, align 8
  %5 = alloca { i64, i64 }*, align 8
  %6 = alloca %"class.indexer::WorkUnit"**, align 8
  %7 = alloca void ()*, align 8
  %8 = alloca %"class.std::unique_ptr", align 8
  %9 = alloca %"struct.std::_Bind_simple", align 8
  %10 = alloca i8*
  %11 = alloca i32
  store %"class.std::thread"* %0, %"class.std::thread"** %4, align 8
  call void @llvm.dbg.declare(metadata %"class.std::thread"** %4, metadata !3706, metadata !3206), !dbg !3707
  store { i64, i64 }* %1, { i64, i64 }** %5, align 8
  call void @llvm.dbg.declare(metadata { i64, i64 }** %5, metadata !3708, metadata !3206), !dbg !3709
  store %"class.indexer::WorkUnit"** %2, %"class.indexer::WorkUnit"*** %6, align 8
  call void @llvm.dbg.declare(metadata %"class.indexer::WorkUnit"*** %6, metadata !3710, metadata !3206), !dbg !3711
  %12 = load %"class.std::thread"*, %"class.std::thread"** %4, align 8
  %13 = getelementptr inbounds %"class.std::thread", %"class.std::thread"* %12, i32 0, i32 0, !dbg !3712
  call void @_ZNSt6thread2idC2Ev(%"class.std::thread::id"* %13) #3, !dbg !3712
  call void @llvm.dbg.declare(metadata void ()** %7, metadata !3713, metadata !3206), !dbg !3715
  store void ()* bitcast (i32 (i64*, %union.pthread_attr_t*, i8* (i8*)*, i8*)* @pthread_create to void ()*), void ()** %7, align 8, !dbg !3715
  %14 = load { i64, i64 }*, { i64, i64 }** %5, align 8, !dbg !3716
  %15 = call dereferenceable(16) { i64, i64 }* @_ZSt7forwardIMN7indexer8WorkUnitEFvvEEOT_RNSt16remove_referenceIS4_E4typeE({ i64, i64 }* dereferenceable(16) %14) #3, !dbg !3717
  %16 = load %"class.indexer::WorkUnit"**, %"class.indexer::WorkUnit"*** %6, align 8, !dbg !3718
  %17 = call dereferenceable(8) %"class.indexer::WorkUnit"** @_ZSt7forwardIPN7indexer8WorkUnitEEOT_RNSt16remove_referenceIS3_E4typeE(%"class.indexer::WorkUnit"** dereferenceable(8) %16) #3, !dbg !3719
  call void @_ZSt13__bind_simpleIMN7indexer8WorkUnitEFvvEJPS1_EENSt19_Bind_simple_helperIT_JDpT0_EE6__typeEOS6_DpOS7_(%"struct.std::_Bind_simple"* sret %9, { i64, i64 }* dereferenceable(16) %15, %"class.indexer::WorkUnit"** dereferenceable(8) %17), !dbg !3720
  call void @_ZNSt6thread13_S_make_stateISt12_Bind_simpleIFSt7_Mem_fnIMN7indexer8WorkUnitEFvvEEPS4_EEEESt10unique_ptrINS_6_StateESt14default_deleteISC_EEOT_(%"class.std::unique_ptr"* sret %8, %"struct.std::_Bind_simple"* dereferenceable(24) %9), !dbg !3722
  %18 = load void ()*, void ()** %7, align 8, !dbg !3723
  invoke void @_ZNSt6thread15_M_start_threadESt10unique_ptrINS_6_StateESt14default_deleteIS1_EEPFvvE(%"class.std::thread"* %12, %"class.std::unique_ptr"* %8, void ()* %18)
          to label %19 unwind label %20, !dbg !3724

; <label>:19:                                     ; preds = %3
  call void @_ZNSt10unique_ptrINSt6thread6_StateESt14default_deleteIS1_EED2Ev(%"class.std::unique_ptr"* %8) #3, !dbg !3725
  ret void, !dbg !3726

; <label>:20:                                     ; preds = %3
  %21 = landingpad { i8*, i32 }
          cleanup, !dbg !3727
  %22 = extractvalue { i8*, i32 } %21, 0, !dbg !3727
  store i8* %22, i8** %10, align 8, !dbg !3727
  %23 = extractvalue { i8*, i32 } %21, 1, !dbg !3727
  store i32 %23, i32* %11, align 4, !dbg !3727
  call void @_ZNSt10unique_ptrINSt6thread6_StateESt14default_deleteIS1_EED2Ev(%"class.std::unique_ptr"* %8) #3, !dbg !3728
  br label %24, !dbg !3728

; <label>:24:                                     ; preds = %20
  %25 = load i8*, i8** %10, align 8, !dbg !3730
  %26 = load i32, i32* %11, align 4, !dbg !3730
  %27 = insertvalue { i8*, i32 } undef, i8* %25, 0, !dbg !3730
  %28 = insertvalue { i8*, i32 } %27, i32 %26, 1, !dbg !3730
  resume { i8*, i32 } %28, !dbg !3730
}

; Function Attrs: nounwind uwtable
define linkonce_odr void @_ZNSt6threadD2Ev(%"class.std::thread"*) unnamed_addr #4 comdat align 2 !dbg !3732 {
  %2 = alloca %"class.std::thread"*, align 8
  store %"class.std::thread"* %0, %"class.std::thread"** %2, align 8
  call void @llvm.dbg.declare(metadata %"class.std::thread"** %2, metadata !3733, metadata !3206), !dbg !3734
  %3 = load %"class.std::thread"*, %"class.std::thread"** %2, align 8
  %4 = call zeroext i1 @_ZNKSt6thread8joinableEv(%"class.std::thread"* %3) #3, !dbg !3735
  br i1 %4, label %5, label %6, !dbg !3738

; <label>:5:                                      ; preds = %1
  call void @_ZSt9terminatev() #17, !dbg !3739
  unreachable, !dbg !3739

; <label>:6:                                      ; preds = %1
  ret void, !dbg !3740
}

; Function Attrs: nounwind uwtable
define linkonce_odr zeroext i1 @_ZNKSt6thread8joinableEv(%"class.std::thread"*) #4 comdat align 2 !dbg !3741 {
  %2 = alloca %"class.std::thread"*, align 8
  %3 = alloca %"class.std::thread::id", align 8
  %4 = alloca %"class.std::thread::id", align 8
  store %"class.std::thread"* %0, %"class.std::thread"** %2, align 8
  call void @llvm.dbg.declare(metadata %"class.std::thread"** %2, metadata !3742, metadata !3206), !dbg !3744
  %5 = load %"class.std::thread"*, %"class.std::thread"** %2, align 8
  %6 = getelementptr inbounds %"class.std::thread", %"class.std::thread"* %5, i32 0, i32 0, !dbg !3745
  %7 = bitcast %"class.std::thread::id"* %3 to i8*, !dbg !3745
  %8 = bitcast %"class.std::thread::id"* %6 to i8*, !dbg !3745
  call void @llvm.memcpy.p0i8.p0i8.i64(i8* %7, i8* %8, i64 8, i32 8, i1 false), !dbg !3745
  call void @_ZNSt6thread2idC2Ev(%"class.std::thread::id"* %4) #3, !dbg !3746
  %9 = getelementptr inbounds %"class.std::thread::id", %"class.std::thread::id"* %3, i32 0, i32 0, !dbg !3748
  %10 = load i64, i64* %9, align 8, !dbg !3748
  %11 = getelementptr inbounds %"class.std::thread::id", %"class.std::thread::id"* %4, i32 0, i32 0, !dbg !3748
  %12 = load i64, i64* %11, align 8, !dbg !3748
  %13 = call zeroext i1 @_ZSteqNSt6thread2idES0_(i64 %10, i64 %12) #3, !dbg !3749
  %14 = xor i1 %13, true, !dbg !3751
  ret i1 %14, !dbg !3752
}

; Function Attrs: noreturn nounwind
declare void @_ZSt9terminatev() #10

; Function Attrs: nounwind uwtable
define linkonce_odr void @_ZNSt6thread4swapERS_(%"class.std::thread"*, %"class.std::thread"* dereferenceable(8)) #4 comdat align 2 !dbg !3753 {
  %3 = alloca %"class.std::thread"*, align 8
  %4 = alloca %"class.std::thread"*, align 8
  store %"class.std::thread"* %0, %"class.std::thread"** %3, align 8
  call void @llvm.dbg.declare(metadata %"class.std::thread"** %3, metadata !3754, metadata !3206), !dbg !3755
  store %"class.std::thread"* %1, %"class.std::thread"** %4, align 8
  call void @llvm.dbg.declare(metadata %"class.std::thread"** %4, metadata !3756, metadata !3206), !dbg !3757
  %5 = load %"class.std::thread"*, %"class.std::thread"** %3, align 8
  %6 = getelementptr inbounds %"class.std::thread", %"class.std::thread"* %5, i32 0, i32 0, !dbg !3758
  %7 = load %"class.std::thread"*, %"class.std::thread"** %4, align 8, !dbg !3759
  %8 = getelementptr inbounds %"class.std::thread", %"class.std::thread"* %7, i32 0, i32 0, !dbg !3760
  call void @_ZSt4swapINSt6thread2idEENSt9enable_ifIXsr6__and_ISt21is_move_constructibleIT_ESt18is_move_assignableIS4_EEE5valueEvE4typeERS4_SA_(%"class.std::thread::id"* dereferenceable(8) %6, %"class.std::thread::id"* dereferenceable(8) %8) #3, !dbg !3761
  ret void, !dbg !3762
}

; Function Attrs: nounwind uwtable
define linkonce_odr zeroext i1 @_ZSteqNSt6thread2idES0_(i64, i64) #4 comdat !dbg !3763 {
  %3 = alloca %"class.std::thread::id", align 8
  %4 = alloca %"class.std::thread::id", align 8
  %5 = getelementptr inbounds %"class.std::thread::id", %"class.std::thread::id"* %3, i32 0, i32 0
  store i64 %0, i64* %5, align 8
  %6 = getelementptr inbounds %"class.std::thread::id", %"class.std::thread::id"* %4, i32 0, i32 0
  store i64 %1, i64* %6, align 8
  call void @llvm.dbg.declare(metadata %"class.std::thread::id"* %3, metadata !3766, metadata !3206), !dbg !3767
  call void @llvm.dbg.declare(metadata %"class.std::thread::id"* %4, metadata !3768, metadata !3206), !dbg !3769
  %7 = getelementptr inbounds %"class.std::thread::id", %"class.std::thread::id"* %3, i32 0, i32 0, !dbg !3770
  %8 = load i64, i64* %7, align 8, !dbg !3770
  %9 = getelementptr inbounds %"class.std::thread::id", %"class.std::thread::id"* %4, i32 0, i32 0, !dbg !3771
  %10 = load i64, i64* %9, align 8, !dbg !3771
  %11 = icmp eq i64 %8, %10, !dbg !3772
  ret i1 %11, !dbg !3773
}

; Function Attrs: argmemonly nounwind
declare void @llvm.memcpy.p0i8.p0i8.i64(i8* nocapture writeonly, i8* nocapture readonly, i64, i32, i1) #11

; Function Attrs: inlinehint nounwind uwtable
define linkonce_odr void @_ZSt4swapINSt6thread2idEENSt9enable_ifIXsr6__and_ISt21is_move_constructibleIT_ESt18is_move_assignableIS4_EEE5valueEvE4typeERS4_SA_(%"class.std::thread::id"* dereferenceable(8), %"class.std::thread::id"* dereferenceable(8)) #9 comdat !dbg !3774 {
  %3 = alloca %"class.std::thread::id"*, align 8
  %4 = alloca %"class.std::thread::id"*, align 8
  %5 = alloca %"class.std::thread::id", align 8
  store %"class.std::thread::id"* %0, %"class.std::thread::id"** %3, align 8
  call void @llvm.dbg.declare(metadata %"class.std::thread::id"** %3, metadata !3783, metadata !3206), !dbg !3784
  store %"class.std::thread::id"* %1, %"class.std::thread::id"** %4, align 8
  call void @llvm.dbg.declare(metadata %"class.std::thread::id"** %4, metadata !3785, metadata !3206), !dbg !3786
  call void @llvm.dbg.declare(metadata %"class.std::thread::id"* %5, metadata !3787, metadata !3206), !dbg !3788
  %6 = load %"class.std::thread::id"*, %"class.std::thread::id"** %3, align 8, !dbg !3789
  %7 = call dereferenceable(8) %"class.std::thread::id"* @_ZSt4moveIRNSt6thread2idEEONSt16remove_referenceIT_E4typeEOS4_(%"class.std::thread::id"* dereferenceable(8) %6) #3, !dbg !3789
  %8 = bitcast %"class.std::thread::id"* %5 to i8*, !dbg !3789
  %9 = bitcast %"class.std::thread::id"* %7 to i8*, !dbg !3789
  call void @llvm.memcpy.p0i8.p0i8.i64(i8* %8, i8* %9, i64 8, i32 8, i1 false), !dbg !3790
  %10 = load %"class.std::thread::id"*, %"class.std::thread::id"** %3, align 8, !dbg !3792
  %11 = load %"class.std::thread::id"*, %"class.std::thread::id"** %4, align 8, !dbg !3793
  %12 = call dereferenceable(8) %"class.std::thread::id"* @_ZSt4moveIRNSt6thread2idEEONSt16remove_referenceIT_E4typeEOS4_(%"class.std::thread::id"* dereferenceable(8) %11) #3, !dbg !3793
  %13 = bitcast %"class.std::thread::id"* %10 to i8*, !dbg !3794
  %14 = bitcast %"class.std::thread::id"* %12 to i8*, !dbg !3794
  call void @llvm.memcpy.p0i8.p0i8.i64(i8* %13, i8* %14, i64 8, i32 8, i1 false), !dbg !3795
  %15 = load %"class.std::thread::id"*, %"class.std::thread::id"** %4, align 8, !dbg !3796
  %16 = call dereferenceable(8) %"class.std::thread::id"* @_ZSt4moveIRNSt6thread2idEEONSt16remove_referenceIT_E4typeEOS4_(%"class.std::thread::id"* dereferenceable(8) %5) #3, !dbg !3797
  %17 = bitcast %"class.std::thread::id"* %15 to i8*, !dbg !3798
  %18 = bitcast %"class.std::thread::id"* %16 to i8*, !dbg !3798
  call void @llvm.memcpy.p0i8.p0i8.i64(i8* %17, i8* %18, i64 8, i32 8, i1 false), !dbg !3799
  ret void, !dbg !3800
}

; Function Attrs: nounwind uwtable
define linkonce_odr dereferenceable(8) %"class.std::thread::id"* @_ZSt4moveIRNSt6thread2idEEONSt16remove_referenceIT_E4typeEOS4_(%"class.std::thread::id"* dereferenceable(8)) #4 comdat !dbg !3801 {
  %2 = alloca %"class.std::thread::id"*, align 8
  store %"class.std::thread::id"* %0, %"class.std::thread::id"** %2, align 8
  call void @llvm.dbg.declare(metadata %"class.std::thread::id"** %2, metadata !3809, metadata !3206), !dbg !3810
  %3 = load %"class.std::thread::id"*, %"class.std::thread::id"** %2, align 8, !dbg !3811
  ret %"class.std::thread::id"* %3, !dbg !3812
}

; Function Attrs: nounwind
declare i32 @pthread_create(i64*, %union.pthread_attr_t*, i8* (i8*)*, i8*) #2

declare void @_ZNSt6thread15_M_start_threadESt10unique_ptrINS_6_StateESt14default_deleteIS1_EEPFvvE(%"class.std::thread"*, %"class.std::unique_ptr"*, void ()*) #1

; Function Attrs: uwtable
define linkonce_odr void @_ZNSt6thread13_S_make_stateISt12_Bind_simpleIFSt7_Mem_fnIMN7indexer8WorkUnitEFvvEEPS4_EEEESt10unique_ptrINS_6_StateESt14default_deleteISC_EEOT_(%"class.std::unique_ptr"* noalias sret, %"struct.std::_Bind_simple"* dereferenceable(24)) #0 comdat align 2 personality i8* bitcast (i32 (...)* @__gxx_personality_v0 to i8*) !dbg !3813 {
  %3 = alloca %"struct.std::_Bind_simple"*, align 8
  %4 = alloca i8*
  %5 = alloca i32
  store %"struct.std::_Bind_simple"* %1, %"struct.std::_Bind_simple"** %3, align 8
  call void @llvm.dbg.declare(metadata %"struct.std::_Bind_simple"** %3, metadata !4016, metadata !3206), !dbg !4017
  %6 = call i8* @_Znwm(i64 32) #15, !dbg !4018
  %7 = bitcast i8* %6 to %"struct.std::thread::_State_impl"*, !dbg !4018
  %8 = load %"struct.std::_Bind_simple"*, %"struct.std::_Bind_simple"** %3, align 8, !dbg !4019
  %9 = call dereferenceable(24) %"struct.std::_Bind_simple"* @_ZSt7forwardISt12_Bind_simpleIFSt7_Mem_fnIMN7indexer8WorkUnitEFvvEEPS3_EEEOT_RNSt16remove_referenceISA_E4typeE(%"struct.std::_Bind_simple"* dereferenceable(24) %8) #3, !dbg !4020
  invoke void @_ZNSt6thread11_State_implISt12_Bind_simpleIFSt7_Mem_fnIMN7indexer8WorkUnitEFvvEEPS4_EEEC2EOSA_(%"struct.std::thread::_State_impl"* %7, %"struct.std::_Bind_simple"* dereferenceable(24) %9)
          to label %10 unwind label %12, !dbg !4022

; <label>:10:                                     ; preds = %2
  %11 = bitcast %"struct.std::thread::_State_impl"* %7 to %"struct.std::thread::_State"*, !dbg !4023
  call void @_ZNSt10unique_ptrINSt6thread6_StateESt14default_deleteIS1_EEC2EPS1_(%"class.std::unique_ptr"* %0, %"struct.std::thread::_State"* %11) #3, !dbg !4025
  ret void, !dbg !4026

; <label>:12:                                     ; preds = %2
  %13 = landingpad { i8*, i32 }
          cleanup, !dbg !4027
  %14 = extractvalue { i8*, i32 } %13, 0, !dbg !4027
  store i8* %14, i8** %4, align 8, !dbg !4027
  %15 = extractvalue { i8*, i32 } %13, 1, !dbg !4027
  store i32 %15, i32* %5, align 4, !dbg !4027
  call void @_ZdlPv(i8* %6) #16, !dbg !4028
  br label %16, !dbg !4028

; <label>:16:                                     ; preds = %12
  %17 = load i8*, i8** %4, align 8, !dbg !4030
  %18 = load i32, i32* %5, align 4, !dbg !4030
  %19 = insertvalue { i8*, i32 } undef, i8* %17, 0, !dbg !4030
  %20 = insertvalue { i8*, i32 } %19, i32 %18, 1, !dbg !4030
  resume { i8*, i32 } %20, !dbg !4030
}

; Function Attrs: uwtable
define linkonce_odr void @_ZSt13__bind_simpleIMN7indexer8WorkUnitEFvvEJPS1_EENSt19_Bind_simple_helperIT_JDpT0_EE6__typeEOS6_DpOS7_(%"struct.std::_Bind_simple"* noalias sret, { i64, i64 }* dereferenceable(16), %"class.indexer::WorkUnit"** dereferenceable(8)) #0 comdat !dbg !4032 {
  %4 = alloca { i64, i64 }*, align 8
  %5 = alloca %"class.indexer::WorkUnit"**, align 8
  %6 = alloca %"struct.std::_Mem_fn", align 8
  %7 = alloca { i64, i64 }, align 8
  store { i64, i64 }* %1, { i64, i64 }** %4, align 8
  call void @llvm.dbg.declare(metadata { i64, i64 }** %4, metadata !4043, metadata !3206), !dbg !4044
  store %"class.indexer::WorkUnit"** %2, %"class.indexer::WorkUnit"*** %5, align 8
  call void @llvm.dbg.declare(metadata %"class.indexer::WorkUnit"*** %5, metadata !4045, metadata !3206), !dbg !4046
  %8 = load { i64, i64 }*, { i64, i64 }** %4, align 8, !dbg !4047
  %9 = call dereferenceable(16) { i64, i64 }* @_ZSt7forwardIMN7indexer8WorkUnitEFvvEEOT_RNSt16remove_referenceIS4_E4typeE({ i64, i64 }* dereferenceable(16) %8) #3, !dbg !4048
  %10 = load { i64, i64 }, { i64, i64 }* %9, align 8, !dbg !4048
  store { i64, i64 } %10, { i64, i64 }* %7, align 8, !dbg !4049
  %11 = getelementptr inbounds { i64, i64 }, { i64, i64 }* %7, i32 0, i32 0, !dbg !4049
  %12 = load i64, i64* %11, align 8, !dbg !4049
  %13 = getelementptr inbounds { i64, i64 }, { i64, i64 }* %7, i32 0, i32 1, !dbg !4049
  %14 = load i64, i64* %13, align 8, !dbg !4049
  %15 = call { i64, i64 } @_ZNSt26_Maybe_wrap_member_pointerIMN7indexer8WorkUnitEFvvEE9__do_wrapES3_(i64 %12, i64 %14), !dbg !4050
  %16 = getelementptr inbounds %"struct.std::_Mem_fn", %"struct.std::_Mem_fn"* %6, i32 0, i32 0, !dbg !4049
  %17 = getelementptr inbounds %"class.std::_Mem_fn_base", %"class.std::_Mem_fn_base"* %16, i32 0, i32 0, !dbg !4049
  %18 = getelementptr inbounds { i64, i64 }, { i64, i64 }* %17, i32 0, i32 0, !dbg !4049
  %19 = extractvalue { i64, i64 } %15, 0, !dbg !4049
  store i64 %19, i64* %18, align 8, !dbg !4049
  %20 = getelementptr inbounds { i64, i64 }, { i64, i64 }* %17, i32 0, i32 1, !dbg !4049
  %21 = extractvalue { i64, i64 } %15, 1, !dbg !4049
  store i64 %21, i64* %20, align 8, !dbg !4049
  %22 = load %"class.indexer::WorkUnit"**, %"class.indexer::WorkUnit"*** %5, align 8, !dbg !4052
  %23 = call dereferenceable(8) %"class.indexer::WorkUnit"** @_ZSt7forwardIPN7indexer8WorkUnitEEOT_RNSt16remove_referenceIS3_E4typeE(%"class.indexer::WorkUnit"** dereferenceable(8) %22) #3, !dbg !4053
  call void @_ZNSt12_Bind_simpleIFSt7_Mem_fnIMN7indexer8WorkUnitEFvvEEPS2_EEC2IS5_JS6_EEEOT_DpOT0_(%"struct.std::_Bind_simple"* %0, %"struct.std::_Mem_fn"* dereferenceable(16) %6, %"class.indexer::WorkUnit"** dereferenceable(8) %23), !dbg !4054
  ret void, !dbg !4055
}

; Function Attrs: nounwind uwtable
define linkonce_odr void @_ZNSt10unique_ptrINSt6thread6_StateESt14default_deleteIS1_EED2Ev(%"class.std::unique_ptr"*) unnamed_addr #4 comdat align 2 personality i8* bitcast (i32 (...)* @__gxx_personality_v0 to i8*) !dbg !4056 {
  %2 = alloca %"class.std::unique_ptr"*, align 8
  %3 = alloca %"struct.std::thread::_State"**, align 8
  store %"class.std::unique_ptr"* %0, %"class.std::unique_ptr"** %2, align 8
  call void @llvm.dbg.declare(metadata %"class.std::unique_ptr"** %2, metadata !4057, metadata !3206), !dbg !4059
  %4 = load %"class.std::unique_ptr"*, %"class.std::unique_ptr"** %2, align 8
  call void @llvm.dbg.declare(metadata %"struct.std::thread::_State"*** %3, metadata !4060, metadata !3206), !dbg !4062
  %5 = getelementptr inbounds %"class.std::unique_ptr", %"class.std::unique_ptr"* %4, i32 0, i32 0, !dbg !4063
  %6 = call dereferenceable(8) %"struct.std::thread::_State"** @_ZSt3getILm0EJPNSt6thread6_StateESt14default_deleteIS1_EEERNSt13tuple_elementIXT_ESt5tupleIJDpT0_EEE4typeERS9_(%"class.std::tuple"* dereferenceable(8) %5) #3, !dbg !4064
  store %"struct.std::thread::_State"** %6, %"struct.std::thread::_State"*** %3, align 8, !dbg !4062
  %7 = load %"struct.std::thread::_State"**, %"struct.std::thread::_State"*** %3, align 8, !dbg !4065
  %8 = load %"struct.std::thread::_State"*, %"struct.std::thread::_State"** %7, align 8, !dbg !4065
  %9 = icmp ne %"struct.std::thread::_State"* %8, null, !dbg !4067
  br i1 %9, label %10, label %15, !dbg !4068

; <label>:10:                                     ; preds = %1
  %11 = call dereferenceable(1) %"struct.std::default_delete"* @_ZNSt10unique_ptrINSt6thread6_StateESt14default_deleteIS1_EE11get_deleterEv(%"class.std::unique_ptr"* %4) #3, !dbg !4069
  %12 = load %"struct.std::thread::_State"**, %"struct.std::thread::_State"*** %3, align 8, !dbg !4070
  %13 = load %"struct.std::thread::_State"*, %"struct.std::thread::_State"** %12, align 8, !dbg !4070
  invoke void @_ZNKSt14default_deleteINSt6thread6_StateEEclEPS1_(%"struct.std::default_delete"* %11, %"struct.std::thread::_State"* %13)
          to label %14 unwind label %17, !dbg !4069

; <label>:14:                                     ; preds = %10
  br label %15, !dbg !4071

; <label>:15:                                     ; preds = %14, %1
  %16 = load %"struct.std::thread::_State"**, %"struct.std::thread::_State"*** %3, align 8, !dbg !4073
  store %"struct.std::thread::_State"* null, %"struct.std::thread::_State"** %16, align 8, !dbg !4074
  ret void, !dbg !4075

; <label>:17:                                     ; preds = %10
  %18 = landingpad { i8*, i32 }
          catch i8* null, !dbg !4076
  %19 = extractvalue { i8*, i32 } %18, 0, !dbg !4076
  call void @__clang_call_terminate(i8* %19) #17, !dbg !4076
  unreachable, !dbg !4076
}

; Function Attrs: nounwind uwtable
define linkonce_odr dereferenceable(24) %"struct.std::_Bind_simple"* @_ZSt7forwardISt12_Bind_simpleIFSt7_Mem_fnIMN7indexer8WorkUnitEFvvEEPS3_EEEOT_RNSt16remove_referenceISA_E4typeE(%"struct.std::_Bind_simple"* dereferenceable(24)) #4 comdat !dbg !4078 {
  %2 = alloca %"struct.std::_Bind_simple"*, align 8
  store %"struct.std::_Bind_simple"* %0, %"struct.std::_Bind_simple"** %2, align 8
  call void @llvm.dbg.declare(metadata %"struct.std::_Bind_simple"** %2, metadata !4086, metadata !3206), !dbg !4087
  %3 = load %"struct.std::_Bind_simple"*, %"struct.std::_Bind_simple"** %2, align 8, !dbg !4088
  ret %"struct.std::_Bind_simple"* %3, !dbg !4089
}

; Function Attrs: nounwind uwtable
define linkonce_odr void @_ZNSt6thread11_State_implISt12_Bind_simpleIFSt7_Mem_fnIMN7indexer8WorkUnitEFvvEEPS4_EEEC2EOSA_(%"struct.std::thread::_State_impl"*, %"struct.std::_Bind_simple"* dereferenceable(24)) unnamed_addr #4 comdat align 2 !dbg !4090 {
  %3 = alloca %"struct.std::thread::_State_impl"*, align 8
  %4 = alloca %"struct.std::_Bind_simple"*, align 8
  store %"struct.std::thread::_State_impl"* %0, %"struct.std::thread::_State_impl"** %3, align 8
  call void @llvm.dbg.declare(metadata %"struct.std::thread::_State_impl"** %3, metadata !4102, metadata !3206), !dbg !4104
  store %"struct.std::_Bind_simple"* %1, %"struct.std::_Bind_simple"** %4, align 8
  call void @llvm.dbg.declare(metadata %"struct.std::_Bind_simple"** %4, metadata !4105, metadata !3206), !dbg !4106
  %5 = load %"struct.std::thread::_State_impl"*, %"struct.std::thread::_State_impl"** %3, align 8
  %6 = bitcast %"struct.std::thread::_State_impl"* %5 to %"struct.std::thread::_State"*, !dbg !4107
  call void @_ZNSt6thread6_StateC2Ev(%"struct.std::thread::_State"* %6) #3, !dbg !4108
  %7 = bitcast %"struct.std::thread::_State_impl"* %5 to i32 (...)***, !dbg !4107
  store i32 (...)** bitcast (i8** getelementptr inbounds ([5 x i8*], [5 x i8*]* @_ZTVNSt6thread11_State_implISt12_Bind_simpleIFSt7_Mem_fnIMN7indexer8WorkUnitEFvvEEPS4_EEEE, i32 0, i32 2) to i32 (...)**), i32 (...)*** %7, align 8, !dbg !4107
  %8 = getelementptr inbounds %"struct.std::thread::_State_impl", %"struct.std::thread::_State_impl"* %5, i32 0, i32 1, !dbg !4109
  %9 = load %"struct.std::_Bind_simple"*, %"struct.std::_Bind_simple"** %4, align 8, !dbg !4110
  %10 = call dereferenceable(24) %"struct.std::_Bind_simple"* @_ZSt7forwardISt12_Bind_simpleIFSt7_Mem_fnIMN7indexer8WorkUnitEFvvEEPS3_EEEOT_RNSt16remove_referenceISA_E4typeE(%"struct.std::_Bind_simple"* dereferenceable(24) %9) #3, !dbg !4111
  call void @_ZNSt12_Bind_simpleIFSt7_Mem_fnIMN7indexer8WorkUnitEFvvEEPS2_EEC2EOS8_(%"struct.std::_Bind_simple"* %8, %"struct.std::_Bind_simple"* dereferenceable(24) %10) #3, !dbg !4113
  ret void, !dbg !4115
}

; Function Attrs: nounwind uwtable
define linkonce_odr void @_ZNSt10unique_ptrINSt6thread6_StateESt14default_deleteIS1_EEC2EPS1_(%"class.std::unique_ptr"*, %"struct.std::thread::_State"*) unnamed_addr #4 comdat align 2 personality i8* bitcast (i32 (...)* @__gxx_personality_v0 to i8*) !dbg !4116 {
  %3 = alloca %"class.std::unique_ptr"*, align 8
  %4 = alloca %"struct.std::thread::_State"*, align 8
  %5 = alloca %"struct.std::default_delete", align 1
  store %"class.std::unique_ptr"* %0, %"class.std::unique_ptr"** %3, align 8
  call void @llvm.dbg.declare(metadata %"class.std::unique_ptr"** %3, metadata !4117, metadata !3206), !dbg !4118
  store %"struct.std::thread::_State"* %1, %"struct.std::thread::_State"** %4, align 8
  call void @llvm.dbg.declare(metadata %"struct.std::thread::_State"** %4, metadata !4119, metadata !3206), !dbg !4120
  %6 = load %"class.std::unique_ptr"*, %"class.std::unique_ptr"** %3, align 8
  %7 = getelementptr inbounds %"class.std::unique_ptr", %"class.std::unique_ptr"* %6, i32 0, i32 0, !dbg !4121
  invoke void @_ZNSt5tupleIJPNSt6thread6_StateESt14default_deleteIS1_EEEC2IRS2_S4_Lb1EEEOT_OT0_(%"class.std::tuple"* %7, %"struct.std::thread::_State"** dereferenceable(8) %4, %"struct.std::default_delete"* dereferenceable(1) %5)
          to label %8 unwind label %9, !dbg !4121

; <label>:8:                                      ; preds = %2
  ret void, !dbg !4122

; <label>:9:                                      ; preds = %2
  %10 = landingpad { i8*, i32 }
          catch i8* null, !dbg !4123
  %11 = extractvalue { i8*, i32 } %10, 0, !dbg !4123
  call void @__clang_call_terminate(i8* %11) #17, !dbg !4123
  unreachable, !dbg !4123
}

; Function Attrs: inlinehint nounwind uwtable
define linkonce_odr void @_ZNSt6thread6_StateC2Ev(%"struct.std::thread::_State"*) unnamed_addr #9 comdat align 2 !dbg !4125 {
  %2 = alloca %"struct.std::thread::_State"*, align 8
  store %"struct.std::thread::_State"* %0, %"struct.std::thread::_State"** %2, align 8
  call void @llvm.dbg.declare(metadata %"struct.std::thread::_State"** %2, metadata !4130, metadata !3206), !dbg !4131
  %3 = load %"struct.std::thread::_State"*, %"struct.std::thread::_State"** %2, align 8
  %4 = bitcast %"struct.std::thread::_State"* %3 to i32 (...)***, !dbg !4132
  store i32 (...)** bitcast (i8** getelementptr inbounds ([5 x i8*], [5 x i8*]* @_ZTVNSt6thread6_StateE, i32 0, i32 2) to i32 (...)**), i32 (...)*** %4, align 8, !dbg !4132
  ret void, !dbg !4132
}

; Function Attrs: nounwind uwtable
define linkonce_odr void @_ZNSt12_Bind_simpleIFSt7_Mem_fnIMN7indexer8WorkUnitEFvvEEPS2_EEC2EOS8_(%"struct.std::_Bind_simple"*, %"struct.std::_Bind_simple"* dereferenceable(24)) unnamed_addr #4 comdat align 2 !dbg !4133 {
  %3 = alloca %"struct.std::_Bind_simple"*, align 8
  %4 = alloca %"struct.std::_Bind_simple"*, align 8
  store %"struct.std::_Bind_simple"* %0, %"struct.std::_Bind_simple"** %3, align 8
  call void @llvm.dbg.declare(metadata %"struct.std::_Bind_simple"** %3, metadata !4134, metadata !3206), !dbg !4136
  store %"struct.std::_Bind_simple"* %1, %"struct.std::_Bind_simple"** %4, align 8
  call void @llvm.dbg.declare(metadata %"struct.std::_Bind_simple"** %4, metadata !4137, metadata !3206), !dbg !4138
  %5 = load %"struct.std::_Bind_simple"*, %"struct.std::_Bind_simple"** %3, align 8
  %6 = getelementptr inbounds %"struct.std::_Bind_simple", %"struct.std::_Bind_simple"* %5, i32 0, i32 0, !dbg !4139
  %7 = load %"struct.std::_Bind_simple"*, %"struct.std::_Bind_simple"** %4, align 8, !dbg !4139
  %8 = getelementptr inbounds %"struct.std::_Bind_simple", %"struct.std::_Bind_simple"* %7, i32 0, i32 0, !dbg !4139
  call void @_ZNSt5tupleIJSt7_Mem_fnIMN7indexer8WorkUnitEFvvEEPS2_EEC2EOS7_(%"class.std::tuple.3"* %6, %"class.std::tuple.3"* dereferenceable(24) %8) #3, !dbg !4139
  ret void, !dbg !4139
}

; Function Attrs: inlinehint nounwind uwtable
define linkonce_odr void @_ZNSt6thread11_State_implISt12_Bind_simpleIFSt7_Mem_fnIMN7indexer8WorkUnitEFvvEEPS4_EEED2Ev(%"struct.std::thread::_State_impl"*) unnamed_addr #9 comdat align 2 !dbg !4140 {
  %2 = alloca %"struct.std::thread::_State_impl"*, align 8
  store %"struct.std::thread::_State_impl"* %0, %"struct.std::thread::_State_impl"** %2, align 8
  call void @llvm.dbg.declare(metadata %"struct.std::thread::_State_impl"** %2, metadata !4142, metadata !3206), !dbg !4143
  %3 = load %"struct.std::thread::_State_impl"*, %"struct.std::thread::_State_impl"** %2, align 8
  %4 = bitcast %"struct.std::thread::_State_impl"* %3 to %"struct.std::thread::_State"*, !dbg !4144
  call void @_ZNSt6thread6_StateD2Ev(%"struct.std::thread::_State"* %4) #3, !dbg !4144
  ret void, !dbg !4146
}

; Function Attrs: inlinehint nounwind uwtable
define linkonce_odr void @_ZNSt6thread11_State_implISt12_Bind_simpleIFSt7_Mem_fnIMN7indexer8WorkUnitEFvvEEPS4_EEED0Ev(%"struct.std::thread::_State_impl"*) unnamed_addr #9 comdat align 2 !dbg !4147 {
  %2 = alloca %"struct.std::thread::_State_impl"*, align 8
  store %"struct.std::thread::_State_impl"* %0, %"struct.std::thread::_State_impl"** %2, align 8
  call void @llvm.dbg.declare(metadata %"struct.std::thread::_State_impl"** %2, metadata !4148, metadata !3206), !dbg !4149
  %3 = load %"struct.std::thread::_State_impl"*, %"struct.std::thread::_State_impl"** %2, align 8
  call void @_ZNSt6thread11_State_implISt12_Bind_simpleIFSt7_Mem_fnIMN7indexer8WorkUnitEFvvEEPS4_EEED2Ev(%"struct.std::thread::_State_impl"* %3) #3, !dbg !4150
  %4 = bitcast %"struct.std::thread::_State_impl"* %3 to i8*, !dbg !4150
  call void @_ZdlPv(i8* %4) #16, !dbg !4151
  ret void, !dbg !4150
}

; Function Attrs: uwtable
define linkonce_odr void @_ZNSt6thread11_State_implISt12_Bind_simpleIFSt7_Mem_fnIMN7indexer8WorkUnitEFvvEEPS4_EEE6_M_runEv(%"struct.std::thread::_State_impl"*) unnamed_addr #0 comdat align 2 !dbg !4153 {
  %2 = alloca %"struct.std::thread::_State_impl"*, align 8
  store %"struct.std::thread::_State_impl"* %0, %"struct.std::thread::_State_impl"** %2, align 8
  call void @llvm.dbg.declare(metadata %"struct.std::thread::_State_impl"** %2, metadata !4154, metadata !3206), !dbg !4155
  %3 = load %"struct.std::thread::_State_impl"*, %"struct.std::thread::_State_impl"** %2, align 8
  %4 = getelementptr inbounds %"struct.std::thread::_State_impl", %"struct.std::thread::_State_impl"* %3, i32 0, i32 1, !dbg !4156
  call void @_ZNSt12_Bind_simpleIFSt7_Mem_fnIMN7indexer8WorkUnitEFvvEEPS2_EEclEv(%"struct.std::_Bind_simple"* %4), !dbg !4156
  ret void, !dbg !4157
}

; Function Attrs: nounwind uwtable
define linkonce_odr void @_ZNSt5tupleIJSt7_Mem_fnIMN7indexer8WorkUnitEFvvEEPS2_EEC2EOS7_(%"class.std::tuple.3"*, %"class.std::tuple.3"* dereferenceable(24)) unnamed_addr #4 comdat align 2 !dbg !4158 {
  %3 = alloca %"class.std::tuple.3"*, align 8
  %4 = alloca %"class.std::tuple.3"*, align 8
  store %"class.std::tuple.3"* %0, %"class.std::tuple.3"** %3, align 8
  call void @llvm.dbg.declare(metadata %"class.std::tuple.3"** %3, metadata !4159, metadata !3206), !dbg !4161
  store %"class.std::tuple.3"* %1, %"class.std::tuple.3"** %4, align 8
  call void @llvm.dbg.declare(metadata %"class.std::tuple.3"** %4, metadata !4162, metadata !3206), !dbg !4163
  %5 = load %"class.std::tuple.3"*, %"class.std::tuple.3"** %3, align 8
  %6 = bitcast %"class.std::tuple.3"* %5 to %"struct.std::_Tuple_impl.4"*, !dbg !4164
  %7 = load %"class.std::tuple.3"*, %"class.std::tuple.3"** %4, align 8, !dbg !4164
  %8 = bitcast %"class.std::tuple.3"* %7 to %"struct.std::_Tuple_impl.4"*, !dbg !4164
  call void @_ZNSt11_Tuple_implILm0EJSt7_Mem_fnIMN7indexer8WorkUnitEFvvEEPS2_EEC2EOS7_(%"struct.std::_Tuple_impl.4"* %6, %"struct.std::_Tuple_impl.4"* dereferenceable(24) %8) #3, !dbg !4164
  ret void, !dbg !4164
}

; Function Attrs: nounwind uwtable
define linkonce_odr void @_ZNSt11_Tuple_implILm0EJSt7_Mem_fnIMN7indexer8WorkUnitEFvvEEPS2_EEC2EOS7_(%"struct.std::_Tuple_impl.4"*, %"struct.std::_Tuple_impl.4"* dereferenceable(24)) unnamed_addr #4 comdat align 2 personality i8* bitcast (i32 (...)* @__gxx_personality_v0 to i8*) !dbg !4165 {
  %3 = alloca %"struct.std::_Tuple_impl.4"*, align 8
  %4 = alloca %"struct.std::_Tuple_impl.4"*, align 8
  store %"struct.std::_Tuple_impl.4"* %0, %"struct.std::_Tuple_impl.4"** %3, align 8
  call void @llvm.dbg.declare(metadata %"struct.std::_Tuple_impl.4"** %3, metadata !4166, metadata !3206), !dbg !4168
  store %"struct.std::_Tuple_impl.4"* %1, %"struct.std::_Tuple_impl.4"** %4, align 8
  call void @llvm.dbg.declare(metadata %"struct.std::_Tuple_impl.4"** %4, metadata !4169, metadata !3206), !dbg !4170
  %5 = load %"struct.std::_Tuple_impl.4"*, %"struct.std::_Tuple_impl.4"** %3, align 8
  %6 = bitcast %"struct.std::_Tuple_impl.4"* %5 to %"struct.std::_Tuple_impl.5"*, !dbg !4171
  %7 = load %"struct.std::_Tuple_impl.4"*, %"struct.std::_Tuple_impl.4"** %4, align 8, !dbg !4172
  %8 = call dereferenceable(8) %"struct.std::_Tuple_impl.5"* @_ZNSt11_Tuple_implILm0EJSt7_Mem_fnIMN7indexer8WorkUnitEFvvEEPS2_EE7_M_tailERS7_(%"struct.std::_Tuple_impl.4"* dereferenceable(24) %7) #3, !dbg !4173
  %9 = call dereferenceable(8) %"struct.std::_Tuple_impl.5"* @_ZSt4moveIRSt11_Tuple_implILm1EJPN7indexer8WorkUnitEEEEONSt16remove_referenceIT_E4typeEOS7_(%"struct.std::_Tuple_impl.5"* dereferenceable(8) %8) #3, !dbg !4174
  call void @_ZNSt11_Tuple_implILm1EJPN7indexer8WorkUnitEEEC2EOS3_(%"struct.std::_Tuple_impl.5"* %6, %"struct.std::_Tuple_impl.5"* dereferenceable(8) %9) #3, !dbg !4176
  %10 = bitcast %"struct.std::_Tuple_impl.4"* %5 to i8*, !dbg !4171
  %11 = getelementptr inbounds i8, i8* %10, i64 8, !dbg !4171
  %12 = bitcast i8* %11 to %"struct.std::_Head_base.7"*, !dbg !4171
  %13 = load %"struct.std::_Tuple_impl.4"*, %"struct.std::_Tuple_impl.4"** %4, align 8, !dbg !4178
  %14 = call dereferenceable(16) %"struct.std::_Mem_fn"* @_ZNSt11_Tuple_implILm0EJSt7_Mem_fnIMN7indexer8WorkUnitEFvvEEPS2_EE7_M_headERS7_(%"struct.std::_Tuple_impl.4"* dereferenceable(24) %13) #3, !dbg !4179
  %15 = call dereferenceable(16) %"struct.std::_Mem_fn"* @_ZSt7forwardISt7_Mem_fnIMN7indexer8WorkUnitEFvvEEEOT_RNSt16remove_referenceIS6_E4typeE(%"struct.std::_Mem_fn"* dereferenceable(16) %14) #3, !dbg !4180
  invoke void @_ZNSt10_Head_baseILm0ESt7_Mem_fnIMN7indexer8WorkUnitEFvvEELb0EEC2IS5_EEOT_(%"struct.std::_Head_base.7"* %12, %"struct.std::_Mem_fn"* dereferenceable(16) %15)
          to label %16 unwind label %17, !dbg !4182

; <label>:16:                                     ; preds = %2
  ret void, !dbg !4183

; <label>:17:                                     ; preds = %2
  %18 = landingpad { i8*, i32 }
          catch i8* null, !dbg !4184
  %19 = extractvalue { i8*, i32 } %18, 0, !dbg !4184
  call void @__clang_call_terminate(i8* %19) #17, !dbg !4184
  unreachable, !dbg !4184
}

; Function Attrs: nounwind uwtable
define linkonce_odr dereferenceable(8) %"struct.std::_Tuple_impl.5"* @_ZSt4moveIRSt11_Tuple_implILm1EJPN7indexer8WorkUnitEEEEONSt16remove_referenceIT_E4typeEOS7_(%"struct.std::_Tuple_impl.5"* dereferenceable(8)) #4 comdat !dbg !4185 {
  %2 = alloca %"struct.std::_Tuple_impl.5"*, align 8
  store %"struct.std::_Tuple_impl.5"* %0, %"struct.std::_Tuple_impl.5"** %2, align 8
  call void @llvm.dbg.declare(metadata %"struct.std::_Tuple_impl.5"** %2, metadata !4193, metadata !3206), !dbg !4194
  %3 = load %"struct.std::_Tuple_impl.5"*, %"struct.std::_Tuple_impl.5"** %2, align 8, !dbg !4195
  ret %"struct.std::_Tuple_impl.5"* %3, !dbg !4196
}

; Function Attrs: nounwind uwtable
define linkonce_odr dereferenceable(8) %"struct.std::_Tuple_impl.5"* @_ZNSt11_Tuple_implILm0EJSt7_Mem_fnIMN7indexer8WorkUnitEFvvEEPS2_EE7_M_tailERS7_(%"struct.std::_Tuple_impl.4"* dereferenceable(24)) #4 comdat align 2 !dbg !4197 {
  %2 = alloca %"struct.std::_Tuple_impl.4"*, align 8
  store %"struct.std::_Tuple_impl.4"* %0, %"struct.std::_Tuple_impl.4"** %2, align 8
  call void @llvm.dbg.declare(metadata %"struct.std::_Tuple_impl.4"** %2, metadata !4198, metadata !3206), !dbg !4199
  %3 = load %"struct.std::_Tuple_impl.4"*, %"struct.std::_Tuple_impl.4"** %2, align 8, !dbg !4200
  %4 = bitcast %"struct.std::_Tuple_impl.4"* %3 to %"struct.std::_Tuple_impl.5"*, !dbg !4200
  ret %"struct.std::_Tuple_impl.5"* %4, !dbg !4201
}

; Function Attrs: nounwind uwtable
define linkonce_odr void @_ZNSt11_Tuple_implILm1EJPN7indexer8WorkUnitEEEC2EOS3_(%"struct.std::_Tuple_impl.5"*, %"struct.std::_Tuple_impl.5"* dereferenceable(8)) unnamed_addr #4 comdat align 2 personality i8* bitcast (i32 (...)* @__gxx_personality_v0 to i8*) !dbg !4202 {
  %3 = alloca %"struct.std::_Tuple_impl.5"*, align 8
  %4 = alloca %"struct.std::_Tuple_impl.5"*, align 8
  store %"struct.std::_Tuple_impl.5"* %0, %"struct.std::_Tuple_impl.5"** %3, align 8
  call void @llvm.dbg.declare(metadata %"struct.std::_Tuple_impl.5"** %3, metadata !4203, metadata !3206), !dbg !4205
  store %"struct.std::_Tuple_impl.5"* %1, %"struct.std::_Tuple_impl.5"** %4, align 8
  call void @llvm.dbg.declare(metadata %"struct.std::_Tuple_impl.5"** %4, metadata !4206, metadata !3206), !dbg !4207
  %5 = load %"struct.std::_Tuple_impl.5"*, %"struct.std::_Tuple_impl.5"** %3, align 8
  %6 = bitcast %"struct.std::_Tuple_impl.5"* %5 to %"struct.std::_Head_base.6"*, !dbg !4208
  %7 = load %"struct.std::_Tuple_impl.5"*, %"struct.std::_Tuple_impl.5"** %4, align 8, !dbg !4209
  %8 = call dereferenceable(8) %"class.indexer::WorkUnit"** @_ZNSt11_Tuple_implILm1EJPN7indexer8WorkUnitEEE7_M_headERS3_(%"struct.std::_Tuple_impl.5"* dereferenceable(8) %7) #3, !dbg !4210
  %9 = call dereferenceable(8) %"class.indexer::WorkUnit"** @_ZSt7forwardIPN7indexer8WorkUnitEEOT_RNSt16remove_referenceIS3_E4typeE(%"class.indexer::WorkUnit"** dereferenceable(8) %8) #3, !dbg !4211
  invoke void @_ZNSt10_Head_baseILm1EPN7indexer8WorkUnitELb0EEC2IS2_EEOT_(%"struct.std::_Head_base.6"* %6, %"class.indexer::WorkUnit"** dereferenceable(8) %9)
          to label %10 unwind label %11, !dbg !4213

; <label>:10:                                     ; preds = %2
  ret void, !dbg !4214

; <label>:11:                                     ; preds = %2
  %12 = landingpad { i8*, i32 }
          catch i8* null, !dbg !4216
  %13 = extractvalue { i8*, i32 } %12, 0, !dbg !4216
  call void @__clang_call_terminate(i8* %13) #17, !dbg !4216
  unreachable, !dbg !4216
}

; Function Attrs: nounwind uwtable
define linkonce_odr dereferenceable(16) %"struct.std::_Mem_fn"* @_ZSt7forwardISt7_Mem_fnIMN7indexer8WorkUnitEFvvEEEOT_RNSt16remove_referenceIS6_E4typeE(%"struct.std::_Mem_fn"* dereferenceable(16)) #4 comdat !dbg !4218 {
  %2 = alloca %"struct.std::_Mem_fn"*, align 8
  store %"struct.std::_Mem_fn"* %0, %"struct.std::_Mem_fn"** %2, align 8
  call void @llvm.dbg.declare(metadata %"struct.std::_Mem_fn"** %2, metadata !4227, metadata !3206), !dbg !4228
  %3 = load %"struct.std::_Mem_fn"*, %"struct.std::_Mem_fn"** %2, align 8, !dbg !4229
  ret %"struct.std::_Mem_fn"* %3, !dbg !4230
}

; Function Attrs: nounwind uwtable
define linkonce_odr dereferenceable(16) %"struct.std::_Mem_fn"* @_ZNSt11_Tuple_implILm0EJSt7_Mem_fnIMN7indexer8WorkUnitEFvvEEPS2_EE7_M_headERS7_(%"struct.std::_Tuple_impl.4"* dereferenceable(24)) #4 comdat align 2 !dbg !4231 {
  %2 = alloca %"struct.std::_Tuple_impl.4"*, align 8
  store %"struct.std::_Tuple_impl.4"* %0, %"struct.std::_Tuple_impl.4"** %2, align 8
  call void @llvm.dbg.declare(metadata %"struct.std::_Tuple_impl.4"** %2, metadata !4232, metadata !3206), !dbg !4233
  %3 = load %"struct.std::_Tuple_impl.4"*, %"struct.std::_Tuple_impl.4"** %2, align 8, !dbg !4234
  %4 = bitcast %"struct.std::_Tuple_impl.4"* %3 to i8*, !dbg !4234
  %5 = getelementptr inbounds i8, i8* %4, i64 8, !dbg !4234
  %6 = bitcast i8* %5 to %"struct.std::_Head_base.7"*, !dbg !4234
  %7 = call dereferenceable(16) %"struct.std::_Mem_fn"* @_ZNSt10_Head_baseILm0ESt7_Mem_fnIMN7indexer8WorkUnitEFvvEELb0EE7_M_headERS6_(%"struct.std::_Head_base.7"* dereferenceable(16) %6) #3, !dbg !4235
  ret %"struct.std::_Mem_fn"* %7, !dbg !4236
}

; Function Attrs: nounwind uwtable
define linkonce_odr void @_ZNSt10_Head_baseILm0ESt7_Mem_fnIMN7indexer8WorkUnitEFvvEELb0EEC2IS5_EEOT_(%"struct.std::_Head_base.7"*, %"struct.std::_Mem_fn"* dereferenceable(16)) unnamed_addr #4 comdat align 2 !dbg !4237 {
  %3 = alloca %"struct.std::_Head_base.7"*, align 8
  %4 = alloca %"struct.std::_Mem_fn"*, align 8
  store %"struct.std::_Head_base.7"* %0, %"struct.std::_Head_base.7"** %3, align 8
  call void @llvm.dbg.declare(metadata %"struct.std::_Head_base.7"** %3, metadata !4243, metadata !3206), !dbg !4245
  store %"struct.std::_Mem_fn"* %1, %"struct.std::_Mem_fn"** %4, align 8
  call void @llvm.dbg.declare(metadata %"struct.std::_Mem_fn"** %4, metadata !4246, metadata !3206), !dbg !4247
  %5 = load %"struct.std::_Head_base.7"*, %"struct.std::_Head_base.7"** %3, align 8
  %6 = getelementptr inbounds %"struct.std::_Head_base.7", %"struct.std::_Head_base.7"* %5, i32 0, i32 0, !dbg !4248
  %7 = load %"struct.std::_Mem_fn"*, %"struct.std::_Mem_fn"** %4, align 8, !dbg !4249
  %8 = call dereferenceable(16) %"struct.std::_Mem_fn"* @_ZSt7forwardISt7_Mem_fnIMN7indexer8WorkUnitEFvvEEEOT_RNSt16remove_referenceIS6_E4typeE(%"struct.std::_Mem_fn"* dereferenceable(16) %7) #3, !dbg !4250
  %9 = bitcast %"struct.std::_Mem_fn"* %6 to i8*, !dbg !4248
  %10 = bitcast %"struct.std::_Mem_fn"* %8 to i8*, !dbg !4248
  call void @llvm.memcpy.p0i8.p0i8.i64(i8* %9, i8* %10, i64 16, i32 8, i1 false), !dbg !4251
  ret void, !dbg !4253
}

; Function Attrs: noinline noreturn nounwind
define linkonce_odr hidden void @__clang_call_terminate(i8*) #12 comdat {
  %2 = call i8* @__cxa_begin_catch(i8* %0) #3
  call void @_ZSt9terminatev() #17
  unreachable
}

declare i8* @__cxa_begin_catch(i8*)

; Function Attrs: nounwind uwtable
define linkonce_odr dereferenceable(8) %"class.indexer::WorkUnit"** @_ZNSt11_Tuple_implILm1EJPN7indexer8WorkUnitEEE7_M_headERS3_(%"struct.std::_Tuple_impl.5"* dereferenceable(8)) #4 comdat align 2 !dbg !4254 {
  %2 = alloca %"struct.std::_Tuple_impl.5"*, align 8
  store %"struct.std::_Tuple_impl.5"* %0, %"struct.std::_Tuple_impl.5"** %2, align 8
  call void @llvm.dbg.declare(metadata %"struct.std::_Tuple_impl.5"** %2, metadata !4255, metadata !3206), !dbg !4256
  %3 = load %"struct.std::_Tuple_impl.5"*, %"struct.std::_Tuple_impl.5"** %2, align 8, !dbg !4257
  %4 = bitcast %"struct.std::_Tuple_impl.5"* %3 to %"struct.std::_Head_base.6"*, !dbg !4257
  %5 = call dereferenceable(8) %"class.indexer::WorkUnit"** @_ZNSt10_Head_baseILm1EPN7indexer8WorkUnitELb0EE7_M_headERS3_(%"struct.std::_Head_base.6"* dereferenceable(8) %4) #3, !dbg !4258
  ret %"class.indexer::WorkUnit"** %5, !dbg !4259
}

; Function Attrs: nounwind uwtable
define linkonce_odr void @_ZNSt10_Head_baseILm1EPN7indexer8WorkUnitELb0EEC2IS2_EEOT_(%"struct.std::_Head_base.6"*, %"class.indexer::WorkUnit"** dereferenceable(8)) unnamed_addr #4 comdat align 2 !dbg !4260 {
  %3 = alloca %"struct.std::_Head_base.6"*, align 8
  %4 = alloca %"class.indexer::WorkUnit"**, align 8
  store %"struct.std::_Head_base.6"* %0, %"struct.std::_Head_base.6"** %3, align 8
  call void @llvm.dbg.declare(metadata %"struct.std::_Head_base.6"** %3, metadata !4266, metadata !3206), !dbg !4268
  store %"class.indexer::WorkUnit"** %1, %"class.indexer::WorkUnit"*** %4, align 8
  call void @llvm.dbg.declare(metadata %"class.indexer::WorkUnit"*** %4, metadata !4269, metadata !3206), !dbg !4270
  %5 = load %"struct.std::_Head_base.6"*, %"struct.std::_Head_base.6"** %3, align 8
  %6 = getelementptr inbounds %"struct.std::_Head_base.6", %"struct.std::_Head_base.6"* %5, i32 0, i32 0, !dbg !4271
  %7 = load %"class.indexer::WorkUnit"**, %"class.indexer::WorkUnit"*** %4, align 8, !dbg !4272
  %8 = call dereferenceable(8) %"class.indexer::WorkUnit"** @_ZSt7forwardIPN7indexer8WorkUnitEEOT_RNSt16remove_referenceIS3_E4typeE(%"class.indexer::WorkUnit"** dereferenceable(8) %7) #3, !dbg !4273
  %9 = load %"class.indexer::WorkUnit"*, %"class.indexer::WorkUnit"** %8, align 8, !dbg !4273
  store %"class.indexer::WorkUnit"* %9, %"class.indexer::WorkUnit"** %6, align 8, !dbg !4271
  ret void, !dbg !4274
}

; Function Attrs: nounwind uwtable
define linkonce_odr dereferenceable(8) %"class.indexer::WorkUnit"** @_ZNSt10_Head_baseILm1EPN7indexer8WorkUnitELb0EE7_M_headERS3_(%"struct.std::_Head_base.6"* dereferenceable(8)) #4 comdat align 2 !dbg !4275 {
  %2 = alloca %"struct.std::_Head_base.6"*, align 8
  store %"struct.std::_Head_base.6"* %0, %"struct.std::_Head_base.6"** %2, align 8
  call void @llvm.dbg.declare(metadata %"struct.std::_Head_base.6"** %2, metadata !4276, metadata !3206), !dbg !4277
  %3 = load %"struct.std::_Head_base.6"*, %"struct.std::_Head_base.6"** %2, align 8, !dbg !4278
  %4 = getelementptr inbounds %"struct.std::_Head_base.6", %"struct.std::_Head_base.6"* %3, i32 0, i32 0, !dbg !4279
  ret %"class.indexer::WorkUnit"** %4, !dbg !4280
}

; Function Attrs: nounwind uwtable
define linkonce_odr dereferenceable(16) %"struct.std::_Mem_fn"* @_ZNSt10_Head_baseILm0ESt7_Mem_fnIMN7indexer8WorkUnitEFvvEELb0EE7_M_headERS6_(%"struct.std::_Head_base.7"* dereferenceable(16)) #4 comdat align 2 !dbg !4281 {
  %2 = alloca %"struct.std::_Head_base.7"*, align 8
  store %"struct.std::_Head_base.7"* %0, %"struct.std::_Head_base.7"** %2, align 8
  call void @llvm.dbg.declare(metadata %"struct.std::_Head_base.7"** %2, metadata !4282, metadata !3206), !dbg !4283
  %3 = load %"struct.std::_Head_base.7"*, %"struct.std::_Head_base.7"** %2, align 8, !dbg !4284
  %4 = getelementptr inbounds %"struct.std::_Head_base.7", %"struct.std::_Head_base.7"* %3, i32 0, i32 0, !dbg !4285
  ret %"struct.std::_Mem_fn"* %4, !dbg !4286
}

; Function Attrs: nounwind
declare void @_ZNSt6thread6_StateD2Ev(%"struct.std::thread::_State"*) unnamed_addr #2

; Function Attrs: uwtable
define linkonce_odr void @_ZNSt12_Bind_simpleIFSt7_Mem_fnIMN7indexer8WorkUnitEFvvEEPS2_EEclEv(%"struct.std::_Bind_simple"*) #0 comdat align 2 !dbg !4287 {
  %2 = alloca %"struct.std::_Bind_simple"*, align 8
  %3 = alloca %"struct.std::_Index_tuple", align 1
  store %"struct.std::_Bind_simple"* %0, %"struct.std::_Bind_simple"** %2, align 8
  call void @llvm.dbg.declare(metadata %"struct.std::_Bind_simple"** %2, metadata !4288, metadata !3206), !dbg !4289
  %4 = load %"struct.std::_Bind_simple"*, %"struct.std::_Bind_simple"** %2, align 8
  call void @_ZNSt12_Bind_simpleIFSt7_Mem_fnIMN7indexer8WorkUnitEFvvEEPS2_EE9_M_invokeIJLm0EEEEvSt12_Index_tupleIJXspT_EEE(%"struct.std::_Bind_simple"* %4), !dbg !4290
  ret void, !dbg !4291
}

; Function Attrs: uwtable
define linkonce_odr void @_ZNSt12_Bind_simpleIFSt7_Mem_fnIMN7indexer8WorkUnitEFvvEEPS2_EE9_M_invokeIJLm0EEEEvSt12_Index_tupleIJXspT_EEE(%"struct.std::_Bind_simple"*) #0 comdat align 2 !dbg !4292 {
  %2 = alloca %"struct.std::_Index_tuple", align 1
  %3 = alloca %"struct.std::_Bind_simple"*, align 8
  store %"struct.std::_Bind_simple"* %0, %"struct.std::_Bind_simple"** %3, align 8
  call void @llvm.dbg.declare(metadata %"struct.std::_Bind_simple"** %3, metadata !4304, metadata !3206), !dbg !4305
  call void @llvm.dbg.declare(metadata %"struct.std::_Index_tuple"* %2, metadata !4306, metadata !3206), !dbg !4307
  %4 = load %"struct.std::_Bind_simple"*, %"struct.std::_Bind_simple"** %3, align 8
  %5 = getelementptr inbounds %"struct.std::_Bind_simple", %"struct.std::_Bind_simple"* %4, i32 0, i32 0, !dbg !4308
  %6 = call dereferenceable(16) %"struct.std::_Mem_fn"* @_ZSt3getILm0EJSt7_Mem_fnIMN7indexer8WorkUnitEFvvEEPS2_EERNSt13tuple_elementIXT_ESt5tupleIJDpT0_EEE4typeERSB_(%"class.std::tuple.3"* dereferenceable(24) %5) #3, !dbg !4309
  %7 = call dereferenceable(16) %"struct.std::_Mem_fn"* @_ZSt7forwardISt7_Mem_fnIMN7indexer8WorkUnitEFvvEEEOT_RNSt16remove_referenceIS6_E4typeE(%"struct.std::_Mem_fn"* dereferenceable(16) %6) #3, !dbg !4310
  %8 = bitcast %"struct.std::_Mem_fn"* %7 to %"class.std::_Mem_fn_base"*, !dbg !4312
  %9 = getelementptr inbounds %"struct.std::_Bind_simple", %"struct.std::_Bind_simple"* %4, i32 0, i32 0, !dbg !4313
  %10 = call dereferenceable(8) %"class.indexer::WorkUnit"** @_ZSt3getILm1EJSt7_Mem_fnIMN7indexer8WorkUnitEFvvEEPS2_EERNSt13tuple_elementIXT_ESt5tupleIJDpT0_EEE4typeERSB_(%"class.std::tuple.3"* dereferenceable(24) %9) #3, !dbg !4314
  %11 = call dereferenceable(8) %"class.indexer::WorkUnit"** @_ZSt7forwardIPN7indexer8WorkUnitEEOT_RNSt16remove_referenceIS3_E4typeE(%"class.indexer::WorkUnit"** dereferenceable(8) %10) #3, !dbg !4315
  call void @_ZNKSt12_Mem_fn_baseIMN7indexer8WorkUnitEFvvELb1EEclIJPS1_EEEDTclsr3stdE8__invokedtdefpT6_M_pmfspclsr3stdE7forwardIT_Efp_EEEDpOS7_(%"class.std::_Mem_fn_base"* %8, %"class.indexer::WorkUnit"** dereferenceable(8) %11), !dbg !4316
  ret void, !dbg !4318
}

; Function Attrs: nounwind uwtable
define linkonce_odr dereferenceable(16) %"struct.std::_Mem_fn"* @_ZSt3getILm0EJSt7_Mem_fnIMN7indexer8WorkUnitEFvvEEPS2_EERNSt13tuple_elementIXT_ESt5tupleIJDpT0_EEE4typeERSB_(%"class.std::tuple.3"* dereferenceable(24)) #4 comdat !dbg !4319 {
  %2 = alloca %"class.std::tuple.3"*, align 8
  store %"class.std::tuple.3"* %0, %"class.std::tuple.3"** %2, align 8
  call void @llvm.dbg.declare(metadata %"class.std::tuple.3"** %2, metadata !4331, metadata !3206), !dbg !4332
  %3 = load %"class.std::tuple.3"*, %"class.std::tuple.3"** %2, align 8, !dbg !4333
  %4 = bitcast %"class.std::tuple.3"* %3 to %"struct.std::_Tuple_impl.4"*, !dbg !4333
  %5 = call dereferenceable(16) %"struct.std::_Mem_fn"* @_ZSt12__get_helperILm0ESt7_Mem_fnIMN7indexer8WorkUnitEFvvEEJPS2_EERT0_RSt11_Tuple_implIXT_EJS7_DpT1_EE(%"struct.std::_Tuple_impl.4"* dereferenceable(24) %4) #3, !dbg !4334
  ret %"struct.std::_Mem_fn"* %5, !dbg !4335
}

; Function Attrs: uwtable
define linkonce_odr void @_ZNKSt12_Mem_fn_baseIMN7indexer8WorkUnitEFvvELb1EEclIJPS1_EEEDTclsr3stdE8__invokedtdefpT6_M_pmfspclsr3stdE7forwardIT_Efp_EEEDpOS7_(%"class.std::_Mem_fn_base"*, %"class.indexer::WorkUnit"** dereferenceable(8)) #0 comdat align 2 !dbg !4336 {
  %3 = alloca %"class.std::_Mem_fn_base"*, align 8
  %4 = alloca %"class.indexer::WorkUnit"**, align 8
  store %"class.std::_Mem_fn_base"* %0, %"class.std::_Mem_fn_base"** %3, align 8
  call void @llvm.dbg.declare(metadata %"class.std::_Mem_fn_base"** %3, metadata !4343, metadata !3206), !dbg !4345
  store %"class.indexer::WorkUnit"** %1, %"class.indexer::WorkUnit"*** %4, align 8
  call void @llvm.dbg.declare(metadata %"class.indexer::WorkUnit"*** %4, metadata !4346, metadata !3206), !dbg !4347
  %5 = load %"class.std::_Mem_fn_base"*, %"class.std::_Mem_fn_base"** %3, align 8
  %6 = getelementptr inbounds %"class.std::_Mem_fn_base", %"class.std::_Mem_fn_base"* %5, i32 0, i32 0, !dbg !4348
  %7 = load %"class.indexer::WorkUnit"**, %"class.indexer::WorkUnit"*** %4, align 8, !dbg !4349
  %8 = call dereferenceable(8) %"class.indexer::WorkUnit"** @_ZSt7forwardIPN7indexer8WorkUnitEEOT_RNSt16remove_referenceIS3_E4typeE(%"class.indexer::WorkUnit"** dereferenceable(8) %7) #3, !dbg !4350
  call void @_ZSt8__invokeIRKMN7indexer8WorkUnitEFvvEJPS1_EENSt9result_ofIFOT_DpOT0_EE4typeES9_SC_({ i64, i64 }* dereferenceable(16) %6, %"class.indexer::WorkUnit"** dereferenceable(8) %8), !dbg !4351
  ret void, !dbg !4353
}

; Function Attrs: nounwind uwtable
define linkonce_odr dereferenceable(8) %"class.indexer::WorkUnit"** @_ZSt3getILm1EJSt7_Mem_fnIMN7indexer8WorkUnitEFvvEEPS2_EERNSt13tuple_elementIXT_ESt5tupleIJDpT0_EEE4typeERSB_(%"class.std::tuple.3"* dereferenceable(24)) #4 comdat !dbg !4354 {
  %2 = alloca %"class.std::tuple.3"*, align 8
  store %"class.std::tuple.3"* %0, %"class.std::tuple.3"** %2, align 8
  call void @llvm.dbg.declare(metadata %"class.std::tuple.3"** %2, metadata !4366, metadata !3206), !dbg !4367
  %3 = load %"class.std::tuple.3"*, %"class.std::tuple.3"** %2, align 8, !dbg !4368
  %4 = bitcast %"class.std::tuple.3"* %3 to %"struct.std::_Tuple_impl.5"*, !dbg !4368
  %5 = call dereferenceable(8) %"class.indexer::WorkUnit"** @_ZSt12__get_helperILm1EPN7indexer8WorkUnitEJEERT0_RSt11_Tuple_implIXT_EJS3_DpT1_EE(%"struct.std::_Tuple_impl.5"* dereferenceable(8) %4) #3, !dbg !4369
  ret %"class.indexer::WorkUnit"** %5, !dbg !4370
}

; Function Attrs: nounwind uwtable
define linkonce_odr dereferenceable(16) %"struct.std::_Mem_fn"* @_ZSt12__get_helperILm0ESt7_Mem_fnIMN7indexer8WorkUnitEFvvEEJPS2_EERT0_RSt11_Tuple_implIXT_EJS7_DpT1_EE(%"struct.std::_Tuple_impl.4"* dereferenceable(24)) #4 comdat !dbg !4371 {
  %2 = alloca %"struct.std::_Tuple_impl.4"*, align 8
  store %"struct.std::_Tuple_impl.4"* %0, %"struct.std::_Tuple_impl.4"** %2, align 8
  call void @llvm.dbg.declare(metadata %"struct.std::_Tuple_impl.4"** %2, metadata !4374, metadata !3206), !dbg !4375
  %3 = load %"struct.std::_Tuple_impl.4"*, %"struct.std::_Tuple_impl.4"** %2, align 8, !dbg !4376
  %4 = call dereferenceable(16) %"struct.std::_Mem_fn"* @_ZNSt11_Tuple_implILm0EJSt7_Mem_fnIMN7indexer8WorkUnitEFvvEEPS2_EE7_M_headERS7_(%"struct.std::_Tuple_impl.4"* dereferenceable(24) %3) #3, !dbg !4377
  ret %"struct.std::_Mem_fn"* %4, !dbg !4378
}

; Function Attrs: inlinehint uwtable
define linkonce_odr void @_ZSt8__invokeIRKMN7indexer8WorkUnitEFvvEJPS1_EENSt9result_ofIFOT_DpOT0_EE4typeES9_SC_({ i64, i64 }* dereferenceable(16), %"class.indexer::WorkUnit"** dereferenceable(8)) #13 comdat !dbg !482 {
  %3 = alloca { i64, i64 }*, align 8
  %4 = alloca %"class.indexer::WorkUnit"**, align 8
  %5 = alloca %"struct.std::__invoke_memfun_deref", align 1
  store { i64, i64 }* %0, { i64, i64 }** %3, align 8
  call void @llvm.dbg.declare(metadata { i64, i64 }** %3, metadata !4379, metadata !3206), !dbg !4380
  store %"class.indexer::WorkUnit"** %1, %"class.indexer::WorkUnit"*** %4, align 8
  call void @llvm.dbg.declare(metadata %"class.indexer::WorkUnit"*** %4, metadata !4381, metadata !3206), !dbg !4382
  %6 = load { i64, i64 }*, { i64, i64 }** %3, align 8, !dbg !4383
  %7 = call dereferenceable(16) { i64, i64 }* @_ZSt7forwardIRKMN7indexer8WorkUnitEFvvEEOT_RNSt16remove_referenceIS6_E4typeE({ i64, i64 }* dereferenceable(16) %6) #3, !dbg !4384
  %8 = load %"class.indexer::WorkUnit"**, %"class.indexer::WorkUnit"*** %4, align 8, !dbg !4385
  %9 = call dereferenceable(8) %"class.indexer::WorkUnit"** @_ZSt7forwardIPN7indexer8WorkUnitEEOT_RNSt16remove_referenceIS3_E4typeE(%"class.indexer::WorkUnit"** dereferenceable(8) %8) #3, !dbg !4386
  call void @_ZSt13__invoke_implIvRKMN7indexer8WorkUnitEFvvEPS1_JEET_St21__invoke_memfun_derefOT0_OT1_DpOT2_({ i64, i64 }* dereferenceable(16) %7, %"class.indexer::WorkUnit"** dereferenceable(8) %9), !dbg !4387
  ret void, !dbg !4389
}

; Function Attrs: inlinehint uwtable
define linkonce_odr void @_ZSt13__invoke_implIvRKMN7indexer8WorkUnitEFvvEPS1_JEET_St21__invoke_memfun_derefOT0_OT1_DpOT2_({ i64, i64 }* dereferenceable(16), %"class.indexer::WorkUnit"** dereferenceable(8)) #13 comdat !dbg !4390 {
  %3 = alloca %"struct.std::__invoke_memfun_deref", align 1
  %4 = alloca { i64, i64 }*, align 8
  %5 = alloca %"class.indexer::WorkUnit"**, align 8
  call void @llvm.dbg.declare(metadata %"struct.std::__invoke_memfun_deref"* %3, metadata !4396, metadata !3206), !dbg !4397
  store { i64, i64 }* %0, { i64, i64 }** %4, align 8
  call void @llvm.dbg.declare(metadata { i64, i64 }** %4, metadata !4398, metadata !3206), !dbg !4399
  store %"class.indexer::WorkUnit"** %1, %"class.indexer::WorkUnit"*** %5, align 8
  call void @llvm.dbg.declare(metadata %"class.indexer::WorkUnit"*** %5, metadata !4400, metadata !3206), !dbg !4401
  %6 = load { i64, i64 }*, { i64, i64 }** %4, align 8, !dbg !4402
  %7 = load { i64, i64 }, { i64, i64 }* %6, align 8, !dbg !4402
  %8 = load %"class.indexer::WorkUnit"**, %"class.indexer::WorkUnit"*** %5, align 8, !dbg !4403
  %9 = call dereferenceable(8) %"class.indexer::WorkUnit"** @_ZSt7forwardIPN7indexer8WorkUnitEEOT_RNSt16remove_referenceIS3_E4typeE(%"class.indexer::WorkUnit"** dereferenceable(8) %8) #3, !dbg !4404
  %10 = load %"class.indexer::WorkUnit"*, %"class.indexer::WorkUnit"** %9, align 8, !dbg !4404
  %11 = extractvalue { i64, i64 } %7, 1, !dbg !4405
  %12 = bitcast %"class.indexer::WorkUnit"* %10 to i8*, !dbg !4405
  %13 = getelementptr inbounds i8, i8* %12, i64 %11, !dbg !4405
  %14 = bitcast i8* %13 to %"class.indexer::WorkUnit"*, !dbg !4405
  %15 = extractvalue { i64, i64 } %7, 0, !dbg !4405
  %16 = and i64 %15, 1, !dbg !4405
  %17 = icmp ne i64 %16, 0, !dbg !4405
  br i1 %17, label %18, label %25, !dbg !4405

; <label>:18:                                     ; preds = %2
  %19 = bitcast %"class.indexer::WorkUnit"* %14 to i8**, !dbg !4406
  %20 = load i8*, i8** %19, align 8, !dbg !4406
  %21 = sub i64 %15, 1, !dbg !4406
  %22 = getelementptr i8, i8* %20, i64 %21, !dbg !4406
  %23 = bitcast i8* %22 to void (%"class.indexer::WorkUnit"*)**, !dbg !4406
  %24 = load void (%"class.indexer::WorkUnit"*)*, void (%"class.indexer::WorkUnit"*)** %23, align 8, !dbg !4406
  br label %27, !dbg !4406

; <label>:25:                                     ; preds = %2
  %26 = inttoptr i64 %15 to void (%"class.indexer::WorkUnit"*)*, !dbg !4408
  br label %27, !dbg !4408

; <label>:27:                                     ; preds = %25, %18
  %28 = phi void (%"class.indexer::WorkUnit"*)* [ %24, %18 ], [ %26, %25 ], !dbg !4410
  call void %28(%"class.indexer::WorkUnit"* %14), !dbg !4410
  ret void, !dbg !4412
}

; Function Attrs: nounwind uwtable
define linkonce_odr dereferenceable(16) { i64, i64 }* @_ZSt7forwardIRKMN7indexer8WorkUnitEFvvEEOT_RNSt16remove_referenceIS6_E4typeE({ i64, i64 }* dereferenceable(16)) #4 comdat !dbg !4413 {
  %2 = alloca { i64, i64 }*, align 8
  store { i64, i64 }* %0, { i64, i64 }** %2, align 8
  call void @llvm.dbg.declare(metadata { i64, i64 }** %2, metadata !4421, metadata !3206), !dbg !4422
  %3 = load { i64, i64 }*, { i64, i64 }** %2, align 8, !dbg !4423
  ret { i64, i64 }* %3, !dbg !4424
}

; Function Attrs: nounwind uwtable
define linkonce_odr dereferenceable(8) %"class.indexer::WorkUnit"** @_ZSt12__get_helperILm1EPN7indexer8WorkUnitEJEERT0_RSt11_Tuple_implIXT_EJS3_DpT1_EE(%"struct.std::_Tuple_impl.5"* dereferenceable(8)) #4 comdat !dbg !4425 {
  %2 = alloca %"struct.std::_Tuple_impl.5"*, align 8
  store %"struct.std::_Tuple_impl.5"* %0, %"struct.std::_Tuple_impl.5"** %2, align 8
  call void @llvm.dbg.declare(metadata %"struct.std::_Tuple_impl.5"** %2, metadata !4428, metadata !3206), !dbg !4429
  %3 = load %"struct.std::_Tuple_impl.5"*, %"struct.std::_Tuple_impl.5"** %2, align 8, !dbg !4430
  %4 = call dereferenceable(8) %"class.indexer::WorkUnit"** @_ZNSt11_Tuple_implILm1EJPN7indexer8WorkUnitEEE7_M_headERS3_(%"struct.std::_Tuple_impl.5"* dereferenceable(8) %3) #3, !dbg !4431
  ret %"class.indexer::WorkUnit"** %4, !dbg !4432
}

; Function Attrs: uwtable
define linkonce_odr void @_ZNSt5tupleIJPNSt6thread6_StateESt14default_deleteIS1_EEEC2IRS2_S4_Lb1EEEOT_OT0_(%"class.std::tuple"*, %"struct.std::thread::_State"** dereferenceable(8), %"struct.std::default_delete"* dereferenceable(1)) unnamed_addr #0 comdat align 2 !dbg !4433 {
  %4 = alloca %"class.std::tuple"*, align 8
  %5 = alloca %"struct.std::thread::_State"**, align 8
  %6 = alloca %"struct.std::default_delete"*, align 8
  store %"class.std::tuple"* %0, %"class.std::tuple"** %4, align 8
  call void @llvm.dbg.declare(metadata %"class.std::tuple"** %4, metadata !4441, metadata !3206), !dbg !4443
  store %"struct.std::thread::_State"** %1, %"struct.std::thread::_State"*** %5, align 8
  call void @llvm.dbg.declare(metadata %"struct.std::thread::_State"*** %5, metadata !4444, metadata !3206), !dbg !4445
  store %"struct.std::default_delete"* %2, %"struct.std::default_delete"** %6, align 8
  call void @llvm.dbg.declare(metadata %"struct.std::default_delete"** %6, metadata !4446, metadata !3206), !dbg !4447
  %7 = load %"class.std::tuple"*, %"class.std::tuple"** %4, align 8
  %8 = bitcast %"class.std::tuple"* %7 to %"struct.std::_Tuple_impl"*, !dbg !4448
  %9 = load %"struct.std::thread::_State"**, %"struct.std::thread::_State"*** %5, align 8, !dbg !4449
  %10 = call dereferenceable(8) %"struct.std::thread::_State"** @_ZSt7forwardIRPNSt6thread6_StateEEOT_RNSt16remove_referenceIS4_E4typeE(%"struct.std::thread::_State"** dereferenceable(8) %9) #3, !dbg !4450
  %11 = load %"struct.std::default_delete"*, %"struct.std::default_delete"** %6, align 8, !dbg !4451
  %12 = call dereferenceable(1) %"struct.std::default_delete"* @_ZSt7forwardISt14default_deleteINSt6thread6_StateEEEOT_RNSt16remove_referenceIS4_E4typeE(%"struct.std::default_delete"* dereferenceable(1) %11) #3, !dbg !4452
  call void @_ZNSt11_Tuple_implILm0EJPNSt6thread6_StateESt14default_deleteIS1_EEEC2IRS2_JS4_EvEEOT_DpOT0_(%"struct.std::_Tuple_impl"* %8, %"struct.std::thread::_State"** dereferenceable(8) %10, %"struct.std::default_delete"* dereferenceable(1) %12), !dbg !4454
  ret void, !dbg !4456
}

; Function Attrs: nounwind uwtable
define linkonce_odr dereferenceable(8) %"struct.std::thread::_State"** @_ZSt7forwardIRPNSt6thread6_StateEEOT_RNSt16remove_referenceIS4_E4typeE(%"struct.std::thread::_State"** dereferenceable(8)) #4 comdat !dbg !4457 {
  %2 = alloca %"struct.std::thread::_State"**, align 8
  store %"struct.std::thread::_State"** %0, %"struct.std::thread::_State"*** %2, align 8
  call void @llvm.dbg.declare(metadata %"struct.std::thread::_State"*** %2, metadata !4465, metadata !3206), !dbg !4466
  %3 = load %"struct.std::thread::_State"**, %"struct.std::thread::_State"*** %2, align 8, !dbg !4467
  ret %"struct.std::thread::_State"** %3, !dbg !4468
}

; Function Attrs: nounwind uwtable
define linkonce_odr dereferenceable(1) %"struct.std::default_delete"* @_ZSt7forwardISt14default_deleteINSt6thread6_StateEEEOT_RNSt16remove_referenceIS4_E4typeE(%"struct.std::default_delete"* dereferenceable(1)) #4 comdat !dbg !4469 {
  %2 = alloca %"struct.std::default_delete"*, align 8
  store %"struct.std::default_delete"* %0, %"struct.std::default_delete"** %2, align 8
  call void @llvm.dbg.declare(metadata %"struct.std::default_delete"** %2, metadata !4473, metadata !3206), !dbg !4474
  %3 = load %"struct.std::default_delete"*, %"struct.std::default_delete"** %2, align 8, !dbg !4475
  ret %"struct.std::default_delete"* %3, !dbg !4476
}

; Function Attrs: uwtable
define linkonce_odr void @_ZNSt11_Tuple_implILm0EJPNSt6thread6_StateESt14default_deleteIS1_EEEC2IRS2_JS4_EvEEOT_DpOT0_(%"struct.std::_Tuple_impl"*, %"struct.std::thread::_State"** dereferenceable(8), %"struct.std::default_delete"* dereferenceable(1)) unnamed_addr #0 comdat align 2 !dbg !4477 {
  %4 = alloca %"struct.std::_Tuple_impl"*, align 8
  %5 = alloca %"struct.std::thread::_State"**, align 8
  %6 = alloca %"struct.std::default_delete"*, align 8
  store %"struct.std::_Tuple_impl"* %0, %"struct.std::_Tuple_impl"** %4, align 8
  call void @llvm.dbg.declare(metadata %"struct.std::_Tuple_impl"** %4, metadata !4485, metadata !3206), !dbg !4487
  store %"struct.std::thread::_State"** %1, %"struct.std::thread::_State"*** %5, align 8
  call void @llvm.dbg.declare(metadata %"struct.std::thread::_State"*** %5, metadata !4488, metadata !3206), !dbg !4489
  store %"struct.std::default_delete"* %2, %"struct.std::default_delete"** %6, align 8
  call void @llvm.dbg.declare(metadata %"struct.std::default_delete"** %6, metadata !4490, metadata !3206), !dbg !4491
  %7 = load %"struct.std::_Tuple_impl"*, %"struct.std::_Tuple_impl"** %4, align 8
  %8 = bitcast %"struct.std::_Tuple_impl"* %7 to %"struct.std::_Tuple_impl.1"*, !dbg !4492
  %9 = load %"struct.std::default_delete"*, %"struct.std::default_delete"** %6, align 8, !dbg !4493
  %10 = call dereferenceable(1) %"struct.std::default_delete"* @_ZSt7forwardISt14default_deleteINSt6thread6_StateEEEOT_RNSt16remove_referenceIS4_E4typeE(%"struct.std::default_delete"* dereferenceable(1) %9) #3, !dbg !4494
  call void @_ZNSt11_Tuple_implILm1EJSt14default_deleteINSt6thread6_StateEEEEC2IS3_EEOT_(%"struct.std::_Tuple_impl.1"* %8, %"struct.std::default_delete"* dereferenceable(1) %10), !dbg !4495
  %11 = bitcast %"struct.std::_Tuple_impl"* %7 to %"struct.std::_Head_base.2"*, !dbg !4492
  %12 = load %"struct.std::thread::_State"**, %"struct.std::thread::_State"*** %5, align 8, !dbg !4497
  %13 = call dereferenceable(8) %"struct.std::thread::_State"** @_ZSt7forwardIRPNSt6thread6_StateEEOT_RNSt16remove_referenceIS4_E4typeE(%"struct.std::thread::_State"** dereferenceable(8) %12) #3, !dbg !4498
  call void @_ZNSt10_Head_baseILm0EPNSt6thread6_StateELb0EEC2IRS2_EEOT_(%"struct.std::_Head_base.2"* %11, %"struct.std::thread::_State"** dereferenceable(8) %13), !dbg !4499
  ret void, !dbg !4500
}

; Function Attrs: uwtable
define linkonce_odr void @_ZNSt11_Tuple_implILm1EJSt14default_deleteINSt6thread6_StateEEEEC2IS3_EEOT_(%"struct.std::_Tuple_impl.1"*, %"struct.std::default_delete"* dereferenceable(1)) unnamed_addr #0 comdat align 2 !dbg !4501 {
  %3 = alloca %"struct.std::_Tuple_impl.1"*, align 8
  %4 = alloca %"struct.std::default_delete"*, align 8
  store %"struct.std::_Tuple_impl.1"* %0, %"struct.std::_Tuple_impl.1"** %3, align 8
  call void @llvm.dbg.declare(metadata %"struct.std::_Tuple_impl.1"** %3, metadata !4507, metadata !3206), !dbg !4509
  store %"struct.std::default_delete"* %1, %"struct.std::default_delete"** %4, align 8
  call void @llvm.dbg.declare(metadata %"struct.std::default_delete"** %4, metadata !4510, metadata !3206), !dbg !4511
  %5 = load %"struct.std::_Tuple_impl.1"*, %"struct.std::_Tuple_impl.1"** %3, align 8
  %6 = bitcast %"struct.std::_Tuple_impl.1"* %5 to %"struct.std::_Head_base"*, !dbg !4512
  %7 = load %"struct.std::default_delete"*, %"struct.std::default_delete"** %4, align 8, !dbg !4513
  %8 = call dereferenceable(1) %"struct.std::default_delete"* @_ZSt7forwardISt14default_deleteINSt6thread6_StateEEEOT_RNSt16remove_referenceIS4_E4typeE(%"struct.std::default_delete"* dereferenceable(1) %7) #3, !dbg !4514
  call void @_ZNSt10_Head_baseILm1ESt14default_deleteINSt6thread6_StateEELb1EEC2IS3_EEOT_(%"struct.std::_Head_base"* %6, %"struct.std::default_delete"* dereferenceable(1) %8), !dbg !4515
  ret void, !dbg !4517
}

; Function Attrs: nounwind uwtable
define linkonce_odr void @_ZNSt10_Head_baseILm0EPNSt6thread6_StateELb0EEC2IRS2_EEOT_(%"struct.std::_Head_base.2"*, %"struct.std::thread::_State"** dereferenceable(8)) unnamed_addr #4 comdat align 2 !dbg !4518 {
  %3 = alloca %"struct.std::_Head_base.2"*, align 8
  %4 = alloca %"struct.std::thread::_State"**, align 8
  store %"struct.std::_Head_base.2"* %0, %"struct.std::_Head_base.2"** %3, align 8
  call void @llvm.dbg.declare(metadata %"struct.std::_Head_base.2"** %3, metadata !4523, metadata !3206), !dbg !4525
  store %"struct.std::thread::_State"** %1, %"struct.std::thread::_State"*** %4, align 8
  call void @llvm.dbg.declare(metadata %"struct.std::thread::_State"*** %4, metadata !4526, metadata !3206), !dbg !4527
  %5 = load %"struct.std::_Head_base.2"*, %"struct.std::_Head_base.2"** %3, align 8
  %6 = getelementptr inbounds %"struct.std::_Head_base.2", %"struct.std::_Head_base.2"* %5, i32 0, i32 0, !dbg !4528
  %7 = load %"struct.std::thread::_State"**, %"struct.std::thread::_State"*** %4, align 8, !dbg !4529
  %8 = call dereferenceable(8) %"struct.std::thread::_State"** @_ZSt7forwardIRPNSt6thread6_StateEEOT_RNSt16remove_referenceIS4_E4typeE(%"struct.std::thread::_State"** dereferenceable(8) %7) #3, !dbg !4530
  %9 = load %"struct.std::thread::_State"*, %"struct.std::thread::_State"** %8, align 8, !dbg !4530
  store %"struct.std::thread::_State"* %9, %"struct.std::thread::_State"** %6, align 8, !dbg !4528
  ret void, !dbg !4531
}

; Function Attrs: nounwind uwtable
define linkonce_odr void @_ZNSt10_Head_baseILm1ESt14default_deleteINSt6thread6_StateEELb1EEC2IS3_EEOT_(%"struct.std::_Head_base"*, %"struct.std::default_delete"* dereferenceable(1)) unnamed_addr #4 comdat align 2 !dbg !4532 {
  %3 = alloca %"struct.std::_Head_base"*, align 8
  %4 = alloca %"struct.std::default_delete"*, align 8
  store %"struct.std::_Head_base"* %0, %"struct.std::_Head_base"** %3, align 8
  call void @llvm.dbg.declare(metadata %"struct.std::_Head_base"** %3, metadata !4536, metadata !3206), !dbg !4538
  store %"struct.std::default_delete"* %1, %"struct.std::default_delete"** %4, align 8
  call void @llvm.dbg.declare(metadata %"struct.std::default_delete"** %4, metadata !4539, metadata !3206), !dbg !4540
  %5 = load %"struct.std::_Head_base"*, %"struct.std::_Head_base"** %3, align 8
  %6 = bitcast %"struct.std::_Head_base"* %5 to %"struct.std::default_delete"*, !dbg !4541
  %7 = load %"struct.std::default_delete"*, %"struct.std::default_delete"** %4, align 8, !dbg !4542
  %8 = call dereferenceable(1) %"struct.std::default_delete"* @_ZSt7forwardISt14default_deleteINSt6thread6_StateEEEOT_RNSt16remove_referenceIS4_E4typeE(%"struct.std::default_delete"* dereferenceable(1) %7) #3, !dbg !4543
  ret void, !dbg !4544
}

; Function Attrs: nounwind uwtable
define linkonce_odr { i64, i64 } @_ZNSt26_Maybe_wrap_member_pointerIMN7indexer8WorkUnitEFvvEE9__do_wrapES3_(i64, i64) #4 comdat align 2 !dbg !4545 {
  %3 = alloca %"struct.std::_Mem_fn", align 8
  %4 = alloca { i64, i64 }, align 8
  %5 = alloca { i64, i64 }, align 8
  %6 = alloca { i64, i64 }, align 8
  %7 = getelementptr inbounds { i64, i64 }, { i64, i64 }* %4, i32 0, i32 0
  store i64 %0, i64* %7, align 8
  %8 = getelementptr inbounds { i64, i64 }, { i64, i64 }* %4, i32 0, i32 1
  store i64 %1, i64* %8, align 8
  %9 = load { i64, i64 }, { i64, i64 }* %4, align 8
  store { i64, i64 } %9, { i64, i64 }* %5, align 8
  call void @llvm.dbg.declare(metadata { i64, i64 }* %5, metadata !4546, metadata !3206), !dbg !4547
  %10 = load { i64, i64 }, { i64, i64 }* %5, align 8, !dbg !4548
  store { i64, i64 } %10, { i64, i64 }* %6, align 8, !dbg !4549
  %11 = getelementptr inbounds { i64, i64 }, { i64, i64 }* %6, i32 0, i32 0, !dbg !4549
  %12 = load i64, i64* %11, align 8, !dbg !4549
  %13 = getelementptr inbounds { i64, i64 }, { i64, i64 }* %6, i32 0, i32 1, !dbg !4549
  %14 = load i64, i64* %13, align 8, !dbg !4549
  call void @_ZNSt7_Mem_fnIMN7indexer8WorkUnitEFvvEECI2St12_Mem_fn_baseIS3_Lb1EEES3_(%"struct.std::_Mem_fn"* %3, i64 %12, i64 %14) #3, !dbg !4549
  %15 = getelementptr inbounds %"struct.std::_Mem_fn", %"struct.std::_Mem_fn"* %3, i32 0, i32 0, !dbg !4550
  %16 = getelementptr inbounds %"class.std::_Mem_fn_base", %"class.std::_Mem_fn_base"* %15, i32 0, i32 0, !dbg !4550
  %17 = load { i64, i64 }, { i64, i64 }* %16, align 8, !dbg !4550
  ret { i64, i64 } %17, !dbg !4550
}

; Function Attrs: uwtable
define linkonce_odr void @_ZNSt12_Bind_simpleIFSt7_Mem_fnIMN7indexer8WorkUnitEFvvEEPS2_EEC2IS5_JS6_EEEOT_DpOT0_(%"struct.std::_Bind_simple"*, %"struct.std::_Mem_fn"* dereferenceable(16), %"class.indexer::WorkUnit"** dereferenceable(8)) unnamed_addr #0 comdat align 2 !dbg !4551 {
  %4 = alloca %"struct.std::_Bind_simple"*, align 8
  %5 = alloca %"struct.std::_Mem_fn"*, align 8
  %6 = alloca %"class.indexer::WorkUnit"**, align 8
  store %"struct.std::_Bind_simple"* %0, %"struct.std::_Bind_simple"** %4, align 8
  call void @llvm.dbg.declare(metadata %"struct.std::_Bind_simple"** %4, metadata !4557, metadata !3206), !dbg !4558
  store %"struct.std::_Mem_fn"* %1, %"struct.std::_Mem_fn"** %5, align 8
  call void @llvm.dbg.declare(metadata %"struct.std::_Mem_fn"** %5, metadata !4559, metadata !3206), !dbg !4560
  store %"class.indexer::WorkUnit"** %2, %"class.indexer::WorkUnit"*** %6, align 8
  call void @llvm.dbg.declare(metadata %"class.indexer::WorkUnit"*** %6, metadata !4561, metadata !3206), !dbg !4562
  %7 = load %"struct.std::_Bind_simple"*, %"struct.std::_Bind_simple"** %4, align 8
  %8 = getelementptr inbounds %"struct.std::_Bind_simple", %"struct.std::_Bind_simple"* %7, i32 0, i32 0, !dbg !4563
  %9 = load %"struct.std::_Mem_fn"*, %"struct.std::_Mem_fn"** %5, align 8, !dbg !4564
  %10 = call dereferenceable(16) %"struct.std::_Mem_fn"* @_ZSt7forwardISt7_Mem_fnIMN7indexer8WorkUnitEFvvEEEOT_RNSt16remove_referenceIS6_E4typeE(%"struct.std::_Mem_fn"* dereferenceable(16) %9) #3, !dbg !4565
  %11 = load %"class.indexer::WorkUnit"**, %"class.indexer::WorkUnit"*** %6, align 8, !dbg !4566
  %12 = call dereferenceable(8) %"class.indexer::WorkUnit"** @_ZSt7forwardIPN7indexer8WorkUnitEEOT_RNSt16remove_referenceIS3_E4typeE(%"class.indexer::WorkUnit"** dereferenceable(8) %11) #3, !dbg !4567
  call void @_ZNSt5tupleIJSt7_Mem_fnIMN7indexer8WorkUnitEFvvEEPS2_EEC2IS5_S6_Lb1EEEOT_OT0_(%"class.std::tuple.3"* %8, %"struct.std::_Mem_fn"* dereferenceable(16) %10, %"class.indexer::WorkUnit"** dereferenceable(8) %12), !dbg !4569
  ret void, !dbg !4571
}

; Function Attrs: inlinehint nounwind uwtable
define linkonce_odr void @_ZNSt7_Mem_fnIMN7indexer8WorkUnitEFvvEECI2St12_Mem_fn_baseIS3_Lb1EEES3_(%"struct.std::_Mem_fn"*, i64, i64) unnamed_addr #9 comdat align 2 !dbg !4572 {
  %4 = alloca { i64, i64 }, align 8
  %5 = alloca %"struct.std::_Mem_fn"*, align 8
  %6 = alloca { i64, i64 }, align 8
  %7 = alloca { i64, i64 }, align 8
  %8 = getelementptr inbounds { i64, i64 }, { i64, i64 }* %4, i32 0, i32 0
  store i64 %1, i64* %8, align 8
  %9 = getelementptr inbounds { i64, i64 }, { i64, i64 }* %4, i32 0, i32 1
  store i64 %2, i64* %9, align 8
  %10 = load { i64, i64 }, { i64, i64 }* %4, align 8
  store %"struct.std::_Mem_fn"* %0, %"struct.std::_Mem_fn"** %5, align 8
  call void @llvm.dbg.declare(metadata %"struct.std::_Mem_fn"** %5, metadata !4577, metadata !3206), !dbg !4579
  store { i64, i64 } %10, { i64, i64 }* %6, align 8
  call void @llvm.dbg.declare(metadata { i64, i64 }* %6, metadata !4580, metadata !3206), !dbg !4579
  %11 = load %"struct.std::_Mem_fn"*, %"struct.std::_Mem_fn"** %5, align 8
  %12 = bitcast %"struct.std::_Mem_fn"* %11 to %"class.std::_Mem_fn_base"*, !dbg !4581
  %13 = load { i64, i64 }, { i64, i64 }* %6, align 8, !dbg !4581
  store { i64, i64 } %13, { i64, i64 }* %7, align 8, !dbg !4581
  %14 = getelementptr inbounds { i64, i64 }, { i64, i64 }* %7, i32 0, i32 0, !dbg !4581
  %15 = load i64, i64* %14, align 8, !dbg !4581
  %16 = getelementptr inbounds { i64, i64 }, { i64, i64 }* %7, i32 0, i32 1, !dbg !4581
  %17 = load i64, i64* %16, align 8, !dbg !4581
  call void @_ZNSt12_Mem_fn_baseIMN7indexer8WorkUnitEFvvELb1EEC2ES3_(%"class.std::_Mem_fn_base"* %12, i64 %15, i64 %17) #3, !dbg !4581
  ret void, !dbg !4581
}

; Function Attrs: nounwind uwtable
define linkonce_odr void @_ZNSt12_Mem_fn_baseIMN7indexer8WorkUnitEFvvELb1EEC2ES3_(%"class.std::_Mem_fn_base"*, i64, i64) unnamed_addr #4 comdat align 2 !dbg !4582 {
  %4 = alloca { i64, i64 }, align 8
  %5 = alloca %"class.std::_Mem_fn_base"*, align 8
  %6 = alloca { i64, i64 }, align 8
  %7 = getelementptr inbounds { i64, i64 }, { i64, i64 }* %4, i32 0, i32 0
  store i64 %1, i64* %7, align 8
  %8 = getelementptr inbounds { i64, i64 }, { i64, i64 }* %4, i32 0, i32 1
  store i64 %2, i64* %8, align 8
  %9 = load { i64, i64 }, { i64, i64 }* %4, align 8
  store %"class.std::_Mem_fn_base"* %0, %"class.std::_Mem_fn_base"** %5, align 8
  call void @llvm.dbg.declare(metadata %"class.std::_Mem_fn_base"** %5, metadata !4583, metadata !3206), !dbg !4585
  store { i64, i64 } %9, { i64, i64 }* %6, align 8
  call void @llvm.dbg.declare(metadata { i64, i64 }* %6, metadata !4586, metadata !3206), !dbg !4587
  %10 = load %"class.std::_Mem_fn_base"*, %"class.std::_Mem_fn_base"** %5, align 8
  %11 = bitcast %"class.std::_Mem_fn_base"* %10 to %"struct.std::_Maybe_unary_or_binary_function"*, !dbg !4588
  %12 = getelementptr inbounds %"class.std::_Mem_fn_base", %"class.std::_Mem_fn_base"* %10, i32 0, i32 0, !dbg !4589
  %13 = load { i64, i64 }, { i64, i64 }* %6, align 8, !dbg !4590
  store { i64, i64 } %13, { i64, i64 }* %12, align 8, !dbg !4589
  ret void, !dbg !4591
}

; Function Attrs: uwtable
define linkonce_odr void @_ZNSt5tupleIJSt7_Mem_fnIMN7indexer8WorkUnitEFvvEEPS2_EEC2IS5_S6_Lb1EEEOT_OT0_(%"class.std::tuple.3"*, %"struct.std::_Mem_fn"* dereferenceable(16), %"class.indexer::WorkUnit"** dereferenceable(8)) unnamed_addr #0 comdat align 2 !dbg !4592 {
  %4 = alloca %"class.std::tuple.3"*, align 8
  %5 = alloca %"struct.std::_Mem_fn"*, align 8
  %6 = alloca %"class.indexer::WorkUnit"**, align 8
  store %"class.std::tuple.3"* %0, %"class.std::tuple.3"** %4, align 8
  call void @llvm.dbg.declare(metadata %"class.std::tuple.3"** %4, metadata !4599, metadata !3206), !dbg !4600
  store %"struct.std::_Mem_fn"* %1, %"struct.std::_Mem_fn"** %5, align 8
  call void @llvm.dbg.declare(metadata %"struct.std::_Mem_fn"** %5, metadata !4601, metadata !3206), !dbg !4602
  store %"class.indexer::WorkUnit"** %2, %"class.indexer::WorkUnit"*** %6, align 8
  call void @llvm.dbg.declare(metadata %"class.indexer::WorkUnit"*** %6, metadata !4603, metadata !3206), !dbg !4604
  %7 = load %"class.std::tuple.3"*, %"class.std::tuple.3"** %4, align 8
  %8 = bitcast %"class.std::tuple.3"* %7 to %"struct.std::_Tuple_impl.4"*, !dbg !4605
  %9 = load %"struct.std::_Mem_fn"*, %"struct.std::_Mem_fn"** %5, align 8, !dbg !4606
  %10 = call dereferenceable(16) %"struct.std::_Mem_fn"* @_ZSt7forwardISt7_Mem_fnIMN7indexer8WorkUnitEFvvEEEOT_RNSt16remove_referenceIS6_E4typeE(%"struct.std::_Mem_fn"* dereferenceable(16) %9) #3, !dbg !4607
  %11 = load %"class.indexer::WorkUnit"**, %"class.indexer::WorkUnit"*** %6, align 8, !dbg !4608
  %12 = call dereferenceable(8) %"class.indexer::WorkUnit"** @_ZSt7forwardIPN7indexer8WorkUnitEEOT_RNSt16remove_referenceIS3_E4typeE(%"class.indexer::WorkUnit"** dereferenceable(8) %11) #3, !dbg !4609
  call void @_ZNSt11_Tuple_implILm0EJSt7_Mem_fnIMN7indexer8WorkUnitEFvvEEPS2_EEC2IS5_JS6_EvEEOT_DpOT0_(%"struct.std::_Tuple_impl.4"* %8, %"struct.std::_Mem_fn"* dereferenceable(16) %10, %"class.indexer::WorkUnit"** dereferenceable(8) %12), !dbg !4611
  ret void, !dbg !4613
}

; Function Attrs: uwtable
define linkonce_odr void @_ZNSt11_Tuple_implILm0EJSt7_Mem_fnIMN7indexer8WorkUnitEFvvEEPS2_EEC2IS5_JS6_EvEEOT_DpOT0_(%"struct.std::_Tuple_impl.4"*, %"struct.std::_Mem_fn"* dereferenceable(16), %"class.indexer::WorkUnit"** dereferenceable(8)) unnamed_addr #0 comdat align 2 !dbg !4614 {
  %4 = alloca %"struct.std::_Tuple_impl.4"*, align 8
  %5 = alloca %"struct.std::_Mem_fn"*, align 8
  %6 = alloca %"class.indexer::WorkUnit"**, align 8
  store %"struct.std::_Tuple_impl.4"* %0, %"struct.std::_Tuple_impl.4"** %4, align 8
  call void @llvm.dbg.declare(metadata %"struct.std::_Tuple_impl.4"** %4, metadata !4620, metadata !3206), !dbg !4621
  store %"struct.std::_Mem_fn"* %1, %"struct.std::_Mem_fn"** %5, align 8
  call void @llvm.dbg.declare(metadata %"struct.std::_Mem_fn"** %5, metadata !4622, metadata !3206), !dbg !4623
  store %"class.indexer::WorkUnit"** %2, %"class.indexer::WorkUnit"*** %6, align 8
  call void @llvm.dbg.declare(metadata %"class.indexer::WorkUnit"*** %6, metadata !4624, metadata !3206), !dbg !4625
  %7 = load %"struct.std::_Tuple_impl.4"*, %"struct.std::_Tuple_impl.4"** %4, align 8
  %8 = bitcast %"struct.std::_Tuple_impl.4"* %7 to %"struct.std::_Tuple_impl.5"*, !dbg !4626
  %9 = load %"class.indexer::WorkUnit"**, %"class.indexer::WorkUnit"*** %6, align 8, !dbg !4627
  %10 = call dereferenceable(8) %"class.indexer::WorkUnit"** @_ZSt7forwardIPN7indexer8WorkUnitEEOT_RNSt16remove_referenceIS3_E4typeE(%"class.indexer::WorkUnit"** dereferenceable(8) %9) #3, !dbg !4628
  call void @_ZNSt11_Tuple_implILm1EJPN7indexer8WorkUnitEEEC2IS2_EEOT_(%"struct.std::_Tuple_impl.5"* %8, %"class.indexer::WorkUnit"** dereferenceable(8) %10), !dbg !4629
  %11 = bitcast %"struct.std::_Tuple_impl.4"* %7 to i8*, !dbg !4626
  %12 = getelementptr inbounds i8, i8* %11, i64 8, !dbg !4626
  %13 = bitcast i8* %12 to %"struct.std::_Head_base.7"*, !dbg !4626
  %14 = load %"struct.std::_Mem_fn"*, %"struct.std::_Mem_fn"** %5, align 8, !dbg !4631
  %15 = call dereferenceable(16) %"struct.std::_Mem_fn"* @_ZSt7forwardISt7_Mem_fnIMN7indexer8WorkUnitEFvvEEEOT_RNSt16remove_referenceIS6_E4typeE(%"struct.std::_Mem_fn"* dereferenceable(16) %14) #3, !dbg !4632
  call void @_ZNSt10_Head_baseILm0ESt7_Mem_fnIMN7indexer8WorkUnitEFvvEELb0EEC2IS5_EEOT_(%"struct.std::_Head_base.7"* %13, %"struct.std::_Mem_fn"* dereferenceable(16) %15), !dbg !4633
  ret void, !dbg !4634
}

; Function Attrs: nounwind uwtable
define linkonce_odr void @_ZNSt11_Tuple_implILm1EJPN7indexer8WorkUnitEEEC2IS2_EEOT_(%"struct.std::_Tuple_impl.5"*, %"class.indexer::WorkUnit"** dereferenceable(8)) unnamed_addr #4 comdat align 2 !dbg !4635 {
  %3 = alloca %"struct.std::_Tuple_impl.5"*, align 8
  %4 = alloca %"class.indexer::WorkUnit"**, align 8
  store %"struct.std::_Tuple_impl.5"* %0, %"struct.std::_Tuple_impl.5"** %3, align 8
  call void @llvm.dbg.declare(metadata %"struct.std::_Tuple_impl.5"** %3, metadata !4639, metadata !3206), !dbg !4640
  store %"class.indexer::WorkUnit"** %1, %"class.indexer::WorkUnit"*** %4, align 8
  call void @llvm.dbg.declare(metadata %"class.indexer::WorkUnit"*** %4, metadata !4641, metadata !3206), !dbg !4642
  %5 = load %"struct.std::_Tuple_impl.5"*, %"struct.std::_Tuple_impl.5"** %3, align 8
  %6 = bitcast %"struct.std::_Tuple_impl.5"* %5 to %"struct.std::_Head_base.6"*, !dbg !4643
  %7 = load %"class.indexer::WorkUnit"**, %"class.indexer::WorkUnit"*** %4, align 8, !dbg !4644
  %8 = call dereferenceable(8) %"class.indexer::WorkUnit"** @_ZSt7forwardIPN7indexer8WorkUnitEEOT_RNSt16remove_referenceIS3_E4typeE(%"class.indexer::WorkUnit"** dereferenceable(8) %7) #3, !dbg !4645
  call void @_ZNSt10_Head_baseILm1EPN7indexer8WorkUnitELb0EEC2IS2_EEOT_(%"struct.std::_Head_base.6"* %6, %"class.indexer::WorkUnit"** dereferenceable(8) %8), !dbg !4646
  ret void, !dbg !4648
}

; Function Attrs: nounwind uwtable
define linkonce_odr dereferenceable(8) %"struct.std::thread::_State"** @_ZSt3getILm0EJPNSt6thread6_StateESt14default_deleteIS1_EEERNSt13tuple_elementIXT_ESt5tupleIJDpT0_EEE4typeERS9_(%"class.std::tuple"* dereferenceable(8)) #4 comdat !dbg !4649 {
  %2 = alloca %"class.std::tuple"*, align 8
  store %"class.std::tuple"* %0, %"class.std::tuple"** %2, align 8
  call void @llvm.dbg.declare(metadata %"class.std::tuple"** %2, metadata !4659, metadata !3206), !dbg !4660
  %3 = load %"class.std::tuple"*, %"class.std::tuple"** %2, align 8, !dbg !4661
  %4 = bitcast %"class.std::tuple"* %3 to %"struct.std::_Tuple_impl"*, !dbg !4661
  %5 = call dereferenceable(8) %"struct.std::thread::_State"** @_ZSt12__get_helperILm0EPNSt6thread6_StateEJSt14default_deleteIS1_EEERT0_RSt11_Tuple_implIXT_EJS5_DpT1_EE(%"struct.std::_Tuple_impl"* dereferenceable(8) %4) #3, !dbg !4662
  ret %"struct.std::thread::_State"** %5, !dbg !4663
}

; Function Attrs: nounwind uwtable
define linkonce_odr dereferenceable(1) %"struct.std::default_delete"* @_ZNSt10unique_ptrINSt6thread6_StateESt14default_deleteIS1_EE11get_deleterEv(%"class.std::unique_ptr"*) #4 comdat align 2 !dbg !4664 {
  %2 = alloca %"class.std::unique_ptr"*, align 8
  store %"class.std::unique_ptr"* %0, %"class.std::unique_ptr"** %2, align 8
  call void @llvm.dbg.declare(metadata %"class.std::unique_ptr"** %2, metadata !4665, metadata !3206), !dbg !4666
  %3 = load %"class.std::unique_ptr"*, %"class.std::unique_ptr"** %2, align 8
  %4 = getelementptr inbounds %"class.std::unique_ptr", %"class.std::unique_ptr"* %3, i32 0, i32 0, !dbg !4667
  %5 = call dereferenceable(1) %"struct.std::default_delete"* @_ZSt3getILm1EJPNSt6thread6_StateESt14default_deleteIS1_EEERNSt13tuple_elementIXT_ESt5tupleIJDpT0_EEE4typeERS9_(%"class.std::tuple"* dereferenceable(8) %4) #3, !dbg !4668
  ret %"struct.std::default_delete"* %5, !dbg !4669
}

; Function Attrs: nounwind uwtable
define linkonce_odr void @_ZNKSt14default_deleteINSt6thread6_StateEEclEPS1_(%"struct.std::default_delete"*, %"struct.std::thread::_State"*) #4 comdat align 2 !dbg !4670 {
  %3 = alloca %"struct.std::default_delete"*, align 8
  %4 = alloca %"struct.std::thread::_State"*, align 8
  store %"struct.std::default_delete"* %0, %"struct.std::default_delete"** %3, align 8
  call void @llvm.dbg.declare(metadata %"struct.std::default_delete"** %3, metadata !4671, metadata !3206), !dbg !4673
  store %"struct.std::thread::_State"* %1, %"struct.std::thread::_State"** %4, align 8
  call void @llvm.dbg.declare(metadata %"struct.std::thread::_State"** %4, metadata !4674, metadata !3206), !dbg !4675
  %5 = load %"struct.std::default_delete"*, %"struct.std::default_delete"** %3, align 8
  %6 = load %"struct.std::thread::_State"*, %"struct.std::thread::_State"** %4, align 8, !dbg !4676
  %7 = icmp eq %"struct.std::thread::_State"* %6, null, !dbg !4677
  br i1 %7, label %13, label %8, !dbg !4677

; <label>:8:                                      ; preds = %2
  %9 = bitcast %"struct.std::thread::_State"* %6 to void (%"struct.std::thread::_State"*)***, !dbg !4678
  %10 = load void (%"struct.std::thread::_State"*)**, void (%"struct.std::thread::_State"*)*** %9, align 8, !dbg !4678
  %11 = getelementptr inbounds void (%"struct.std::thread::_State"*)*, void (%"struct.std::thread::_State"*)** %10, i64 1, !dbg !4678
  %12 = load void (%"struct.std::thread::_State"*)*, void (%"struct.std::thread::_State"*)** %11, align 8, !dbg !4678
  call void %12(%"struct.std::thread::_State"* %6) #3, !dbg !4678
  br label %13, !dbg !4678

; <label>:13:                                     ; preds = %8, %2
  ret void, !dbg !4680
}

; Function Attrs: nounwind uwtable
define linkonce_odr dereferenceable(8) %"struct.std::thread::_State"** @_ZSt12__get_helperILm0EPNSt6thread6_StateEJSt14default_deleteIS1_EEERT0_RSt11_Tuple_implIXT_EJS5_DpT1_EE(%"struct.std::_Tuple_impl"* dereferenceable(8)) #4 comdat !dbg !4681 {
  %2 = alloca %"struct.std::_Tuple_impl"*, align 8
  store %"struct.std::_Tuple_impl"* %0, %"struct.std::_Tuple_impl"** %2, align 8
  call void @llvm.dbg.declare(metadata %"struct.std::_Tuple_impl"** %2, metadata !4684, metadata !3206), !dbg !4685
  %3 = load %"struct.std::_Tuple_impl"*, %"struct.std::_Tuple_impl"** %2, align 8, !dbg !4686
  %4 = call dereferenceable(8) %"struct.std::thread::_State"** @_ZNSt11_Tuple_implILm0EJPNSt6thread6_StateESt14default_deleteIS1_EEE7_M_headERS5_(%"struct.std::_Tuple_impl"* dereferenceable(8) %3) #3, !dbg !4687
  ret %"struct.std::thread::_State"** %4, !dbg !4688
}

; Function Attrs: nounwind uwtable
define linkonce_odr dereferenceable(8) %"struct.std::thread::_State"** @_ZNSt11_Tuple_implILm0EJPNSt6thread6_StateESt14default_deleteIS1_EEE7_M_headERS5_(%"struct.std::_Tuple_impl"* dereferenceable(8)) #4 comdat align 2 !dbg !4689 {
  %2 = alloca %"struct.std::_Tuple_impl"*, align 8
  store %"struct.std::_Tuple_impl"* %0, %"struct.std::_Tuple_impl"** %2, align 8
  call void @llvm.dbg.declare(metadata %"struct.std::_Tuple_impl"** %2, metadata !4690, metadata !3206), !dbg !4691
  %3 = load %"struct.std::_Tuple_impl"*, %"struct.std::_Tuple_impl"** %2, align 8, !dbg !4692
  %4 = bitcast %"struct.std::_Tuple_impl"* %3 to %"struct.std::_Head_base.2"*, !dbg !4692
  %5 = call dereferenceable(8) %"struct.std::thread::_State"** @_ZNSt10_Head_baseILm0EPNSt6thread6_StateELb0EE7_M_headERS3_(%"struct.std::_Head_base.2"* dereferenceable(8) %4) #3, !dbg !4693
  ret %"struct.std::thread::_State"** %5, !dbg !4694
}

; Function Attrs: nounwind uwtable
define linkonce_odr dereferenceable(8) %"struct.std::thread::_State"** @_ZNSt10_Head_baseILm0EPNSt6thread6_StateELb0EE7_M_headERS3_(%"struct.std::_Head_base.2"* dereferenceable(8)) #4 comdat align 2 !dbg !4695 {
  %2 = alloca %"struct.std::_Head_base.2"*, align 8
  store %"struct.std::_Head_base.2"* %0, %"struct.std::_Head_base.2"** %2, align 8
  call void @llvm.dbg.declare(metadata %"struct.std::_Head_base.2"** %2, metadata !4696, metadata !3206), !dbg !4697
  %3 = load %"struct.std::_Head_base.2"*, %"struct.std::_Head_base.2"** %2, align 8, !dbg !4698
  %4 = getelementptr inbounds %"struct.std::_Head_base.2", %"struct.std::_Head_base.2"* %3, i32 0, i32 0, !dbg !4699
  ret %"struct.std::thread::_State"** %4, !dbg !4700
}

; Function Attrs: nounwind uwtable
define linkonce_odr dereferenceable(1) %"struct.std::default_delete"* @_ZSt3getILm1EJPNSt6thread6_StateESt14default_deleteIS1_EEERNSt13tuple_elementIXT_ESt5tupleIJDpT0_EEE4typeERS9_(%"class.std::tuple"* dereferenceable(8)) #4 comdat !dbg !4701 {
  %2 = alloca %"class.std::tuple"*, align 8
  store %"class.std::tuple"* %0, %"class.std::tuple"** %2, align 8
  call void @llvm.dbg.declare(metadata %"class.std::tuple"** %2, metadata !4712, metadata !3206), !dbg !4713
  %3 = load %"class.std::tuple"*, %"class.std::tuple"** %2, align 8, !dbg !4714
  %4 = bitcast %"class.std::tuple"* %3 to %"struct.std::_Tuple_impl.1"*, !dbg !4714
  %5 = call dereferenceable(1) %"struct.std::default_delete"* @_ZSt12__get_helperILm1ESt14default_deleteINSt6thread6_StateEEJEERT0_RSt11_Tuple_implIXT_EJS4_DpT1_EE(%"struct.std::_Tuple_impl.1"* dereferenceable(1) %4) #3, !dbg !4715
  ret %"struct.std::default_delete"* %5, !dbg !4716
}

; Function Attrs: nounwind uwtable
define linkonce_odr dereferenceable(1) %"struct.std::default_delete"* @_ZSt12__get_helperILm1ESt14default_deleteINSt6thread6_StateEEJEERT0_RSt11_Tuple_implIXT_EJS4_DpT1_EE(%"struct.std::_Tuple_impl.1"* dereferenceable(1)) #4 comdat !dbg !4717 {
  %2 = alloca %"struct.std::_Tuple_impl.1"*, align 8
  store %"struct.std::_Tuple_impl.1"* %0, %"struct.std::_Tuple_impl.1"** %2, align 8
  call void @llvm.dbg.declare(metadata %"struct.std::_Tuple_impl.1"** %2, metadata !4719, metadata !3206), !dbg !4720
  %3 = load %"struct.std::_Tuple_impl.1"*, %"struct.std::_Tuple_impl.1"** %2, align 8, !dbg !4721
  %4 = call dereferenceable(1) %"struct.std::default_delete"* @_ZNSt11_Tuple_implILm1EJSt14default_deleteINSt6thread6_StateEEEE7_M_headERS4_(%"struct.std::_Tuple_impl.1"* dereferenceable(1) %3) #3, !dbg !4722
  ret %"struct.std::default_delete"* %4, !dbg !4723
}

; Function Attrs: nounwind uwtable
define linkonce_odr dereferenceable(1) %"struct.std::default_delete"* @_ZNSt11_Tuple_implILm1EJSt14default_deleteINSt6thread6_StateEEEE7_M_headERS4_(%"struct.std::_Tuple_impl.1"* dereferenceable(1)) #4 comdat align 2 !dbg !4724 {
  %2 = alloca %"struct.std::_Tuple_impl.1"*, align 8
  store %"struct.std::_Tuple_impl.1"* %0, %"struct.std::_Tuple_impl.1"** %2, align 8
  call void @llvm.dbg.declare(metadata %"struct.std::_Tuple_impl.1"** %2, metadata !4725, metadata !3206), !dbg !4726
  %3 = load %"struct.std::_Tuple_impl.1"*, %"struct.std::_Tuple_impl.1"** %2, align 8, !dbg !4727
  %4 = bitcast %"struct.std::_Tuple_impl.1"* %3 to %"struct.std::_Head_base"*, !dbg !4727
  %5 = call dereferenceable(1) %"struct.std::default_delete"* @_ZNSt10_Head_baseILm1ESt14default_deleteINSt6thread6_StateEELb1EE7_M_headERS4_(%"struct.std::_Head_base"* dereferenceable(1) %4) #3, !dbg !4728
  ret %"struct.std::default_delete"* %5, !dbg !4729
}

; Function Attrs: nounwind uwtable
define linkonce_odr dereferenceable(1) %"struct.std::default_delete"* @_ZNSt10_Head_baseILm1ESt14default_deleteINSt6thread6_StateEELb1EE7_M_headERS4_(%"struct.std::_Head_base"* dereferenceable(1)) #4 comdat align 2 !dbg !4730 {
  %2 = alloca %"struct.std::_Head_base"*, align 8
  store %"struct.std::_Head_base"* %0, %"struct.std::_Head_base"** %2, align 8
  call void @llvm.dbg.declare(metadata %"struct.std::_Head_base"** %2, metadata !4731, metadata !3206), !dbg !4732
  %3 = load %"struct.std::_Head_base"*, %"struct.std::_Head_base"** %2, align 8, !dbg !4733
  %4 = bitcast %"struct.std::_Head_base"* %3 to %"struct.std::default_delete"*, !dbg !4733
  ret %"struct.std::default_delete"* %4, !dbg !4734
}

; Function Attrs: uwtable
define linkonce_odr i32 @_ZN7indexer8WorkUnit6getMsgEv(%"class.indexer::WorkUnit"*) #0 comdat align 2 !dbg !4735 {
  %2 = alloca i32, align 4
  %3 = alloca %"class.indexer::WorkUnit"*, align 8
  store %"class.indexer::WorkUnit"* %0, %"class.indexer::WorkUnit"** %3, align 8
  call void @llvm.dbg.declare(metadata %"class.indexer::WorkUnit"** %3, metadata !4736, metadata !3206), !dbg !4737
  %4 = load %"class.indexer::WorkUnit"*, %"class.indexer::WorkUnit"** %3, align 8
  %5 = getelementptr inbounds %"class.indexer::WorkUnit", %"class.indexer::WorkUnit"* %4, i32 0, i32 0, !dbg !4738
  %6 = load i32, i32* %5, align 8, !dbg !4738
  %7 = icmp slt i32 %6, 4, !dbg !4740
  br i1 %7, label %8, label %15, !dbg !4741

; <label>:8:                                      ; preds = %1
  %9 = getelementptr inbounds %"class.indexer::WorkUnit", %"class.indexer::WorkUnit"* %4, i32 0, i32 0, !dbg !4742
  %10 = load i32, i32* %9, align 8, !dbg !4744
  %11 = add nsw i32 %10, 1, !dbg !4744
  store i32 %11, i32* %9, align 8, !dbg !4744
  %12 = mul nsw i32 %11, 11, !dbg !4745
  %13 = call i32 @_ZN7indexer8WorkUnit11getThreadIdEv(%"class.indexer::WorkUnit"* %4), !dbg !4746
  %14 = add nsw i32 %12, %13, !dbg !4747
  store i32 %14, i32* %2, align 4, !dbg !4748
  br label %16, !dbg !4748

; <label>:15:                                     ; preds = %1
  store i32 -1, i32* %2, align 4, !dbg !4749
  br label %16, !dbg !4749

; <label>:16:                                     ; preds = %15, %8
  %17 = load i32, i32* %2, align 4, !dbg !4751
  ret i32 %17, !dbg !4751
}

; Function Attrs: nounwind uwtable
define linkonce_odr i32 @_ZN7indexer8WorkUnit4hashEv(%"class.indexer::WorkUnit"*) #4 comdat align 2 !dbg !4752 {
  %2 = alloca %"class.indexer::WorkUnit"*, align 8
  store %"class.indexer::WorkUnit"* %0, %"class.indexer::WorkUnit"** %2, align 8
  call void @llvm.dbg.declare(metadata %"class.indexer::WorkUnit"** %2, metadata !4753, metadata !3206), !dbg !4754
  %3 = load %"class.indexer::WorkUnit"*, %"class.indexer::WorkUnit"** %2, align 8
  %4 = getelementptr inbounds %"class.indexer::WorkUnit", %"class.indexer::WorkUnit"* %3, i32 0, i32 1, !dbg !4755
  %5 = load i32, i32* %4, align 4, !dbg !4755
  %6 = mul nsw i32 %5, 7, !dbg !4756
  %7 = srem i32 %6, 128, !dbg !4757
  ret i32 %7, !dbg !4758
}

declare void @_ZN7Runtime14threadFinishedEi(i32) #1

; Function Attrs: uwtable
define linkonce_odr void @_ZN9IrsThread4joinEv(%class.IrsThread*) #0 comdat align 2 !dbg !4759 {
  %2 = alloca %class.IrsThread*, align 8
  store %class.IrsThread* %0, %class.IrsThread** %2, align 8
  call void @llvm.dbg.declare(metadata %class.IrsThread** %2, metadata !4760, metadata !3206), !dbg !4761
  %3 = load %class.IrsThread*, %class.IrsThread** %2, align 8
  %4 = getelementptr inbounds %class.IrsThread, %class.IrsThread* %3, i32 0, i32 0, !dbg !4762
  %5 = call zeroext i1 @_ZNKSt6thread8joinableEv(%"class.std::thread"* %4) #3, !dbg !4764
  br i1 %5, label %6, label %8, !dbg !4765

; <label>:6:                                      ; preds = %1
  %7 = getelementptr inbounds %class.IrsThread, %class.IrsThread* %3, i32 0, i32 0, !dbg !4766
  call void @_ZNSt6thread4joinEv(%"class.std::thread"* %7), !dbg !4767
  br label %8, !dbg !4766

; <label>:8:                                      ; preds = %6, %1
  ret void, !dbg !4768
}

declare void @_ZNSt6thread4joinEv(%"class.std::thread"*) #1

; Function Attrs: inlinehint nounwind uwtable
define linkonce_odr void @_ZN9IrsThreadD2Ev(%class.IrsThread*) unnamed_addr #9 comdat align 2 !dbg !4769 {
  %2 = alloca %class.IrsThread*, align 8
  store %class.IrsThread* %0, %class.IrsThread** %2, align 8
  call void @llvm.dbg.declare(metadata %class.IrsThread** %2, metadata !4771, metadata !3206), !dbg !4772
  %3 = load %class.IrsThread*, %class.IrsThread** %2, align 8
  %4 = getelementptr inbounds %class.IrsThread, %class.IrsThread* %3, i32 0, i32 0, !dbg !4773
  call void @_ZNSt6threadD2Ev(%"class.std::thread"* %4) #3, !dbg !4773
  ret void, !dbg !4775
}

; Function Attrs: uwtable
define linkonce_odr i64 @_ZNSt6chrono20__duration_cast_implINS_8durationIlSt5ratioILl1ELl1000000EEEES2_ILl1ELl1000EElLb1ELb0EE6__castIlS2_ILl1ELl1000000000EEEES4_RKNS1_IT_T0_EE(%"struct.std::chrono::duration"* dereferenceable(8)) #0 comdat align 2 !dbg !4776 {
  %2 = alloca %"struct.std::chrono::duration.0", align 8
  %3 = alloca %"struct.std::chrono::duration"*, align 8
  %4 = alloca i64, align 8
  store %"struct.std::chrono::duration"* %0, %"struct.std::chrono::duration"** %3, align 8
  call void @llvm.dbg.declare(metadata %"struct.std::chrono::duration"** %3, metadata !4786, metadata !3206), !dbg !4787
  %5 = load %"struct.std::chrono::duration"*, %"struct.std::chrono::duration"** %3, align 8, !dbg !4788
  %6 = call i64 @_ZNKSt6chrono8durationIlSt5ratioILl1ELl1000000000EEE5countEv(%"struct.std::chrono::duration"* %5), !dbg !4789
  %7 = sdiv i64 %6, 1000, !dbg !4790
  store i64 %7, i64* %4, align 8, !dbg !4791
  call void @_ZNSt6chrono8durationIlSt5ratioILl1ELl1000000EEEC2IlvEERKT_(%"struct.std::chrono::duration.0"* %2, i64* dereferenceable(8) %4), !dbg !4792
  %8 = getelementptr inbounds %"struct.std::chrono::duration.0", %"struct.std::chrono::duration.0"* %2, i32 0, i32 0, !dbg !4793
  %9 = load i64, i64* %8, align 8, !dbg !4793
  ret i64 %9, !dbg !4793
}

; Function Attrs: nounwind uwtable
define linkonce_odr i64 @_ZNKSt6chrono8durationIlSt5ratioILl1ELl1000000000EEE5countEv(%"struct.std::chrono::duration"*) #4 comdat align 2 !dbg !4794 {
  %2 = alloca %"struct.std::chrono::duration"*, align 8
  store %"struct.std::chrono::duration"* %0, %"struct.std::chrono::duration"** %2, align 8
  call void @llvm.dbg.declare(metadata %"struct.std::chrono::duration"** %2, metadata !4795, metadata !3206), !dbg !4797
  %3 = load %"struct.std::chrono::duration"*, %"struct.std::chrono::duration"** %2, align 8
  %4 = getelementptr inbounds %"struct.std::chrono::duration", %"struct.std::chrono::duration"* %3, i32 0, i32 0, !dbg !4798
  %5 = load i64, i64* %4, align 8, !dbg !4798
  ret i64 %5, !dbg !4799
}

; Function Attrs: nounwind uwtable
define linkonce_odr void @_ZNSt6chrono8durationIlSt5ratioILl1ELl1000000EEEC2IlvEERKT_(%"struct.std::chrono::duration.0"*, i64* dereferenceable(8)) unnamed_addr #4 comdat align 2 !dbg !4800 {
  %3 = alloca %"struct.std::chrono::duration.0"*, align 8
  %4 = alloca i64*, align 8
  store %"struct.std::chrono::duration.0"* %0, %"struct.std::chrono::duration.0"** %3, align 8
  call void @llvm.dbg.declare(metadata %"struct.std::chrono::duration.0"** %3, metadata !4807, metadata !3206), !dbg !4809
  store i64* %1, i64** %4, align 8
  call void @llvm.dbg.declare(metadata i64** %4, metadata !4810, metadata !3206), !dbg !4811
  %5 = load %"struct.std::chrono::duration.0"*, %"struct.std::chrono::duration.0"** %3, align 8
  %6 = getelementptr inbounds %"struct.std::chrono::duration.0", %"struct.std::chrono::duration.0"* %5, i32 0, i32 0, !dbg !4812
  %7 = load i64*, i64** %4, align 8, !dbg !4813
  %8 = load i64, i64* %7, align 8, !dbg !4813
  store i64 %8, i64* %6, align 8, !dbg !4812
  ret void, !dbg !4814
}

; Function Attrs: uwtable
define linkonce_odr i64 @_ZNSt6chronomiIlSt5ratioILl1ELl1000000000EElS2_EENSt11common_typeIJNS_8durationIT_T0_EENS4_IT1_T2_EEEE4typeERKS7_RKSA_(%"struct.std::chrono::duration"* dereferenceable(8), %"struct.std::chrono::duration"* dereferenceable(8)) #0 comdat !dbg !609 {
  %3 = alloca %"struct.std::chrono::duration", align 8
  %4 = alloca %"struct.std::chrono::duration"*, align 8
  %5 = alloca %"struct.std::chrono::duration"*, align 8
  %6 = alloca i64, align 8
  %7 = alloca %"struct.std::chrono::duration", align 8
  %8 = alloca %"struct.std::chrono::duration", align 8
  store %"struct.std::chrono::duration"* %0, %"struct.std::chrono::duration"** %4, align 8
  call void @llvm.dbg.declare(metadata %"struct.std::chrono::duration"** %4, metadata !4815, metadata !3206), !dbg !4816
  store %"struct.std::chrono::duration"* %1, %"struct.std::chrono::duration"** %5, align 8
  call void @llvm.dbg.declare(metadata %"struct.std::chrono::duration"** %5, metadata !4817, metadata !3206), !dbg !4818
  %9 = load %"struct.std::chrono::duration"*, %"struct.std::chrono::duration"** %4, align 8, !dbg !4819
  %10 = bitcast %"struct.std::chrono::duration"* %7 to i8*, !dbg !4820
  %11 = bitcast %"struct.std::chrono::duration"* %9 to i8*, !dbg !4820
  call void @llvm.memcpy.p0i8.p0i8.i64(i8* %10, i8* %11, i64 8, i32 8, i1 false), !dbg !4820
  %12 = call i64 @_ZNKSt6chrono8durationIlSt5ratioILl1ELl1000000000EEE5countEv(%"struct.std::chrono::duration"* %7), !dbg !4821
  %13 = load %"struct.std::chrono::duration"*, %"struct.std::chrono::duration"** %5, align 8, !dbg !4823
  %14 = bitcast %"struct.std::chrono::duration"* %8 to i8*, !dbg !4824
  %15 = bitcast %"struct.std::chrono::duration"* %13 to i8*, !dbg !4824
  call void @llvm.memcpy.p0i8.p0i8.i64(i8* %14, i8* %15, i64 8, i32 8, i1 false), !dbg !4825
  %16 = call i64 @_ZNKSt6chrono8durationIlSt5ratioILl1ELl1000000000EEE5countEv(%"struct.std::chrono::duration"* %8), !dbg !4827
  %17 = sub nsw i64 %12, %16, !dbg !4829
  store i64 %17, i64* %6, align 8, !dbg !4820
  call void @_ZNSt6chrono8durationIlSt5ratioILl1ELl1000000000EEEC2IlvEERKT_(%"struct.std::chrono::duration"* %3, i64* dereferenceable(8) %6), !dbg !4830
  %18 = getelementptr inbounds %"struct.std::chrono::duration", %"struct.std::chrono::duration"* %3, i32 0, i32 0, !dbg !4832
  %19 = load i64, i64* %18, align 8, !dbg !4832
  ret i64 %19, !dbg !4832
}

; Function Attrs: nounwind uwtable
define linkonce_odr i64 @_ZNKSt6chrono10time_pointINS_3_V212system_clockENS_8durationIlSt5ratioILl1ELl1000000000EEEEE16time_since_epochEv(%"struct.std::chrono::time_point"*) #4 comdat align 2 !dbg !4833 {
  %2 = alloca %"struct.std::chrono::duration", align 8
  %3 = alloca %"struct.std::chrono::time_point"*, align 8
  store %"struct.std::chrono::time_point"* %0, %"struct.std::chrono::time_point"** %3, align 8
  call void @llvm.dbg.declare(metadata %"struct.std::chrono::time_point"** %3, metadata !4834, metadata !3206), !dbg !4836
  %4 = load %"struct.std::chrono::time_point"*, %"struct.std::chrono::time_point"** %3, align 8
  %5 = getelementptr inbounds %"struct.std::chrono::time_point", %"struct.std::chrono::time_point"* %4, i32 0, i32 0, !dbg !4837
  %6 = bitcast %"struct.std::chrono::duration"* %2 to i8*, !dbg !4837
  %7 = bitcast %"struct.std::chrono::duration"* %5 to i8*, !dbg !4837
  call void @llvm.memcpy.p0i8.p0i8.i64(i8* %6, i8* %7, i64 8, i32 8, i1 false), !dbg !4837
  %8 = getelementptr inbounds %"struct.std::chrono::duration", %"struct.std::chrono::duration"* %2, i32 0, i32 0, !dbg !4838
  %9 = load i64, i64* %8, align 8, !dbg !4838
  ret i64 %9, !dbg !4838
}

; Function Attrs: nounwind uwtable
define linkonce_odr void @_ZNSt6chrono8durationIlSt5ratioILl1ELl1000000000EEEC2IlvEERKT_(%"struct.std::chrono::duration"*, i64* dereferenceable(8)) unnamed_addr #4 comdat align 2 !dbg !4839 {
  %3 = alloca %"struct.std::chrono::duration"*, align 8
  %4 = alloca i64*, align 8
  store %"struct.std::chrono::duration"* %0, %"struct.std::chrono::duration"** %3, align 8
  call void @llvm.dbg.declare(metadata %"struct.std::chrono::duration"** %3, metadata !4843, metadata !3206), !dbg !4845
  store i64* %1, i64** %4, align 8
  call void @llvm.dbg.declare(metadata i64** %4, metadata !4846, metadata !3206), !dbg !4847
  %5 = load %"struct.std::chrono::duration"*, %"struct.std::chrono::duration"** %3, align 8
  %6 = getelementptr inbounds %"struct.std::chrono::duration", %"struct.std::chrono::duration"* %5, i32 0, i32 0, !dbg !4848
  %7 = load i64*, i64** %4, align 8, !dbg !4849
  %8 = load i64, i64* %7, align 8, !dbg !4849
  store i64 %8, i64* %6, align 8, !dbg !4848
  ret void, !dbg !4850
}

; Function Attrs: uwtable
define linkonce_odr void @_ZNSt12_Vector_baseIPN7indexer8WorkUnitESaIS2_EEC2Ev(%"struct.std::_Vector_base"*) unnamed_addr #0 comdat align 2 !dbg !4851 {
  %2 = alloca %"struct.std::_Vector_base"*, align 8
  store %"struct.std::_Vector_base"* %0, %"struct.std::_Vector_base"** %2, align 8
  call void @llvm.dbg.declare(metadata %"struct.std::_Vector_base"** %2, metadata !4852, metadata !3206), !dbg !4854
  %3 = load %"struct.std::_Vector_base"*, %"struct.std::_Vector_base"** %2, align 8
  %4 = getelementptr inbounds %"struct.std::_Vector_base", %"struct.std::_Vector_base"* %3, i32 0, i32 0, !dbg !4855
  call void @_ZNSt12_Vector_baseIPN7indexer8WorkUnitESaIS2_EE12_Vector_implC2Ev(%"struct.std::_Vector_base<indexer::WorkUnit *, std::allocator<indexer::WorkUnit *> >::_Vector_impl"* %4), !dbg !4855
  ret void, !dbg !4856
}

; Function Attrs: nounwind uwtable
define linkonce_odr void @_ZNSt12_Vector_baseIPN7indexer8WorkUnitESaIS2_EE12_Vector_implC2Ev(%"struct.std::_Vector_base<indexer::WorkUnit *, std::allocator<indexer::WorkUnit *> >::_Vector_impl"*) unnamed_addr #4 comdat align 2 !dbg !4857 {
  %2 = alloca %"struct.std::_Vector_base<indexer::WorkUnit *, std::allocator<indexer::WorkUnit *> >::_Vector_impl"*, align 8
  store %"struct.std::_Vector_base<indexer::WorkUnit *, std::allocator<indexer::WorkUnit *> >::_Vector_impl"* %0, %"struct.std::_Vector_base<indexer::WorkUnit *, std::allocator<indexer::WorkUnit *> >::_Vector_impl"** %2, align 8
  call void @llvm.dbg.declare(metadata %"struct.std::_Vector_base<indexer::WorkUnit *, std::allocator<indexer::WorkUnit *> >::_Vector_impl"** %2, metadata !4858, metadata !3206), !dbg !4860
  %3 = load %"struct.std::_Vector_base<indexer::WorkUnit *, std::allocator<indexer::WorkUnit *> >::_Vector_impl"*, %"struct.std::_Vector_base<indexer::WorkUnit *, std::allocator<indexer::WorkUnit *> >::_Vector_impl"** %2, align 8
  %4 = bitcast %"struct.std::_Vector_base<indexer::WorkUnit *, std::allocator<indexer::WorkUnit *> >::_Vector_impl"* %3 to %"class.std::allocator"*, !dbg !4861
  call void @_ZNSaIPN7indexer8WorkUnitEEC2Ev(%"class.std::allocator"* %4) #3, !dbg !4862
  %5 = getelementptr inbounds %"struct.std::_Vector_base<indexer::WorkUnit *, std::allocator<indexer::WorkUnit *> >::_Vector_impl", %"struct.std::_Vector_base<indexer::WorkUnit *, std::allocator<indexer::WorkUnit *> >::_Vector_impl"* %3, i32 0, i32 0, !dbg !4863
  store %"class.indexer::WorkUnit"** null, %"class.indexer::WorkUnit"*** %5, align 8, !dbg !4863
  %6 = getelementptr inbounds %"struct.std::_Vector_base<indexer::WorkUnit *, std::allocator<indexer::WorkUnit *> >::_Vector_impl", %"struct.std::_Vector_base<indexer::WorkUnit *, std::allocator<indexer::WorkUnit *> >::_Vector_impl"* %3, i32 0, i32 1, !dbg !4864
  store %"class.indexer::WorkUnit"** null, %"class.indexer::WorkUnit"*** %6, align 8, !dbg !4864
  %7 = getelementptr inbounds %"struct.std::_Vector_base<indexer::WorkUnit *, std::allocator<indexer::WorkUnit *> >::_Vector_impl", %"struct.std::_Vector_base<indexer::WorkUnit *, std::allocator<indexer::WorkUnit *> >::_Vector_impl"* %3, i32 0, i32 2, !dbg !4865
  store %"class.indexer::WorkUnit"** null, %"class.indexer::WorkUnit"*** %7, align 8, !dbg !4865
  ret void, !dbg !4866
}

; Function Attrs: nounwind uwtable
define linkonce_odr void @_ZNSaIPN7indexer8WorkUnitEEC2Ev(%"class.std::allocator"*) unnamed_addr #4 comdat align 2 !dbg !4867 {
  %2 = alloca %"class.std::allocator"*, align 8
  store %"class.std::allocator"* %0, %"class.std::allocator"** %2, align 8
  call void @llvm.dbg.declare(metadata %"class.std::allocator"** %2, metadata !4868, metadata !3206), !dbg !4870
  %3 = load %"class.std::allocator"*, %"class.std::allocator"** %2, align 8
  %4 = bitcast %"class.std::allocator"* %3 to %"class.__gnu_cxx::new_allocator"*, !dbg !4871
  call void @_ZN9__gnu_cxx13new_allocatorIPN7indexer8WorkUnitEEC2Ev(%"class.__gnu_cxx::new_allocator"* %4) #3, !dbg !4872
  ret void, !dbg !4873
}

; Function Attrs: nounwind uwtable
define linkonce_odr void @_ZN9__gnu_cxx13new_allocatorIPN7indexer8WorkUnitEEC2Ev(%"class.__gnu_cxx::new_allocator"*) unnamed_addr #4 comdat align 2 !dbg !4874 {
  %2 = alloca %"class.__gnu_cxx::new_allocator"*, align 8
  store %"class.__gnu_cxx::new_allocator"* %0, %"class.__gnu_cxx::new_allocator"** %2, align 8
  call void @llvm.dbg.declare(metadata %"class.__gnu_cxx::new_allocator"** %2, metadata !4875, metadata !3206), !dbg !4877
  %3 = load %"class.__gnu_cxx::new_allocator"*, %"class.__gnu_cxx::new_allocator"** %2, align 8
  ret void, !dbg !4878
}

; Function Attrs: inlinehint uwtable
define linkonce_odr void @_ZSt8_DestroyIPPN7indexer8WorkUnitES2_EvT_S4_RSaIT0_E(%"class.indexer::WorkUnit"**, %"class.indexer::WorkUnit"**, %"class.std::allocator"* dereferenceable(1)) #13 comdat !dbg !4879 {
  %4 = alloca %"class.indexer::WorkUnit"**, align 8
  %5 = alloca %"class.indexer::WorkUnit"**, align 8
  %6 = alloca %"class.std::allocator"*, align 8
  store %"class.indexer::WorkUnit"** %0, %"class.indexer::WorkUnit"*** %4, align 8
  call void @llvm.dbg.declare(metadata %"class.indexer::WorkUnit"*** %4, metadata !4885, metadata !3206), !dbg !4886
  store %"class.indexer::WorkUnit"** %1, %"class.indexer::WorkUnit"*** %5, align 8
  call void @llvm.dbg.declare(metadata %"class.indexer::WorkUnit"*** %5, metadata !4887, metadata !3206), !dbg !4888
  store %"class.std::allocator"* %2, %"class.std::allocator"** %6, align 8
  call void @llvm.dbg.declare(metadata %"class.std::allocator"** %6, metadata !4889, metadata !3206), !dbg !4890
  %7 = load %"class.indexer::WorkUnit"**, %"class.indexer::WorkUnit"*** %4, align 8, !dbg !4891
  %8 = load %"class.indexer::WorkUnit"**, %"class.indexer::WorkUnit"*** %5, align 8, !dbg !4892
  call void @_ZSt8_DestroyIPPN7indexer8WorkUnitEEvT_S4_(%"class.indexer::WorkUnit"** %7, %"class.indexer::WorkUnit"** %8), !dbg !4893
  ret void, !dbg !4894
}

; Function Attrs: nounwind uwtable
define linkonce_odr dereferenceable(1) %"class.std::allocator"* @_ZNSt12_Vector_baseIPN7indexer8WorkUnitESaIS2_EE19_M_get_Tp_allocatorEv(%"struct.std::_Vector_base"*) #4 comdat align 2 !dbg !4895 {
  %2 = alloca %"struct.std::_Vector_base"*, align 8
  store %"struct.std::_Vector_base"* %0, %"struct.std::_Vector_base"** %2, align 8
  call void @llvm.dbg.declare(metadata %"struct.std::_Vector_base"** %2, metadata !4896, metadata !3206), !dbg !4897
  %3 = load %"struct.std::_Vector_base"*, %"struct.std::_Vector_base"** %2, align 8
  %4 = getelementptr inbounds %"struct.std::_Vector_base", %"struct.std::_Vector_base"* %3, i32 0, i32 0, !dbg !4898
  %5 = bitcast %"struct.std::_Vector_base<indexer::WorkUnit *, std::allocator<indexer::WorkUnit *> >::_Vector_impl"* %4 to %"class.std::allocator"*, !dbg !4899
  ret %"class.std::allocator"* %5, !dbg !4900
}

; Function Attrs: nounwind uwtable
define linkonce_odr void @_ZNSt12_Vector_baseIPN7indexer8WorkUnitESaIS2_EED2Ev(%"struct.std::_Vector_base"*) unnamed_addr #4 comdat align 2 personality i8* bitcast (i32 (...)* @__gxx_personality_v0 to i8*) !dbg !4901 {
  %2 = alloca %"struct.std::_Vector_base"*, align 8
  %3 = alloca i8*
  %4 = alloca i32
  store %"struct.std::_Vector_base"* %0, %"struct.std::_Vector_base"** %2, align 8
  call void @llvm.dbg.declare(metadata %"struct.std::_Vector_base"** %2, metadata !4902, metadata !3206), !dbg !4903
  %5 = load %"struct.std::_Vector_base"*, %"struct.std::_Vector_base"** %2, align 8
  %6 = getelementptr inbounds %"struct.std::_Vector_base", %"struct.std::_Vector_base"* %5, i32 0, i32 0, !dbg !4904
  %7 = getelementptr inbounds %"struct.std::_Vector_base<indexer::WorkUnit *, std::allocator<indexer::WorkUnit *> >::_Vector_impl", %"struct.std::_Vector_base<indexer::WorkUnit *, std::allocator<indexer::WorkUnit *> >::_Vector_impl"* %6, i32 0, i32 0, !dbg !4906
  %8 = load %"class.indexer::WorkUnit"**, %"class.indexer::WorkUnit"*** %7, align 8, !dbg !4906
  %9 = getelementptr inbounds %"struct.std::_Vector_base", %"struct.std::_Vector_base"* %5, i32 0, i32 0, !dbg !4907
  %10 = getelementptr inbounds %"struct.std::_Vector_base<indexer::WorkUnit *, std::allocator<indexer::WorkUnit *> >::_Vector_impl", %"struct.std::_Vector_base<indexer::WorkUnit *, std::allocator<indexer::WorkUnit *> >::_Vector_impl"* %9, i32 0, i32 2, !dbg !4908
  %11 = load %"class.indexer::WorkUnit"**, %"class.indexer::WorkUnit"*** %10, align 8, !dbg !4908
  %12 = getelementptr inbounds %"struct.std::_Vector_base", %"struct.std::_Vector_base"* %5, i32 0, i32 0, !dbg !4909
  %13 = getelementptr inbounds %"struct.std::_Vector_base<indexer::WorkUnit *, std::allocator<indexer::WorkUnit *> >::_Vector_impl", %"struct.std::_Vector_base<indexer::WorkUnit *, std::allocator<indexer::WorkUnit *> >::_Vector_impl"* %12, i32 0, i32 0, !dbg !4910
  %14 = load %"class.indexer::WorkUnit"**, %"class.indexer::WorkUnit"*** %13, align 8, !dbg !4910
  %15 = ptrtoint %"class.indexer::WorkUnit"** %11 to i64, !dbg !4911
  %16 = ptrtoint %"class.indexer::WorkUnit"** %14 to i64, !dbg !4911
  %17 = sub i64 %15, %16, !dbg !4911
  %18 = sdiv exact i64 %17, 8, !dbg !4911
  invoke void @_ZNSt12_Vector_baseIPN7indexer8WorkUnitESaIS2_EE13_M_deallocateEPS2_m(%"struct.std::_Vector_base"* %5, %"class.indexer::WorkUnit"** %8, i64 %18)
          to label %19 unwind label %21, !dbg !4912

; <label>:19:                                     ; preds = %1
  %20 = getelementptr inbounds %"struct.std::_Vector_base", %"struct.std::_Vector_base"* %5, i32 0, i32 0, !dbg !4913
  call void @_ZNSt12_Vector_baseIPN7indexer8WorkUnitESaIS2_EE12_Vector_implD2Ev(%"struct.std::_Vector_base<indexer::WorkUnit *, std::allocator<indexer::WorkUnit *> >::_Vector_impl"* %20) #3, !dbg !4913
  ret void, !dbg !4913

; <label>:21:                                     ; preds = %1
  %22 = landingpad { i8*, i32 }
          catch i8* null, !dbg !4915
  %23 = extractvalue { i8*, i32 } %22, 0, !dbg !4915
  store i8* %23, i8** %3, align 8, !dbg !4915
  %24 = extractvalue { i8*, i32 } %22, 1, !dbg !4915
  store i32 %24, i32* %4, align 4, !dbg !4915
  %25 = getelementptr inbounds %"struct.std::_Vector_base", %"struct.std::_Vector_base"* %5, i32 0, i32 0, !dbg !4915
  call void @_ZNSt12_Vector_baseIPN7indexer8WorkUnitESaIS2_EE12_Vector_implD2Ev(%"struct.std::_Vector_base<indexer::WorkUnit *, std::allocator<indexer::WorkUnit *> >::_Vector_impl"* %25) #3, !dbg !4915
  br label %26, !dbg !4915

; <label>:26:                                     ; preds = %21
  %27 = load i8*, i8** %3, align 8, !dbg !4917
  call void @__clang_call_terminate(i8* %27) #17, !dbg !4917
  unreachable, !dbg !4917
}

; Function Attrs: inlinehint uwtable
define linkonce_odr void @_ZSt8_DestroyIPPN7indexer8WorkUnitEEvT_S4_(%"class.indexer::WorkUnit"**, %"class.indexer::WorkUnit"**) #13 comdat !dbg !4919 {
  %3 = alloca %"class.indexer::WorkUnit"**, align 8
  %4 = alloca %"class.indexer::WorkUnit"**, align 8
  store %"class.indexer::WorkUnit"** %0, %"class.indexer::WorkUnit"*** %3, align 8
  call void @llvm.dbg.declare(metadata %"class.indexer::WorkUnit"*** %3, metadata !4923, metadata !3206), !dbg !4924
  store %"class.indexer::WorkUnit"** %1, %"class.indexer::WorkUnit"*** %4, align 8
  call void @llvm.dbg.declare(metadata %"class.indexer::WorkUnit"*** %4, metadata !4925, metadata !3206), !dbg !4926
  %5 = load %"class.indexer::WorkUnit"**, %"class.indexer::WorkUnit"*** %3, align 8, !dbg !4927
  %6 = load %"class.indexer::WorkUnit"**, %"class.indexer::WorkUnit"*** %4, align 8, !dbg !4928
  call void @_ZNSt12_Destroy_auxILb1EE9__destroyIPPN7indexer8WorkUnitEEEvT_S6_(%"class.indexer::WorkUnit"** %5, %"class.indexer::WorkUnit"** %6), !dbg !4929
  ret void, !dbg !4930
}

; Function Attrs: nounwind uwtable
define linkonce_odr void @_ZNSt12_Destroy_auxILb1EE9__destroyIPPN7indexer8WorkUnitEEEvT_S6_(%"class.indexer::WorkUnit"**, %"class.indexer::WorkUnit"**) #4 comdat align 2 !dbg !4931 {
  %3 = alloca %"class.indexer::WorkUnit"**, align 8
  %4 = alloca %"class.indexer::WorkUnit"**, align 8
  store %"class.indexer::WorkUnit"** %0, %"class.indexer::WorkUnit"*** %3, align 8
  call void @llvm.dbg.declare(metadata %"class.indexer::WorkUnit"*** %3, metadata !4935, metadata !3206), !dbg !4936
  store %"class.indexer::WorkUnit"** %1, %"class.indexer::WorkUnit"*** %4, align 8
  call void @llvm.dbg.declare(metadata %"class.indexer::WorkUnit"*** %4, metadata !4937, metadata !3206), !dbg !4938
  ret void, !dbg !4939
}

; Function Attrs: uwtable
define linkonce_odr void @_ZNSt12_Vector_baseIPN7indexer8WorkUnitESaIS2_EE13_M_deallocateEPS2_m(%"struct.std::_Vector_base"*, %"class.indexer::WorkUnit"**, i64) #0 comdat align 2 !dbg !4940 {
  %4 = alloca %"struct.std::_Vector_base"*, align 8
  %5 = alloca %"class.indexer::WorkUnit"**, align 8
  %6 = alloca i64, align 8
  store %"struct.std::_Vector_base"* %0, %"struct.std::_Vector_base"** %4, align 8
  call void @llvm.dbg.declare(metadata %"struct.std::_Vector_base"** %4, metadata !4941, metadata !3206), !dbg !4942
  store %"class.indexer::WorkUnit"** %1, %"class.indexer::WorkUnit"*** %5, align 8
  call void @llvm.dbg.declare(metadata %"class.indexer::WorkUnit"*** %5, metadata !4943, metadata !3206), !dbg !4944
  store i64 %2, i64* %6, align 8
  call void @llvm.dbg.declare(metadata i64* %6, metadata !4945, metadata !3206), !dbg !4946
  %7 = load %"struct.std::_Vector_base"*, %"struct.std::_Vector_base"** %4, align 8
  %8 = load %"class.indexer::WorkUnit"**, %"class.indexer::WorkUnit"*** %5, align 8, !dbg !4947
  %9 = icmp ne %"class.indexer::WorkUnit"** %8, null, !dbg !4947
  br i1 %9, label %10, label %15, !dbg !4949

; <label>:10:                                     ; preds = %3
  %11 = getelementptr inbounds %"struct.std::_Vector_base", %"struct.std::_Vector_base"* %7, i32 0, i32 0, !dbg !4950
  %12 = bitcast %"struct.std::_Vector_base<indexer::WorkUnit *, std::allocator<indexer::WorkUnit *> >::_Vector_impl"* %11 to %"class.std::allocator"*, !dbg !4950
  %13 = load %"class.indexer::WorkUnit"**, %"class.indexer::WorkUnit"*** %5, align 8, !dbg !4951
  %14 = load i64, i64* %6, align 8, !dbg !4952
  call void @_ZNSt16allocator_traitsISaIPN7indexer8WorkUnitEEE10deallocateERS3_PS2_m(%"class.std::allocator"* dereferenceable(1) %12, %"class.indexer::WorkUnit"** %13, i64 %14), !dbg !4953
  br label %15, !dbg !4953

; <label>:15:                                     ; preds = %10, %3
  ret void, !dbg !4954
}

; Function Attrs: inlinehint nounwind uwtable
define linkonce_odr void @_ZNSt12_Vector_baseIPN7indexer8WorkUnitESaIS2_EE12_Vector_implD2Ev(%"struct.std::_Vector_base<indexer::WorkUnit *, std::allocator<indexer::WorkUnit *> >::_Vector_impl"*) unnamed_addr #9 comdat align 2 !dbg !4955 {
  %2 = alloca %"struct.std::_Vector_base<indexer::WorkUnit *, std::allocator<indexer::WorkUnit *> >::_Vector_impl"*, align 8
  store %"struct.std::_Vector_base<indexer::WorkUnit *, std::allocator<indexer::WorkUnit *> >::_Vector_impl"* %0, %"struct.std::_Vector_base<indexer::WorkUnit *, std::allocator<indexer::WorkUnit *> >::_Vector_impl"** %2, align 8
  call void @llvm.dbg.declare(metadata %"struct.std::_Vector_base<indexer::WorkUnit *, std::allocator<indexer::WorkUnit *> >::_Vector_impl"** %2, metadata !4957, metadata !3206), !dbg !4958
  %3 = load %"struct.std::_Vector_base<indexer::WorkUnit *, std::allocator<indexer::WorkUnit *> >::_Vector_impl"*, %"struct.std::_Vector_base<indexer::WorkUnit *, std::allocator<indexer::WorkUnit *> >::_Vector_impl"** %2, align 8
  %4 = bitcast %"struct.std::_Vector_base<indexer::WorkUnit *, std::allocator<indexer::WorkUnit *> >::_Vector_impl"* %3 to %"class.std::allocator"*, !dbg !4959
  call void @_ZNSaIPN7indexer8WorkUnitEED2Ev(%"class.std::allocator"* %4) #3, !dbg !4959
  ret void, !dbg !4961
}

; Function Attrs: uwtable
define linkonce_odr void @_ZNSt16allocator_traitsISaIPN7indexer8WorkUnitEEE10deallocateERS3_PS2_m(%"class.std::allocator"* dereferenceable(1), %"class.indexer::WorkUnit"**, i64) #0 comdat align 2 !dbg !4962 {
  %4 = alloca %"class.std::allocator"*, align 8
  %5 = alloca %"class.indexer::WorkUnit"**, align 8
  %6 = alloca i64, align 8
  store %"class.std::allocator"* %0, %"class.std::allocator"** %4, align 8
  call void @llvm.dbg.declare(metadata %"class.std::allocator"** %4, metadata !4963, metadata !3206), !dbg !4964
  store %"class.indexer::WorkUnit"** %1, %"class.indexer::WorkUnit"*** %5, align 8
  call void @llvm.dbg.declare(metadata %"class.indexer::WorkUnit"*** %5, metadata !4965, metadata !3206), !dbg !4966
  store i64 %2, i64* %6, align 8
  call void @llvm.dbg.declare(metadata i64* %6, metadata !4967, metadata !3206), !dbg !4968
  %7 = load %"class.std::allocator"*, %"class.std::allocator"** %4, align 8, !dbg !4969
  %8 = bitcast %"class.std::allocator"* %7 to %"class.__gnu_cxx::new_allocator"*, !dbg !4969
  %9 = load %"class.indexer::WorkUnit"**, %"class.indexer::WorkUnit"*** %5, align 8, !dbg !4970
  %10 = load i64, i64* %6, align 8, !dbg !4971
  call void @_ZN9__gnu_cxx13new_allocatorIPN7indexer8WorkUnitEE10deallocateEPS3_m(%"class.__gnu_cxx::new_allocator"* %8, %"class.indexer::WorkUnit"** %9, i64 %10), !dbg !4972
  ret void, !dbg !4973
}

; Function Attrs: nounwind uwtable
define linkonce_odr void @_ZN9__gnu_cxx13new_allocatorIPN7indexer8WorkUnitEE10deallocateEPS3_m(%"class.__gnu_cxx::new_allocator"*, %"class.indexer::WorkUnit"**, i64) #4 comdat align 2 !dbg !4974 {
  %4 = alloca %"class.__gnu_cxx::new_allocator"*, align 8
  %5 = alloca %"class.indexer::WorkUnit"**, align 8
  %6 = alloca i64, align 8
  store %"class.__gnu_cxx::new_allocator"* %0, %"class.__gnu_cxx::new_allocator"** %4, align 8
  call void @llvm.dbg.declare(metadata %"class.__gnu_cxx::new_allocator"** %4, metadata !4975, metadata !3206), !dbg !4976
  store %"class.indexer::WorkUnit"** %1, %"class.indexer::WorkUnit"*** %5, align 8
  call void @llvm.dbg.declare(metadata %"class.indexer::WorkUnit"*** %5, metadata !4977, metadata !3206), !dbg !4978
  store i64 %2, i64* %6, align 8
  call void @llvm.dbg.declare(metadata i64* %6, metadata !4979, metadata !3206), !dbg !4980
  %7 = load %"class.__gnu_cxx::new_allocator"*, %"class.__gnu_cxx::new_allocator"** %4, align 8
  %8 = load %"class.indexer::WorkUnit"**, %"class.indexer::WorkUnit"*** %5, align 8, !dbg !4981
  %9 = bitcast %"class.indexer::WorkUnit"** %8 to i8*, !dbg !4981
  call void @_ZdlPv(i8* %9) #3, !dbg !4982
  ret void, !dbg !4983
}

; Function Attrs: nounwind uwtable
define linkonce_odr void @_ZNSaIPN7indexer8WorkUnitEED2Ev(%"class.std::allocator"*) unnamed_addr #4 comdat align 2 !dbg !4984 {
  %2 = alloca %"class.std::allocator"*, align 8
  store %"class.std::allocator"* %0, %"class.std::allocator"** %2, align 8
  call void @llvm.dbg.declare(metadata %"class.std::allocator"** %2, metadata !4985, metadata !3206), !dbg !4986
  %3 = load %"class.std::allocator"*, %"class.std::allocator"** %2, align 8
  %4 = bitcast %"class.std::allocator"* %3 to %"class.__gnu_cxx::new_allocator"*, !dbg !4987
  call void @_ZN9__gnu_cxx13new_allocatorIPN7indexer8WorkUnitEED2Ev(%"class.__gnu_cxx::new_allocator"* %4) #3, !dbg !4987
  ret void, !dbg !4989
}

; Function Attrs: nounwind uwtable
define linkonce_odr void @_ZN9__gnu_cxx13new_allocatorIPN7indexer8WorkUnitEED2Ev(%"class.__gnu_cxx::new_allocator"*) unnamed_addr #4 comdat align 2 !dbg !4990 {
  %2 = alloca %"class.__gnu_cxx::new_allocator"*, align 8
  store %"class.__gnu_cxx::new_allocator"* %0, %"class.__gnu_cxx::new_allocator"** %2, align 8
  call void @llvm.dbg.declare(metadata %"class.__gnu_cxx::new_allocator"** %2, metadata !4991, metadata !3206), !dbg !4992
  %3 = load %"class.__gnu_cxx::new_allocator"*, %"class.__gnu_cxx::new_allocator"** %2, align 8
  ret void, !dbg !4993
}

; Function Attrs: uwtable
define linkonce_odr void @_ZNSt6vectorIPN7indexer8WorkUnitESaIS2_EE12emplace_backIJS2_EEEvDpOT_(%"class.std::vector"*, %"class.indexer::WorkUnit"** dereferenceable(8)) #0 comdat align 2 !dbg !4994 {
  %3 = alloca %"class.std::vector"*, align 8
  %4 = alloca %"class.indexer::WorkUnit"**, align 8
  store %"class.std::vector"* %0, %"class.std::vector"** %3, align 8
  call void @llvm.dbg.declare(metadata %"class.std::vector"** %3, metadata !4999, metadata !3206), !dbg !5000
  store %"class.indexer::WorkUnit"** %1, %"class.indexer::WorkUnit"*** %4, align 8
  call void @llvm.dbg.declare(metadata %"class.indexer::WorkUnit"*** %4, metadata !5001, metadata !3206), !dbg !5002
  %5 = load %"class.std::vector"*, %"class.std::vector"** %3, align 8
  %6 = bitcast %"class.std::vector"* %5 to %"struct.std::_Vector_base"*, !dbg !5003
  %7 = getelementptr inbounds %"struct.std::_Vector_base", %"struct.std::_Vector_base"* %6, i32 0, i32 0, !dbg !5003
  %8 = getelementptr inbounds %"struct.std::_Vector_base<indexer::WorkUnit *, std::allocator<indexer::WorkUnit *> >::_Vector_impl", %"struct.std::_Vector_base<indexer::WorkUnit *, std::allocator<indexer::WorkUnit *> >::_Vector_impl"* %7, i32 0, i32 1, !dbg !5005
  %9 = load %"class.indexer::WorkUnit"**, %"class.indexer::WorkUnit"*** %8, align 8, !dbg !5005
  %10 = bitcast %"class.std::vector"* %5 to %"struct.std::_Vector_base"*, !dbg !5006
  %11 = getelementptr inbounds %"struct.std::_Vector_base", %"struct.std::_Vector_base"* %10, i32 0, i32 0, !dbg !5006
  %12 = getelementptr inbounds %"struct.std::_Vector_base<indexer::WorkUnit *, std::allocator<indexer::WorkUnit *> >::_Vector_impl", %"struct.std::_Vector_base<indexer::WorkUnit *, std::allocator<indexer::WorkUnit *> >::_Vector_impl"* %11, i32 0, i32 2, !dbg !5007
  %13 = load %"class.indexer::WorkUnit"**, %"class.indexer::WorkUnit"*** %12, align 8, !dbg !5007
  %14 = icmp ne %"class.indexer::WorkUnit"** %9, %13, !dbg !5008
  br i1 %14, label %15, label %30, !dbg !5009

; <label>:15:                                     ; preds = %2
  %16 = bitcast %"class.std::vector"* %5 to %"struct.std::_Vector_base"*, !dbg !5010
  %17 = getelementptr inbounds %"struct.std::_Vector_base", %"struct.std::_Vector_base"* %16, i32 0, i32 0, !dbg !5010
  %18 = bitcast %"struct.std::_Vector_base<indexer::WorkUnit *, std::allocator<indexer::WorkUnit *> >::_Vector_impl"* %17 to %"class.std::allocator"*, !dbg !5012
  %19 = bitcast %"class.std::vector"* %5 to %"struct.std::_Vector_base"*, !dbg !5013
  %20 = getelementptr inbounds %"struct.std::_Vector_base", %"struct.std::_Vector_base"* %19, i32 0, i32 0, !dbg !5013
  %21 = getelementptr inbounds %"struct.std::_Vector_base<indexer::WorkUnit *, std::allocator<indexer::WorkUnit *> >::_Vector_impl", %"struct.std::_Vector_base<indexer::WorkUnit *, std::allocator<indexer::WorkUnit *> >::_Vector_impl"* %20, i32 0, i32 1, !dbg !5014
  %22 = load %"class.indexer::WorkUnit"**, %"class.indexer::WorkUnit"*** %21, align 8, !dbg !5014
  %23 = load %"class.indexer::WorkUnit"**, %"class.indexer::WorkUnit"*** %4, align 8, !dbg !5015
  %24 = call dereferenceable(8) %"class.indexer::WorkUnit"** @_ZSt7forwardIPN7indexer8WorkUnitEEOT_RNSt16remove_referenceIS3_E4typeE(%"class.indexer::WorkUnit"** dereferenceable(8) %23) #3, !dbg !5016
  call void @_ZNSt16allocator_traitsISaIPN7indexer8WorkUnitEEE9constructIS2_JS2_EEEvRS3_PT_DpOT0_(%"class.std::allocator"* dereferenceable(1) %18, %"class.indexer::WorkUnit"** %22, %"class.indexer::WorkUnit"** dereferenceable(8) %24), !dbg !5017
  %25 = bitcast %"class.std::vector"* %5 to %"struct.std::_Vector_base"*, !dbg !5018
  %26 = getelementptr inbounds %"struct.std::_Vector_base", %"struct.std::_Vector_base"* %25, i32 0, i32 0, !dbg !5018
  %27 = getelementptr inbounds %"struct.std::_Vector_base<indexer::WorkUnit *, std::allocator<indexer::WorkUnit *> >::_Vector_impl", %"struct.std::_Vector_base<indexer::WorkUnit *, std::allocator<indexer::WorkUnit *> >::_Vector_impl"* %26, i32 0, i32 1, !dbg !5019
  %28 = load %"class.indexer::WorkUnit"**, %"class.indexer::WorkUnit"*** %27, align 8, !dbg !5020
  %29 = getelementptr inbounds %"class.indexer::WorkUnit"*, %"class.indexer::WorkUnit"** %28, i32 1, !dbg !5020
  store %"class.indexer::WorkUnit"** %29, %"class.indexer::WorkUnit"*** %27, align 8, !dbg !5020
  br label %33, !dbg !5021

; <label>:30:                                     ; preds = %2
  %31 = load %"class.indexer::WorkUnit"**, %"class.indexer::WorkUnit"*** %4, align 8, !dbg !5022
  %32 = call dereferenceable(8) %"class.indexer::WorkUnit"** @_ZSt7forwardIPN7indexer8WorkUnitEEOT_RNSt16remove_referenceIS3_E4typeE(%"class.indexer::WorkUnit"** dereferenceable(8) %31) #3, !dbg !5023
  call void @_ZNSt6vectorIPN7indexer8WorkUnitESaIS2_EE19_M_emplace_back_auxIJS2_EEEvDpOT_(%"class.std::vector"* %5, %"class.indexer::WorkUnit"** dereferenceable(8) %32), !dbg !5024
  br label %33

; <label>:33:                                     ; preds = %30, %15
  ret void, !dbg !5026
}

; Function Attrs: nounwind uwtable
define linkonce_odr dereferenceable(8) %"class.indexer::WorkUnit"** @_ZSt4moveIRPN7indexer8WorkUnitEEONSt16remove_referenceIT_E4typeEOS5_(%"class.indexer::WorkUnit"** dereferenceable(8)) #4 comdat !dbg !5027 {
  %2 = alloca %"class.indexer::WorkUnit"**, align 8
  store %"class.indexer::WorkUnit"** %0, %"class.indexer::WorkUnit"*** %2, align 8
  call void @llvm.dbg.declare(metadata %"class.indexer::WorkUnit"*** %2, metadata !5035, metadata !3206), !dbg !5036
  %3 = load %"class.indexer::WorkUnit"**, %"class.indexer::WorkUnit"*** %2, align 8, !dbg !5037
  ret %"class.indexer::WorkUnit"** %3, !dbg !5038
}

; Function Attrs: uwtable
define linkonce_odr void @_ZNSt16allocator_traitsISaIPN7indexer8WorkUnitEEE9constructIS2_JS2_EEEvRS3_PT_DpOT0_(%"class.std::allocator"* dereferenceable(1), %"class.indexer::WorkUnit"**, %"class.indexer::WorkUnit"** dereferenceable(8)) #0 comdat align 2 !dbg !5039 {
  %4 = alloca %"class.std::allocator"*, align 8
  %5 = alloca %"class.indexer::WorkUnit"**, align 8
  %6 = alloca %"class.indexer::WorkUnit"**, align 8
  store %"class.std::allocator"* %0, %"class.std::allocator"** %4, align 8
  call void @llvm.dbg.declare(metadata %"class.std::allocator"** %4, metadata !5045, metadata !3206), !dbg !5046
  store %"class.indexer::WorkUnit"** %1, %"class.indexer::WorkUnit"*** %5, align 8
  call void @llvm.dbg.declare(metadata %"class.indexer::WorkUnit"*** %5, metadata !5047, metadata !3206), !dbg !5048
  store %"class.indexer::WorkUnit"** %2, %"class.indexer::WorkUnit"*** %6, align 8
  call void @llvm.dbg.declare(metadata %"class.indexer::WorkUnit"*** %6, metadata !5049, metadata !3206), !dbg !5050
  %7 = load %"class.std::allocator"*, %"class.std::allocator"** %4, align 8, !dbg !5051
  %8 = bitcast %"class.std::allocator"* %7 to %"class.__gnu_cxx::new_allocator"*, !dbg !5051
  %9 = load %"class.indexer::WorkUnit"**, %"class.indexer::WorkUnit"*** %5, align 8, !dbg !5052
  %10 = load %"class.indexer::WorkUnit"**, %"class.indexer::WorkUnit"*** %6, align 8, !dbg !5053
  %11 = call dereferenceable(8) %"class.indexer::WorkUnit"** @_ZSt7forwardIPN7indexer8WorkUnitEEOT_RNSt16remove_referenceIS3_E4typeE(%"class.indexer::WorkUnit"** dereferenceable(8) %10) #3, !dbg !5054
  call void @_ZN9__gnu_cxx13new_allocatorIPN7indexer8WorkUnitEE9constructIS3_JS3_EEEvPT_DpOT0_(%"class.__gnu_cxx::new_allocator"* %8, %"class.indexer::WorkUnit"** %9, %"class.indexer::WorkUnit"** dereferenceable(8) %11), !dbg !5055
  ret void, !dbg !5057
}

; Function Attrs: uwtable
define linkonce_odr void @_ZNSt6vectorIPN7indexer8WorkUnitESaIS2_EE19_M_emplace_back_auxIJS2_EEEvDpOT_(%"class.std::vector"*, %"class.indexer::WorkUnit"** dereferenceable(8)) #0 comdat align 2 personality i8* bitcast (i32 (...)* @__gxx_personality_v0 to i8*) !dbg !5058 {
  %3 = alloca %"class.std::vector"*, align 8
  %4 = alloca %"class.indexer::WorkUnit"**, align 8
  %5 = alloca i64, align 8
  %6 = alloca %"class.indexer::WorkUnit"**, align 8
  %7 = alloca %"class.indexer::WorkUnit"**, align 8
  %8 = alloca i8*
  %9 = alloca i32
  store %"class.std::vector"* %0, %"class.std::vector"** %3, align 8
  call void @llvm.dbg.declare(metadata %"class.std::vector"** %3, metadata !5060, metadata !3206), !dbg !5061
  store %"class.indexer::WorkUnit"** %1, %"class.indexer::WorkUnit"*** %4, align 8
  call void @llvm.dbg.declare(metadata %"class.indexer::WorkUnit"*** %4, metadata !5062, metadata !3206), !dbg !5063
  %10 = load %"class.std::vector"*, %"class.std::vector"** %3, align 8
  call void @llvm.dbg.declare(metadata i64* %5, metadata !5064, metadata !3206), !dbg !5066
  %11 = call i64 @_ZNKSt6vectorIPN7indexer8WorkUnitESaIS2_EE12_M_check_lenEmPKc(%"class.std::vector"* %10, i64 1, i8* getelementptr inbounds ([28 x i8], [28 x i8]* @.str.8, i32 0, i32 0)), !dbg !5067
  store i64 %11, i64* %5, align 8, !dbg !5066
  call void @llvm.dbg.declare(metadata %"class.indexer::WorkUnit"*** %6, metadata !5068, metadata !3206), !dbg !5069
  %12 = bitcast %"class.std::vector"* %10 to %"struct.std::_Vector_base"*, !dbg !5070
  %13 = load i64, i64* %5, align 8, !dbg !5071
  %14 = call %"class.indexer::WorkUnit"** @_ZNSt12_Vector_baseIPN7indexer8WorkUnitESaIS2_EE11_M_allocateEm(%"struct.std::_Vector_base"* %12, i64 %13), !dbg !5070
  store %"class.indexer::WorkUnit"** %14, %"class.indexer::WorkUnit"*** %6, align 8, !dbg !5069
  call void @llvm.dbg.declare(metadata %"class.indexer::WorkUnit"*** %7, metadata !5072, metadata !3206), !dbg !5073
  %15 = load %"class.indexer::WorkUnit"**, %"class.indexer::WorkUnit"*** %6, align 8, !dbg !5074
  store %"class.indexer::WorkUnit"** %15, %"class.indexer::WorkUnit"*** %7, align 8, !dbg !5073
  %16 = bitcast %"class.std::vector"* %10 to %"struct.std::_Vector_base"*, !dbg !5075
  %17 = getelementptr inbounds %"struct.std::_Vector_base", %"struct.std::_Vector_base"* %16, i32 0, i32 0, !dbg !5075
  %18 = bitcast %"struct.std::_Vector_base<indexer::WorkUnit *, std::allocator<indexer::WorkUnit *> >::_Vector_impl"* %17 to %"class.std::allocator"*, !dbg !5077
  %19 = load %"class.indexer::WorkUnit"**, %"class.indexer::WorkUnit"*** %6, align 8, !dbg !5078
  %20 = call i64 @_ZNKSt6vectorIPN7indexer8WorkUnitESaIS2_EE4sizeEv(%"class.std::vector"* %10) #3, !dbg !5079
  %21 = getelementptr inbounds %"class.indexer::WorkUnit"*, %"class.indexer::WorkUnit"** %19, i64 %20, !dbg !5080
  %22 = load %"class.indexer::WorkUnit"**, %"class.indexer::WorkUnit"*** %4, align 8, !dbg !5081
  %23 = call dereferenceable(8) %"class.indexer::WorkUnit"** @_ZSt7forwardIPN7indexer8WorkUnitEEOT_RNSt16remove_referenceIS3_E4typeE(%"class.indexer::WorkUnit"** dereferenceable(8) %22) #3, !dbg !5082
  invoke void @_ZNSt16allocator_traitsISaIPN7indexer8WorkUnitEEE9constructIS2_JS2_EEEvRS3_PT_DpOT0_(%"class.std::allocator"* dereferenceable(1) %18, %"class.indexer::WorkUnit"** %21, %"class.indexer::WorkUnit"** dereferenceable(8) %23)
          to label %24 unwind label %40, !dbg !5083

; <label>:24:                                     ; preds = %2
  store %"class.indexer::WorkUnit"** null, %"class.indexer::WorkUnit"*** %7, align 8, !dbg !5084
  %25 = bitcast %"class.std::vector"* %10 to %"struct.std::_Vector_base"*, !dbg !5085
  %26 = getelementptr inbounds %"struct.std::_Vector_base", %"struct.std::_Vector_base"* %25, i32 0, i32 0, !dbg !5085
  %27 = getelementptr inbounds %"struct.std::_Vector_base<indexer::WorkUnit *, std::allocator<indexer::WorkUnit *> >::_Vector_impl", %"struct.std::_Vector_base<indexer::WorkUnit *, std::allocator<indexer::WorkUnit *> >::_Vector_impl"* %26, i32 0, i32 0, !dbg !5086
  %28 = load %"class.indexer::WorkUnit"**, %"class.indexer::WorkUnit"*** %27, align 8, !dbg !5086
  %29 = bitcast %"class.std::vector"* %10 to %"struct.std::_Vector_base"*, !dbg !5087
  %30 = getelementptr inbounds %"struct.std::_Vector_base", %"struct.std::_Vector_base"* %29, i32 0, i32 0, !dbg !5087
  %31 = getelementptr inbounds %"struct.std::_Vector_base<indexer::WorkUnit *, std::allocator<indexer::WorkUnit *> >::_Vector_impl", %"struct.std::_Vector_base<indexer::WorkUnit *, std::allocator<indexer::WorkUnit *> >::_Vector_impl"* %30, i32 0, i32 1, !dbg !5088
  %32 = load %"class.indexer::WorkUnit"**, %"class.indexer::WorkUnit"*** %31, align 8, !dbg !5088
  %33 = load %"class.indexer::WorkUnit"**, %"class.indexer::WorkUnit"*** %6, align 8, !dbg !5089
  %34 = bitcast %"class.std::vector"* %10 to %"struct.std::_Vector_base"*, !dbg !5090
  %35 = call dereferenceable(1) %"class.std::allocator"* @_ZNSt12_Vector_baseIPN7indexer8WorkUnitESaIS2_EE19_M_get_Tp_allocatorEv(%"struct.std::_Vector_base"* %34) #3, !dbg !5090
  %36 = invoke %"class.indexer::WorkUnit"** @_ZSt34__uninitialized_move_if_noexcept_aIPPN7indexer8WorkUnitES3_SaIS2_EET0_T_S6_S5_RT1_(%"class.indexer::WorkUnit"** %28, %"class.indexer::WorkUnit"** %32, %"class.indexer::WorkUnit"** %33, %"class.std::allocator"* dereferenceable(1) %35)
          to label %37 unwind label %40, !dbg !5091

; <label>:37:                                     ; preds = %24
  store %"class.indexer::WorkUnit"** %36, %"class.indexer::WorkUnit"*** %7, align 8, !dbg !5092
  %38 = load %"class.indexer::WorkUnit"**, %"class.indexer::WorkUnit"*** %7, align 8, !dbg !5094
  %39 = getelementptr inbounds %"class.indexer::WorkUnit"*, %"class.indexer::WorkUnit"** %38, i32 1, !dbg !5094
  store %"class.indexer::WorkUnit"** %39, %"class.indexer::WorkUnit"*** %7, align 8, !dbg !5094
  br label %73, !dbg !5095

; <label>:40:                                     ; preds = %24, %2
  %41 = landingpad { i8*, i32 }
          catch i8* null, !dbg !5096
  %42 = extractvalue { i8*, i32 } %41, 0, !dbg !5096
  store i8* %42, i8** %8, align 8, !dbg !5096
  %43 = extractvalue { i8*, i32 } %41, 1, !dbg !5096
  store i32 %43, i32* %9, align 4, !dbg !5096
  br label %44, !dbg !5096

; <label>:44:                                     ; preds = %40
  %45 = load i8*, i8** %8, align 8, !dbg !5097
  %46 = call i8* @__cxa_begin_catch(i8* %45) #3, !dbg !5097
  %47 = load %"class.indexer::WorkUnit"**, %"class.indexer::WorkUnit"*** %7, align 8, !dbg !5098
  %48 = icmp ne %"class.indexer::WorkUnit"** %47, null, !dbg !5098
  br i1 %48, label %61, label %49, !dbg !5101

; <label>:49:                                     ; preds = %44
  %50 = bitcast %"class.std::vector"* %10 to %"struct.std::_Vector_base"*, !dbg !5102
  %51 = getelementptr inbounds %"struct.std::_Vector_base", %"struct.std::_Vector_base"* %50, i32 0, i32 0, !dbg !5102
  %52 = bitcast %"struct.std::_Vector_base<indexer::WorkUnit *, std::allocator<indexer::WorkUnit *> >::_Vector_impl"* %51 to %"class.std::allocator"*, !dbg !5103
  %53 = load %"class.indexer::WorkUnit"**, %"class.indexer::WorkUnit"*** %6, align 8, !dbg !5104
  %54 = call i64 @_ZNKSt6vectorIPN7indexer8WorkUnitESaIS2_EE4sizeEv(%"class.std::vector"* %10) #3, !dbg !5105
  %55 = getelementptr inbounds %"class.indexer::WorkUnit"*, %"class.indexer::WorkUnit"** %53, i64 %54, !dbg !5106
  invoke void @_ZNSt16allocator_traitsISaIPN7indexer8WorkUnitEEE7destroyIS2_EEvRS3_PT_(%"class.std::allocator"* dereferenceable(1) %52, %"class.indexer::WorkUnit"** %55)
          to label %56 unwind label %57, !dbg !5107

; <label>:56:                                     ; preds = %49
  br label %67, !dbg !5108

; <label>:57:                                     ; preds = %71, %67, %61, %49
  %58 = landingpad { i8*, i32 }
          cleanup, !dbg !5110
  %59 = extractvalue { i8*, i32 } %58, 0, !dbg !5110
  store i8* %59, i8** %8, align 8, !dbg !5110
  %60 = extractvalue { i8*, i32 } %58, 1, !dbg !5110
  store i32 %60, i32* %9, align 4, !dbg !5110
  invoke void @__cxa_end_catch()
          to label %72 unwind label %120, !dbg !5111

; <label>:61:                                     ; preds = %44
  %62 = load %"class.indexer::WorkUnit"**, %"class.indexer::WorkUnit"*** %6, align 8, !dbg !5112
  %63 = load %"class.indexer::WorkUnit"**, %"class.indexer::WorkUnit"*** %7, align 8, !dbg !5113
  %64 = bitcast %"class.std::vector"* %10 to %"struct.std::_Vector_base"*, !dbg !5114
  %65 = call dereferenceable(1) %"class.std::allocator"* @_ZNSt12_Vector_baseIPN7indexer8WorkUnitESaIS2_EE19_M_get_Tp_allocatorEv(%"struct.std::_Vector_base"* %64) #3, !dbg !5114
  invoke void @_ZSt8_DestroyIPPN7indexer8WorkUnitES2_EvT_S4_RSaIT0_E(%"class.indexer::WorkUnit"** %62, %"class.indexer::WorkUnit"** %63, %"class.std::allocator"* dereferenceable(1) %65)
          to label %66 unwind label %57, !dbg !5115

; <label>:66:                                     ; preds = %61
  br label %67

; <label>:67:                                     ; preds = %66, %56
  %68 = bitcast %"class.std::vector"* %10 to %"struct.std::_Vector_base"*, !dbg !5116
  %69 = load %"class.indexer::WorkUnit"**, %"class.indexer::WorkUnit"*** %6, align 8, !dbg !5117
  %70 = load i64, i64* %5, align 8, !dbg !5118
  invoke void @_ZNSt12_Vector_baseIPN7indexer8WorkUnitESaIS2_EE13_M_deallocateEPS2_m(%"struct.std::_Vector_base"* %68, %"class.indexer::WorkUnit"** %69, i64 %70)
          to label %71 unwind label %57, !dbg !5116

; <label>:71:                                     ; preds = %67
  invoke void @__cxa_rethrow() #18
          to label %123 unwind label %57, !dbg !5119

; <label>:72:                                     ; preds = %57
  br label %115, !dbg !5120

; <label>:73:                                     ; preds = %37
  %74 = bitcast %"class.std::vector"* %10 to %"struct.std::_Vector_base"*, !dbg !5122
  %75 = getelementptr inbounds %"struct.std::_Vector_base", %"struct.std::_Vector_base"* %74, i32 0, i32 0, !dbg !5122
  %76 = getelementptr inbounds %"struct.std::_Vector_base<indexer::WorkUnit *, std::allocator<indexer::WorkUnit *> >::_Vector_impl", %"struct.std::_Vector_base<indexer::WorkUnit *, std::allocator<indexer::WorkUnit *> >::_Vector_impl"* %75, i32 0, i32 0, !dbg !5123
  %77 = load %"class.indexer::WorkUnit"**, %"class.indexer::WorkUnit"*** %76, align 8, !dbg !5123
  %78 = bitcast %"class.std::vector"* %10 to %"struct.std::_Vector_base"*, !dbg !5124
  %79 = getelementptr inbounds %"struct.std::_Vector_base", %"struct.std::_Vector_base"* %78, i32 0, i32 0, !dbg !5124
  %80 = getelementptr inbounds %"struct.std::_Vector_base<indexer::WorkUnit *, std::allocator<indexer::WorkUnit *> >::_Vector_impl", %"struct.std::_Vector_base<indexer::WorkUnit *, std::allocator<indexer::WorkUnit *> >::_Vector_impl"* %79, i32 0, i32 1, !dbg !5125
  %81 = load %"class.indexer::WorkUnit"**, %"class.indexer::WorkUnit"*** %80, align 8, !dbg !5125
  %82 = bitcast %"class.std::vector"* %10 to %"struct.std::_Vector_base"*, !dbg !5126
  %83 = call dereferenceable(1) %"class.std::allocator"* @_ZNSt12_Vector_baseIPN7indexer8WorkUnitESaIS2_EE19_M_get_Tp_allocatorEv(%"struct.std::_Vector_base"* %82) #3, !dbg !5126
  call void @_ZSt8_DestroyIPPN7indexer8WorkUnitES2_EvT_S4_RSaIT0_E(%"class.indexer::WorkUnit"** %77, %"class.indexer::WorkUnit"** %81, %"class.std::allocator"* dereferenceable(1) %83), !dbg !5127
  %84 = bitcast %"class.std::vector"* %10 to %"struct.std::_Vector_base"*, !dbg !5128
  %85 = bitcast %"class.std::vector"* %10 to %"struct.std::_Vector_base"*, !dbg !5129
  %86 = getelementptr inbounds %"struct.std::_Vector_base", %"struct.std::_Vector_base"* %85, i32 0, i32 0, !dbg !5129
  %87 = getelementptr inbounds %"struct.std::_Vector_base<indexer::WorkUnit *, std::allocator<indexer::WorkUnit *> >::_Vector_impl", %"struct.std::_Vector_base<indexer::WorkUnit *, std::allocator<indexer::WorkUnit *> >::_Vector_impl"* %86, i32 0, i32 0, !dbg !5130
  %88 = load %"class.indexer::WorkUnit"**, %"class.indexer::WorkUnit"*** %87, align 8, !dbg !5130
  %89 = bitcast %"class.std::vector"* %10 to %"struct.std::_Vector_base"*, !dbg !5131
  %90 = getelementptr inbounds %"struct.std::_Vector_base", %"struct.std::_Vector_base"* %89, i32 0, i32 0, !dbg !5131
  %91 = getelementptr inbounds %"struct.std::_Vector_base<indexer::WorkUnit *, std::allocator<indexer::WorkUnit *> >::_Vector_impl", %"struct.std::_Vector_base<indexer::WorkUnit *, std::allocator<indexer::WorkUnit *> >::_Vector_impl"* %90, i32 0, i32 2, !dbg !5132
  %92 = load %"class.indexer::WorkUnit"**, %"class.indexer::WorkUnit"*** %91, align 8, !dbg !5132
  %93 = bitcast %"class.std::vector"* %10 to %"struct.std::_Vector_base"*, !dbg !5133
  %94 = getelementptr inbounds %"struct.std::_Vector_base", %"struct.std::_Vector_base"* %93, i32 0, i32 0, !dbg !5133
  %95 = getelementptr inbounds %"struct.std::_Vector_base<indexer::WorkUnit *, std::allocator<indexer::WorkUnit *> >::_Vector_impl", %"struct.std::_Vector_base<indexer::WorkUnit *, std::allocator<indexer::WorkUnit *> >::_Vector_impl"* %94, i32 0, i32 0, !dbg !5134
  %96 = load %"class.indexer::WorkUnit"**, %"class.indexer::WorkUnit"*** %95, align 8, !dbg !5134
  %97 = ptrtoint %"class.indexer::WorkUnit"** %92 to i64, !dbg !5135
  %98 = ptrtoint %"class.indexer::WorkUnit"** %96 to i64, !dbg !5135
  %99 = sub i64 %97, %98, !dbg !5135
  %100 = sdiv exact i64 %99, 8, !dbg !5135
  call void @_ZNSt12_Vector_baseIPN7indexer8WorkUnitESaIS2_EE13_M_deallocateEPS2_m(%"struct.std::_Vector_base"* %84, %"class.indexer::WorkUnit"** %88, i64 %100), !dbg !5128
  %101 = load %"class.indexer::WorkUnit"**, %"class.indexer::WorkUnit"*** %6, align 8, !dbg !5136
  %102 = bitcast %"class.std::vector"* %10 to %"struct.std::_Vector_base"*, !dbg !5137
  %103 = getelementptr inbounds %"struct.std::_Vector_base", %"struct.std::_Vector_base"* %102, i32 0, i32 0, !dbg !5137
  %104 = getelementptr inbounds %"struct.std::_Vector_base<indexer::WorkUnit *, std::allocator<indexer::WorkUnit *> >::_Vector_impl", %"struct.std::_Vector_base<indexer::WorkUnit *, std::allocator<indexer::WorkUnit *> >::_Vector_impl"* %103, i32 0, i32 0, !dbg !5138
  store %"class.indexer::WorkUnit"** %101, %"class.indexer::WorkUnit"*** %104, align 8, !dbg !5139
  %105 = load %"class.indexer::WorkUnit"**, %"class.indexer::WorkUnit"*** %7, align 8, !dbg !5140
  %106 = bitcast %"class.std::vector"* %10 to %"struct.std::_Vector_base"*, !dbg !5141
  %107 = getelementptr inbounds %"struct.std::_Vector_base", %"struct.std::_Vector_base"* %106, i32 0, i32 0, !dbg !5141
  %108 = getelementptr inbounds %"struct.std::_Vector_base<indexer::WorkUnit *, std::allocator<indexer::WorkUnit *> >::_Vector_impl", %"struct.std::_Vector_base<indexer::WorkUnit *, std::allocator<indexer::WorkUnit *> >::_Vector_impl"* %107, i32 0, i32 1, !dbg !5142
  store %"class.indexer::WorkUnit"** %105, %"class.indexer::WorkUnit"*** %108, align 8, !dbg !5143
  %109 = load %"class.indexer::WorkUnit"**, %"class.indexer::WorkUnit"*** %6, align 8, !dbg !5144
  %110 = load i64, i64* %5, align 8, !dbg !5145
  %111 = getelementptr inbounds %"class.indexer::WorkUnit"*, %"class.indexer::WorkUnit"** %109, i64 %110, !dbg !5146
  %112 = bitcast %"class.std::vector"* %10 to %"struct.std::_Vector_base"*, !dbg !5147
  %113 = getelementptr inbounds %"struct.std::_Vector_base", %"struct.std::_Vector_base"* %112, i32 0, i32 0, !dbg !5147
  %114 = getelementptr inbounds %"struct.std::_Vector_base<indexer::WorkUnit *, std::allocator<indexer::WorkUnit *> >::_Vector_impl", %"struct.std::_Vector_base<indexer::WorkUnit *, std::allocator<indexer::WorkUnit *> >::_Vector_impl"* %113, i32 0, i32 2, !dbg !5148
  store %"class.indexer::WorkUnit"** %111, %"class.indexer::WorkUnit"*** %114, align 8, !dbg !5149
  ret void, !dbg !5150

; <label>:115:                                    ; preds = %72
  %116 = load i8*, i8** %8, align 8, !dbg !5152
  %117 = load i32, i32* %9, align 4, !dbg !5152
  %118 = insertvalue { i8*, i32 } undef, i8* %116, 0, !dbg !5152
  %119 = insertvalue { i8*, i32 } %118, i32 %117, 1, !dbg !5152
  resume { i8*, i32 } %119, !dbg !5152

; <label>:120:                                    ; preds = %57
  %121 = landingpad { i8*, i32 }
          catch i8* null, !dbg !5154
  %122 = extractvalue { i8*, i32 } %121, 0, !dbg !5154
  call void @__clang_call_terminate(i8* %122) #17, !dbg !5154
  unreachable, !dbg !5154

; <label>:123:                                    ; preds = %71
  unreachable
}

; Function Attrs: nounwind uwtable
define linkonce_odr void @_ZN9__gnu_cxx13new_allocatorIPN7indexer8WorkUnitEE9constructIS3_JS3_EEEvPT_DpOT0_(%"class.__gnu_cxx::new_allocator"*, %"class.indexer::WorkUnit"**, %"class.indexer::WorkUnit"** dereferenceable(8)) #4 comdat align 2 !dbg !5156 {
  %4 = alloca %"class.__gnu_cxx::new_allocator"*, align 8
  %5 = alloca %"class.indexer::WorkUnit"**, align 8
  %6 = alloca %"class.indexer::WorkUnit"**, align 8
  store %"class.__gnu_cxx::new_allocator"* %0, %"class.__gnu_cxx::new_allocator"** %4, align 8
  call void @llvm.dbg.declare(metadata %"class.__gnu_cxx::new_allocator"** %4, metadata !5160, metadata !3206), !dbg !5161
  store %"class.indexer::WorkUnit"** %1, %"class.indexer::WorkUnit"*** %5, align 8
  call void @llvm.dbg.declare(metadata %"class.indexer::WorkUnit"*** %5, metadata !5162, metadata !3206), !dbg !5163
  store %"class.indexer::WorkUnit"** %2, %"class.indexer::WorkUnit"*** %6, align 8
  call void @llvm.dbg.declare(metadata %"class.indexer::WorkUnit"*** %6, metadata !5164, metadata !3206), !dbg !5165
  %7 = load %"class.__gnu_cxx::new_allocator"*, %"class.__gnu_cxx::new_allocator"** %4, align 8
  %8 = load %"class.indexer::WorkUnit"**, %"class.indexer::WorkUnit"*** %5, align 8, !dbg !5166
  %9 = bitcast %"class.indexer::WorkUnit"** %8 to i8*, !dbg !5166
  %10 = bitcast i8* %9 to %"class.indexer::WorkUnit"**, !dbg !5167
  %11 = load %"class.indexer::WorkUnit"**, %"class.indexer::WorkUnit"*** %6, align 8, !dbg !5168
  %12 = call dereferenceable(8) %"class.indexer::WorkUnit"** @_ZSt7forwardIPN7indexer8WorkUnitEEOT_RNSt16remove_referenceIS3_E4typeE(%"class.indexer::WorkUnit"** dereferenceable(8) %11) #3, !dbg !5169
  %13 = load %"class.indexer::WorkUnit"*, %"class.indexer::WorkUnit"** %12, align 8, !dbg !5169
  store %"class.indexer::WorkUnit"* %13, %"class.indexer::WorkUnit"** %10, align 8, !dbg !5167
  ret void, !dbg !5170
}

; Function Attrs: uwtable
define linkonce_odr i64 @_ZNKSt6vectorIPN7indexer8WorkUnitESaIS2_EE12_M_check_lenEmPKc(%"class.std::vector"*, i64, i8*) #0 comdat align 2 !dbg !5171 {
  %4 = alloca %"class.std::vector"*, align 8
  %5 = alloca i64, align 8
  %6 = alloca i8*, align 8
  %7 = alloca i64, align 8
  %8 = alloca i64, align 8
  store %"class.std::vector"* %0, %"class.std::vector"** %4, align 8
  call void @llvm.dbg.declare(metadata %"class.std::vector"** %4, metadata !5172, metadata !3206), !dbg !5174
  store i64 %1, i64* %5, align 8
  call void @llvm.dbg.declare(metadata i64* %5, metadata !5175, metadata !3206), !dbg !5176
  store i8* %2, i8** %6, align 8
  call void @llvm.dbg.declare(metadata i8** %6, metadata !5177, metadata !3206), !dbg !5178
  %9 = load %"class.std::vector"*, %"class.std::vector"** %4, align 8
  %10 = call i64 @_ZNKSt6vectorIPN7indexer8WorkUnitESaIS2_EE8max_sizeEv(%"class.std::vector"* %9) #3, !dbg !5179
  %11 = call i64 @_ZNKSt6vectorIPN7indexer8WorkUnitESaIS2_EE4sizeEv(%"class.std::vector"* %9) #3, !dbg !5181
  %12 = sub i64 %10, %11, !dbg !5183
  %13 = load i64, i64* %5, align 8, !dbg !5184
  %14 = icmp ult i64 %12, %13, !dbg !5185
  br i1 %14, label %15, label %17, !dbg !5186

; <label>:15:                                     ; preds = %3
  %16 = load i8*, i8** %6, align 8, !dbg !5187
  call void @_ZSt20__throw_length_errorPKc(i8* %16) #18, !dbg !5188
  unreachable, !dbg !5188

; <label>:17:                                     ; preds = %3
  call void @llvm.dbg.declare(metadata i64* %7, metadata !5189, metadata !3206), !dbg !5190
  %18 = call i64 @_ZNKSt6vectorIPN7indexer8WorkUnitESaIS2_EE4sizeEv(%"class.std::vector"* %9) #3, !dbg !5191
  %19 = call i64 @_ZNKSt6vectorIPN7indexer8WorkUnitESaIS2_EE4sizeEv(%"class.std::vector"* %9) #3, !dbg !5192
  store i64 %19, i64* %8, align 8, !dbg !5194
  %20 = call dereferenceable(8) i64* @_ZSt3maxImERKT_S2_S2_(i64* dereferenceable(8) %8, i64* dereferenceable(8) %5), !dbg !5195
  %21 = load i64, i64* %20, align 8, !dbg !5197
  %22 = add i64 %18, %21, !dbg !5198
  store i64 %22, i64* %7, align 8, !dbg !5190
  %23 = load i64, i64* %7, align 8, !dbg !5199
  %24 = call i64 @_ZNKSt6vectorIPN7indexer8WorkUnitESaIS2_EE4sizeEv(%"class.std::vector"* %9) #3, !dbg !5200
  %25 = icmp ult i64 %23, %24, !dbg !5201
  br i1 %25, label %30, label %26, !dbg !5202

; <label>:26:                                     ; preds = %17
  %27 = load i64, i64* %7, align 8, !dbg !5203
  %28 = call i64 @_ZNKSt6vectorIPN7indexer8WorkUnitESaIS2_EE8max_sizeEv(%"class.std::vector"* %9) #3, !dbg !5204
  %29 = icmp ugt i64 %27, %28, !dbg !5205
  br i1 %29, label %30, label %32, !dbg !5206

; <label>:30:                                     ; preds = %26, %17
  %31 = call i64 @_ZNKSt6vectorIPN7indexer8WorkUnitESaIS2_EE8max_sizeEv(%"class.std::vector"* %9) #3, !dbg !5207
  br label %34, !dbg !5208

; <label>:32:                                     ; preds = %26
  %33 = load i64, i64* %7, align 8, !dbg !5209
  br label %34, !dbg !5211

; <label>:34:                                     ; preds = %32, %30
  %35 = phi i64 [ %31, %30 ], [ %33, %32 ], !dbg !5212
  ret i64 %35, !dbg !5214
}

; Function Attrs: uwtable
define linkonce_odr %"class.indexer::WorkUnit"** @_ZNSt12_Vector_baseIPN7indexer8WorkUnitESaIS2_EE11_M_allocateEm(%"struct.std::_Vector_base"*, i64) #0 comdat align 2 !dbg !5215 {
  %3 = alloca %"struct.std::_Vector_base"*, align 8
  %4 = alloca i64, align 8
  store %"struct.std::_Vector_base"* %0, %"struct.std::_Vector_base"** %3, align 8
  call void @llvm.dbg.declare(metadata %"struct.std::_Vector_base"** %3, metadata !5216, metadata !3206), !dbg !5217
  store i64 %1, i64* %4, align 8
  call void @llvm.dbg.declare(metadata i64* %4, metadata !5218, metadata !3206), !dbg !5219
  %5 = load %"struct.std::_Vector_base"*, %"struct.std::_Vector_base"** %3, align 8
  %6 = load i64, i64* %4, align 8, !dbg !5220
  %7 = icmp ne i64 %6, 0, !dbg !5221
  br i1 %7, label %8, label %13, !dbg !5220

; <label>:8:                                      ; preds = %2
  %9 = getelementptr inbounds %"struct.std::_Vector_base", %"struct.std::_Vector_base"* %5, i32 0, i32 0, !dbg !5222
  %10 = bitcast %"struct.std::_Vector_base<indexer::WorkUnit *, std::allocator<indexer::WorkUnit *> >::_Vector_impl"* %9 to %"class.std::allocator"*, !dbg !5222
  %11 = load i64, i64* %4, align 8, !dbg !5224
  %12 = call %"class.indexer::WorkUnit"** @_ZNSt16allocator_traitsISaIPN7indexer8WorkUnitEEE8allocateERS3_m(%"class.std::allocator"* dereferenceable(1) %10, i64 %11), !dbg !5225
  br label %14, !dbg !5226

; <label>:13:                                     ; preds = %2
  br label %14, !dbg !5227

; <label>:14:                                     ; preds = %13, %8
  %15 = phi %"class.indexer::WorkUnit"** [ %12, %8 ], [ null, %13 ], !dbg !5229
  ret %"class.indexer::WorkUnit"** %15, !dbg !5231
}

; Function Attrs: nounwind uwtable
define linkonce_odr i64 @_ZNKSt6vectorIPN7indexer8WorkUnitESaIS2_EE4sizeEv(%"class.std::vector"*) #4 comdat align 2 !dbg !5232 {
  %2 = alloca %"class.std::vector"*, align 8
  store %"class.std::vector"* %0, %"class.std::vector"** %2, align 8
  call void @llvm.dbg.declare(metadata %"class.std::vector"** %2, metadata !5233, metadata !3206), !dbg !5234
  %3 = load %"class.std::vector"*, %"class.std::vector"** %2, align 8
  %4 = bitcast %"class.std::vector"* %3 to %"struct.std::_Vector_base"*, !dbg !5235
  %5 = getelementptr inbounds %"struct.std::_Vector_base", %"struct.std::_Vector_base"* %4, i32 0, i32 0, !dbg !5235
  %6 = getelementptr inbounds %"struct.std::_Vector_base<indexer::WorkUnit *, std::allocator<indexer::WorkUnit *> >::_Vector_impl", %"struct.std::_Vector_base<indexer::WorkUnit *, std::allocator<indexer::WorkUnit *> >::_Vector_impl"* %5, i32 0, i32 1, !dbg !5236
  %7 = load %"class.indexer::WorkUnit"**, %"class.indexer::WorkUnit"*** %6, align 8, !dbg !5236
  %8 = bitcast %"class.std::vector"* %3 to %"struct.std::_Vector_base"*, !dbg !5237
  %9 = getelementptr inbounds %"struct.std::_Vector_base", %"struct.std::_Vector_base"* %8, i32 0, i32 0, !dbg !5237
  %10 = getelementptr inbounds %"struct.std::_Vector_base<indexer::WorkUnit *, std::allocator<indexer::WorkUnit *> >::_Vector_impl", %"struct.std::_Vector_base<indexer::WorkUnit *, std::allocator<indexer::WorkUnit *> >::_Vector_impl"* %9, i32 0, i32 0, !dbg !5238
  %11 = load %"class.indexer::WorkUnit"**, %"class.indexer::WorkUnit"*** %10, align 8, !dbg !5238
  %12 = ptrtoint %"class.indexer::WorkUnit"** %7 to i64, !dbg !5239
  %13 = ptrtoint %"class.indexer::WorkUnit"** %11 to i64, !dbg !5239
  %14 = sub i64 %12, %13, !dbg !5239
  %15 = sdiv exact i64 %14, 8, !dbg !5239
  ret i64 %15, !dbg !5240
}

; Function Attrs: inlinehint uwtable
define linkonce_odr %"class.indexer::WorkUnit"** @_ZSt34__uninitialized_move_if_noexcept_aIPPN7indexer8WorkUnitES3_SaIS2_EET0_T_S6_S5_RT1_(%"class.indexer::WorkUnit"**, %"class.indexer::WorkUnit"**, %"class.indexer::WorkUnit"**, %"class.std::allocator"* dereferenceable(1)) #13 comdat !dbg !5241 {
  %5 = alloca %"class.indexer::WorkUnit"**, align 8
  %6 = alloca %"class.indexer::WorkUnit"**, align 8
  %7 = alloca %"class.indexer::WorkUnit"**, align 8
  %8 = alloca %"class.std::allocator"*, align 8
  %9 = alloca %"class.std::move_iterator", align 8
  %10 = alloca %"class.std::move_iterator", align 8
  store %"class.indexer::WorkUnit"** %0, %"class.indexer::WorkUnit"*** %5, align 8
  call void @llvm.dbg.declare(metadata %"class.indexer::WorkUnit"*** %5, metadata !5248, metadata !3206), !dbg !5249
  store %"class.indexer::WorkUnit"** %1, %"class.indexer::WorkUnit"*** %6, align 8
  call void @llvm.dbg.declare(metadata %"class.indexer::WorkUnit"*** %6, metadata !5250, metadata !3206), !dbg !5251
  store %"class.indexer::WorkUnit"** %2, %"class.indexer::WorkUnit"*** %7, align 8
  call void @llvm.dbg.declare(metadata %"class.indexer::WorkUnit"*** %7, metadata !5252, metadata !3206), !dbg !5253
  store %"class.std::allocator"* %3, %"class.std::allocator"** %8, align 8
  call void @llvm.dbg.declare(metadata %"class.std::allocator"** %8, metadata !5254, metadata !3206), !dbg !5255
  %11 = load %"class.indexer::WorkUnit"**, %"class.indexer::WorkUnit"*** %5, align 8, !dbg !5256
  %12 = call %"class.indexer::WorkUnit"** @_ZSt32__make_move_if_noexcept_iteratorIPN7indexer8WorkUnitESt13move_iteratorIPS2_EET0_PT_(%"class.indexer::WorkUnit"** %11), !dbg !5256
  %13 = getelementptr inbounds %"class.std::move_iterator", %"class.std::move_iterator"* %9, i32 0, i32 0, !dbg !5256
  store %"class.indexer::WorkUnit"** %12, %"class.indexer::WorkUnit"*** %13, align 8, !dbg !5256
  %14 = load %"class.indexer::WorkUnit"**, %"class.indexer::WorkUnit"*** %6, align 8, !dbg !5257
  %15 = call %"class.indexer::WorkUnit"** @_ZSt32__make_move_if_noexcept_iteratorIPN7indexer8WorkUnitESt13move_iteratorIPS2_EET0_PT_(%"class.indexer::WorkUnit"** %14), !dbg !5257
  %16 = getelementptr inbounds %"class.std::move_iterator", %"class.std::move_iterator"* %10, i32 0, i32 0, !dbg !5257
  store %"class.indexer::WorkUnit"** %15, %"class.indexer::WorkUnit"*** %16, align 8, !dbg !5257
  %17 = load %"class.indexer::WorkUnit"**, %"class.indexer::WorkUnit"*** %7, align 8, !dbg !5258
  %18 = load %"class.std::allocator"*, %"class.std::allocator"** %8, align 8, !dbg !5259
  %19 = getelementptr inbounds %"class.std::move_iterator", %"class.std::move_iterator"* %9, i32 0, i32 0, !dbg !5260
  %20 = load %"class.indexer::WorkUnit"**, %"class.indexer::WorkUnit"*** %19, align 8, !dbg !5260
  %21 = getelementptr inbounds %"class.std::move_iterator", %"class.std::move_iterator"* %10, i32 0, i32 0, !dbg !5260
  %22 = load %"class.indexer::WorkUnit"**, %"class.indexer::WorkUnit"*** %21, align 8, !dbg !5260
  %23 = call %"class.indexer::WorkUnit"** @_ZSt22__uninitialized_copy_aISt13move_iteratorIPPN7indexer8WorkUnitEES4_S3_ET0_T_S7_S6_RSaIT1_E(%"class.indexer::WorkUnit"** %20, %"class.indexer::WorkUnit"** %22, %"class.indexer::WorkUnit"** %17, %"class.std::allocator"* dereferenceable(1) %18), !dbg !5260
  ret %"class.indexer::WorkUnit"** %23, !dbg !5261
}

; Function Attrs: uwtable
define linkonce_odr void @_ZNSt16allocator_traitsISaIPN7indexer8WorkUnitEEE7destroyIS2_EEvRS3_PT_(%"class.std::allocator"* dereferenceable(1), %"class.indexer::WorkUnit"**) #0 comdat align 2 !dbg !5262 {
  %3 = alloca %"class.std::allocator"*, align 8
  %4 = alloca %"class.indexer::WorkUnit"**, align 8
  store %"class.std::allocator"* %0, %"class.std::allocator"** %3, align 8
  call void @llvm.dbg.declare(metadata %"class.std::allocator"** %3, metadata !5267, metadata !3206), !dbg !5268
  store %"class.indexer::WorkUnit"** %1, %"class.indexer::WorkUnit"*** %4, align 8
  call void @llvm.dbg.declare(metadata %"class.indexer::WorkUnit"*** %4, metadata !5269, metadata !3206), !dbg !5270
  %5 = load %"class.std::allocator"*, %"class.std::allocator"** %3, align 8, !dbg !5271
  %6 = bitcast %"class.std::allocator"* %5 to %"class.__gnu_cxx::new_allocator"*, !dbg !5271
  %7 = load %"class.indexer::WorkUnit"**, %"class.indexer::WorkUnit"*** %4, align 8, !dbg !5272
  call void @_ZN9__gnu_cxx13new_allocatorIPN7indexer8WorkUnitEE7destroyIS3_EEvPT_(%"class.__gnu_cxx::new_allocator"* %6, %"class.indexer::WorkUnit"** %7), !dbg !5273
  ret void, !dbg !5274
}

declare void @__cxa_rethrow()

declare void @__cxa_end_catch()

; Function Attrs: nounwind uwtable
define linkonce_odr i64 @_ZNKSt6vectorIPN7indexer8WorkUnitESaIS2_EE8max_sizeEv(%"class.std::vector"*) #4 comdat align 2 !dbg !5275 {
  %2 = alloca %"class.std::vector"*, align 8
  store %"class.std::vector"* %0, %"class.std::vector"** %2, align 8
  call void @llvm.dbg.declare(metadata %"class.std::vector"** %2, metadata !5276, metadata !3206), !dbg !5277
  %3 = load %"class.std::vector"*, %"class.std::vector"** %2, align 8
  %4 = bitcast %"class.std::vector"* %3 to %"struct.std::_Vector_base"*, !dbg !5278
  %5 = call dereferenceable(1) %"class.std::allocator"* @_ZNKSt12_Vector_baseIPN7indexer8WorkUnitESaIS2_EE19_M_get_Tp_allocatorEv(%"struct.std::_Vector_base"* %4) #3, !dbg !5278
  %6 = call i64 @_ZNSt16allocator_traitsISaIPN7indexer8WorkUnitEEE8max_sizeERKS3_(%"class.std::allocator"* dereferenceable(1) %5) #3, !dbg !5279
  ret i64 %6, !dbg !5281
}

; Function Attrs: noreturn
declare void @_ZSt20__throw_length_errorPKc(i8*) #14

; Function Attrs: inlinehint nounwind uwtable
define linkonce_odr dereferenceable(8) i64* @_ZSt3maxImERKT_S2_S2_(i64* dereferenceable(8), i64* dereferenceable(8)) #9 comdat !dbg !5282 {
  %3 = alloca i64*, align 8
  %4 = alloca i64*, align 8
  %5 = alloca i64*, align 8
  store i64* %0, i64** %4, align 8
  call void @llvm.dbg.declare(metadata i64** %4, metadata !5290, metadata !3206), !dbg !5291
  store i64* %1, i64** %5, align 8
  call void @llvm.dbg.declare(metadata i64** %5, metadata !5292, metadata !3206), !dbg !5293
  %6 = load i64*, i64** %4, align 8, !dbg !5294
  %7 = load i64, i64* %6, align 8, !dbg !5294
  %8 = load i64*, i64** %5, align 8, !dbg !5296
  %9 = load i64, i64* %8, align 8, !dbg !5296
  %10 = icmp ult i64 %7, %9, !dbg !5297
  br i1 %10, label %11, label %13, !dbg !5298

; <label>:11:                                     ; preds = %2
  %12 = load i64*, i64** %5, align 8, !dbg !5299
  store i64* %12, i64** %3, align 8, !dbg !5300
  br label %15, !dbg !5300

; <label>:13:                                     ; preds = %2
  %14 = load i64*, i64** %4, align 8, !dbg !5301
  store i64* %14, i64** %3, align 8, !dbg !5302
  br label %15, !dbg !5302

; <label>:15:                                     ; preds = %13, %11
  %16 = load i64*, i64** %3, align 8, !dbg !5303
  ret i64* %16, !dbg !5303
}

; Function Attrs: nounwind uwtable
define linkonce_odr i64 @_ZNSt16allocator_traitsISaIPN7indexer8WorkUnitEEE8max_sizeERKS3_(%"class.std::allocator"* dereferenceable(1)) #4 comdat align 2 !dbg !5304 {
  %2 = alloca %"class.std::allocator"*, align 8
  store %"class.std::allocator"* %0, %"class.std::allocator"** %2, align 8
  call void @llvm.dbg.declare(metadata %"class.std::allocator"** %2, metadata !5305, metadata !3206), !dbg !5306
  %3 = load %"class.std::allocator"*, %"class.std::allocator"** %2, align 8, !dbg !5307
  %4 = bitcast %"class.std::allocator"* %3 to %"class.__gnu_cxx::new_allocator"*, !dbg !5307
  %5 = call i64 @_ZNK9__gnu_cxx13new_allocatorIPN7indexer8WorkUnitEE8max_sizeEv(%"class.__gnu_cxx::new_allocator"* %4) #3, !dbg !5308
  ret i64 %5, !dbg !5309
}

; Function Attrs: nounwind uwtable
define linkonce_odr dereferenceable(1) %"class.std::allocator"* @_ZNKSt12_Vector_baseIPN7indexer8WorkUnitESaIS2_EE19_M_get_Tp_allocatorEv(%"struct.std::_Vector_base"*) #4 comdat align 2 !dbg !5310 {
  %2 = alloca %"struct.std::_Vector_base"*, align 8
  store %"struct.std::_Vector_base"* %0, %"struct.std::_Vector_base"** %2, align 8
  call void @llvm.dbg.declare(metadata %"struct.std::_Vector_base"** %2, metadata !5311, metadata !3206), !dbg !5313
  %3 = load %"struct.std::_Vector_base"*, %"struct.std::_Vector_base"** %2, align 8
  %4 = getelementptr inbounds %"struct.std::_Vector_base", %"struct.std::_Vector_base"* %3, i32 0, i32 0, !dbg !5314
  %5 = bitcast %"struct.std::_Vector_base<indexer::WorkUnit *, std::allocator<indexer::WorkUnit *> >::_Vector_impl"* %4 to %"class.std::allocator"*, !dbg !5315
  ret %"class.std::allocator"* %5, !dbg !5316
}

; Function Attrs: nounwind uwtable
define linkonce_odr i64 @_ZNK9__gnu_cxx13new_allocatorIPN7indexer8WorkUnitEE8max_sizeEv(%"class.__gnu_cxx::new_allocator"*) #4 comdat align 2 !dbg !5317 {
  %2 = alloca %"class.__gnu_cxx::new_allocator"*, align 8
  store %"class.__gnu_cxx::new_allocator"* %0, %"class.__gnu_cxx::new_allocator"** %2, align 8
  call void @llvm.dbg.declare(metadata %"class.__gnu_cxx::new_allocator"** %2, metadata !5318, metadata !3206), !dbg !5320
  %3 = load %"class.__gnu_cxx::new_allocator"*, %"class.__gnu_cxx::new_allocator"** %2, align 8
  ret i64 2305843009213693951, !dbg !5321
}

; Function Attrs: uwtable
define linkonce_odr %"class.indexer::WorkUnit"** @_ZNSt16allocator_traitsISaIPN7indexer8WorkUnitEEE8allocateERS3_m(%"class.std::allocator"* dereferenceable(1), i64) #0 comdat align 2 !dbg !5322 {
  %3 = alloca %"class.std::allocator"*, align 8
  %4 = alloca i64, align 8
  store %"class.std::allocator"* %0, %"class.std::allocator"** %3, align 8
  call void @llvm.dbg.declare(metadata %"class.std::allocator"** %3, metadata !5323, metadata !3206), !dbg !5324
  store i64 %1, i64* %4, align 8
  call void @llvm.dbg.declare(metadata i64* %4, metadata !5325, metadata !3206), !dbg !5326
  %5 = load %"class.std::allocator"*, %"class.std::allocator"** %3, align 8, !dbg !5327
  %6 = bitcast %"class.std::allocator"* %5 to %"class.__gnu_cxx::new_allocator"*, !dbg !5327
  %7 = load i64, i64* %4, align 8, !dbg !5328
  %8 = call %"class.indexer::WorkUnit"** @_ZN9__gnu_cxx13new_allocatorIPN7indexer8WorkUnitEE8allocateEmPKv(%"class.__gnu_cxx::new_allocator"* %6, i64 %7, i8* null), !dbg !5329
  ret %"class.indexer::WorkUnit"** %8, !dbg !5330
}

; Function Attrs: uwtable
define linkonce_odr %"class.indexer::WorkUnit"** @_ZN9__gnu_cxx13new_allocatorIPN7indexer8WorkUnitEE8allocateEmPKv(%"class.__gnu_cxx::new_allocator"*, i64, i8*) #0 comdat align 2 !dbg !5331 {
  %4 = alloca %"class.__gnu_cxx::new_allocator"*, align 8
  %5 = alloca i64, align 8
  %6 = alloca i8*, align 8
  store %"class.__gnu_cxx::new_allocator"* %0, %"class.__gnu_cxx::new_allocator"** %4, align 8
  call void @llvm.dbg.declare(metadata %"class.__gnu_cxx::new_allocator"** %4, metadata !5332, metadata !3206), !dbg !5333
  store i64 %1, i64* %5, align 8
  call void @llvm.dbg.declare(metadata i64* %5, metadata !5334, metadata !3206), !dbg !5335
  store i8* %2, i8** %6, align 8
  call void @llvm.dbg.declare(metadata i8** %6, metadata !5336, metadata !3206), !dbg !5337
  %7 = load %"class.__gnu_cxx::new_allocator"*, %"class.__gnu_cxx::new_allocator"** %4, align 8
  %8 = load i64, i64* %5, align 8, !dbg !5338
  %9 = call i64 @_ZNK9__gnu_cxx13new_allocatorIPN7indexer8WorkUnitEE8max_sizeEv(%"class.__gnu_cxx::new_allocator"* %7) #3, !dbg !5340
  %10 = icmp ugt i64 %8, %9, !dbg !5341
  br i1 %10, label %11, label %12, !dbg !5342

; <label>:11:                                     ; preds = %3
  call void @_ZSt17__throw_bad_allocv() #18, !dbg !5343
  unreachable, !dbg !5343

; <label>:12:                                     ; preds = %3
  %13 = load i64, i64* %5, align 8, !dbg !5344
  %14 = mul i64 %13, 8, !dbg !5345
  %15 = call i8* @_Znwm(i64 %14), !dbg !5346
  %16 = bitcast i8* %15 to %"class.indexer::WorkUnit"**, !dbg !5347
  ret %"class.indexer::WorkUnit"** %16, !dbg !5348
}

; Function Attrs: noreturn
declare void @_ZSt17__throw_bad_allocv() #14

; Function Attrs: inlinehint uwtable
define linkonce_odr %"class.indexer::WorkUnit"** @_ZSt22__uninitialized_copy_aISt13move_iteratorIPPN7indexer8WorkUnitEES4_S3_ET0_T_S7_S6_RSaIT1_E(%"class.indexer::WorkUnit"**, %"class.indexer::WorkUnit"**, %"class.indexer::WorkUnit"**, %"class.std::allocator"* dereferenceable(1)) #13 comdat !dbg !5349 {
  %5 = alloca %"class.std::move_iterator", align 8
  %6 = alloca %"class.std::move_iterator", align 8
  %7 = alloca %"class.indexer::WorkUnit"**, align 8
  %8 = alloca %"class.std::allocator"*, align 8
  %9 = alloca %"class.std::move_iterator", align 8
  %10 = alloca %"class.std::move_iterator", align 8
  %11 = getelementptr inbounds %"class.std::move_iterator", %"class.std::move_iterator"* %5, i32 0, i32 0
  store %"class.indexer::WorkUnit"** %0, %"class.indexer::WorkUnit"*** %11, align 8
  %12 = getelementptr inbounds %"class.std::move_iterator", %"class.std::move_iterator"* %6, i32 0, i32 0
  store %"class.indexer::WorkUnit"** %1, %"class.indexer::WorkUnit"*** %12, align 8
  call void @llvm.dbg.declare(metadata %"class.std::move_iterator"* %5, metadata !5354, metadata !3206), !dbg !5355
  call void @llvm.dbg.declare(metadata %"class.std::move_iterator"* %6, metadata !5356, metadata !3206), !dbg !5357
  store %"class.indexer::WorkUnit"** %2, %"class.indexer::WorkUnit"*** %7, align 8
  call void @llvm.dbg.declare(metadata %"class.indexer::WorkUnit"*** %7, metadata !5358, metadata !3206), !dbg !5359
  store %"class.std::allocator"* %3, %"class.std::allocator"** %8, align 8
  call void @llvm.dbg.declare(metadata %"class.std::allocator"** %8, metadata !5360, metadata !3206), !dbg !5361
  %13 = bitcast %"class.std::move_iterator"* %9 to i8*, !dbg !5362
  %14 = bitcast %"class.std::move_iterator"* %5 to i8*, !dbg !5362
  call void @llvm.memcpy.p0i8.p0i8.i64(i8* %13, i8* %14, i64 8, i32 8, i1 false), !dbg !5362
  %15 = bitcast %"class.std::move_iterator"* %10 to i8*, !dbg !5363
  %16 = bitcast %"class.std::move_iterator"* %6 to i8*, !dbg !5363
  call void @llvm.memcpy.p0i8.p0i8.i64(i8* %15, i8* %16, i64 8, i32 8, i1 false), !dbg !5364
  %17 = load %"class.indexer::WorkUnit"**, %"class.indexer::WorkUnit"*** %7, align 8, !dbg !5366
  %18 = getelementptr inbounds %"class.std::move_iterator", %"class.std::move_iterator"* %9, i32 0, i32 0, !dbg !5367
  %19 = load %"class.indexer::WorkUnit"**, %"class.indexer::WorkUnit"*** %18, align 8, !dbg !5367
  %20 = getelementptr inbounds %"class.std::move_iterator", %"class.std::move_iterator"* %10, i32 0, i32 0, !dbg !5367
  %21 = load %"class.indexer::WorkUnit"**, %"class.indexer::WorkUnit"*** %20, align 8, !dbg !5367
  %22 = call %"class.indexer::WorkUnit"** @_ZSt18uninitialized_copyISt13move_iteratorIPPN7indexer8WorkUnitEES4_ET0_T_S7_S6_(%"class.indexer::WorkUnit"** %19, %"class.indexer::WorkUnit"** %21, %"class.indexer::WorkUnit"** %17), !dbg !5368
  ret %"class.indexer::WorkUnit"** %22, !dbg !5370
}

; Function Attrs: inlinehint uwtable
define linkonce_odr %"class.indexer::WorkUnit"** @_ZSt32__make_move_if_noexcept_iteratorIPN7indexer8WorkUnitESt13move_iteratorIPS2_EET0_PT_(%"class.indexer::WorkUnit"**) #13 comdat !dbg !5371 {
  %2 = alloca %"class.std::move_iterator", align 8
  %3 = alloca %"class.indexer::WorkUnit"**, align 8
  store %"class.indexer::WorkUnit"** %0, %"class.indexer::WorkUnit"*** %3, align 8
  call void @llvm.dbg.declare(metadata %"class.indexer::WorkUnit"*** %3, metadata !5376, metadata !3206), !dbg !5377
  %4 = load %"class.indexer::WorkUnit"**, %"class.indexer::WorkUnit"*** %3, align 8, !dbg !5378
  call void @_ZNSt13move_iteratorIPPN7indexer8WorkUnitEEC2ES3_(%"class.std::move_iterator"* %2, %"class.indexer::WorkUnit"** %4), !dbg !5379
  %5 = getelementptr inbounds %"class.std::move_iterator", %"class.std::move_iterator"* %2, i32 0, i32 0, !dbg !5380
  %6 = load %"class.indexer::WorkUnit"**, %"class.indexer::WorkUnit"*** %5, align 8, !dbg !5380
  ret %"class.indexer::WorkUnit"** %6, !dbg !5380
}

; Function Attrs: inlinehint uwtable
define linkonce_odr %"class.indexer::WorkUnit"** @_ZSt18uninitialized_copyISt13move_iteratorIPPN7indexer8WorkUnitEES4_ET0_T_S7_S6_(%"class.indexer::WorkUnit"**, %"class.indexer::WorkUnit"**, %"class.indexer::WorkUnit"**) #13 comdat !dbg !5381 {
  %4 = alloca %"class.std::move_iterator", align 8
  %5 = alloca %"class.std::move_iterator", align 8
  %6 = alloca %"class.indexer::WorkUnit"**, align 8
  %7 = alloca i8, align 1
  %8 = alloca %"class.std::move_iterator", align 8
  %9 = alloca %"class.std::move_iterator", align 8
  %10 = getelementptr inbounds %"class.std::move_iterator", %"class.std::move_iterator"* %4, i32 0, i32 0
  store %"class.indexer::WorkUnit"** %0, %"class.indexer::WorkUnit"*** %10, align 8
  %11 = getelementptr inbounds %"class.std::move_iterator", %"class.std::move_iterator"* %5, i32 0, i32 0
  store %"class.indexer::WorkUnit"** %1, %"class.indexer::WorkUnit"*** %11, align 8
  call void @llvm.dbg.declare(metadata %"class.std::move_iterator"* %4, metadata !5385, metadata !3206), !dbg !5386
  call void @llvm.dbg.declare(metadata %"class.std::move_iterator"* %5, metadata !5387, metadata !3206), !dbg !5388
  store %"class.indexer::WorkUnit"** %2, %"class.indexer::WorkUnit"*** %6, align 8
  call void @llvm.dbg.declare(metadata %"class.indexer::WorkUnit"*** %6, metadata !5389, metadata !3206), !dbg !5390
  call void @llvm.dbg.declare(metadata i8* %7, metadata !5391, metadata !3206), !dbg !5392
  store i8 1, i8* %7, align 1, !dbg !5392
  %12 = bitcast %"class.std::move_iterator"* %8 to i8*, !dbg !5393
  %13 = bitcast %"class.std::move_iterator"* %4 to i8*, !dbg !5393
  call void @llvm.memcpy.p0i8.p0i8.i64(i8* %12, i8* %13, i64 8, i32 8, i1 false), !dbg !5393
  %14 = bitcast %"class.std::move_iterator"* %9 to i8*, !dbg !5394
  %15 = bitcast %"class.std::move_iterator"* %5 to i8*, !dbg !5394
  call void @llvm.memcpy.p0i8.p0i8.i64(i8* %14, i8* %15, i64 8, i32 8, i1 false), !dbg !5395
  %16 = load %"class.indexer::WorkUnit"**, %"class.indexer::WorkUnit"*** %6, align 8, !dbg !5397
  %17 = getelementptr inbounds %"class.std::move_iterator", %"class.std::move_iterator"* %8, i32 0, i32 0, !dbg !5398
  %18 = load %"class.indexer::WorkUnit"**, %"class.indexer::WorkUnit"*** %17, align 8, !dbg !5398
  %19 = getelementptr inbounds %"class.std::move_iterator", %"class.std::move_iterator"* %9, i32 0, i32 0, !dbg !5398
  %20 = load %"class.indexer::WorkUnit"**, %"class.indexer::WorkUnit"*** %19, align 8, !dbg !5398
  %21 = call %"class.indexer::WorkUnit"** @_ZNSt20__uninitialized_copyILb1EE13__uninit_copyISt13move_iteratorIPPN7indexer8WorkUnitEES6_EET0_T_S9_S8_(%"class.indexer::WorkUnit"** %18, %"class.indexer::WorkUnit"** %20, %"class.indexer::WorkUnit"** %16), !dbg !5398
  ret %"class.indexer::WorkUnit"** %21, !dbg !5399
}

; Function Attrs: uwtable
define linkonce_odr %"class.indexer::WorkUnit"** @_ZNSt20__uninitialized_copyILb1EE13__uninit_copyISt13move_iteratorIPPN7indexer8WorkUnitEES6_EET0_T_S9_S8_(%"class.indexer::WorkUnit"**, %"class.indexer::WorkUnit"**, %"class.indexer::WorkUnit"**) #0 comdat align 2 !dbg !5400 {
  %4 = alloca %"class.std::move_iterator", align 8
  %5 = alloca %"class.std::move_iterator", align 8
  %6 = alloca %"class.indexer::WorkUnit"**, align 8
  %7 = alloca %"class.std::move_iterator", align 8
  %8 = alloca %"class.std::move_iterator", align 8
  %9 = getelementptr inbounds %"class.std::move_iterator", %"class.std::move_iterator"* %4, i32 0, i32 0
  store %"class.indexer::WorkUnit"** %0, %"class.indexer::WorkUnit"*** %9, align 8
  %10 = getelementptr inbounds %"class.std::move_iterator", %"class.std::move_iterator"* %5, i32 0, i32 0
  store %"class.indexer::WorkUnit"** %1, %"class.indexer::WorkUnit"*** %10, align 8
  call void @llvm.dbg.declare(metadata %"class.std::move_iterator"* %4, metadata !5405, metadata !3206), !dbg !5406
  call void @llvm.dbg.declare(metadata %"class.std::move_iterator"* %5, metadata !5407, metadata !3206), !dbg !5408
  store %"class.indexer::WorkUnit"** %2, %"class.indexer::WorkUnit"*** %6, align 8
  call void @llvm.dbg.declare(metadata %"class.indexer::WorkUnit"*** %6, metadata !5409, metadata !3206), !dbg !5410
  %11 = bitcast %"class.std::move_iterator"* %7 to i8*, !dbg !5411
  %12 = bitcast %"class.std::move_iterator"* %4 to i8*, !dbg !5411
  call void @llvm.memcpy.p0i8.p0i8.i64(i8* %11, i8* %12, i64 8, i32 8, i1 false), !dbg !5411
  %13 = bitcast %"class.std::move_iterator"* %8 to i8*, !dbg !5412
  %14 = bitcast %"class.std::move_iterator"* %5 to i8*, !dbg !5412
  call void @llvm.memcpy.p0i8.p0i8.i64(i8* %13, i8* %14, i64 8, i32 8, i1 false), !dbg !5413
  %15 = load %"class.indexer::WorkUnit"**, %"class.indexer::WorkUnit"*** %6, align 8, !dbg !5415
